; Listing generated by Microsoft (R) Optimizing Compiler Version 19.29.30037.0 

	TITLE	G:\Germany\Scanner\Firmware\Display_Board\TouchGFX\build\Debug\obj\BitmapDatabase.obj
	.686P
	.XMM
	include listing.inc
	.model	flat

INCLUDELIB MSVCRTD
INCLUDELIB OLDNAMES

EXTRN	?image_audio_background@@3QBEB:BYTE		; image_audio_background
EXTRN	?image_blue_buttons_round_edge_icon_button@@3QBEB:BYTE ; image_blue_buttons_round_edge_icon_button
EXTRN	?image_blue_buttons_round_edge_icon_button_pressed@@3QBEB:BYTE ; image_blue_buttons_round_edge_icon_button_pressed
EXTRN	?image_blue_slider_horizontal_large_indicators_slider_round_nob@@3QBEB:BYTE ; image_blue_slider_horizontal_large_indicators_slider_round_nob
EXTRN	?image_blue_slider_horizontal_large_slider_round_back@@3QBEB:BYTE ; image_blue_slider_horizontal_large_slider_round_back
EXTRN	?image_blue_slider_horizontal_large_slider_round_fill@@3QBEB:BYTE ; image_blue_slider_horizontal_large_slider_round_fill
EXTRN	?image_buton2@@3QBEB:BYTE			; image_buton2
EXTRN	?image_button_actuator@@3QBEB:BYTE		; image_button_actuator
EXTRN	?image_button_back@@3QBEB:BYTE			; image_button_back
EXTRN	?image_button_button_back_s@@3QBEB:BYTE		; image_button_button_back_s
EXTRN	?image_button_coding@@3QBEB:BYTE		; image_button_coding
EXTRN	?image_button_delete_errors@@3QBEB:BYTE		; image_button_delete_errors
EXTRN	?image_button_deleteerr@@3QBEB:BYTE		; image_button_deleteerr
EXTRN	?image_button_diagnose_icon@@3QBEB:BYTE		; image_button_diagnose_icon
EXTRN	?image_button_filter@@3QBEB:BYTE		; image_button_filter
EXTRN	?image_button_filter_s@@3QBEB:BYTE		; image_button_filter_s
EXTRN	?image_button_home@@3QBEB:BYTE			; image_button_home
EXTRN	?image_button_home_s@@3QBEB:BYTE		; image_button_home_s
EXTRN	?image_button_information@@3QBEB:BYTE		; image_button_information
EXTRN	?image_button_light_selector@@3QBEB:BYTE	; image_button_light_selector
EXTRN	?image_button_light_selector_239x239@@3QBEB:BYTE ; image_button_light_selector_239x239
EXTRN	?image_button_live_data@@3QBEB:BYTE		; image_button_live_data
EXTRN	?image_button_read_errors@@3QBEB:BYTE		; image_button_read_errors
EXTRN	?image_button_save@@3QBEB:BYTE			; image_button_save
EXTRN	?image_button_save_s@@3QBEB:BYTE		; image_button_save_s
EXTRN	?image_button_service_functions@@3QBEB:BYTE	; image_button_service_functions
EXTRN	?image_button_settings@@3QBEB:BYTE		; image_button_settings
EXTRN	?image_button_settings_239x239@@3QBEB:BYTE	; image_button_settings_239x239
EXTRN	?image_button_settings_s@@3QBEB:BYTE		; image_button_settings_s
EXTRN	?image_button_support@@3QBEB:BYTE		; image_button_support
EXTRN	?image_button_touser@@3QBEB:BYTE		; image_button_touser
EXTRN	?image_button_touser_s@@3QBEB:BYTE		; image_button_touser_s
EXTRN	?image_button_update@@3QBEB:BYTE		; image_button_update
EXTRN	?image_button_user_data@@3QBEB:BYTE		; image_button_user_data
EXTRN	?image_button_wifi@@3QBEB:BYTE			; image_button_wifi
EXTRN	?image_device@@3QBEB:BYTE			; image_device
EXTRN	?image_error_box@@3QBEB:BYTE			; image_error_box
EXTRN	?image_icon_abs@@3QBEB:BYTE			; image_icon_abs
EXTRN	?image_icon_airbag@@3QBEB:BYTE			; image_icon_airbag
EXTRN	?image_icon_aktivtemptomat@@3QBEB:BYTE		; image_icon_aktivtemptomat
EXTRN	?image_icon_as_al_afs@@3QBEB:BYTE		; image_icon_as_al_afs
EXTRN	?image_icon_ctm_cvm@@3QBEB:BYTE			; image_icon_ctm_cvm
EXTRN	?image_icon_ecu@@3QBEB:BYTE			; image_icon_ecu
EXTRN	?image_icon_edc@@3QBEB:BYTE			; image_icon_edc
EXTRN	?image_icon_ehc@@3QBEB:BYTE			; image_icon_ehc
EXTRN	?image_icon_ekp@@3QBEB:BYTE			; image_icon_ekp
EXTRN	?image_icon_elektro_servolenkung@@3QBEB:BYTE	; image_icon_elektro_servolenkung
EXTRN	?image_icon_feststellbremse@@3QBEB:BYTE		; image_icon_feststellbremse
EXTRN	?image_icon_gangwahlshalter@@3QBEB:BYTE		; image_icon_gangwahlshalter
EXTRN	?image_icon_getriebe@@3QBEB:BYTE		; image_icon_getriebe
EXTRN	?image_icon_hkl@@3QBEB:BYTE			; image_icon_hkl
EXTRN	?image_icon_instrumententafel@@3QBEB:BYTE	; image_icon_instrumententafel
EXTRN	?image_icon_kafas@@3QBEB:BYTE			; image_icon_kafas
EXTRN	?image_icon_ldm@@3QBEB:BYTE			; image_icon_ldm
EXTRN	?image_icon_lenkwinkelsensor@@3QBEB:BYTE	; image_icon_lenkwinkelsensor
EXTRN	?image_icon_motor@@3QBEB:BYTE			; image_icon_motor
EXTRN	?image_icon_nav@@3QBEB:BYTE			; image_icon_nav
EXTRN	?image_icon_parkabstandsregelung@@3QBEB:BYTE	; image_icon_parkabstandsregelung
EXTRN	?image_icon_pma@@3QBEB:BYTE			; image_icon_pma
EXTRN	?image_icon_regen_lichtsensor@@3QBEB:BYTE	; image_icon_regen_lichtsensor
EXTRN	?image_icon_reifendruckuberwachung@@3QBEB:BYTE	; image_icon_reifendruckuberwachung
EXTRN	?image_icon_scr@@3QBEB:BYTE			; image_icon_scr
EXTRN	?image_icon_shd@@3QBEB:BYTE			; image_icon_shd
EXTRN	?image_icon_sitzmodul@@3QBEB:BYTE		; image_icon_sitzmodul
EXTRN	?image_icon_sme@@3QBEB:BYTE			; image_icon_sme
EXTRN	?image_icon_snow@@3QBEB:BYTE			; image_icon_snow
EXTRN	?image_icon_sww@@3QBEB:BYTE			; image_icon_sww
EXTRN	?image_icon_tlc@@3QBEB:BYTE			; image_icon_tlc
EXTRN	?image_icon_verteilergetriebe@@3QBEB:BYTE	; image_icon_verteilergetriebe
EXTRN	?image_image@@3QBEB:BYTE			; image_image
EXTRN	?image_keyboard_close@@3QBEB:BYTE		; image_keyboard_close
EXTRN	?image_keyboard_normal@@3QBEB:BYTE		; image_keyboard_normal
EXTRN	?image_keyboard_pressed@@3QBEB:BYTE		; image_keyboard_pressed
EXTRN	?image_keyboard_pressed_backspace@@3QBEB:BYTE	; image_keyboard_pressed_backspace
EXTRN	?image_keyboard_pressed_capslock@@3QBEB:BYTE	; image_keyboard_pressed_capslock
EXTRN	?image_keyboard_pressed_done@@3QBEB:BYTE	; image_keyboard_pressed_done
EXTRN	?image_keyboard_pressed_key@@3QBEB:BYTE		; image_keyboard_pressed_key
EXTRN	?image_keyboard_pressed_mode@@3QBEB:BYTE	; image_keyboard_pressed_mode
EXTRN	?image_keyboard_pressed_space@@3QBEB:BYTE	; image_keyboard_pressed_space
EXTRN	?image_loading@@3QBEB:BYTE			; image_loading
EXTRN	?image_maindark1@@3QBEB:BYTE			; image_maindark1
EXTRN	?image_no_wifi@@3QBEB:BYTE			; image_no_wifi
EXTRN	?image_pkwselector@@3QBEB:BYTE			; image_pkwselector
EXTRN	?image_trye_again_button@@3QBEB:BYTE		; image_trye_again_button
EXTRN	?image_ui_settings@@3QBEB:BYTE			; image_ui_settings
EXTRN	?image_waiting_ico@@3QBEB:BYTE			; image_waiting_ico
EXTRN	?image_wifi_1@@3QBEB:BYTE			; image_wifi_1
EXTRN	?image_wifi_2@@3QBEB:BYTE			; image_wifi_2
EXTRN	?image_wifi_3@@3QBEB:BYTE			; image_wifi_3
EXTRN	?image_wifi_dot@@3QBEB:BYTE			; image_wifi_dot
EXTRN	?image_wifi_dot_icon_2x@@3QBEB:BYTE		; image_wifi_dot_icon_2x
EXTRN	?image_wifi_dot_settings@@3QBEB:BYTE		; image_wifi_dot_settings
EXTRN	?image_wifi_error@@3QBEB:BYTE			; image_wifi_error
EXTRN	?image_wifi_full@@3QBEB:BYTE			; image_wifi_full
EXTRN	?image_wifi_full_icon_2x@@3QBEB:BYTE		; image_wifi_full_icon_2x
EXTRN	?image_wifi_full_settings@@3QBEB:BYTE		; image_wifi_full_settings
EXTRN	?image_wifi_level_1@@3QBEB:BYTE			; image_wifi_level_1
EXTRN	?image_wifi_level_2@@3QBEB:BYTE			; image_wifi_level_2
EXTRN	?image_wifi_level_3@@3QBEB:BYTE			; image_wifi_level_3
EXTRN	?image_wifi_level_4@@3QBEB:BYTE			; image_wifi_level_4
EXTRN	?image_wifi_lock@@3QBEB:BYTE			; image_wifi_lock
EXTRN	?image_wifi_low@@3QBEB:BYTE			; image_wifi_low
EXTRN	?image_wifi_low_icon_2x@@3QBEB:BYTE		; image_wifi_low_icon_2x
EXTRN	?image_wifi_low_settings@@3QBEB:BYTE		; image_wifi_low_settings
EXTRN	?image_wifi_mid@@3QBEB:BYTE			; image_wifi_mid
EXTRN	?image_wifi_mid_icon_2x@@3QBEB:BYTE		; image_wifi_mid_icon_2x
EXTRN	?image_wifi_mid_settings@@3QBEB:BYTE		; image_wifi_mid_settings
msvcjmc	SEGMENT
__EBE8CD87_Types@hpp DB 01H
__A92A06CE_Bitmap@hpp DB 01H
__C74DB028_BitmapDatabase@cpp DB 01H
msvcjmc	ENDS
CONST	SEGMENT
?bitmap_database@@3QBUBitmapData@Bitmap@touchgfx@@B DD FLAT:?image_audio_background@@3QBEB ; bitmap_database
	DD	00H
	DW	0320H
	DW	01e0H
	DW	00H
	DW	00H
	DW	0320H
	DW	021e0H
	DD	FLAT:?image_blue_buttons_round_edge_icon_button@@3QBEB
	DD	00H
	DW	03cH
	DW	03cH
	DW	07H
	DW	06H
	DW	02eH
	DW	0402eH
	DD	FLAT:?image_blue_buttons_round_edge_icon_button_pressed@@3QBEB
	DD	00H
	DW	03cH
	DW	03cH
	DW	07H
	DW	06H
	DW	02eH
	DW	0402eH
	DD	FLAT:?image_blue_slider_horizontal_large_indicators_slider_round_nob@@3QBEB
	DD	00H
	DW	03aH
	DW	03aH
	DW	0aH
	DW	09H
	DW	026H
	DW	04026H
	DD	FLAT:?image_blue_slider_horizontal_large_slider_round_back@@3QBEB
	DD	00H
	DW	02a0H
	DW	0fH
	DW	07H
	DW	01H
	DW	0292H
	DW	0400cH
	DD	FLAT:?image_blue_slider_horizontal_large_slider_round_fill@@3QBEB
	DD	00H
	DW	02a0H
	DW	0fH
	DW	07H
	DW	00H
	DW	0292H
	DW	0400eH
	DD	FLAT:?image_buton2@@3QBEB
	DD	00H
	DW	0a7H
	DW	01d7H
	DW	00H
	DW	00H
	DW	0a7H
	DW	021d7H
	DD	FLAT:?image_button_actuator@@3QBEB
	DD	00H
	DW	0f0H
	DW	0c7H
	DW	056H
	DW	03aH
	DW	045H
	DW	0404fH
	DD	FLAT:?image_button_back@@3QBEB
	DD	00H
	DW	051H
	DW	051H
	DW	032H
	DW	01aH
	DW	01H
	DW	04005H
	DD	FLAT:?image_button_button_back_s@@3QBEB
	DD	00H
	DW	051H
	DW	051H
	DW	032H
	DW	01aH
	DW	01H
	DW	04005H
	DD	FLAT:?image_button_coding@@3QBEB
	DD	00H
	DW	0f0H
	DW	0c7H
	DW	050H
	DW	047H
	DW	04eH
	DW	0402fH
	DD	FLAT:?image_button_delete_errors@@3QBEB
	DD	00H
	DW	0f0H
	DW	0c7H
	DW	054H
	DW	064H
	DW	045H
	DW	04025H
	DD	FLAT:?image_button_deleteerr@@3QBEB
	DD	00H
	DW	03cH
	DW	03cH
	DW	06H
	DW	05H
	DW	030H
	DW	04032H
	DD	FLAT:?image_button_diagnose_icon@@3QBEB
	DD	00H
	DW	01aH
	DW	01aH
	DW	07H
	DW	0bH
	DW	0bH
	DW	04001H
	DD	FLAT:?image_button_filter@@3QBEB
	DD	00H
	DW	03cH
	DW	03cH
	DW	0fH
	DW	010H
	DW	01eH
	DW	04001H
	DD	FLAT:?image_button_filter_s@@3QBEB
	DD	00H
	DW	03cH
	DW	03cH
	DW	0fH
	DW	010H
	DW	01eH
	DW	04001H
	DD	FLAT:?image_button_home@@3QBEB
	DD	00H
	DW	051H
	DW	051H
	DW	01eH
	DW	036H
	DW	016H
	DW	04001H
	DD	FLAT:?image_button_home_s@@3QBEB
	DD	00H
	DW	051H
	DW	051H
	DW	01eH
	DW	036H
	DW	016H
	DW	04001H
	DD	FLAT:?image_button_information@@3QBEB
	DD	00H
	DW	0efH
	DW	0efH
	DW	06aH
	DW	059H
	DW	023H
	DW	04045H
	DD	FLAT:?image_button_light_selector@@3QBEB
	DD	00H
	DW	0f0H
	DW	0c7H
	DW	00H
	DW	00H
	DW	00H
	DW	04000H
	DD	FLAT:?image_button_light_selector_239x239@@3QBEB
	DD	00H
	DW	0efH
	DW	0efH
	DW	00H
	DW	00H
	DW	00H
	DW	04000H
	DD	FLAT:?image_button_live_data@@3QBEB
	DD	00H
	DW	0f0H
	DW	0c7H
	DW	058H
	DW	03dH
	DW	03fH
	DW	0404dH
	DD	FLAT:?image_button_read_errors@@3QBEB
	DD	00H
	DW	0f0H
	DW	0c7H
	DW	059H
	DW	060H
	DW	03eH
	DW	04027H
	DD	FLAT:?image_button_save@@3QBEB
	DD	00H
	DW	03cH
	DW	03cH
	DW	015H
	DW	02fH
	DW	014H
	DW	04001H
	DD	FLAT:?image_button_save_s@@3QBEB
	DD	00H
	DW	03cH
	DW	03cH
	DW	015H
	DW	02fH
	DW	014H
	DW	04001H
	DD	FLAT:?image_button_service_functions@@3QBEB
	DD	00H
	DW	0f0H
	DW	0c7H
	DW	06cH
	DW	047H
	DW	012H
	DW	04045H
	DD	FLAT:?image_button_settings@@3QBEB
	DD	00H
	DW	051H
	DW	051H
	DW	026H
	DW	022H
	DW	06H
	DW	04001H
	DD	FLAT:?image_button_settings_239x239@@3QBEB
	DD	00H
	DW	0efH
	DW	0efH
	DW	079H
	DW	054H
	DW	0eH
	DW	0403bH
	DD	FLAT:?image_button_settings_s@@3QBEB
	DD	00H
	DW	051H
	DW	051H
	DW	026H
	DW	022H
	DW	06H
	DW	04001H
	DD	FLAT:?image_button_support@@3QBEB
	DD	00H
	DW	0efH
	DW	0efH
	DW	059H
	DW	08bH
	DW	0bH
	DW	04011H
	DD	FLAT:?image_button_touser@@3QBEB
	DD	00H
	DW	03cH
	DW	03cH
	DW	02cH
	DW	02bH
	DW	02H
	DW	04006H
	DD	FLAT:?image_button_touser_s@@3QBEB
	DD	00H
	DW	03cH
	DW	03cH
	DW	02cH
	DW	02bH
	DW	02H
	DW	04006H
	DD	FLAT:?image_button_update@@3QBEB
	DD	00H
	DW	0efH
	DW	0efH
	DW	04dH
	DW	060H
	DW	044H
	DW	04033H
	DD	FLAT:?image_button_user_data@@3QBEB
	DD	00H
	DW	0efH
	DW	0efH
	DW	067H
	DW	052H
	DW	020H
	DW	04052H
	DD	FLAT:?image_button_wifi@@3QBEB
	DD	00H
	DW	0efH
	DW	0efH
	DW	083H
	DW	06aH
	DW	019H
	DW	0401bH
	DD	FLAT:?image_device@@3QBEB
	DD	00H
	DW	0e3H
	DW	09aH
	DW	03eH
	DW	02fH
	DW	074H
	DW	0404aH
	DD	FLAT:?image_error_box@@3QBEB
	DD	00H
	DW	0230H
	DW	014aH
	DW	00H
	DW	00H
	DW	00H
	DW	04000H
	DD	FLAT:?image_icon_abs@@3QBEB
	DD	00H
	DW	044H
	DW	044H
	DW	020H
	DW	01dH
	DW	01H
	DW	04009H
	DD	FLAT:?image_icon_airbag@@3QBEB
	DD	00H
	DW	044H
	DW	044H
	DW	01fH
	DW	025H
	DW	09H
	DW	04001H
	DD	FLAT:?image_icon_aktivtemptomat@@3QBEB
	DD	00H
	DW	044H
	DW	044H
	DW	01cH
	DW	012H
	DW	0eH
	DW	04001H
	DD	FLAT:?image_icon_as_al_afs@@3QBEB
	DD	00H
	DW	044H
	DW	044H
	DW	01dH
	DW	027H
	DW	01H
	DW	0400fH
	DD	FLAT:?image_icon_ctm_cvm@@3QBEB
	DD	00H
	DW	044H
	DW	044H
	DW	01cH
	DW	020H
	DW	020H
	DW	04001H
	DD	FLAT:?image_icon_ecu@@3QBEB
	DD	00H
	DW	044H
	DW	044H
	DW	033H
	DW	012H
	DW	01H
	DW	04021H
	DD	FLAT:?image_icon_edc@@3QBEB
	DD	00H
	DW	044H
	DW	044H
	DW	02dH
	DW	01cH
	DW	03H
	DW	04002H
	DD	FLAT:?image_icon_ehc@@3QBEB
	DD	00H
	DW	044H
	DW	044H
	DW	01bH
	DW	02fH
	DW	0eH
	DW	04002H
	DD	FLAT:?image_icon_ekp@@3QBEB
	DD	00H
	DW	044H
	DW	044H
	DW	01eH
	DW	014H
	DW	01H
	DW	0401dH
	DD	FLAT:?image_icon_elektro_servolenkung@@3QBEB
	DD	00H
	DW	044H
	DW	044H
	DW	017H
	DW	029H
	DW	017H
	DW	04001H
	DD	FLAT:?image_icon_feststellbremse@@3QBEB
	DD	00H
	DW	044H
	DW	044H
	DW	020H
	DW	01dH
	DW	01H
	DW	04009H
	DD	FLAT:?image_icon_gangwahlshalter@@3QBEB
	DD	00H
	DW	044H
	DW	044H
	DW	02eH
	DW	0fH
	DW	02H
	DW	04026H
	DD	FLAT:?image_icon_getriebe@@3QBEB
	DD	00H
	DW	044H
	DW	044H
	DW	02fH
	DW	019H
	DW	02H
	DW	04012H
	DD	FLAT:?image_icon_hkl@@3QBEB
	DD	00H
	DW	044H
	DW	044H
	DW	0fH
	DW	010H
	DW	0dH
	DW	04002H
	DD	FLAT:?image_icon_instrumententafel@@3QBEB
	DD	00H
	DW	044H
	DW	044H
	DW	014H
	DW	016H
	DW	01cH
	DW	04001H
	DD	FLAT:?image_icon_kafas@@3QBEB
	DD	00H
	DW	044H
	DW	044H
	DW	019H
	DW	011H
	DW	020H
	DW	04002H
	DD	FLAT:?image_icon_ldm@@3QBEB
	DD	00H
	DW	044H
	DW	044H
	DW	02dH
	DW	024H
	DW	02H
	DW	04004H
	DD	FLAT:?image_icon_lenkwinkelsensor@@3QBEB
	DD	00H
	DW	044H
	DW	044H
	DW	01cH
	DW	037H
	DW	0dH
	DW	04001H
	DD	FLAT:?image_icon_motor@@3QBEB
	DD	00H
	DW	044H
	DW	044H
	DW	022H
	DW	014H
	DW	04H
	DW	04002H
	DD	FLAT:?image_icon_nav@@3QBEB
	DD	00H
	DW	044H
	DW	044H
	DW	035H
	DW	015H
	DW	02H
	DW	0401bH
	DD	FLAT:?image_icon_parkabstandsregelung@@3QBEB
	DD	00H
	DW	044H
	DW	044H
	DW	01bH
	DW	016H
	DW	0fH
	DW	04001H
	DD	FLAT:?image_icon_pma@@3QBEB
	DD	00H
	DW	044H
	DW	044H
	DW	037H
	DW	017H
	DW	02H
	DW	04007H
	DD	FLAT:?image_icon_regen_lichtsensor@@3QBEB
	DD	00H
	DW	044H
	DW	044H
	DW	01fH
	DW	022H
	DW	07H
	DW	04001H
	DD	FLAT:?image_icon_reifendruckuberwachung@@3QBEB
	DD	00H
	DW	044H
	DW	044H
	DW	022H
	DW	013H
	DW	01H
	DW	0400aH
	DD	FLAT:?image_icon_scr@@3QBEB
	DD	00H
	DW	044H
	DW	044H
	DW	018H
	DW	017H
	DW	014H
	DW	04001H
	DD	FLAT:?image_icon_shd@@3QBEB
	DD	00H
	DW	044H
	DW	044H
	DW	01bH
	DW	015H
	DW	017H
	DW	04001H
	DD	FLAT:?image_icon_sitzmodul@@3QBEB
	DD	00H
	DW	044H
	DW	044H
	DW	010H
	DW	034H
	DW	01dH
	DW	04001H
	DD	FLAT:?image_icon_sme@@3QBEB
	DD	00H
	DW	044H
	DW	044H
	DW	0cH
	DW	032H
	DW	02dH
	DW	04002H
	DD	FLAT:?image_icon_snow@@3QBEB
	DD	00H
	DW	044H
	DW	044H
	DW	022H
	DW	0cH
	DW	01H
	DW	0402dH
	DD	FLAT:?image_icon_sww@@3QBEB
	DD	00H
	DW	044H
	DW	044H
	DW	02bH
	DW	022H
	DW	01H
	DW	04015H
	DD	FLAT:?image_icon_tlc@@3QBEB
	DD	00H
	DW	044H
	DW	044H
	DW	02bH
	DW	022H
	DW	01H
	DW	04015H
	DD	FLAT:?image_icon_verteilergetriebe@@3QBEB
	DD	00H
	DW	044H
	DW	044H
	DW	027H
	DW	022H
	DW	08H
	DW	04001H
	DD	FLAT:?image_image@@3QBEB
	DD	00H
	DW	08cH
	DW	0166H
	DW	00H
	DW	00H
	DW	08cH
	DW	02166H
	DD	FLAT:?image_keyboard_close@@3QBEB
	DD	00H
	DW	018H
	DW	018H
	DW	0aH
	DW	0aH
	DW	04H
	DW	04004H
	DD	FLAT:?image_keyboard_normal@@3QBEB
	DD	00H
	DW	0320H
	DW	01ccH
	DW	02e6H
	DW	0190H
	DW	03H
	DW	04015H
	DD	FLAT:?image_keyboard_pressed@@3QBEB
	DD	00H
	DW	0320H
	DW	013aH
	DW	0a5H
	DW	0eaH
	DW	01d4H
	DW	0403cH
	DD	FLAT:?image_keyboard_pressed_backspace@@3QBEB
	DD	00H
	DW	082H
	DW	03cH
	DW	04fH
	DW	013H
	DW	02H
	DW	04016H
	DD	FLAT:?image_keyboard_pressed_capslock@@3QBEB
	DD	00H
	DW	082H
	DW	03cH
	DW	046H
	DW	01fH
	DW	02H
	DW	0400bH
	DD	FLAT:?image_keyboard_pressed_done@@3QBEB
	DD	00H
	DW	082H
	DW	03cH
	DW	05dH
	DW	014H
	DW	03H
	DW	04015H
	DD	FLAT:?image_keyboard_pressed_key@@3QBEB
	DD	00H
	DW	03cH
	DW	03cH
	DW	02H
	DW	02H
	DW	038H
	DW	04038H
	DD	FLAT:?image_keyboard_pressed_mode@@3QBEB
	DD	00H
	DW	082H
	DW	03cH
	DW	00H
	DW	00H
	DW	00H
	DW	04000H
	DD	FLAT:?image_keyboard_pressed_space@@3QBEB
	DD	00H
	DW	01e0H
	DW	03cH
	DW	06H
	DW	00H
	DW	01d4H
	DW	0403cH
	DD	FLAT:?image_loading@@3QBEB
	DD	00H
	DW	0320H
	DW	01e0H
	DW	00H
	DW	00H
	DW	0320H
	DW	021e0H
	DD	FLAT:?image_maindark1@@3QBEB
	DD	00H
	DW	0320H
	DW	01e0H
	DW	00H
	DW	00H
	DW	0320H
	DW	021e0H
	DD	FLAT:?image_no_wifi@@3QBEB
	DD	00H
	DW	018H
	DW	018H
	DW	07H
	DW	04H
	DW	0aH
	DW	04001H
	DD	FLAT:?image_pkwselector@@3QBEB
	DD	00H
	DW	0320H
	DW	01e0H
	DW	00H
	DW	00H
	DW	0320H
	DW	021e0H
	DD	FLAT:?image_trye_again_button@@3QBEB
	DD	00H
	DW	010eH
	DW	03cH
	DW	00H
	DW	00H
	DW	00H
	DW	04000H
	DD	FLAT:?image_ui_settings@@3QBEB
	DD	00H
	DW	0320H
	DW	01e0H
	DW	00H
	DW	00H
	DW	0320H
	DW	021e0H
	DD	FLAT:?image_waiting_ico@@3QBEB
	DD	00H
	DW	03cH
	DW	03cH
	DW	012H
	DW	0eH
	DW	019H
	DW	04001H
	DD	FLAT:?image_wifi_1@@3QBEB
	DD	00H
	DW	050H
	DW	050H
	DW	022H
	DW	02bH
	DW	0cH
	DW	04004H
	DD	FLAT:?image_wifi_2@@3QBEB
	DD	00H
	DW	050H
	DW	050H
	DW	01bH
	DW	01dH
	DW	01aH
	DW	04002H
	DD	FLAT:?image_wifi_3@@3QBEB
	DD	00H
	DW	050H
	DW	050H
	DW	019H
	DW	0dH
	DW	01eH
	DW	04002H
	DD	FLAT:?image_wifi_dot@@3QBEB
	DD	00H
	DW	018H
	DW	018H
	DW	0bH
	DW	012H
	DW	02H
	DW	04002H
	DD	FLAT:?image_wifi_dot_icon_2x@@3QBEB
	DD	00H
	DW	030H
	DW	030H
	DW	016H
	DW	023H
	DW	04H
	DW	04006H
	DD	FLAT:?image_wifi_dot_settings@@3QBEB
	DD	00H
	DW	028H
	DW	028H
	DW	012H
	DW	01eH
	DW	04H
	DW	04004H
	DD	FLAT:?image_wifi_error@@3QBEB
	DD	00H
	DW	050H
	DW	050H
	DW	023H
	DW	0aH
	DW	0aH
	DW	0402aH
	DD	FLAT:?image_wifi_full@@3QBEB
	DD	00H
	DW	018H
	DW	018H
	DW	07H
	DW	04H
	DW	0aH
	DW	04001H
	DD	FLAT:?image_wifi_full_icon_2x@@3QBEB
	DD	00H
	DW	030H
	DW	030H
	DW	010H
	DW	07H
	DW	010H
	DW	04003H
	DD	FLAT:?image_wifi_full_settings@@3QBEB
	DD	00H
	DW	028H
	DW	028H
	DW	0dH
	DW	06H
	DW	0eH
	DW	04002H
	DD	FLAT:?image_wifi_level_1@@3QBEB
	DD	00H
	DW	080H
	DW	080H
	DW	03aH
	DW	05bH
	DW	0cH
	DW	0400cH
	DD	FLAT:?image_wifi_level_2@@3QBEB
	DD	00H
	DW	080H
	DW	080H
	DW	033H
	DW	045H
	DW	01aH
	DW	04007H
	DD	FLAT:?image_wifi_level_3@@3QBEB
	DD	00H
	DW	080H
	DW	080H
	DW	02eH
	DW	02fH
	DW	024H
	DW	04007H
	DD	FLAT:?image_wifi_level_4@@3QBEB
	DD	00H
	DW	080H
	DW	080H
	DW	02aH
	DW	019H
	DW	02bH
	DW	04007H
	DD	FLAT:?image_wifi_lock@@3QBEB
	DD	00H
	DW	0bH
	DW	0bH
	DW	03H
	DW	05H
	DW	05H
	DW	04006H
	DD	FLAT:?image_wifi_low@@3QBEB
	DD	00H
	DW	018H
	DW	018H
	DW	0bH
	DW	012H
	DW	02H
	DW	04002H
	DD	FLAT:?image_wifi_low_icon_2x@@3QBEB
	DD	00H
	DW	030H
	DW	030H
	DW	013H
	DW	01aH
	DW	0aH
	DW	04003H
	DD	FLAT:?image_wifi_low_settings@@3QBEB
	DD	00H
	DW	028H
	DW	028H
	DW	0fH
	DW	016H
	DW	0aH
	DW	04002H
	DD	FLAT:?image_wifi_mid@@3QBEB
	DD	00H
	DW	018H
	DW	018H
	DW	07H
	DW	09H
	DW	0aH
	DW	04001H
	DD	FLAT:?image_wifi_mid_icon_2x@@3QBEB
	DD	00H
	DW	030H
	DW	030H
	DW	010H
	DW	011H
	DW	010H
	DW	04002H
	DD	FLAT:?image_wifi_mid_settings@@3QBEB
	DD	00H
	DW	028H
	DW	028H
	DW	0eH
	DW	0eH
	DW	0cH
	DW	04002H
CONST	ENDS
PUBLIC	?getInstance@BitmapDatabase@@YAPBUBitmapData@Bitmap@touchgfx@@XZ ; BitmapDatabase::getInstance
PUBLIC	?getInstanceSize@BitmapDatabase@@YAGXZ		; BitmapDatabase::getInstanceSize
PUBLIC	__JustMyCode_Default
EXTRN	@__CheckForDebuggerJustMyCode@4:PROC
EXTRN	__RTC_CheckEsp:PROC
EXTRN	__RTC_InitBase:PROC
EXTRN	__RTC_Shutdown:PROC
;	COMDAT rtc$TMZ
rtc$TMZ	SEGMENT
__RTC_Shutdown.rtc$TMZ DD FLAT:__RTC_Shutdown
rtc$TMZ	ENDS
;	COMDAT rtc$IMZ
rtc$IMZ	SEGMENT
__RTC_InitBase.rtc$IMZ DD FLAT:__RTC_InitBase
rtc$IMZ	ENDS
; Function compile flags: /Odt
;	COMDAT __JustMyCode_Default
_TEXT	SEGMENT
__JustMyCode_Default PROC				; COMDAT
	push	ebp
	mov	ebp, esp
	pop	ebp
	ret	0
__JustMyCode_Default ENDP
_TEXT	ENDS
; Function compile flags: /Odtp /RTCsu /ZI
;	COMDAT ?getInstanceSize@BitmapDatabase@@YAGXZ
_TEXT	SEGMENT
?getInstanceSize@BitmapDatabase@@YAGXZ PROC		; BitmapDatabase::getInstanceSize, COMDAT
; File G:\Germany\Scanner\Firmware\Display_Board\TouchGFX\generated\images\src\BitmapDatabase.cpp
; Line 233
	push	ebp
	mov	ebp, esp
	sub	esp, 192				; 000000c0H
	push	ebx
	push	esi
	push	edi
	mov	edi, ebp
	xor	ecx, ecx
	mov	eax, -858993460				; ccccccccH
	rep stosd
	mov	ecx, OFFSET __C74DB028_BitmapDatabase@cpp
	call	@__CheckForDebuggerJustMyCode@4
; Line 234
	mov	eax, 107				; 0000006bH
; Line 235
	pop	edi
	pop	esi
	pop	ebx
	add	esp, 192				; 000000c0H
	cmp	ebp, esp
	call	__RTC_CheckEsp
	mov	esp, ebp
	pop	ebp
	ret	0
?getInstanceSize@BitmapDatabase@@YAGXZ ENDP		; BitmapDatabase::getInstanceSize
_TEXT	ENDS
; Function compile flags: /Odtp /RTCsu /ZI
;	COMDAT ?getInstance@BitmapDatabase@@YAPBUBitmapData@Bitmap@touchgfx@@XZ
_TEXT	SEGMENT
?getInstance@BitmapDatabase@@YAPBUBitmapData@Bitmap@touchgfx@@XZ PROC ; BitmapDatabase::getInstance, COMDAT
; File G:\Germany\Scanner\Firmware\Display_Board\TouchGFX\generated\images\src\BitmapDatabase.cpp
; Line 228
	push	ebp
	mov	ebp, esp
	sub	esp, 192				; 000000c0H
	push	ebx
	push	esi
	push	edi
	mov	edi, ebp
	xor	ecx, ecx
	mov	eax, -858993460				; ccccccccH
	rep stosd
	mov	ecx, OFFSET __C74DB028_BitmapDatabase@cpp
	call	@__CheckForDebuggerJustMyCode@4
; Line 229
	mov	eax, OFFSET ?bitmap_database@@3QBUBitmapData@Bitmap@touchgfx@@B
; Line 230
	pop	edi
	pop	esi
	pop	ebx
	add	esp, 192				; 000000c0H
	cmp	ebp, esp
	call	__RTC_CheckEsp
	mov	esp, ebp
	pop	ebp
	ret	0
?getInstance@BitmapDatabase@@YAPBUBitmapData@Bitmap@touchgfx@@XZ ENDP ; BitmapDatabase::getInstance
_TEXT	ENDS
END
