; Listing generated by Microsoft (R) Optimizing Compiler Version 19.29.30037.0 

	TITLE	G:\Germany\Scanner\Firmware\Display_Board\TouchGFX\build\Debug\obj\image_keyboard_pressed_done.obj
	.686P
	.XMM
	include listing.inc
	.model	flat

INCLUDELIB MSVCRTD
INCLUDELIB OLDNAMES

PUBLIC	?image_keyboard_pressed_done@@3QBEB		; image_keyboard_pressed_done
CONST	SEGMENT
?image_keyboard_pressed_done@@3QBEB DB 0ffH		; image_keyboard_pressed_done
	DB	0ffH
	DB	0ffH
	DB	00H
	DB	0ffH
	DB	0ffH
	DB	0ffH
	DB	00H
	DB	00H
	DB	00H
	DB	00H
	DB	04H
	DB	00H
	DB	00H
	DB	00H
	DB	050H
	DB	00H
	DB	00H
	DB	00H
	DB	091H
	DB	00H
	DB	00H
	DB	00H
	DB	0b1H
	DB	00H
	DB	00H
	DB	00H
	DB	0baH
	DB	00H
	DB	00H
	DB	00H
	DB	0baH
	DB	00H
	DB	00H
	DB	00H
	DB	0baH
	DB	00H
	DB	00H
	DB	00H
	DB	0baH
	DB	00H
	DB	00H
	DB	00H
	DB	0baH
	DB	00H
	DB	00H
	DB	00H
	DB	0baH
	DB	00H
	DB	00H
	DB	00H
	DB	0baH
	DB	00H
	DB	00H
	DB	00H
	DB	0baH
	DB	00H
	DB	00H
	DB	00H
	DB	0baH
	DB	00H
	DB	00H
	DB	00H
	DB	0baH
	DB	00H
	DB	00H
	DB	00H
	DB	0baH
	DB	00H
	DB	00H
	DB	00H
	DB	0baH
	DB	00H
	DB	00H
	DB	00H
	DB	0baH
	DB	00H
	DB	00H
	DB	00H
	DB	0baH
	DB	00H
	DB	00H
	DB	00H
	DB	0baH
	DB	00H
	DB	00H
	DB	00H
	DB	0baH
	DB	00H
	DB	00H
	DB	00H
	DB	0baH
	DB	00H
	DB	00H
	DB	00H
	DB	0baH
	DB	00H
	DB	00H
	DB	00H
	DB	0baH
	DB	00H
	DB	00H
	DB	00H
	DB	0baH
	DB	00H
	DB	00H
	DB	00H
	DB	0baH
	DB	00H
	DB	00H
	DB	00H
	DB	0baH
	DB	00H
	DB	00H
	DB	00H
	DB	0baH
	DB	00H
	DB	00H
	DB	00H
	DB	0baH
	DB	00H
	DB	00H
	DB	00H
	DB	0baH
	DB	00H
	DB	00H
	DB	00H
	DB	0baH
	DB	00H
	DB	00H
	DB	00H
	DB	0baH
	DB	00H
	DB	00H
	DB	00H
	DB	0baH
	DB	00H
	DB	00H
	DB	00H
	DB	0baH
	DB	00H
	DB	00H
	DB	00H
	DB	0baH
	DB	00H
	DB	00H
	DB	00H
	DB	0baH
	DB	00H
	DB	00H
	DB	00H
	DB	0baH
	DB	00H
	DB	00H
	DB	00H
	DB	0baH
	DB	00H
	DB	00H
	DB	00H
	DB	0baH
	DB	00H
	DB	00H
	DB	00H
	DB	0baH
	DB	00H
	DB	00H
	DB	00H
	DB	0baH
	DB	00H
	DB	00H
	DB	00H
	DB	0baH
	DB	00H
	DB	00H
	DB	00H
	DB	0baH
	DB	00H
	DB	00H
	DB	00H
	DB	0baH
	DB	00H
	DB	00H
	DB	00H
	DB	0baH
	DB	00H
	DB	00H
	DB	00H
	DB	0baH
	DB	00H
	DB	00H
	DB	00H
	DB	0baH
	DB	00H
	DB	00H
	DB	00H
	DB	0baH
	DB	00H
	DB	00H
	DB	00H
	DB	0baH
	DB	00H
	DB	00H
	DB	00H
	DB	0baH
	DB	00H
	DB	00H
	DB	00H
	DB	0baH
	DB	00H
	DB	00H
	DB	00H
	DB	0baH
	DB	00H
	DB	00H
	DB	00H
	DB	0baH
	DB	00H
	DB	00H
	DB	00H
	DB	0baH
	DB	00H
	DB	00H
	DB	00H
	DB	0baH
	DB	00H
	DB	00H
	DB	00H
	DB	0baH
	DB	00H
	DB	00H
	DB	00H
	DB	0baH
	DB	00H
	DB	00H
	DB	00H
	DB	0baH
	DB	00H
	DB	00H
	DB	00H
	DB	0baH
	DB	00H
	DB	00H
	DB	00H
	DB	0baH
	DB	00H
	DB	00H
	DB	00H
	DB	0baH
	DB	00H
	DB	00H
	DB	00H
	DB	0baH
	DB	00H
	DB	00H
	DB	00H
	DB	0baH
	DB	00H
	DB	00H
	DB	00H
	DB	0baH
	DB	00H
	DB	00H
	DB	00H
	DB	0baH
	DB	00H
	DB	00H
	DB	00H
	DB	0baH
	DB	00H
	DB	00H
	DB	00H
	DB	0baH
	DB	00H
	DB	00H
	DB	00H
	DB	0baH
	DB	00H
	DB	00H
	DB	00H
	DB	0baH
	DB	00H
	DB	00H
	DB	00H
	DB	0baH
	DB	00H
	DB	00H
	DB	00H
	DB	0baH
	DB	00H
	DB	00H
	DB	00H
	DB	0baH
	DB	00H
	DB	00H
	DB	00H
	DB	0baH
	DB	00H
	DB	00H
	DB	00H
	DB	0baH
	DB	00H
	DB	00H
	DB	00H
	DB	0baH
	DB	00H
	DB	00H
	DB	00H
	DB	0baH
	DB	00H
	DB	00H
	DB	00H
	DB	0baH
	DB	00H
	DB	00H
	DB	00H
	DB	0baH
	DB	00H
	DB	00H
	DB	00H
	DB	0baH
	DB	00H
	DB	00H
	DB	00H
	DB	0baH
	DB	00H
	DB	00H
	DB	00H
	DB	0baH
	DB	00H
	DB	00H
	DB	00H
	DB	0baH
	DB	00H
	DB	00H
	DB	00H
	DB	0baH
	DB	00H
	DB	00H
	DB	00H
	DB	0baH
	DB	00H
	DB	00H
	DB	00H
	DB	0baH
	DB	00H
	DB	00H
	DB	00H
	DB	0baH
	DB	00H
	DB	00H
	DB	00H
	DB	0baH
	DB	00H
	DB	00H
	DB	00H
	DB	0baH
	DB	00H
	DB	00H
	DB	00H
	DB	0baH
	DB	00H
	DB	00H
	DB	00H
	DB	0baH
	DB	00H
	DB	00H
	DB	00H
	DB	0baH
	DB	00H
	DB	00H
	DB	00H
	DB	0baH
	DB	00H
	DB	00H
	DB	00H
	DB	0baH
	DB	00H
	DB	00H
	DB	00H
	DB	0baH
	DB	00H
	DB	00H
	DB	00H
	DB	0baH
	DB	00H
	DB	00H
	DB	00H
	DB	0baH
	DB	00H
	DB	00H
	DB	00H
	DB	0baH
	DB	00H
	DB	00H
	DB	00H
	DB	0baH
	DB	00H
	DB	00H
	DB	00H
	DB	0baH
	DB	00H
	DB	00H
	DB	00H
	DB	0baH
	DB	00H
	DB	00H
	DB	00H
	DB	0baH
	DB	00H
	DB	00H
	DB	00H
	DB	0baH
	DB	00H
	DB	00H
	DB	00H
	DB	0baH
	DB	00H
	DB	00H
	DB	00H
	DB	0baH
	DB	00H
	DB	00H
	DB	00H
	DB	0baH
	DB	00H
	DB	00H
	DB	00H
	DB	0baH
	DB	00H
	DB	00H
	DB	00H
	DB	0baH
	DB	00H
	DB	00H
	DB	00H
	DB	0baH
	DB	00H
	DB	00H
	DB	00H
	DB	0baH
	DB	00H
	DB	00H
	DB	00H
	DB	0baH
	DB	00H
	DB	00H
	DB	00H
	DB	0baH
	DB	00H
	DB	00H
	DB	00H
	DB	0baH
	DB	00H
	DB	00H
	DB	00H
	DB	0baH
	DB	00H
	DB	00H
	DB	00H
	DB	0baH
	DB	00H
	DB	00H
	DB	00H
	DB	0baH
	DB	00H
	DB	00H
	DB	00H
	DB	0baH
	DB	00H
	DB	00H
	DB	00H
	DB	0baH
	DB	00H
	DB	00H
	DB	00H
	DB	0baH
	DB	00H
	DB	00H
	DB	00H
	DB	0baH
	DB	00H
	DB	00H
	DB	00H
	DB	0baH
	DB	00H
	DB	00H
	DB	00H
	DB	0baH
	DB	00H
	DB	00H
	DB	00H
	DB	0baH
	DB	00H
	DB	00H
	DB	00H
	DB	0baH
	DB	00H
	DB	00H
	DB	00H
	DB	0b1H
	DB	00H
	DB	00H
	DB	00H
	DB	091H
	DB	00H
	DB	00H
	DB	00H
	DB	050H
	DB	00H
	DB	00H
	DB	00H
	DB	04H
	DB	0ffH
	DB	0ffH
	DB	0ffH
	DB	00H
	DB	0ffH
	DB	0ffH
	DB	0ffH
	DB	00H
	DB	0ffH
	DB	0ffH
	DB	0ffH
	DB	00H
	DB	00H
	DB	00H
	DB	00H
	DB	014H
	DB	00H
	DB	00H
	DB	00H
	DB	097H
	DB	00H
	DB	00H
	DB	00H
	DB	0baH
	DB	00H
	DB	00H
	DB	00H
	DB	0baH
	DB	00H
	DB	00H
	DB	00H
	DB	0baH
	DB	00H
	DB	00H
	DB	00H
	DB	0baH
	DB	00H
	DB	00H
	DB	00H
	DB	0baH
	DB	00H
	DB	00H
	DB	00H
	DB	0baH
	DB	00H
	DB	00H
	DB	00H
	DB	0baH
	DB	00H
	DB	00H
	DB	00H
	DB	0baH
	DB	00H
	DB	00H
	DB	00H
	DB	0baH
	DB	00H
	DB	00H
	DB	00H
	DB	0baH
	DB	00H
	DB	00H
	DB	00H
	DB	0baH
	DB	00H
	DB	00H
	DB	00H
	DB	0baH
	DB	00H
	DB	00H
	DB	00H
	DB	0baH
	DB	00H
	DB	00H
	DB	00H
	DB	0baH
	DB	00H
	DB	00H
	DB	00H
	DB	0baH
	DB	00H
	DB	00H
	DB	00H
	DB	0baH
	DB	00H
	DB	00H
	DB	00H
	DB	0baH
	DB	00H
	DB	00H
	DB	00H
	DB	0baH
	DB	00H
	DB	00H
	DB	00H
	DB	0baH
	DB	00H
	DB	00H
	DB	00H
	DB	0baH
	DB	00H
	DB	00H
	DB	00H
	DB	0baH
	DB	00H
	DB	00H
	DB	00H
	DB	0baH
	DB	00H
	DB	00H
	DB	00H
	DB	0baH
	DB	00H
	DB	00H
	DB	00H
	DB	0baH
	DB	00H
	DB	00H
	DB	00H
	DB	0baH
	DB	00H
	DB	00H
	DB	00H
	DB	0baH
	DB	00H
	DB	00H
	DB	00H
	DB	0baH
	DB	00H
	DB	00H
	DB	00H
	DB	0baH
	DB	00H
	DB	00H
	DB	00H
	DB	0baH
	DB	00H
	DB	00H
	DB	00H
	DB	0baH
	DB	00H
	DB	00H
	DB	00H
	DB	0baH
	DB	00H
	DB	00H
	DB	00H
	DB	0baH
	DB	00H
	DB	00H
	DB	00H
	DB	0baH
	DB	00H
	DB	00H
	DB	00H
	DB	0baH
	DB	00H
	DB	00H
	DB	00H
	DB	0baH
	DB	00H
	DB	00H
	DB	00H
	DB	0baH
	DB	00H
	DB	00H
	DB	00H
	DB	0baH
	DB	00H
	DB	00H
	DB	00H
	DB	0baH
	DB	00H
	DB	00H
	DB	00H
	DB	0baH
	DB	00H
	DB	00H
	DB	00H
	DB	0baH
	DB	00H
	DB	00H
	DB	00H
	DB	0baH
	DB	00H
	DB	00H
	DB	00H
	DB	0baH
	DB	00H
	DB	00H
	DB	00H
	DB	0baH
	DB	00H
	DB	00H
	DB	00H
	DB	0baH
	DB	00H
	DB	00H
	DB	00H
	DB	0baH
	DB	00H
	DB	00H
	DB	00H
	DB	0baH
	DB	00H
	DB	00H
	DB	00H
	DB	0baH
	DB	00H
	DB	00H
	DB	00H
	DB	0baH
	DB	00H
	DB	00H
	DB	00H
	DB	0baH
	DB	00H
	DB	00H
	DB	00H
	DB	0baH
	DB	00H
	DB	00H
	DB	00H
	DB	0baH
	DB	00H
	DB	00H
	DB	00H
	DB	0baH
	DB	00H
	DB	00H
	DB	00H
	DB	0baH
	DB	00H
	DB	00H
	DB	00H
	DB	0baH
	DB	00H
	DB	00H
	DB	00H
	DB	0baH
	DB	00H
	DB	00H
	DB	00H
	DB	0baH
	DB	00H
	DB	00H
	DB	00H
	DB	0baH
	DB	00H
	DB	00H
	DB	00H
	DB	0baH
	DB	00H
	DB	00H
	DB	00H
	DB	0baH
	DB	00H
	DB	00H
	DB	00H
	DB	0baH
	DB	00H
	DB	00H
	DB	00H
	DB	0baH
	DB	00H
	DB	00H
	DB	00H
	DB	0baH
	DB	00H
	DB	00H
	DB	00H
	DB	0baH
	DB	00H
	DB	00H
	DB	00H
	DB	0baH
	DB	00H
	DB	00H
	DB	00H
	DB	0baH
	DB	00H
	DB	00H
	DB	00H
	DB	0baH
	DB	00H
	DB	00H
	DB	00H
	DB	0baH
	DB	00H
	DB	00H
	DB	00H
	DB	0baH
	DB	00H
	DB	00H
	DB	00H
	DB	0baH
	DB	00H
	DB	00H
	DB	00H
	DB	0baH
	DB	00H
	DB	00H
	DB	00H
	DB	0baH
	DB	00H
	DB	00H
	DB	00H
	DB	0baH
	DB	00H
	DB	00H
	DB	00H
	DB	0baH
	DB	00H
	DB	00H
	DB	00H
	DB	0baH
	DB	00H
	DB	00H
	DB	00H
	DB	0baH
	DB	00H
	DB	00H
	DB	00H
	DB	0baH
	DB	00H
	DB	00H
	DB	00H
	DB	0baH
	DB	00H
	DB	00H
	DB	00H
	DB	0baH
	DB	00H
	DB	00H
	DB	00H
	DB	0baH
	DB	00H
	DB	00H
	DB	00H
	DB	0baH
	DB	00H
	DB	00H
	DB	00H
	DB	0baH
	DB	00H
	DB	00H
	DB	00H
	DB	0baH
	DB	00H
	DB	00H
	DB	00H
	DB	0baH
	DB	00H
	DB	00H
	DB	00H
	DB	0baH
	DB	00H
	DB	00H
	DB	00H
	DB	0baH
	DB	00H
	DB	00H
	DB	00H
	DB	0baH
	DB	00H
	DB	00H
	DB	00H
	DB	0baH
	DB	00H
	DB	00H
	DB	00H
	DB	0baH
	DB	00H
	DB	00H
	DB	00H
	DB	0baH
	DB	00H
	DB	00H
	DB	00H
	DB	0baH
	DB	00H
	DB	00H
	DB	00H
	DB	0baH
	DB	00H
	DB	00H
	DB	00H
	DB	0baH
	DB	00H
	DB	00H
	DB	00H
	DB	0baH
	DB	00H
	DB	00H
	DB	00H
	DB	0baH
	DB	00H
	DB	00H
	DB	00H
	DB	0baH
	DB	00H
	DB	00H
	DB	00H
	DB	0baH
	DB	00H
	DB	00H
	DB	00H
	DB	0baH
	DB	00H
	DB	00H
	DB	00H
	DB	0baH
	DB	00H
	DB	00H
	DB	00H
	DB	0baH
	DB	00H
	DB	00H
	DB	00H
	DB	0baH
	DB	00H
	DB	00H
	DB	00H
	DB	0baH
	DB	00H
	DB	00H
	DB	00H
	DB	0baH
	DB	00H
	DB	00H
	DB	00H
	DB	0baH
	DB	00H
	DB	00H
	DB	00H
	DB	0baH
	DB	00H
	DB	00H
	DB	00H
	DB	0baH
	DB	00H
	DB	00H
	DB	00H
	DB	0baH
	DB	00H
	DB	00H
	DB	00H
	DB	0baH
	DB	00H
	DB	00H
	DB	00H
	DB	0baH
	DB	00H
	DB	00H
	DB	00H
	DB	0baH
	DB	00H
	DB	00H
	DB	00H
	DB	0baH
	DB	00H
	DB	00H
	DB	00H
	DB	0baH
	DB	00H
	DB	00H
	DB	00H
	DB	0baH
	DB	00H
	DB	00H
	DB	00H
	DB	0baH
	DB	00H
	DB	00H
	DB	00H
	DB	0baH
	DB	00H
	DB	00H
	DB	00H
	DB	0baH
	DB	00H
	DB	00H
	DB	00H
	DB	0baH
	DB	00H
	DB	00H
	DB	00H
	DB	0baH
	DB	00H
	DB	00H
	DB	00H
	DB	0baH
	DB	00H
	DB	00H
	DB	00H
	DB	0baH
	DB	00H
	DB	00H
	DB	00H
	DB	0baH
	DB	00H
	DB	00H
	DB	00H
	DB	0baH
	DB	00H
	DB	00H
	DB	00H
	DB	0baH
	DB	00H
	DB	00H
	DB	00H
	DB	0baH
	DB	00H
	DB	00H
	DB	00H
	DB	0baH
	DB	00H
	DB	00H
	DB	00H
	DB	097H
	DB	00H
	DB	00H
	DB	00H
	DB	014H
	DB	0ffH
	DB	0ffH
	DB	0ffH
	DB	00H
	DB	00H
	DB	00H
	DB	00H
	DB	04H
	DB	00H
	DB	00H
	DB	00H
	DB	097H
	DB	00H
	DB	00H
	DB	00H
	DB	0baH
	DB	00H
	DB	00H
	DB	00H
	DB	0baH
	DB	00H
	DB	00H
	DB	00H
	DB	0baH
	DB	00H
	DB	00H
	DB	00H
	DB	0baH
	DB	00H
	DB	00H
	DB	00H
	DB	0baH
	DB	00H
	DB	00H
	DB	00H
	DB	0baH
	DB	00H
	DB	00H
	DB	00H
	DB	0baH
	DB	00H
	DB	00H
	DB	00H
	DB	0baH
	DB	00H
	DB	00H
	DB	00H
	DB	0baH
	DB	00H
	DB	00H
	DB	00H
	DB	0baH
	DB	00H
	DB	00H
	DB	00H
	DB	0baH
	DB	00H
	DB	00H
	DB	00H
	DB	0baH
	DB	00H
	DB	00H
	DB	00H
	DB	0baH
	DB	00H
	DB	00H
	DB	00H
	DB	0baH
	DB	00H
	DB	00H
	DB	00H
	DB	0baH
	DB	00H
	DB	00H
	DB	00H
	DB	0baH
	DB	00H
	DB	00H
	DB	00H
	DB	0baH
	DB	00H
	DB	00H
	DB	00H
	DB	0baH
	DB	00H
	DB	00H
	DB	00H
	DB	0baH
	DB	00H
	DB	00H
	DB	00H
	DB	0baH
	DB	00H
	DB	00H
	DB	00H
	DB	0baH
	DB	00H
	DB	00H
	DB	00H
	DB	0baH
	DB	00H
	DB	00H
	DB	00H
	DB	0baH
	DB	00H
	DB	00H
	DB	00H
	DB	0baH
	DB	00H
	DB	00H
	DB	00H
	DB	0baH
	DB	00H
	DB	00H
	DB	00H
	DB	0baH
	DB	00H
	DB	00H
	DB	00H
	DB	0baH
	DB	00H
	DB	00H
	DB	00H
	DB	0baH
	DB	00H
	DB	00H
	DB	00H
	DB	0baH
	DB	00H
	DB	00H
	DB	00H
	DB	0baH
	DB	00H
	DB	00H
	DB	00H
	DB	0baH
	DB	00H
	DB	00H
	DB	00H
	DB	0baH
	DB	00H
	DB	00H
	DB	00H
	DB	0baH
	DB	00H
	DB	00H
	DB	00H
	DB	0baH
	DB	00H
	DB	00H
	DB	00H
	DB	0baH
	DB	00H
	DB	00H
	DB	00H
	DB	0baH
	DB	00H
	DB	00H
	DB	00H
	DB	0baH
	DB	00H
	DB	00H
	DB	00H
	DB	0baH
	DB	00H
	DB	00H
	DB	00H
	DB	0baH
	DB	00H
	DB	00H
	DB	00H
	DB	0baH
	DB	00H
	DB	00H
	DB	00H
	DB	0baH
	DB	00H
	DB	00H
	DB	00H
	DB	0baH
	DB	00H
	DB	00H
	DB	00H
	DB	0baH
	DB	00H
	DB	00H
	DB	00H
	DB	0baH
	DB	00H
	DB	00H
	DB	00H
	DB	0baH
	DB	00H
	DB	00H
	DB	00H
	DB	0baH
	DB	00H
	DB	00H
	DB	00H
	DB	0baH
	DB	00H
	DB	00H
	DB	00H
	DB	0baH
	DB	00H
	DB	00H
	DB	00H
	DB	0baH
	DB	00H
	DB	00H
	DB	00H
	DB	0baH
	DB	00H
	DB	00H
	DB	00H
	DB	0baH
	DB	00H
	DB	00H
	DB	00H
	DB	0baH
	DB	00H
	DB	00H
	DB	00H
	DB	0baH
	DB	00H
	DB	00H
	DB	00H
	DB	0baH
	DB	00H
	DB	00H
	DB	00H
	DB	0baH
	DB	00H
	DB	00H
	DB	00H
	DB	0baH
	DB	00H
	DB	00H
	DB	00H
	DB	0baH
	DB	00H
	DB	00H
	DB	00H
	DB	0baH
	DB	00H
	DB	00H
	DB	00H
	DB	0baH
	DB	00H
	DB	00H
	DB	00H
	DB	0baH
	DB	00H
	DB	00H
	DB	00H
	DB	0baH
	DB	00H
	DB	00H
	DB	00H
	DB	0baH
	DB	00H
	DB	00H
	DB	00H
	DB	0baH
	DB	00H
	DB	00H
	DB	00H
	DB	0baH
	DB	00H
	DB	00H
	DB	00H
	DB	0baH
	DB	00H
	DB	00H
	DB	00H
	DB	0baH
	DB	00H
	DB	00H
	DB	00H
	DB	0baH
	DB	00H
	DB	00H
	DB	00H
	DB	0baH
	DB	00H
	DB	00H
	DB	00H
	DB	0baH
	DB	00H
	DB	00H
	DB	00H
	DB	0baH
	DB	00H
	DB	00H
	DB	00H
	DB	0baH
	DB	00H
	DB	00H
	DB	00H
	DB	0baH
	DB	00H
	DB	00H
	DB	00H
	DB	0baH
	DB	00H
	DB	00H
	DB	00H
	DB	0baH
	DB	00H
	DB	00H
	DB	00H
	DB	0baH
	DB	00H
	DB	00H
	DB	00H
	DB	0baH
	DB	00H
	DB	00H
	DB	00H
	DB	0baH
	DB	00H
	DB	00H
	DB	00H
	DB	0baH
	DB	00H
	DB	00H
	DB	00H
	DB	0baH
	DB	00H
	DB	00H
	DB	00H
	DB	0baH
	DB	00H
	DB	00H
	DB	00H
	DB	0baH
	DB	00H
	DB	00H
	DB	00H
	DB	0baH
	DB	00H
	DB	00H
	DB	00H
	DB	0baH
	DB	00H
	DB	00H
	DB	00H
	DB	0baH
	DB	00H
	DB	00H
	DB	00H
	DB	0baH
	DB	00H
	DB	00H
	DB	00H
	DB	0baH
	DB	00H
	DB	00H
	DB	00H
	DB	0baH
	DB	00H
	DB	00H
	DB	00H
	DB	0baH
	DB	00H
	DB	00H
	DB	00H
	DB	0baH
	DB	00H
	DB	00H
	DB	00H
	DB	0baH
	DB	00H
	DB	00H
	DB	00H
	DB	0baH
	DB	00H
	DB	00H
	DB	00H
	DB	0baH
	DB	00H
	DB	00H
	DB	00H
	DB	0baH
	DB	00H
	DB	00H
	DB	00H
	DB	0baH
	DB	00H
	DB	00H
	DB	00H
	DB	0baH
	DB	00H
	DB	00H
	DB	00H
	DB	0baH
	DB	00H
	DB	00H
	DB	00H
	DB	0baH
	DB	00H
	DB	00H
	DB	00H
	DB	0baH
	DB	00H
	DB	00H
	DB	00H
	DB	0baH
	DB	00H
	DB	00H
	DB	00H
	DB	0baH
	DB	00H
	DB	00H
	DB	00H
	DB	0baH
	DB	00H
	DB	00H
	DB	00H
	DB	0baH
	DB	00H
	DB	00H
	DB	00H
	DB	0baH
	DB	00H
	DB	00H
	DB	00H
	DB	0baH
	DB	00H
	DB	00H
	DB	00H
	DB	0baH
	DB	00H
	DB	00H
	DB	00H
	DB	0baH
	DB	00H
	DB	00H
	DB	00H
	DB	0baH
	DB	00H
	DB	00H
	DB	00H
	DB	0baH
	DB	00H
	DB	00H
	DB	00H
	DB	0baH
	DB	00H
	DB	00H
	DB	00H
	DB	0baH
	DB	00H
	DB	00H
	DB	00H
	DB	0baH
	DB	00H
	DB	00H
	DB	00H
	DB	0baH
	DB	00H
	DB	00H
	DB	00H
	DB	0baH
	DB	00H
	DB	00H
	DB	00H
	DB	0baH
	DB	00H
	DB	00H
	DB	00H
	DB	0baH
	DB	00H
	DB	00H
	DB	00H
	DB	0baH
	DB	00H
	DB	00H
	DB	00H
	DB	0baH
	DB	00H
	DB	00H
	DB	00H
	DB	0baH
	DB	00H
	DB	00H
	DB	00H
	DB	0baH
	DB	00H
	DB	00H
	DB	00H
	DB	0baH
	DB	00H
	DB	00H
	DB	00H
	DB	0baH
	DB	00H
	DB	00H
	DB	00H
	DB	0baH
	DB	00H
	DB	00H
	DB	00H
	DB	0baH
	DB	00H
	DB	00H
	DB	00H
	DB	0baH
	DB	00H
	DB	00H
	DB	00H
	DB	0baH
	DB	00H
	DB	00H
	DB	00H
	DB	0baH
	DB	00H
	DB	00H
	DB	00H
	DB	098H
	DB	00H
	DB	00H
	DB	00H
	DB	05H
	DB	00H
	DB	00H
	DB	00H
	DB	050H
	DB	00H
	DB	00H
	DB	00H
	DB	0baH
	DB	00H
	DB	00H
	DB	00H
	DB	0baH
	DB	00H
	DB	00H
	DB	00H
	DB	0baH
	DB	00H
	DB	00H
	DB	00H
	DB	0baH
	DB	00H
	DB	00H
	DB	00H
	DB	0baH
	DB	00H
	DB	00H
	DB	00H
	DB	0baH
	DB	00H
	DB	00H
	DB	00H
	DB	0baH
	DB	00H
	DB	00H
	DB	00H
	DB	0baH
	DB	00H
	DB	00H
	DB	00H
	DB	0baH
	DB	00H
	DB	00H
	DB	00H
	DB	0baH
	DB	00H
	DB	00H
	DB	00H
	DB	0baH
	DB	00H
	DB	00H
	DB	00H
	DB	0baH
	DB	00H
	DB	00H
	DB	00H
	DB	0baH
	DB	00H
	DB	00H
	DB	00H
	DB	0baH
	DB	00H
	DB	00H
	DB	00H
	DB	0baH
	DB	00H
	DB	00H
	DB	00H
	DB	0baH
	DB	00H
	DB	00H
	DB	00H
	DB	0baH
	DB	00H
	DB	00H
	DB	00H
	DB	0baH
	DB	00H
	DB	00H
	DB	00H
	DB	0baH
	DB	00H
	DB	00H
	DB	00H
	DB	0baH
	DB	00H
	DB	00H
	DB	00H
	DB	0baH
	DB	00H
	DB	00H
	DB	00H
	DB	0baH
	DB	00H
	DB	00H
	DB	00H
	DB	0baH
	DB	00H
	DB	00H
	DB	00H
	DB	0baH
	DB	00H
	DB	00H
	DB	00H
	DB	0baH
	DB	00H
	DB	00H
	DB	00H
	DB	0baH
	DB	00H
	DB	00H
	DB	00H
	DB	0baH
	DB	00H
	DB	00H
	DB	00H
	DB	0baH
	DB	00H
	DB	00H
	DB	00H
	DB	0baH
	DB	00H
	DB	00H
	DB	00H
	DB	0baH
	DB	00H
	DB	00H
	DB	00H
	DB	0baH
	DB	00H
	DB	00H
	DB	00H
	DB	0baH
	DB	00H
	DB	00H
	DB	00H
	DB	0baH
	DB	00H
	DB	00H
	DB	00H
	DB	0baH
	DB	00H
	DB	00H
	DB	00H
	DB	0baH
	DB	00H
	DB	00H
	DB	00H
	DB	0baH
	DB	00H
	DB	00H
	DB	00H
	DB	0baH
	DB	00H
	DB	00H
	DB	00H
	DB	0baH
	DB	00H
	DB	00H
	DB	00H
	DB	0baH
	DB	00H
	DB	00H
	DB	00H
	DB	0baH
	DB	00H
	DB	00H
	DB	00H
	DB	0baH
	DB	00H
	DB	00H
	DB	00H
	DB	0baH
	DB	00H
	DB	00H
	DB	00H
	DB	0baH
	DB	00H
	DB	00H
	DB	00H
	DB	0baH
	DB	00H
	DB	00H
	DB	00H
	DB	0baH
	DB	00H
	DB	00H
	DB	00H
	DB	0baH
	DB	00H
	DB	00H
	DB	00H
	DB	0baH
	DB	00H
	DB	00H
	DB	00H
	DB	0baH
	DB	00H
	DB	00H
	DB	00H
	DB	0baH
	DB	00H
	DB	00H
	DB	00H
	DB	0baH
	DB	00H
	DB	00H
	DB	00H
	DB	0baH
	DB	00H
	DB	00H
	DB	00H
	DB	0baH
	DB	00H
	DB	00H
	DB	00H
	DB	0baH
	DB	00H
	DB	00H
	DB	00H
	DB	0baH
	DB	00H
	DB	00H
	DB	00H
	DB	0baH
	DB	00H
	DB	00H
	DB	00H
	DB	0baH
	DB	00H
	DB	00H
	DB	00H
	DB	0baH
	DB	00H
	DB	00H
	DB	00H
	DB	0baH
	DB	00H
	DB	00H
	DB	00H
	DB	0baH
	DB	00H
	DB	00H
	DB	00H
	DB	0baH
	DB	00H
	DB	00H
	DB	00H
	DB	0baH
	DB	00H
	DB	00H
	DB	00H
	DB	0baH
	DB	00H
	DB	00H
	DB	00H
	DB	0baH
	DB	00H
	DB	00H
	DB	00H
	DB	0baH
	DB	00H
	DB	00H
	DB	00H
	DB	0baH
	DB	00H
	DB	00H
	DB	00H
	DB	0baH
	DB	00H
	DB	00H
	DB	00H
	DB	0baH
	DB	00H
	DB	00H
	DB	00H
	DB	0baH
	DB	00H
	DB	00H
	DB	00H
	DB	0baH
	DB	00H
	DB	00H
	DB	00H
	DB	0baH
	DB	00H
	DB	00H
	DB	00H
	DB	0baH
	DB	00H
	DB	00H
	DB	00H
	DB	0baH
	DB	00H
	DB	00H
	DB	00H
	DB	0baH
	DB	00H
	DB	00H
	DB	00H
	DB	0baH
	DB	00H
	DB	00H
	DB	00H
	DB	0baH
	DB	00H
	DB	00H
	DB	00H
	DB	0baH
	DB	00H
	DB	00H
	DB	00H
	DB	0baH
	DB	00H
	DB	00H
	DB	00H
	DB	0baH
	DB	00H
	DB	00H
	DB	00H
	DB	0baH
	DB	00H
	DB	00H
	DB	00H
	DB	0baH
	DB	00H
	DB	00H
	DB	00H
	DB	0baH
	DB	00H
	DB	00H
	DB	00H
	DB	0baH
	DB	00H
	DB	00H
	DB	00H
	DB	0baH
	DB	00H
	DB	00H
	DB	00H
	DB	0baH
	DB	00H
	DB	00H
	DB	00H
	DB	0baH
	DB	00H
	DB	00H
	DB	00H
	DB	0baH
	DB	00H
	DB	00H
	DB	00H
	DB	0baH
	DB	00H
	DB	00H
	DB	00H
	DB	0baH
	DB	00H
	DB	00H
	DB	00H
	DB	0baH
	DB	00H
	DB	00H
	DB	00H
	DB	0baH
	DB	00H
	DB	00H
	DB	00H
	DB	0baH
	DB	00H
	DB	00H
	DB	00H
	DB	0baH
	DB	00H
	DB	00H
	DB	00H
	DB	0baH
	DB	00H
	DB	00H
	DB	00H
	DB	0baH
	DB	00H
	DB	00H
	DB	00H
	DB	0baH
	DB	00H
	DB	00H
	DB	00H
	DB	0baH
	DB	00H
	DB	00H
	DB	00H
	DB	0baH
	DB	00H
	DB	00H
	DB	00H
	DB	0baH
	DB	00H
	DB	00H
	DB	00H
	DB	0baH
	DB	00H
	DB	00H
	DB	00H
	DB	0baH
	DB	00H
	DB	00H
	DB	00H
	DB	0baH
	DB	00H
	DB	00H
	DB	00H
	DB	0baH
	DB	00H
	DB	00H
	DB	00H
	DB	0baH
	DB	00H
	DB	00H
	DB	00H
	DB	0baH
	DB	00H
	DB	00H
	DB	00H
	DB	0baH
	DB	00H
	DB	00H
	DB	00H
	DB	0baH
	DB	00H
	DB	00H
	DB	00H
	DB	0baH
	DB	00H
	DB	00H
	DB	00H
	DB	0baH
	DB	00H
	DB	00H
	DB	00H
	DB	0baH
	DB	00H
	DB	00H
	DB	00H
	DB	0baH
	DB	00H
	DB	00H
	DB	00H
	DB	0baH
	DB	00H
	DB	00H
	DB	00H
	DB	0baH
	DB	00H
	DB	00H
	DB	00H
	DB	0baH
	DB	00H
	DB	00H
	DB	00H
	DB	0baH
	DB	00H
	DB	00H
	DB	00H
	DB	0baH
	DB	00H
	DB	00H
	DB	00H
	DB	0baH
	DB	00H
	DB	00H
	DB	00H
	DB	0baH
	DB	00H
	DB	00H
	DB	00H
	DB	0baH
	DB	00H
	DB	00H
	DB	00H
	DB	0baH
	DB	00H
	DB	00H
	DB	00H
	DB	0baH
	DB	00H
	DB	00H
	DB	00H
	DB	0baH
	DB	00H
	DB	00H
	DB	00H
	DB	0baH
	DB	00H
	DB	00H
	DB	00H
	DB	0baH
	DB	00H
	DB	00H
	DB	00H
	DB	0baH
	DB	00H
	DB	00H
	DB	00H
	DB	0baH
	DB	00H
	DB	00H
	DB	00H
	DB	0baH
	DB	00H
	DB	00H
	DB	00H
	DB	0baH
	DB	00H
	DB	00H
	DB	00H
	DB	0baH
	DB	00H
	DB	00H
	DB	00H
	DB	050H
	DB	00H
	DB	00H
	DB	00H
	DB	091H
	DB	00H
	DB	00H
	DB	00H
	DB	0baH
	DB	00H
	DB	00H
	DB	00H
	DB	0baH
	DB	00H
	DB	00H
	DB	00H
	DB	0baH
	DB	00H
	DB	00H
	DB	00H
	DB	0baH
	DB	00H
	DB	00H
	DB	00H
	DB	0baH
	DB	00H
	DB	00H
	DB	00H
	DB	0baH
	DB	00H
	DB	00H
	DB	00H
	DB	0baH
	DB	00H
	DB	00H
	DB	00H
	DB	0baH
	DB	00H
	DB	00H
	DB	00H
	DB	0baH
	DB	00H
	DB	00H
	DB	00H
	DB	0baH
	DB	00H
	DB	00H
	DB	00H
	DB	0baH
	DB	00H
	DB	00H
	DB	00H
	DB	0baH
	DB	00H
	DB	00H
	DB	00H
	DB	0baH
	DB	00H
	DB	00H
	DB	00H
	DB	0baH
	DB	00H
	DB	00H
	DB	00H
	DB	0baH
	DB	00H
	DB	00H
	DB	00H
	DB	0baH
	DB	00H
	DB	00H
	DB	00H
	DB	0baH
	DB	00H
	DB	00H
	DB	00H
	DB	0baH
	DB	00H
	DB	00H
	DB	00H
	DB	0baH
	DB	00H
	DB	00H
	DB	00H
	DB	0baH
	DB	00H
	DB	00H
	DB	00H
	DB	0baH
	DB	00H
	DB	00H
	DB	00H
	DB	0baH
	DB	00H
	DB	00H
	DB	00H
	DB	0baH
	DB	00H
	DB	00H
	DB	00H
	DB	0baH
	DB	00H
	DB	00H
	DB	00H
	DB	0baH
	DB	00H
	DB	00H
	DB	00H
	DB	0baH
	DB	00H
	DB	00H
	DB	00H
	DB	0baH
	DB	00H
	DB	00H
	DB	00H
	DB	0baH
	DB	00H
	DB	00H
	DB	00H
	DB	0baH
	DB	00H
	DB	00H
	DB	00H
	DB	0baH
	DB	00H
	DB	00H
	DB	00H
	DB	0baH
	DB	00H
	DB	00H
	DB	00H
	DB	0baH
	DB	00H
	DB	00H
	DB	00H
	DB	0baH
	DB	00H
	DB	00H
	DB	00H
	DB	0baH
	DB	00H
	DB	00H
	DB	00H
	DB	0baH
	DB	00H
	DB	00H
	DB	00H
	DB	0baH
	DB	00H
	DB	00H
	DB	00H
	DB	0baH
	DB	00H
	DB	00H
	DB	00H
	DB	0baH
	DB	00H
	DB	00H
	DB	00H
	DB	0baH
	DB	00H
	DB	00H
	DB	00H
	DB	0baH
	DB	00H
	DB	00H
	DB	00H
	DB	0baH
	DB	00H
	DB	00H
	DB	00H
	DB	0baH
	DB	00H
	DB	00H
	DB	00H
	DB	0baH
	DB	00H
	DB	00H
	DB	00H
	DB	0baH
	DB	00H
	DB	00H
	DB	00H
	DB	0baH
	DB	00H
	DB	00H
	DB	00H
	DB	0baH
	DB	00H
	DB	00H
	DB	00H
	DB	0baH
	DB	00H
	DB	00H
	DB	00H
	DB	0baH
	DB	00H
	DB	00H
	DB	00H
	DB	0baH
	DB	00H
	DB	00H
	DB	00H
	DB	0baH
	DB	00H
	DB	00H
	DB	00H
	DB	0baH
	DB	00H
	DB	00H
	DB	00H
	DB	0baH
	DB	00H
	DB	00H
	DB	00H
	DB	0baH
	DB	00H
	DB	00H
	DB	00H
	DB	0baH
	DB	00H
	DB	00H
	DB	00H
	DB	0baH
	DB	00H
	DB	00H
	DB	00H
	DB	0baH
	DB	00H
	DB	00H
	DB	00H
	DB	0baH
	DB	00H
	DB	00H
	DB	00H
	DB	0baH
	DB	00H
	DB	00H
	DB	00H
	DB	0baH
	DB	00H
	DB	00H
	DB	00H
	DB	0baH
	DB	00H
	DB	00H
	DB	00H
	DB	0baH
	DB	00H
	DB	00H
	DB	00H
	DB	0baH
	DB	00H
	DB	00H
	DB	00H
	DB	0baH
	DB	00H
	DB	00H
	DB	00H
	DB	0baH
	DB	00H
	DB	00H
	DB	00H
	DB	0baH
	DB	00H
	DB	00H
	DB	00H
	DB	0baH
	DB	00H
	DB	00H
	DB	00H
	DB	0baH
	DB	00H
	DB	00H
	DB	00H
	DB	0baH
	DB	00H
	DB	00H
	DB	00H
	DB	0baH
	DB	00H
	DB	00H
	DB	00H
	DB	0baH
	DB	00H
	DB	00H
	DB	00H
	DB	0baH
	DB	00H
	DB	00H
	DB	00H
	DB	0baH
	DB	00H
	DB	00H
	DB	00H
	DB	0baH
	DB	00H
	DB	00H
	DB	00H
	DB	0baH
	DB	00H
	DB	00H
	DB	00H
	DB	0baH
	DB	00H
	DB	00H
	DB	00H
	DB	0baH
	DB	00H
	DB	00H
	DB	00H
	DB	0baH
	DB	00H
	DB	00H
	DB	00H
	DB	0baH
	DB	00H
	DB	00H
	DB	00H
	DB	0baH
	DB	00H
	DB	00H
	DB	00H
	DB	0baH
	DB	00H
	DB	00H
	DB	00H
	DB	0baH
	DB	00H
	DB	00H
	DB	00H
	DB	0baH
	DB	00H
	DB	00H
	DB	00H
	DB	0baH
	DB	00H
	DB	00H
	DB	00H
	DB	0baH
	DB	00H
	DB	00H
	DB	00H
	DB	0baH
	DB	00H
	DB	00H
	DB	00H
	DB	0baH
	DB	00H
	DB	00H
	DB	00H
	DB	0baH
	DB	00H
	DB	00H
	DB	00H
	DB	0baH
	DB	00H
	DB	00H
	DB	00H
	DB	0baH
	DB	00H
	DB	00H
	DB	00H
	DB	0baH
	DB	00H
	DB	00H
	DB	00H
	DB	0baH
	DB	00H
	DB	00H
	DB	00H
	DB	0baH
	DB	00H
	DB	00H
	DB	00H
	DB	0baH
	DB	00H
	DB	00H
	DB	00H
	DB	0baH
	DB	00H
	DB	00H
	DB	00H
	DB	0baH
	DB	00H
	DB	00H
	DB	00H
	DB	0baH
	DB	00H
	DB	00H
	DB	00H
	DB	0baH
	DB	00H
	DB	00H
	DB	00H
	DB	0baH
	DB	00H
	DB	00H
	DB	00H
	DB	0baH
	DB	00H
	DB	00H
	DB	00H
	DB	0baH
	DB	00H
	DB	00H
	DB	00H
	DB	0baH
	DB	00H
	DB	00H
	DB	00H
	DB	0baH
	DB	00H
	DB	00H
	DB	00H
	DB	0baH
	DB	00H
	DB	00H
	DB	00H
	DB	0baH
	DB	00H
	DB	00H
	DB	00H
	DB	0baH
	DB	00H
	DB	00H
	DB	00H
	DB	0baH
	DB	00H
	DB	00H
	DB	00H
	DB	0baH
	DB	00H
	DB	00H
	DB	00H
	DB	0baH
	DB	00H
	DB	00H
	DB	00H
	DB	0baH
	DB	00H
	DB	00H
	DB	00H
	DB	0baH
	DB	00H
	DB	00H
	DB	00H
	DB	0baH
	DB	00H
	DB	00H
	DB	00H
	DB	0baH
	DB	00H
	DB	00H
	DB	00H
	DB	0baH
	DB	00H
	DB	00H
	DB	00H
	DB	0baH
	DB	00H
	DB	00H
	DB	00H
	DB	0baH
	DB	00H
	DB	00H
	DB	00H
	DB	0baH
	DB	00H
	DB	00H
	DB	00H
	DB	0baH
	DB	00H
	DB	00H
	DB	00H
	DB	0baH
	DB	00H
	DB	00H
	DB	00H
	DB	0baH
	DB	00H
	DB	00H
	DB	00H
	DB	0baH
	DB	00H
	DB	00H
	DB	00H
	DB	0baH
	DB	00H
	DB	00H
	DB	00H
	DB	0baH
	DB	00H
	DB	00H
	DB	00H
	DB	0baH
	DB	00H
	DB	00H
	DB	00H
	DB	0baH
	DB	00H
	DB	00H
	DB	00H
	DB	0baH
	DB	00H
	DB	00H
	DB	00H
	DB	0baH
	DB	00H
	DB	00H
	DB	00H
	DB	0baH
	DB	00H
	DB	00H
	DB	00H
	DB	0baH
	DB	00H
	DB	00H
	DB	00H
	DB	091H
	DB	00H
	DB	00H
	DB	00H
	DB	0b6H
	DB	00H
	DB	00H
	DB	00H
	DB	0baH
	DB	00H
	DB	00H
	DB	00H
	DB	0baH
	DB	00H
	DB	00H
	DB	00H
	DB	0baH
	DB	00H
	DB	00H
	DB	00H
	DB	0baH
	DB	00H
	DB	00H
	DB	00H
	DB	0baH
	DB	00H
	DB	00H
	DB	00H
	DB	0baH
	DB	00H
	DB	00H
	DB	00H
	DB	0baH
	DB	00H
	DB	00H
	DB	00H
	DB	0baH
	DB	00H
	DB	00H
	DB	00H
	DB	0baH
	DB	00H
	DB	00H
	DB	00H
	DB	0baH
	DB	00H
	DB	00H
	DB	00H
	DB	0baH
	DB	00H
	DB	00H
	DB	00H
	DB	0baH
	DB	00H
	DB	00H
	DB	00H
	DB	0baH
	DB	00H
	DB	00H
	DB	00H
	DB	0baH
	DB	00H
	DB	00H
	DB	00H
	DB	0baH
	DB	00H
	DB	00H
	DB	00H
	DB	0baH
	DB	00H
	DB	00H
	DB	00H
	DB	0baH
	DB	00H
	DB	00H
	DB	00H
	DB	0baH
	DB	00H
	DB	00H
	DB	00H
	DB	0baH
	DB	00H
	DB	00H
	DB	00H
	DB	0baH
	DB	00H
	DB	00H
	DB	00H
	DB	0baH
	DB	00H
	DB	00H
	DB	00H
	DB	0baH
	DB	00H
	DB	00H
	DB	00H
	DB	0baH
	DB	00H
	DB	00H
	DB	00H
	DB	0baH
	DB	00H
	DB	00H
	DB	00H
	DB	0baH
	DB	00H
	DB	00H
	DB	00H
	DB	0baH
	DB	00H
	DB	00H
	DB	00H
	DB	0baH
	DB	00H
	DB	00H
	DB	00H
	DB	0baH
	DB	00H
	DB	00H
	DB	00H
	DB	0baH
	DB	00H
	DB	00H
	DB	00H
	DB	0baH
	DB	00H
	DB	00H
	DB	00H
	DB	0baH
	DB	00H
	DB	00H
	DB	00H
	DB	0baH
	DB	00H
	DB	00H
	DB	00H
	DB	0baH
	DB	00H
	DB	00H
	DB	00H
	DB	0baH
	DB	00H
	DB	00H
	DB	00H
	DB	0baH
	DB	00H
	DB	00H
	DB	00H
	DB	0baH
	DB	00H
	DB	00H
	DB	00H
	DB	0baH
	DB	00H
	DB	00H
	DB	00H
	DB	0baH
	DB	00H
	DB	00H
	DB	00H
	DB	0baH
	DB	00H
	DB	00H
	DB	00H
	DB	0baH
	DB	00H
	DB	00H
	DB	00H
	DB	0baH
	DB	00H
	DB	00H
	DB	00H
	DB	0baH
	DB	00H
	DB	00H
	DB	00H
	DB	0baH
	DB	00H
	DB	00H
	DB	00H
	DB	0baH
	DB	00H
	DB	00H
	DB	00H
	DB	0baH
	DB	00H
	DB	00H
	DB	00H
	DB	0baH
	DB	00H
	DB	00H
	DB	00H
	DB	0baH
	DB	00H
	DB	00H
	DB	00H
	DB	0baH
	DB	00H
	DB	00H
	DB	00H
	DB	0baH
	DB	00H
	DB	00H
	DB	00H
	DB	0baH
	DB	00H
	DB	00H
	DB	00H
	DB	0baH
	DB	00H
	DB	00H
	DB	00H
	DB	0baH
	DB	00H
	DB	00H
	DB	00H
	DB	0baH
	DB	00H
	DB	00H
	DB	00H
	DB	0baH
	DB	00H
	DB	00H
	DB	00H
	DB	0baH
	DB	00H
	DB	00H
	DB	00H
	DB	0baH
	DB	00H
	DB	00H
	DB	00H
	DB	0baH
	DB	00H
	DB	00H
	DB	00H
	DB	0baH
	DB	00H
	DB	00H
	DB	00H
	DB	0baH
	DB	00H
	DB	00H
	DB	00H
	DB	0baH
	DB	00H
	DB	00H
	DB	00H
	DB	0baH
	DB	00H
	DB	00H
	DB	00H
	DB	0baH
	DB	00H
	DB	00H
	DB	00H
	DB	0baH
	DB	00H
	DB	00H
	DB	00H
	DB	0baH
	DB	00H
	DB	00H
	DB	00H
	DB	0baH
	DB	00H
	DB	00H
	DB	00H
	DB	0baH
	DB	00H
	DB	00H
	DB	00H
	DB	0baH
	DB	00H
	DB	00H
	DB	00H
	DB	0baH
	DB	00H
	DB	00H
	DB	00H
	DB	0baH
	DB	00H
	DB	00H
	DB	00H
	DB	0baH
	DB	00H
	DB	00H
	DB	00H
	DB	0baH
	DB	00H
	DB	00H
	DB	00H
	DB	0baH
	DB	00H
	DB	00H
	DB	00H
	DB	0baH
	DB	00H
	DB	00H
	DB	00H
	DB	0baH
	DB	00H
	DB	00H
	DB	00H
	DB	0baH
	DB	00H
	DB	00H
	DB	00H
	DB	0baH
	DB	00H
	DB	00H
	DB	00H
	DB	0baH
	DB	00H
	DB	00H
	DB	00H
	DB	0baH
	DB	00H
	DB	00H
	DB	00H
	DB	0baH
	DB	00H
	DB	00H
	DB	00H
	DB	0baH
	DB	00H
	DB	00H
	DB	00H
	DB	0baH
	DB	00H
	DB	00H
	DB	00H
	DB	0baH
	DB	00H
	DB	00H
	DB	00H
	DB	0baH
	DB	00H
	DB	00H
	DB	00H
	DB	0baH
	DB	00H
	DB	00H
	DB	00H
	DB	0baH
	DB	00H
	DB	00H
	DB	00H
	DB	0baH
	DB	00H
	DB	00H
	DB	00H
	DB	0baH
	DB	00H
	DB	00H
	DB	00H
	DB	0baH
	DB	00H
	DB	00H
	DB	00H
	DB	0baH
	DB	00H
	DB	00H
	DB	00H
	DB	0baH
	DB	00H
	DB	00H
	DB	00H
	DB	0baH
	DB	00H
	DB	00H
	DB	00H
	DB	0baH
	DB	00H
	DB	00H
	DB	00H
	DB	0baH
	DB	00H
	DB	00H
	DB	00H
	DB	0baH
	DB	00H
	DB	00H
	DB	00H
	DB	0baH
	DB	00H
	DB	00H
	DB	00H
	DB	0baH
	DB	00H
	DB	00H
	DB	00H
	DB	0baH
	DB	00H
	DB	00H
	DB	00H
	DB	0baH
	DB	00H
	DB	00H
	DB	00H
	DB	0baH
	DB	00H
	DB	00H
	DB	00H
	DB	0baH
	DB	00H
	DB	00H
	DB	00H
	DB	0baH
	DB	00H
	DB	00H
	DB	00H
	DB	0baH
	DB	00H
	DB	00H
	DB	00H
	DB	0baH
	DB	00H
	DB	00H
	DB	00H
	DB	0baH
	DB	00H
	DB	00H
	DB	00H
	DB	0baH
	DB	00H
	DB	00H
	DB	00H
	DB	0baH
	DB	00H
	DB	00H
	DB	00H
	DB	0baH
	DB	00H
	DB	00H
	DB	00H
	DB	0baH
	DB	00H
	DB	00H
	DB	00H
	DB	0baH
	DB	00H
	DB	00H
	DB	00H
	DB	0baH
	DB	00H
	DB	00H
	DB	00H
	DB	0baH
	DB	00H
	DB	00H
	DB	00H
	DB	0baH
	DB	00H
	DB	00H
	DB	00H
	DB	0baH
	DB	00H
	DB	00H
	DB	00H
	DB	0baH
	DB	00H
	DB	00H
	DB	00H
	DB	0baH
	DB	00H
	DB	00H
	DB	00H
	DB	0baH
	DB	00H
	DB	00H
	DB	00H
	DB	0baH
	DB	00H
	DB	00H
	DB	00H
	DB	0baH
	DB	00H
	DB	00H
	DB	00H
	DB	0baH
	DB	00H
	DB	00H
	DB	00H
	DB	0baH
	DB	00H
	DB	00H
	DB	00H
	DB	0baH
	DB	00H
	DB	00H
	DB	00H
	DB	0baH
	DB	00H
	DB	00H
	DB	00H
	DB	0baH
	DB	00H
	DB	00H
	DB	00H
	DB	0baH
	DB	00H
	DB	00H
	DB	00H
	DB	0baH
	DB	00H
	DB	00H
	DB	00H
	DB	0baH
	DB	00H
	DB	00H
	DB	00H
	DB	0baH
	DB	00H
	DB	00H
	DB	00H
	DB	0baH
	DB	00H
	DB	00H
	DB	00H
	DB	0b5H
	DB	00H
	DB	00H
	DB	00H
	DB	0baH
	DB	00H
	DB	00H
	DB	00H
	DB	0baH
	DB	00H
	DB	00H
	DB	00H
	DB	0baH
	DB	00H
	DB	00H
	DB	00H
	DB	0baH
	DB	00H
	DB	00H
	DB	00H
	DB	0baH
	DB	00H
	DB	00H
	DB	00H
	DB	0baH
	DB	00H
	DB	00H
	DB	00H
	DB	0baH
	DB	00H
	DB	00H
	DB	00H
	DB	0baH
	DB	00H
	DB	00H
	DB	00H
	DB	0baH
	DB	00H
	DB	00H
	DB	00H
	DB	0baH
	DB	00H
	DB	00H
	DB	00H
	DB	0baH
	DB	00H
	DB	00H
	DB	00H
	DB	0baH
	DB	00H
	DB	00H
	DB	00H
	DB	0baH
	DB	00H
	DB	00H
	DB	00H
	DB	0baH
	DB	00H
	DB	00H
	DB	00H
	DB	0baH
	DB	00H
	DB	00H
	DB	00H
	DB	0baH
	DB	00H
	DB	00H
	DB	00H
	DB	0baH
	DB	00H
	DB	00H
	DB	00H
	DB	0baH
	DB	00H
	DB	00H
	DB	00H
	DB	0baH
	DB	00H
	DB	00H
	DB	00H
	DB	0baH
	DB	00H
	DB	00H
	DB	00H
	DB	0baH
	DB	00H
	DB	00H
	DB	00H
	DB	0baH
	DB	00H
	DB	00H
	DB	00H
	DB	0baH
	DB	00H
	DB	00H
	DB	00H
	DB	0baH
	DB	00H
	DB	00H
	DB	00H
	DB	0baH
	DB	00H
	DB	00H
	DB	00H
	DB	0baH
	DB	00H
	DB	00H
	DB	00H
	DB	0baH
	DB	00H
	DB	00H
	DB	00H
	DB	0baH
	DB	00H
	DB	00H
	DB	00H
	DB	0baH
	DB	00H
	DB	00H
	DB	00H
	DB	0baH
	DB	00H
	DB	00H
	DB	00H
	DB	0baH
	DB	00H
	DB	00H
	DB	00H
	DB	0baH
	DB	00H
	DB	00H
	DB	00H
	DB	0baH
	DB	00H
	DB	00H
	DB	00H
	DB	0baH
	DB	00H
	DB	00H
	DB	00H
	DB	0baH
	DB	00H
	DB	00H
	DB	00H
	DB	0baH
	DB	00H
	DB	00H
	DB	00H
	DB	0baH
	DB	00H
	DB	00H
	DB	00H
	DB	0baH
	DB	00H
	DB	00H
	DB	00H
	DB	0baH
	DB	00H
	DB	00H
	DB	00H
	DB	0baH
	DB	00H
	DB	00H
	DB	00H
	DB	0baH
	DB	00H
	DB	00H
	DB	00H
	DB	0baH
	DB	00H
	DB	00H
	DB	00H
	DB	0baH
	DB	00H
	DB	00H
	DB	00H
	DB	0baH
	DB	00H
	DB	00H
	DB	00H
	DB	0baH
	DB	00H
	DB	00H
	DB	00H
	DB	0baH
	DB	00H
	DB	00H
	DB	00H
	DB	0baH
	DB	00H
	DB	00H
	DB	00H
	DB	0baH
	DB	00H
	DB	00H
	DB	00H
	DB	0baH
	DB	00H
	DB	00H
	DB	00H
	DB	0baH
	DB	00H
	DB	00H
	DB	00H
	DB	0baH
	DB	00H
	DB	00H
	DB	00H
	DB	0baH
	DB	00H
	DB	00H
	DB	00H
	DB	0baH
	DB	00H
	DB	00H
	DB	00H
	DB	0baH
	DB	00H
	DB	00H
	DB	00H
	DB	0baH
	DB	00H
	DB	00H
	DB	00H
	DB	0baH
	DB	00H
	DB	00H
	DB	00H
	DB	0baH
	DB	00H
	DB	00H
	DB	00H
	DB	0baH
	DB	00H
	DB	00H
	DB	00H
	DB	0baH
	DB	00H
	DB	00H
	DB	00H
	DB	0baH
	DB	00H
	DB	00H
	DB	00H
	DB	0baH
	DB	00H
	DB	00H
	DB	00H
	DB	0baH
	DB	00H
	DB	00H
	DB	00H
	DB	0baH
	DB	00H
	DB	00H
	DB	00H
	DB	0baH
	DB	00H
	DB	00H
	DB	00H
	DB	0baH
	DB	00H
	DB	00H
	DB	00H
	DB	0baH
	DB	00H
	DB	00H
	DB	00H
	DB	0baH
	DB	00H
	DB	00H
	DB	00H
	DB	0baH
	DB	00H
	DB	00H
	DB	00H
	DB	0baH
	DB	00H
	DB	00H
	DB	00H
	DB	0baH
	DB	00H
	DB	00H
	DB	00H
	DB	0baH
	DB	00H
	DB	00H
	DB	00H
	DB	0baH
	DB	00H
	DB	00H
	DB	00H
	DB	0baH
	DB	00H
	DB	00H
	DB	00H
	DB	0baH
	DB	00H
	DB	00H
	DB	00H
	DB	0baH
	DB	00H
	DB	00H
	DB	00H
	DB	0baH
	DB	00H
	DB	00H
	DB	00H
	DB	0baH
	DB	00H
	DB	00H
	DB	00H
	DB	0baH
	DB	00H
	DB	00H
	DB	00H
	DB	0baH
	DB	00H
	DB	00H
	DB	00H
	DB	0baH
	DB	00H
	DB	00H
	DB	00H
	DB	0baH
	DB	00H
	DB	00H
	DB	00H
	DB	0baH
	DB	00H
	DB	00H
	DB	00H
	DB	0baH
	DB	00H
	DB	00H
	DB	00H
	DB	0baH
	DB	00H
	DB	00H
	DB	00H
	DB	0baH
	DB	00H
	DB	00H
	DB	00H
	DB	0baH
	DB	00H
	DB	00H
	DB	00H
	DB	0baH
	DB	00H
	DB	00H
	DB	00H
	DB	0baH
	DB	00H
	DB	00H
	DB	00H
	DB	0baH
	DB	00H
	DB	00H
	DB	00H
	DB	0baH
	DB	00H
	DB	00H
	DB	00H
	DB	0baH
	DB	00H
	DB	00H
	DB	00H
	DB	0baH
	DB	00H
	DB	00H
	DB	00H
	DB	0baH
	DB	00H
	DB	00H
	DB	00H
	DB	0baH
	DB	00H
	DB	00H
	DB	00H
	DB	0baH
	DB	00H
	DB	00H
	DB	00H
	DB	0baH
	DB	00H
	DB	00H
	DB	00H
	DB	0baH
	DB	00H
	DB	00H
	DB	00H
	DB	0baH
	DB	00H
	DB	00H
	DB	00H
	DB	0baH
	DB	00H
	DB	00H
	DB	00H
	DB	0baH
	DB	00H
	DB	00H
	DB	00H
	DB	0baH
	DB	00H
	DB	00H
	DB	00H
	DB	0baH
	DB	00H
	DB	00H
	DB	00H
	DB	0baH
	DB	00H
	DB	00H
	DB	00H
	DB	0baH
	DB	00H
	DB	00H
	DB	00H
	DB	0baH
	DB	00H
	DB	00H
	DB	00H
	DB	0baH
	DB	00H
	DB	00H
	DB	00H
	DB	0baH
	DB	00H
	DB	00H
	DB	00H
	DB	0baH
	DB	00H
	DB	00H
	DB	00H
	DB	0baH
	DB	00H
	DB	00H
	DB	00H
	DB	0baH
	DB	00H
	DB	00H
	DB	00H
	DB	0baH
	DB	00H
	DB	00H
	DB	00H
	DB	0baH
	DB	00H
	DB	00H
	DB	00H
	DB	0baH
	DB	00H
	DB	00H
	DB	00H
	DB	0baH
	DB	00H
	DB	00H
	DB	00H
	DB	0baH
	DB	00H
	DB	00H
	DB	00H
	DB	0baH
	DB	00H
	DB	00H
	DB	00H
	DB	0baH
	DB	00H
	DB	00H
	DB	00H
	DB	0baH
	DB	00H
	DB	00H
	DB	00H
	DB	0baH
	DB	00H
	DB	00H
	DB	00H
	DB	0baH
	DB	00H
	DB	00H
	DB	00H
	DB	0baH
	DB	00H
	DB	00H
	DB	00H
	DB	0baH
	DB	00H
	DB	00H
	DB	00H
	DB	0baH
	DB	00H
	DB	00H
	DB	00H
	DB	0baH
	DB	00H
	DB	00H
	DB	00H
	DB	0baH
	DB	00H
	DB	00H
	DB	00H
	DB	0baH
	DB	00H
	DB	00H
	DB	00H
	DB	0baH
	DB	00H
	DB	00H
	DB	00H
	DB	0baH
	DB	00H
	DB	00H
	DB	00H
	DB	0baH
	DB	00H
	DB	00H
	DB	00H
	DB	0baH
	DB	00H
	DB	00H
	DB	00H
	DB	0baH
	DB	00H
	DB	00H
	DB	00H
	DB	0baH
	DB	00H
	DB	00H
	DB	00H
	DB	0baH
	DB	00H
	DB	00H
	DB	00H
	DB	0baH
	DB	00H
	DB	00H
	DB	00H
	DB	0baH
	DB	00H
	DB	00H
	DB	00H
	DB	0baH
	DB	00H
	DB	00H
	DB	00H
	DB	0baH
	DB	00H
	DB	00H
	DB	00H
	DB	0baH
	DB	00H
	DB	00H
	DB	00H
	DB	0baH
	DB	00H
	DB	00H
	DB	00H
	DB	0baH
	DB	00H
	DB	00H
	DB	00H
	DB	0baH
	DB	00H
	DB	00H
	DB	00H
	DB	0baH
	DB	00H
	DB	00H
	DB	00H
	DB	0baH
	DB	00H
	DB	00H
	DB	00H
	DB	0baH
	DB	00H
	DB	00H
	DB	00H
	DB	0baH
	DB	00H
	DB	00H
	DB	00H
	DB	0baH
	DB	00H
	DB	00H
	DB	00H
	DB	0baH
	DB	00H
	DB	00H
	DB	00H
	DB	0baH
	DB	00H
	DB	00H
	DB	00H
	DB	0baH
	DB	00H
	DB	00H
	DB	00H
	DB	0baH
	DB	00H
	DB	00H
	DB	00H
	DB	0baH
	DB	00H
	DB	00H
	DB	00H
	DB	0baH
	DB	00H
	DB	00H
	DB	00H
	DB	0baH
	DB	00H
	DB	00H
	DB	00H
	DB	0baH
	DB	00H
	DB	00H
	DB	00H
	DB	0baH
	DB	00H
	DB	00H
	DB	00H
	DB	0baH
	DB	00H
	DB	00H
	DB	00H
	DB	0baH
	DB	00H
	DB	00H
	DB	00H
	DB	0baH
	DB	00H
	DB	00H
	DB	00H
	DB	0baH
	DB	00H
	DB	00H
	DB	00H
	DB	0baH
	DB	00H
	DB	00H
	DB	00H
	DB	0baH
	DB	00H
	DB	00H
	DB	00H
	DB	0baH
	DB	00H
	DB	00H
	DB	00H
	DB	0baH
	DB	00H
	DB	00H
	DB	00H
	DB	0baH
	DB	00H
	DB	00H
	DB	00H
	DB	0baH
	DB	00H
	DB	00H
	DB	00H
	DB	0baH
	DB	00H
	DB	00H
	DB	00H
	DB	0baH
	DB	00H
	DB	00H
	DB	00H
	DB	0baH
	DB	00H
	DB	00H
	DB	00H
	DB	0baH
	DB	00H
	DB	00H
	DB	00H
	DB	0baH
	DB	00H
	DB	00H
	DB	00H
	DB	0baH
	DB	00H
	DB	00H
	DB	00H
	DB	0baH
	DB	00H
	DB	00H
	DB	00H
	DB	0baH
	DB	00H
	DB	00H
	DB	00H
	DB	0baH
	DB	00H
	DB	00H
	DB	00H
	DB	0baH
	DB	00H
	DB	00H
	DB	00H
	DB	0baH
	DB	00H
	DB	00H
	DB	00H
	DB	0baH
	DB	00H
	DB	00H
	DB	00H
	DB	0baH
	DB	00H
	DB	00H
	DB	00H
	DB	0baH
	DB	00H
	DB	00H
	DB	00H
	DB	0baH
	DB	00H
	DB	00H
	DB	00H
	DB	0baH
	DB	00H
	DB	00H
	DB	00H
	DB	0baH
	DB	00H
	DB	00H
	DB	00H
	DB	0baH
	DB	00H
	DB	00H
	DB	00H
	DB	0baH
	DB	00H
	DB	00H
	DB	00H
	DB	0baH
	DB	00H
	DB	00H
	DB	00H
	DB	0baH
	DB	00H
	DB	00H
	DB	00H
	DB	0baH
	DB	00H
	DB	00H
	DB	00H
	DB	0baH
	DB	00H
	DB	00H
	DB	00H
	DB	0baH
	DB	00H
	DB	00H
	DB	00H
	DB	0baH
	DB	00H
	DB	00H
	DB	00H
	DB	0baH
	DB	00H
	DB	00H
	DB	00H
	DB	0baH
	DB	00H
	DB	00H
	DB	00H
	DB	0baH
	DB	00H
	DB	00H
	DB	00H
	DB	0baH
	DB	00H
	DB	00H
	DB	00H
	DB	0baH
	DB	00H
	DB	00H
	DB	00H
	DB	0baH
	DB	00H
	DB	00H
	DB	00H
	DB	0baH
	DB	00H
	DB	00H
	DB	00H
	DB	0baH
	DB	00H
	DB	00H
	DB	00H
	DB	0baH
	DB	00H
	DB	00H
	DB	00H
	DB	0baH
	DB	00H
	DB	00H
	DB	00H
	DB	0baH
	DB	00H
	DB	00H
	DB	00H
	DB	0baH
	DB	00H
	DB	00H
	DB	00H
	DB	0baH
	DB	00H
	DB	00H
	DB	00H
	DB	0baH
	DB	00H
	DB	00H
	DB	00H
	DB	0baH
	DB	00H
	DB	00H
	DB	00H
	DB	0baH
	DB	00H
	DB	00H
	DB	00H
	DB	0baH
	DB	00H
	DB	00H
	DB	00H
	DB	0baH
	DB	00H
	DB	00H
	DB	00H
	DB	0baH
	DB	00H
	DB	00H
	DB	00H
	DB	0baH
	DB	00H
	DB	00H
	DB	00H
	DB	0baH
	DB	00H
	DB	00H
	DB	00H
	DB	0baH
	DB	00H
	DB	00H
	DB	00H
	DB	0baH
	DB	00H
	DB	00H
	DB	00H
	DB	0baH
	DB	00H
	DB	00H
	DB	00H
	DB	0baH
	DB	00H
	DB	00H
	DB	00H
	DB	0baH
	DB	00H
	DB	00H
	DB	00H
	DB	0baH
	DB	00H
	DB	00H
	DB	00H
	DB	0baH
	DB	00H
	DB	00H
	DB	00H
	DB	0baH
	DB	00H
	DB	00H
	DB	00H
	DB	0baH
	DB	00H
	DB	00H
	DB	00H
	DB	0baH
	DB	00H
	DB	00H
	DB	00H
	DB	0baH
	DB	00H
	DB	00H
	DB	00H
	DB	0baH
	DB	00H
	DB	00H
	DB	00H
	DB	0baH
	DB	00H
	DB	00H
	DB	00H
	DB	0baH
	DB	00H
	DB	00H
	DB	00H
	DB	0baH
	DB	00H
	DB	00H
	DB	00H
	DB	0baH
	DB	00H
	DB	00H
	DB	00H
	DB	0baH
	DB	00H
	DB	00H
	DB	00H
	DB	0baH
	DB	00H
	DB	00H
	DB	00H
	DB	0baH
	DB	00H
	DB	00H
	DB	00H
	DB	0baH
	DB	00H
	DB	00H
	DB	00H
	DB	0baH
	DB	00H
	DB	00H
	DB	00H
	DB	0baH
	DB	00H
	DB	00H
	DB	00H
	DB	0baH
	DB	00H
	DB	00H
	DB	00H
	DB	0baH
	DB	00H
	DB	00H
	DB	00H
	DB	0baH
	DB	00H
	DB	00H
	DB	00H
	DB	0baH
	DB	00H
	DB	00H
	DB	00H
	DB	0baH
	DB	00H
	DB	00H
	DB	00H
	DB	0baH
	DB	00H
	DB	00H
	DB	00H
	DB	0baH
	DB	00H
	DB	00H
	DB	00H
	DB	0baH
	DB	00H
	DB	00H
	DB	00H
	DB	0baH
	DB	00H
	DB	00H
	DB	00H
	DB	0baH
	DB	00H
	DB	00H
	DB	00H
	DB	0baH
	DB	00H
	DB	00H
	DB	00H
	DB	0baH
	DB	00H
	DB	00H
	DB	00H
	DB	0baH
	DB	00H
	DB	00H
	DB	00H
	DB	0baH
	DB	00H
	DB	00H
	DB	00H
	DB	0baH
	DB	00H
	DB	00H
	DB	00H
	DB	0baH
	DB	00H
	DB	00H
	DB	00H
	DB	0baH
	DB	00H
	DB	00H
	DB	00H
	DB	0baH
	DB	00H
	DB	00H
	DB	00H
	DB	0baH
	DB	00H
	DB	00H
	DB	00H
	DB	0baH
	DB	00H
	DB	00H
	DB	00H
	DB	0baH
	DB	00H
	DB	00H
	DB	00H
	DB	0baH
	DB	00H
	DB	00H
	DB	00H
	DB	0baH
	DB	00H
	DB	00H
	DB	00H
	DB	0baH
	DB	00H
	DB	00H
	DB	00H
	DB	0baH
	DB	00H
	DB	00H
	DB	00H
	DB	0baH
	DB	00H
	DB	00H
	DB	00H
	DB	0baH
	DB	00H
	DB	00H
	DB	00H
	DB	0baH
	DB	00H
	DB	00H
	DB	00H
	DB	0baH
	DB	00H
	DB	00H
	DB	00H
	DB	0baH
	DB	00H
	DB	00H
	DB	00H
	DB	0baH
	DB	00H
	DB	00H
	DB	00H
	DB	0baH
	DB	00H
	DB	00H
	DB	00H
	DB	0baH
	DB	00H
	DB	00H
	DB	00H
	DB	0baH
	DB	00H
	DB	00H
	DB	00H
	DB	0baH
	DB	00H
	DB	00H
	DB	00H
	DB	0baH
	DB	00H
	DB	00H
	DB	00H
	DB	0baH
	DB	00H
	DB	00H
	DB	00H
	DB	0baH
	DB	00H
	DB	00H
	DB	00H
	DB	0baH
	DB	00H
	DB	00H
	DB	00H
	DB	0baH
	DB	00H
	DB	00H
	DB	00H
	DB	0baH
	DB	00H
	DB	00H
	DB	00H
	DB	0baH
	DB	00H
	DB	00H
	DB	00H
	DB	0baH
	DB	00H
	DB	00H
	DB	00H
	DB	0baH
	DB	00H
	DB	00H
	DB	00H
	DB	0baH
	DB	00H
	DB	00H
	DB	00H
	DB	0baH
	DB	00H
	DB	00H
	DB	00H
	DB	0baH
	DB	00H
	DB	00H
	DB	00H
	DB	0baH
	DB	00H
	DB	00H
	DB	00H
	DB	0baH
	DB	00H
	DB	00H
	DB	00H
	DB	0baH
	DB	00H
	DB	00H
	DB	00H
	DB	0baH
	DB	00H
	DB	00H
	DB	00H
	DB	0baH
	DB	00H
	DB	00H
	DB	00H
	DB	0baH
	DB	00H
	DB	00H
	DB	00H
	DB	0baH
	DB	00H
	DB	00H
	DB	00H
	DB	0baH
	DB	00H
	DB	00H
	DB	00H
	DB	0baH
	DB	00H
	DB	00H
	DB	00H
	DB	0baH
	DB	00H
	DB	00H
	DB	00H
	DB	0baH
	DB	00H
	DB	00H
	DB	00H
	DB	0baH
	DB	00H
	DB	00H
	DB	00H
	DB	0baH
	DB	00H
	DB	00H
	DB	00H
	DB	0baH
	DB	00H
	DB	00H
	DB	00H
	DB	0baH
	DB	00H
	DB	00H
	DB	00H
	DB	0baH
	DB	00H
	DB	00H
	DB	00H
	DB	0baH
	DB	00H
	DB	00H
	DB	00H
	DB	0baH
	DB	00H
	DB	00H
	DB	00H
	DB	0baH
	DB	00H
	DB	00H
	DB	00H
	DB	0baH
	DB	00H
	DB	00H
	DB	00H
	DB	0baH
	DB	00H
	DB	00H
	DB	00H
	DB	0baH
	DB	00H
	DB	00H
	DB	00H
	DB	0baH
	DB	00H
	DB	00H
	DB	00H
	DB	0baH
	DB	00H
	DB	00H
	DB	00H
	DB	0baH
	DB	00H
	DB	00H
	DB	00H
	DB	0baH
	DB	00H
	DB	00H
	DB	00H
	DB	0baH
	DB	00H
	DB	00H
	DB	00H
	DB	0baH
	DB	00H
	DB	00H
	DB	00H
	DB	0baH
	DB	00H
	DB	00H
	DB	00H
	DB	0baH
	DB	00H
	DB	00H
	DB	00H
	DB	0baH
	DB	00H
	DB	00H
	DB	00H
	DB	0baH
	DB	00H
	DB	00H
	DB	00H
	DB	0baH
	DB	00H
	DB	00H
	DB	00H
	DB	0baH
	DB	00H
	DB	00H
	DB	00H
	DB	0baH
	DB	00H
	DB	00H
	DB	00H
	DB	0baH
	DB	00H
	DB	00H
	DB	00H
	DB	0baH
	DB	00H
	DB	00H
	DB	00H
	DB	0baH
	DB	00H
	DB	00H
	DB	00H
	DB	0baH
	DB	00H
	DB	00H
	DB	00H
	DB	0baH
	DB	00H
	DB	00H
	DB	00H
	DB	0baH
	DB	00H
	DB	00H
	DB	00H
	DB	0baH
	DB	00H
	DB	00H
	DB	00H
	DB	0baH
	DB	00H
	DB	00H
	DB	00H
	DB	0baH
	DB	00H
	DB	00H
	DB	00H
	DB	0baH
	DB	00H
	DB	00H
	DB	00H
	DB	0baH
	DB	00H
	DB	00H
	DB	00H
	DB	0baH
	DB	00H
	DB	00H
	DB	00H
	DB	0baH
	DB	00H
	DB	00H
	DB	00H
	DB	0baH
	DB	00H
	DB	00H
	DB	00H
	DB	0baH
	DB	00H
	DB	00H
	DB	00H
	DB	0baH
	DB	00H
	DB	00H
	DB	00H
	DB	0baH
	DB	00H
	DB	00H
	DB	00H
	DB	0baH
	DB	00H
	DB	00H
	DB	00H
	DB	0baH
	DB	00H
	DB	00H
	DB	00H
	DB	0baH
	DB	00H
	DB	00H
	DB	00H
	DB	0baH
	DB	00H
	DB	00H
	DB	00H
	DB	0baH
	DB	00H
	DB	00H
	DB	00H
	DB	0baH
	DB	00H
	DB	00H
	DB	00H
	DB	0baH
	DB	00H
	DB	00H
	DB	00H
	DB	0baH
	DB	00H
	DB	00H
	DB	00H
	DB	0baH
	DB	00H
	DB	00H
	DB	00H
	DB	0baH
	DB	00H
	DB	00H
	DB	00H
	DB	0baH
	DB	00H
	DB	00H
	DB	00H
	DB	0baH
	DB	00H
	DB	00H
	DB	00H
	DB	0baH
	DB	00H
	DB	00H
	DB	00H
	DB	0baH
	DB	00H
	DB	00H
	DB	00H
	DB	0baH
	DB	00H
	DB	00H
	DB	00H
	DB	0baH
	DB	00H
	DB	00H
	DB	00H
	DB	0baH
	DB	00H
	DB	00H
	DB	00H
	DB	0baH
	DB	00H
	DB	00H
	DB	00H
	DB	0baH
	DB	00H
	DB	00H
	DB	00H
	DB	0baH
	DB	00H
	DB	00H
	DB	00H
	DB	0baH
	DB	00H
	DB	00H
	DB	00H
	DB	0baH
	DB	00H
	DB	00H
	DB	00H
	DB	0baH
	DB	00H
	DB	00H
	DB	00H
	DB	0baH
	DB	00H
	DB	00H
	DB	00H
	DB	0baH
	DB	00H
	DB	00H
	DB	00H
	DB	0baH
	DB	00H
	DB	00H
	DB	00H
	DB	0baH
	DB	00H
	DB	00H
	DB	00H
	DB	0baH
	DB	00H
	DB	00H
	DB	00H
	DB	0baH
	DB	00H
	DB	00H
	DB	00H
	DB	0baH
	DB	00H
	DB	00H
	DB	00H
	DB	0baH
	DB	00H
	DB	00H
	DB	00H
	DB	0baH
	DB	00H
	DB	00H
	DB	00H
	DB	0baH
	DB	00H
	DB	00H
	DB	00H
	DB	0baH
	DB	00H
	DB	00H
	DB	00H
	DB	0baH
	DB	00H
	DB	00H
	DB	00H
	DB	0baH
	DB	00H
	DB	00H
	DB	00H
	DB	0baH
	DB	00H
	DB	00H
	DB	00H
	DB	0baH
	DB	00H
	DB	00H
	DB	00H
	DB	0baH
	DB	00H
	DB	00H
	DB	00H
	DB	0baH
	DB	00H
	DB	00H
	DB	00H
	DB	0baH
	DB	00H
	DB	00H
	DB	00H
	DB	0baH
	DB	00H
	DB	00H
	DB	00H
	DB	0baH
	DB	00H
	DB	00H
	DB	00H
	DB	0baH
	DB	00H
	DB	00H
	DB	00H
	DB	0baH
	DB	00H
	DB	00H
	DB	00H
	DB	0baH
	DB	00H
	DB	00H
	DB	00H
	DB	0baH
	DB	00H
	DB	00H
	DB	00H
	DB	0baH
	DB	00H
	DB	00H
	DB	00H
	DB	0baH
	DB	00H
	DB	00H
	DB	00H
	DB	0baH
	DB	00H
	DB	00H
	DB	00H
	DB	0baH
	DB	00H
	DB	00H
	DB	00H
	DB	0baH
	DB	00H
	DB	00H
	DB	00H
	DB	0baH
	DB	00H
	DB	00H
	DB	00H
	DB	0baH
	DB	00H
	DB	00H
	DB	00H
	DB	0baH
	DB	00H
	DB	00H
	DB	00H
	DB	0baH
	DB	00H
	DB	00H
	DB	00H
	DB	0baH
	DB	00H
	DB	00H
	DB	00H
	DB	0baH
	DB	00H
	DB	00H
	DB	00H
	DB	0baH
	DB	00H
	DB	00H
	DB	00H
	DB	0baH
	DB	00H
	DB	00H
	DB	00H
	DB	0baH
	DB	00H
	DB	00H
	DB	00H
	DB	0baH
	DB	00H
	DB	00H
	DB	00H
	DB	0baH
	DB	00H
	DB	00H
	DB	00H
	DB	0baH
	DB	00H
	DB	00H
	DB	00H
	DB	0baH
	DB	00H
	DB	00H
	DB	00H
	DB	0baH
	DB	00H
	DB	00H
	DB	00H
	DB	0baH
	DB	00H
	DB	00H
	DB	00H
	DB	0baH
	DB	00H
	DB	00H
	DB	00H
	DB	0baH
	DB	00H
	DB	00H
	DB	00H
	DB	0baH
	DB	00H
	DB	00H
	DB	00H
	DB	0baH
	DB	00H
	DB	00H
	DB	00H
	DB	0baH
	DB	00H
	DB	00H
	DB	00H
	DB	0baH
	DB	00H
	DB	00H
	DB	00H
	DB	0baH
	DB	00H
	DB	00H
	DB	00H
	DB	0baH
	DB	00H
	DB	00H
	DB	00H
	DB	0baH
	DB	00H
	DB	00H
	DB	00H
	DB	0baH
	DB	00H
	DB	00H
	DB	00H
	DB	0baH
	DB	00H
	DB	00H
	DB	00H
	DB	0baH
	DB	00H
	DB	00H
	DB	00H
	DB	0baH
	DB	00H
	DB	00H
	DB	00H
	DB	0baH
	DB	00H
	DB	00H
	DB	00H
	DB	0baH
	DB	00H
	DB	00H
	DB	00H
	DB	0baH
	DB	00H
	DB	00H
	DB	00H
	DB	0baH
	DB	00H
	DB	00H
	DB	00H
	DB	0baH
	DB	00H
	DB	00H
	DB	00H
	DB	0baH
	DB	00H
	DB	00H
	DB	00H
	DB	0baH
	DB	00H
	DB	00H
	DB	00H
	DB	0baH
	DB	00H
	DB	00H
	DB	00H
	DB	0baH
	DB	00H
	DB	00H
	DB	00H
	DB	0baH
	DB	00H
	DB	00H
	DB	00H
	DB	0baH
	DB	00H
	DB	00H
	DB	00H
	DB	0baH
	DB	00H
	DB	00H
	DB	00H
	DB	0baH
	DB	00H
	DB	00H
	DB	00H
	DB	0baH
	DB	00H
	DB	00H
	DB	00H
	DB	0baH
	DB	00H
	DB	00H
	DB	00H
	DB	0baH
	DB	00H
	DB	00H
	DB	00H
	DB	0baH
	DB	00H
	DB	00H
	DB	00H
	DB	0baH
	DB	00H
	DB	00H
	DB	00H
	DB	0baH
	DB	00H
	DB	00H
	DB	00H
	DB	0baH
	DB	00H
	DB	00H
	DB	00H
	DB	0baH
	DB	00H
	DB	00H
	DB	00H
	DB	0baH
	DB	00H
	DB	00H
	DB	00H
	DB	0baH
	DB	00H
	DB	00H
	DB	00H
	DB	0baH
	DB	00H
	DB	00H
	DB	00H
	DB	0baH
	DB	00H
	DB	00H
	DB	00H
	DB	0baH
	DB	00H
	DB	00H
	DB	00H
	DB	0baH
	DB	00H
	DB	00H
	DB	00H
	DB	0baH
	DB	00H
	DB	00H
	DB	00H
	DB	0baH
	DB	00H
	DB	00H
	DB	00H
	DB	0baH
	DB	00H
	DB	00H
	DB	00H
	DB	0baH
	DB	00H
	DB	00H
	DB	00H
	DB	0baH
	DB	00H
	DB	00H
	DB	00H
	DB	0baH
	DB	00H
	DB	00H
	DB	00H
	DB	0baH
	DB	00H
	DB	00H
	DB	00H
	DB	0baH
	DB	00H
	DB	00H
	DB	00H
	DB	0baH
	DB	00H
	DB	00H
	DB	00H
	DB	0baH
	DB	00H
	DB	00H
	DB	00H
	DB	0baH
	DB	00H
	DB	00H
	DB	00H
	DB	0baH
	DB	00H
	DB	00H
	DB	00H
	DB	0baH
	DB	00H
	DB	00H
	DB	00H
	DB	0baH
	DB	00H
	DB	00H
	DB	00H
	DB	0baH
	DB	00H
	DB	00H
	DB	00H
	DB	0baH
	DB	00H
	DB	00H
	DB	00H
	DB	0baH
	DB	00H
	DB	00H
	DB	00H
	DB	0baH
	DB	00H
	DB	00H
	DB	00H
	DB	0baH
	DB	00H
	DB	00H
	DB	00H
	DB	0baH
	DB	00H
	DB	00H
	DB	00H
	DB	0baH
	DB	00H
	DB	00H
	DB	00H
	DB	0baH
	DB	00H
	DB	00H
	DB	00H
	DB	0baH
	DB	00H
	DB	00H
	DB	00H
	DB	0baH
	DB	00H
	DB	00H
	DB	00H
	DB	0baH
	DB	00H
	DB	00H
	DB	00H
	DB	0baH
	DB	00H
	DB	00H
	DB	00H
	DB	0baH
	DB	00H
	DB	00H
	DB	00H
	DB	0baH
	DB	00H
	DB	00H
	DB	00H
	DB	0baH
	DB	00H
	DB	00H
	DB	00H
	DB	0baH
	DB	00H
	DB	00H
	DB	00H
	DB	0baH
	DB	00H
	DB	00H
	DB	00H
	DB	0baH
	DB	00H
	DB	00H
	DB	00H
	DB	0baH
	DB	00H
	DB	00H
	DB	00H
	DB	0baH
	DB	00H
	DB	00H
	DB	00H
	DB	0baH
	DB	00H
	DB	00H
	DB	00H
	DB	0baH
	DB	00H
	DB	00H
	DB	00H
	DB	0baH
	DB	00H
	DB	00H
	DB	00H
	DB	0baH
	DB	00H
	DB	00H
	DB	00H
	DB	0baH
	DB	00H
	DB	00H
	DB	00H
	DB	0baH
	DB	00H
	DB	00H
	DB	00H
	DB	0baH
	DB	00H
	DB	00H
	DB	00H
	DB	0baH
	DB	00H
	DB	00H
	DB	00H
	DB	0baH
	DB	00H
	DB	00H
	DB	00H
	DB	0baH
	DB	00H
	DB	00H
	DB	00H
	DB	0baH
	DB	00H
	DB	00H
	DB	00H
	DB	0baH
	DB	00H
	DB	00H
	DB	00H
	DB	0baH
	DB	00H
	DB	00H
	DB	00H
	DB	0baH
	DB	00H
	DB	00H
	DB	00H
	DB	0baH
	DB	00H
	DB	00H
	DB	00H
	DB	0baH
	DB	00H
	DB	00H
	DB	00H
	DB	0baH
	DB	00H
	DB	00H
	DB	00H
	DB	0baH
	DB	00H
	DB	00H
	DB	00H
	DB	0baH
	DB	00H
	DB	00H
	DB	00H
	DB	0baH
	DB	00H
	DB	00H
	DB	00H
	DB	0baH
	DB	00H
	DB	00H
	DB	00H
	DB	0baH
	DB	00H
	DB	00H
	DB	00H
	DB	0baH
	DB	00H
	DB	00H
	DB	00H
	DB	0baH
	DB	00H
	DB	00H
	DB	00H
	DB	0baH
	DB	00H
	DB	00H
	DB	00H
	DB	0baH
	DB	00H
	DB	00H
	DB	00H
	DB	0baH
	DB	00H
	DB	00H
	DB	00H
	DB	0baH
	DB	00H
	DB	00H
	DB	00H
	DB	0baH
	DB	00H
	DB	00H
	DB	00H
	DB	0baH
	DB	00H
	DB	00H
	DB	00H
	DB	0baH
	DB	00H
	DB	00H
	DB	00H
	DB	0baH
	DB	00H
	DB	00H
	DB	00H
	DB	0baH
	DB	00H
	DB	00H
	DB	00H
	DB	0baH
	DB	00H
	DB	00H
	DB	00H
	DB	0baH
	DB	00H
	DB	00H
	DB	00H
	DB	0baH
	DB	00H
	DB	00H
	DB	00H
	DB	0baH
	DB	00H
	DB	00H
	DB	00H
	DB	0baH
	DB	00H
	DB	00H
	DB	00H
	DB	0baH
	DB	00H
	DB	00H
	DB	00H
	DB	0baH
	DB	00H
	DB	00H
	DB	00H
	DB	0baH
	DB	00H
	DB	00H
	DB	00H
	DB	0baH
	DB	00H
	DB	00H
	DB	00H
	DB	0baH
	DB	00H
	DB	00H
	DB	00H
	DB	0baH
	DB	00H
	DB	00H
	DB	00H
	DB	0baH
	DB	00H
	DB	00H
	DB	00H
	DB	0baH
	DB	00H
	DB	00H
	DB	00H
	DB	0baH
	DB	00H
	DB	00H
	DB	00H
	DB	0baH
	DB	00H
	DB	00H
	DB	00H
	DB	0baH
	DB	00H
	DB	00H
	DB	00H
	DB	0baH
	DB	00H
	DB	00H
	DB	00H
	DB	0baH
	DB	00H
	DB	00H
	DB	00H
	DB	0baH
	DB	00H
	DB	00H
	DB	00H
	DB	0baH
	DB	00H
	DB	00H
	DB	00H
	DB	0baH
	DB	00H
	DB	00H
	DB	00H
	DB	0baH
	DB	00H
	DB	00H
	DB	00H
	DB	0baH
	DB	00H
	DB	00H
	DB	00H
	DB	0baH
	DB	00H
	DB	00H
	DB	00H
	DB	0baH
	DB	00H
	DB	00H
	DB	00H
	DB	0baH
	DB	00H
	DB	00H
	DB	00H
	DB	0baH
	DB	00H
	DB	00H
	DB	00H
	DB	0baH
	DB	00H
	DB	00H
	DB	00H
	DB	0baH
	DB	00H
	DB	00H
	DB	00H
	DB	0baH
	DB	00H
	DB	00H
	DB	00H
	DB	0baH
	DB	00H
	DB	00H
	DB	00H
	DB	0baH
	DB	00H
	DB	00H
	DB	00H
	DB	0baH
	DB	00H
	DB	00H
	DB	00H
	DB	0baH
	DB	00H
	DB	00H
	DB	00H
	DB	0baH
	DB	00H
	DB	00H
	DB	00H
	DB	0baH
	DB	00H
	DB	00H
	DB	00H
	DB	0baH
	DB	00H
	DB	00H
	DB	00H
	DB	0baH
	DB	00H
	DB	00H
	DB	00H
	DB	0baH
	DB	00H
	DB	00H
	DB	00H
	DB	0baH
	DB	00H
	DB	00H
	DB	00H
	DB	0baH
	DB	00H
	DB	00H
	DB	00H
	DB	0baH
	DB	00H
	DB	00H
	DB	00H
	DB	0baH
	DB	00H
	DB	00H
	DB	00H
	DB	0baH
	DB	00H
	DB	00H
	DB	00H
	DB	0baH
	DB	00H
	DB	00H
	DB	00H
	DB	0baH
	DB	00H
	DB	00H
	DB	00H
	DB	0baH
	DB	00H
	DB	00H
	DB	00H
	DB	0baH
	DB	00H
	DB	00H
	DB	00H
	DB	0baH
	DB	00H
	DB	00H
	DB	00H
	DB	0baH
	DB	00H
	DB	00H
	DB	00H
	DB	0baH
	DB	00H
	DB	00H
	DB	00H
	DB	0baH
	DB	00H
	DB	00H
	DB	00H
	DB	0baH
	DB	00H
	DB	00H
	DB	00H
	DB	0baH
	DB	00H
	DB	00H
	DB	00H
	DB	0baH
	DB	00H
	DB	00H
	DB	00H
	DB	0baH
	DB	00H
	DB	00H
	DB	00H
	DB	0baH
	DB	00H
	DB	00H
	DB	00H
	DB	0baH
	DB	00H
	DB	00H
	DB	00H
	DB	0baH
	DB	00H
	DB	00H
	DB	00H
	DB	0baH
	DB	00H
	DB	00H
	DB	00H
	DB	0baH
	DB	00H
	DB	00H
	DB	00H
	DB	0baH
	DB	00H
	DB	00H
	DB	00H
	DB	0baH
	DB	00H
	DB	00H
	DB	00H
	DB	0baH
	DB	00H
	DB	00H
	DB	00H
	DB	0baH
	DB	00H
	DB	00H
	DB	00H
	DB	0baH
	DB	00H
	DB	00H
	DB	00H
	DB	0baH
	DB	00H
	DB	00H
	DB	00H
	DB	0baH
	DB	00H
	DB	00H
	DB	00H
	DB	0baH
	DB	00H
	DB	00H
	DB	00H
	DB	0baH
	DB	00H
	DB	00H
	DB	00H
	DB	0baH
	DB	00H
	DB	00H
	DB	00H
	DB	0baH
	DB	00H
	DB	00H
	DB	00H
	DB	0baH
	DB	00H
	DB	00H
	DB	00H
	DB	0baH
	DB	00H
	DB	00H
	DB	00H
	DB	0baH
	DB	00H
	DB	00H
	DB	00H
	DB	0baH
	DB	00H
	DB	00H
	DB	00H
	DB	0baH
	DB	00H
	DB	00H
	DB	00H
	DB	0baH
	DB	00H
	DB	00H
	DB	00H
	DB	0baH
	DB	00H
	DB	00H
	DB	00H
	DB	0baH
	DB	00H
	DB	00H
	DB	00H
	DB	0baH
	DB	00H
	DB	00H
	DB	00H
	DB	0baH
	DB	00H
	DB	00H
	DB	00H
	DB	0baH
	DB	00H
	DB	00H
	DB	00H
	DB	0baH
	DB	00H
	DB	00H
	DB	00H
	DB	0baH
	DB	00H
	DB	00H
	DB	00H
	DB	0baH
	DB	00H
	DB	00H
	DB	00H
	DB	0baH
	DB	00H
	DB	00H
	DB	00H
	DB	0baH
	DB	00H
	DB	00H
	DB	00H
	DB	0baH
	DB	00H
	DB	00H
	DB	00H
	DB	0baH
	DB	00H
	DB	00H
	DB	00H
	DB	0baH
	DB	00H
	DB	00H
	DB	00H
	DB	0baH
	DB	00H
	DB	00H
	DB	00H
	DB	0baH
	DB	00H
	DB	00H
	DB	00H
	DB	0baH
	DB	00H
	DB	00H
	DB	00H
	DB	0baH
	DB	00H
	DB	00H
	DB	00H
	DB	0baH
	DB	00H
	DB	00H
	DB	00H
	DB	0baH
	DB	00H
	DB	00H
	DB	00H
	DB	0baH
	DB	00H
	DB	00H
	DB	00H
	DB	0baH
	DB	00H
	DB	00H
	DB	00H
	DB	0baH
	DB	00H
	DB	00H
	DB	00H
	DB	0baH
	DB	00H
	DB	00H
	DB	00H
	DB	0baH
	DB	00H
	DB	00H
	DB	00H
	DB	0baH
	DB	00H
	DB	00H
	DB	00H
	DB	0baH
	DB	00H
	DB	00H
	DB	00H
	DB	0baH
	DB	00H
	DB	00H
	DB	00H
	DB	0baH
	DB	00H
	DB	00H
	DB	00H
	DB	0baH
	DB	00H
	DB	00H
	DB	00H
	DB	0baH
	DB	00H
	DB	00H
	DB	00H
	DB	0baH
	DB	00H
	DB	00H
	DB	00H
	DB	0baH
	DB	00H
	DB	00H
	DB	00H
	DB	0baH
	DB	00H
	DB	00H
	DB	00H
	DB	0baH
	DB	00H
	DB	00H
	DB	00H
	DB	0baH
	DB	00H
	DB	00H
	DB	00H
	DB	0baH
	DB	00H
	DB	00H
	DB	00H
	DB	0baH
	DB	00H
	DB	00H
	DB	00H
	DB	0baH
	DB	00H
	DB	00H
	DB	00H
	DB	0baH
	DB	00H
	DB	00H
	DB	00H
	DB	0baH
	DB	00H
	DB	00H
	DB	00H
	DB	0baH
	DB	00H
	DB	00H
	DB	00H
	DB	0baH
	DB	00H
	DB	00H
	DB	00H
	DB	0baH
	DB	00H
	DB	00H
	DB	00H
	DB	0baH
	DB	00H
	DB	00H
	DB	00H
	DB	0baH
	DB	00H
	DB	00H
	DB	00H
	DB	0baH
	DB	00H
	DB	00H
	DB	00H
	DB	0baH
	DB	00H
	DB	00H
	DB	00H
	DB	0baH
	DB	00H
	DB	00H
	DB	00H
	DB	0baH
	DB	00H
	DB	00H
	DB	00H
	DB	0baH
	DB	00H
	DB	00H
	DB	00H
	DB	0baH
	DB	00H
	DB	00H
	DB	00H
	DB	0baH
	DB	00H
	DB	00H
	DB	00H
	DB	0baH
	DB	00H
	DB	00H
	DB	00H
	DB	0baH
	DB	00H
	DB	00H
	DB	00H
	DB	0baH
	DB	00H
	DB	00H
	DB	00H
	DB	0baH
	DB	00H
	DB	00H
	DB	00H
	DB	0baH
	DB	00H
	DB	00H
	DB	00H
	DB	0baH
	DB	00H
	DB	00H
	DB	00H
	DB	0baH
	DB	00H
	DB	00H
	DB	00H
	DB	0baH
	DB	00H
	DB	00H
	DB	00H
	DB	0baH
	DB	00H
	DB	00H
	DB	00H
	DB	0baH
	DB	00H
	DB	00H
	DB	00H
	DB	0baH
	DB	00H
	DB	00H
	DB	00H
	DB	0baH
	DB	00H
	DB	00H
	DB	00H
	DB	0baH
	DB	00H
	DB	00H
	DB	00H
	DB	0baH
	DB	00H
	DB	00H
	DB	00H
	DB	0baH
	DB	00H
	DB	00H
	DB	00H
	DB	0baH
	DB	00H
	DB	00H
	DB	00H
	DB	0baH
	DB	00H
	DB	00H
	DB	00H
	DB	0baH
	DB	00H
	DB	00H
	DB	00H
	DB	0baH
	DB	00H
	DB	00H
	DB	00H
	DB	0baH
	DB	00H
	DB	00H
	DB	00H
	DB	0baH
	DB	00H
	DB	00H
	DB	00H
	DB	0baH
	DB	00H
	DB	00H
	DB	00H
	DB	0baH
	DB	00H
	DB	00H
	DB	00H
	DB	0baH
	DB	00H
	DB	00H
	DB	00H
	DB	0baH
	DB	00H
	DB	00H
	DB	00H
	DB	0baH
	DB	00H
	DB	00H
	DB	00H
	DB	0baH
	DB	00H
	DB	00H
	DB	00H
	DB	0baH
	DB	00H
	DB	00H
	DB	00H
	DB	0baH
	DB	00H
	DB	00H
	DB	00H
	DB	0baH
	DB	00H
	DB	00H
	DB	00H
	DB	0baH
	DB	00H
	DB	00H
	DB	00H
	DB	0baH
	DB	00H
	DB	00H
	DB	00H
	DB	0baH
	DB	00H
	DB	00H
	DB	00H
	DB	0baH
	DB	00H
	DB	00H
	DB	00H
	DB	0baH
	DB	00H
	DB	00H
	DB	00H
	DB	0baH
	DB	00H
	DB	00H
	DB	00H
	DB	0baH
	DB	00H
	DB	00H
	DB	00H
	DB	0baH
	DB	00H
	DB	00H
	DB	00H
	DB	0baH
	DB	00H
	DB	00H
	DB	00H
	DB	0baH
	DB	00H
	DB	00H
	DB	00H
	DB	0baH
	DB	00H
	DB	00H
	DB	00H
	DB	0baH
	DB	00H
	DB	00H
	DB	00H
	DB	0baH
	DB	00H
	DB	00H
	DB	00H
	DB	0baH
	DB	00H
	DB	00H
	DB	00H
	DB	0baH
	DB	00H
	DB	00H
	DB	00H
	DB	0baH
	DB	00H
	DB	00H
	DB	00H
	DB	0baH
	DB	00H
	DB	00H
	DB	00H
	DB	0baH
	DB	00H
	DB	00H
	DB	00H
	DB	0baH
	DB	00H
	DB	00H
	DB	00H
	DB	0baH
	DB	00H
	DB	00H
	DB	00H
	DB	0baH
	DB	00H
	DB	00H
	DB	00H
	DB	0baH
	DB	00H
	DB	00H
	DB	00H
	DB	0baH
	DB	00H
	DB	00H
	DB	00H
	DB	0baH
	DB	00H
	DB	00H
	DB	00H
	DB	0baH
	DB	00H
	DB	00H
	DB	00H
	DB	0baH
	DB	00H
	DB	00H
	DB	00H
	DB	0baH
	DB	00H
	DB	00H
	DB	00H
	DB	0baH
	DB	00H
	DB	00H
	DB	00H
	DB	0baH
	DB	00H
	DB	00H
	DB	00H
	DB	0baH
	DB	00H
	DB	00H
	DB	00H
	DB	0baH
	DB	00H
	DB	00H
	DB	00H
	DB	0baH
	DB	00H
	DB	00H
	DB	00H
	DB	0baH
	DB	00H
	DB	00H
	DB	00H
	DB	0baH
	DB	00H
	DB	00H
	DB	00H
	DB	0baH
	DB	00H
	DB	00H
	DB	00H
	DB	0baH
	DB	00H
	DB	00H
	DB	00H
	DB	0baH
	DB	00H
	DB	00H
	DB	00H
	DB	0baH
	DB	00H
	DB	00H
	DB	00H
	DB	0baH
	DB	00H
	DB	00H
	DB	00H
	DB	0baH
	DB	00H
	DB	00H
	DB	00H
	DB	0baH
	DB	00H
	DB	00H
	DB	00H
	DB	0baH
	DB	00H
	DB	00H
	DB	00H
	DB	0baH
	DB	00H
	DB	00H
	DB	00H
	DB	0baH
	DB	00H
	DB	00H
	DB	00H
	DB	0baH
	DB	00H
	DB	00H
	DB	00H
	DB	0baH
	DB	00H
	DB	00H
	DB	00H
	DB	0baH
	DB	00H
	DB	00H
	DB	00H
	DB	0baH
	DB	00H
	DB	00H
	DB	00H
	DB	0baH
	DB	00H
	DB	00H
	DB	00H
	DB	0baH
	DB	00H
	DB	00H
	DB	00H
	DB	0baH
	DB	00H
	DB	00H
	DB	00H
	DB	0baH
	DB	00H
	DB	00H
	DB	00H
	DB	0baH
	DB	00H
	DB	00H
	DB	00H
	DB	0baH
	DB	00H
	DB	00H
	DB	00H
	DB	0baH
	DB	00H
	DB	00H
	DB	00H
	DB	0baH
	DB	00H
	DB	00H
	DB	00H
	DB	0baH
	DB	00H
	DB	00H
	DB	00H
	DB	0baH
	DB	00H
	DB	00H
	DB	00H
	DB	0baH
	DB	00H
	DB	00H
	DB	00H
	DB	0baH
	DB	00H
	DB	00H
	DB	00H
	DB	0baH
	DB	00H
	DB	00H
	DB	00H
	DB	0baH
	DB	00H
	DB	00H
	DB	00H
	DB	0baH
	DB	00H
	DB	00H
	DB	00H
	DB	0baH
	DB	00H
	DB	00H
	DB	00H
	DB	0baH
	DB	00H
	DB	00H
	DB	00H
	DB	0baH
	DB	00H
	DB	00H
	DB	00H
	DB	0baH
	DB	00H
	DB	00H
	DB	00H
	DB	0baH
	DB	00H
	DB	00H
	DB	00H
	DB	0baH
	DB	00H
	DB	00H
	DB	00H
	DB	0baH
	DB	00H
	DB	00H
	DB	00H
	DB	0baH
	DB	00H
	DB	00H
	DB	00H
	DB	0baH
	DB	00H
	DB	00H
	DB	00H
	DB	0baH
	DB	00H
	DB	00H
	DB	00H
	DB	0baH
	DB	00H
	DB	00H
	DB	00H
	DB	0baH
	DB	00H
	DB	00H
	DB	00H
	DB	0baH
	DB	00H
	DB	00H
	DB	00H
	DB	0baH
	DB	00H
	DB	00H
	DB	00H
	DB	0baH
	DB	00H
	DB	00H
	DB	00H
	DB	0baH
	DB	00H
	DB	00H
	DB	00H
	DB	0baH
	DB	00H
	DB	00H
	DB	00H
	DB	0baH
	DB	00H
	DB	00H
	DB	00H
	DB	0baH
	DB	00H
	DB	00H
	DB	00H
	DB	0baH
	DB	00H
	DB	00H
	DB	00H
	DB	0baH
	DB	00H
	DB	00H
	DB	00H
	DB	0baH
	DB	00H
	DB	00H
	DB	00H
	DB	0baH
	DB	00H
	DB	00H
	DB	00H
	DB	0baH
	DB	00H
	DB	00H
	DB	00H
	DB	0baH
	DB	00H
	DB	00H
	DB	00H
	DB	0baH
	DB	00H
	DB	00H
	DB	00H
	DB	0baH
	DB	00H
	DB	00H
	DB	00H
	DB	0baH
	DB	00H
	DB	00H
	DB	00H
	DB	0baH
	DB	00H
	DB	00H
	DB	00H
	DB	0baH
	DB	00H
	DB	00H
	DB	00H
	DB	0baH
	DB	00H
	DB	00H
	DB	00H
	DB	0baH
	DB	00H
	DB	00H
	DB	00H
	DB	0baH
	DB	00H
	DB	00H
	DB	00H
	DB	0baH
	DB	00H
	DB	00H
	DB	00H
	DB	0baH
	DB	00H
	DB	00H
	DB	00H
	DB	0baH
	DB	00H
	DB	00H
	DB	00H
	DB	0baH
	DB	00H
	DB	00H
	DB	00H
	DB	0baH
	DB	00H
	DB	00H
	DB	00H
	DB	0baH
	DB	00H
	DB	00H
	DB	00H
	DB	0baH
	DB	00H
	DB	00H
	DB	00H
	DB	0baH
	DB	00H
	DB	00H
	DB	00H
	DB	0baH
	DB	00H
	DB	00H
	DB	00H
	DB	0baH
	DB	00H
	DB	00H
	DB	00H
	DB	0baH
	DB	00H
	DB	00H
	DB	00H
	DB	0baH
	DB	00H
	DB	00H
	DB	00H
	DB	0baH
	DB	00H
	DB	00H
	DB	00H
	DB	0baH
	DB	00H
	DB	00H
	DB	00H
	DB	0baH
	DB	00H
	DB	00H
	DB	00H
	DB	0baH
	DB	00H
	DB	00H
	DB	00H
	DB	0baH
	DB	00H
	DB	00H
	DB	00H
	DB	0baH
	DB	00H
	DB	00H
	DB	00H
	DB	0baH
	DB	00H
	DB	00H
	DB	00H
	DB	0baH
	DB	00H
	DB	00H
	DB	00H
	DB	0baH
	DB	00H
	DB	00H
	DB	00H
	DB	0baH
	DB	00H
	DB	00H
	DB	00H
	DB	0baH
	DB	00H
	DB	00H
	DB	00H
	DB	0baH
	DB	00H
	DB	00H
	DB	00H
	DB	0baH
	DB	00H
	DB	00H
	DB	00H
	DB	0baH
	DB	00H
	DB	00H
	DB	00H
	DB	0baH
	DB	00H
	DB	00H
	DB	00H
	DB	0baH
	DB	00H
	DB	00H
	DB	00H
	DB	0baH
	DB	00H
	DB	00H
	DB	00H
	DB	0baH
	DB	00H
	DB	00H
	DB	00H
	DB	0baH
	DB	00H
	DB	00H
	DB	00H
	DB	0baH
	DB	00H
	DB	00H
	DB	00H
	DB	0baH
	DB	00H
	DB	00H
	DB	00H
	DB	0baH
	DB	00H
	DB	00H
	DB	00H
	DB	0baH
	DB	00H
	DB	00H
	DB	00H
	DB	0baH
	DB	00H
	DB	00H
	DB	00H
	DB	0baH
	DB	00H
	DB	00H
	DB	00H
	DB	0baH
	DB	00H
	DB	00H
	DB	00H
	DB	0baH
	DB	00H
	DB	00H
	DB	00H
	DB	0baH
	DB	00H
	DB	00H
	DB	00H
	DB	0baH
	DB	00H
	DB	00H
	DB	00H
	DB	0baH
	DB	00H
	DB	00H
	DB	00H
	DB	0baH
	DB	00H
	DB	00H
	DB	00H
	DB	0baH
	DB	00H
	DB	00H
	DB	00H
	DB	0baH
	DB	00H
	DB	00H
	DB	00H
	DB	0baH
	DB	00H
	DB	00H
	DB	00H
	DB	0baH
	DB	00H
	DB	00H
	DB	00H
	DB	0baH
	DB	00H
	DB	00H
	DB	00H
	DB	0baH
	DB	00H
	DB	00H
	DB	00H
	DB	0baH
	DB	00H
	DB	00H
	DB	00H
	DB	0baH
	DB	00H
	DB	00H
	DB	00H
	DB	0baH
	DB	00H
	DB	00H
	DB	00H
	DB	0baH
	DB	00H
	DB	00H
	DB	00H
	DB	0baH
	DB	00H
	DB	00H
	DB	00H
	DB	0baH
	DB	00H
	DB	00H
	DB	00H
	DB	0baH
	DB	00H
	DB	00H
	DB	00H
	DB	0baH
	DB	00H
	DB	00H
	DB	00H
	DB	0baH
	DB	00H
	DB	00H
	DB	00H
	DB	0baH
	DB	00H
	DB	00H
	DB	00H
	DB	0baH
	DB	00H
	DB	00H
	DB	00H
	DB	0baH
	DB	00H
	DB	00H
	DB	00H
	DB	0baH
	DB	00H
	DB	00H
	DB	00H
	DB	0baH
	DB	00H
	DB	00H
	DB	00H
	DB	0baH
	DB	00H
	DB	00H
	DB	00H
	DB	0baH
	DB	00H
	DB	00H
	DB	00H
	DB	0baH
	DB	00H
	DB	00H
	DB	00H
	DB	0baH
	DB	00H
	DB	00H
	DB	00H
	DB	0baH
	DB	00H
	DB	00H
	DB	00H
	DB	0baH
	DB	00H
	DB	00H
	DB	00H
	DB	0baH
	DB	00H
	DB	00H
	DB	00H
	DB	0baH
	DB	00H
	DB	00H
	DB	00H
	DB	0baH
	DB	00H
	DB	00H
	DB	00H
	DB	0baH
	DB	00H
	DB	00H
	DB	00H
	DB	0baH
	DB	00H
	DB	00H
	DB	00H
	DB	0baH
	DB	00H
	DB	00H
	DB	00H
	DB	0baH
	DB	00H
	DB	00H
	DB	00H
	DB	0baH
	DB	00H
	DB	00H
	DB	00H
	DB	0baH
	DB	00H
	DB	00H
	DB	00H
	DB	0baH
	DB	00H
	DB	00H
	DB	00H
	DB	0baH
	DB	00H
	DB	00H
	DB	00H
	DB	0baH
	DB	00H
	DB	00H
	DB	00H
	DB	0baH
	DB	00H
	DB	00H
	DB	00H
	DB	0baH
	DB	00H
	DB	00H
	DB	00H
	DB	0baH
	DB	00H
	DB	00H
	DB	00H
	DB	0baH
	DB	00H
	DB	00H
	DB	00H
	DB	0baH
	DB	00H
	DB	00H
	DB	00H
	DB	0baH
	DB	00H
	DB	00H
	DB	00H
	DB	0baH
	DB	00H
	DB	00H
	DB	00H
	DB	0baH
	DB	00H
	DB	00H
	DB	00H
	DB	0baH
	DB	00H
	DB	00H
	DB	00H
	DB	0baH
	DB	00H
	DB	00H
	DB	00H
	DB	0baH
	DB	00H
	DB	00H
	DB	00H
	DB	0baH
	DB	00H
	DB	00H
	DB	00H
	DB	0baH
	DB	00H
	DB	00H
	DB	00H
	DB	0baH
	DB	00H
	DB	00H
	DB	00H
	DB	0baH
	DB	00H
	DB	00H
	DB	00H
	DB	0baH
	DB	00H
	DB	00H
	DB	00H
	DB	0baH
	DB	00H
	DB	00H
	DB	00H
	DB	0baH
	DB	00H
	DB	00H
	DB	00H
	DB	0baH
	DB	00H
	DB	00H
	DB	00H
	DB	0baH
	DB	00H
	DB	00H
	DB	00H
	DB	0baH
	DB	00H
	DB	00H
	DB	00H
	DB	0baH
	DB	00H
	DB	00H
	DB	00H
	DB	0baH
	DB	00H
	DB	00H
	DB	00H
	DB	0baH
	DB	00H
	DB	00H
	DB	00H
	DB	0baH
	DB	00H
	DB	00H
	DB	00H
	DB	0baH
	DB	00H
	DB	00H
	DB	00H
	DB	0baH
	DB	00H
	DB	00H
	DB	00H
	DB	0baH
	DB	00H
	DB	00H
	DB	00H
	DB	0baH
	DB	00H
	DB	00H
	DB	00H
	DB	0baH
	DB	00H
	DB	00H
	DB	00H
	DB	0baH
	DB	00H
	DB	00H
	DB	00H
	DB	0baH
	DB	00H
	DB	00H
	DB	00H
	DB	0baH
	DB	00H
	DB	00H
	DB	00H
	DB	0baH
	DB	00H
	DB	00H
	DB	00H
	DB	0baH
	DB	00H
	DB	00H
	DB	00H
	DB	0baH
	DB	00H
	DB	00H
	DB	00H
	DB	0baH
	DB	00H
	DB	00H
	DB	00H
	DB	0baH
	DB	00H
	DB	00H
	DB	00H
	DB	0baH
	DB	00H
	DB	00H
	DB	00H
	DB	0baH
	DB	00H
	DB	00H
	DB	00H
	DB	0baH
	DB	00H
	DB	00H
	DB	00H
	DB	0baH
	DB	00H
	DB	00H
	DB	00H
	DB	0baH
	DB	00H
	DB	00H
	DB	00H
	DB	0baH
	DB	00H
	DB	00H
	DB	00H
	DB	0baH
	DB	00H
	DB	00H
	DB	00H
	DB	0baH
	DB	00H
	DB	00H
	DB	00H
	DB	0baH
	DB	00H
	DB	00H
	DB	00H
	DB	0baH
	DB	00H
	DB	00H
	DB	00H
	DB	0baH
	DB	00H
	DB	00H
	DB	00H
	DB	0baH
	DB	00H
	DB	00H
	DB	00H
	DB	0baH
	DB	00H
	DB	00H
	DB	00H
	DB	0baH
	DB	00H
	DB	00H
	DB	00H
	DB	0baH
	DB	00H
	DB	00H
	DB	00H
	DB	0baH
	DB	00H
	DB	00H
	DB	00H
	DB	0baH
	DB	00H
	DB	00H
	DB	00H
	DB	0baH
	DB	00H
	DB	00H
	DB	00H
	DB	0baH
	DB	00H
	DB	00H
	DB	00H
	DB	0baH
	DB	00H
	DB	00H
	DB	00H
	DB	0baH
	DB	00H
	DB	00H
	DB	00H
	DB	0baH
	DB	00H
	DB	00H
	DB	00H
	DB	0baH
	DB	00H
	DB	00H
	DB	00H
	DB	0baH
	DB	00H
	DB	00H
	DB	00H
	DB	0baH
	DB	00H
	DB	00H
	DB	00H
	DB	0baH
	DB	00H
	DB	00H
	DB	00H
	DB	0baH
	DB	00H
	DB	00H
	DB	00H
	DB	0baH
	DB	00H
	DB	00H
	DB	00H
	DB	0baH
	DB	00H
	DB	00H
	DB	00H
	DB	0baH
	DB	00H
	DB	00H
	DB	00H
	DB	0baH
	DB	00H
	DB	00H
	DB	00H
	DB	0baH
	DB	00H
	DB	00H
	DB	00H
	DB	0baH
	DB	00H
	DB	00H
	DB	00H
	DB	0baH
	DB	00H
	DB	00H
	DB	00H
	DB	0baH
	DB	00H
	DB	00H
	DB	00H
	DB	0baH
	DB	00H
	DB	00H
	DB	00H
	DB	0baH
	DB	00H
	DB	00H
	DB	00H
	DB	0baH
	DB	00H
	DB	00H
	DB	00H
	DB	0baH
	DB	00H
	DB	00H
	DB	00H
	DB	0baH
	DB	00H
	DB	00H
	DB	00H
	DB	0baH
	DB	00H
	DB	00H
	DB	00H
	DB	0baH
	DB	00H
	DB	00H
	DB	00H
	DB	0baH
	DB	00H
	DB	00H
	DB	00H
	DB	0baH
	DB	00H
	DB	00H
	DB	00H
	DB	0baH
	DB	00H
	DB	00H
	DB	00H
	DB	0baH
	DB	00H
	DB	00H
	DB	00H
	DB	0baH
	DB	00H
	DB	00H
	DB	00H
	DB	0baH
	DB	00H
	DB	00H
	DB	00H
	DB	0baH
	DB	00H
	DB	00H
	DB	00H
	DB	0baH
	DB	00H
	DB	00H
	DB	00H
	DB	0baH
	DB	00H
	DB	00H
	DB	00H
	DB	0baH
	DB	00H
	DB	00H
	DB	00H
	DB	0baH
	DB	00H
	DB	00H
	DB	00H
	DB	0baH
	DB	00H
	DB	00H
	DB	00H
	DB	0baH
	DB	00H
	DB	00H
	DB	00H
	DB	0baH
	DB	00H
	DB	00H
	DB	00H
	DB	0baH
	DB	00H
	DB	00H
	DB	00H
	DB	0baH
	DB	00H
	DB	00H
	DB	00H
	DB	0baH
	DB	00H
	DB	00H
	DB	00H
	DB	0baH
	DB	00H
	DB	00H
	DB	00H
	DB	0baH
	DB	00H
	DB	00H
	DB	00H
	DB	0baH
	DB	00H
	DB	00H
	DB	00H
	DB	0baH
	DB	00H
	DB	00H
	DB	00H
	DB	0baH
	DB	00H
	DB	00H
	DB	00H
	DB	0baH
	DB	00H
	DB	00H
	DB	00H
	DB	0baH
	DB	00H
	DB	00H
	DB	00H
	DB	0baH
	DB	00H
	DB	00H
	DB	00H
	DB	0baH
	DB	00H
	DB	00H
	DB	00H
	DB	0baH
	DB	00H
	DB	00H
	DB	00H
	DB	0baH
	DB	00H
	DB	00H
	DB	00H
	DB	0baH
	DB	00H
	DB	00H
	DB	00H
	DB	0baH
	DB	00H
	DB	00H
	DB	00H
	DB	0baH
	DB	00H
	DB	00H
	DB	00H
	DB	0baH
	DB	00H
	DB	00H
	DB	00H
	DB	0baH
	DB	00H
	DB	00H
	DB	00H
	DB	0baH
	DB	00H
	DB	00H
	DB	00H
	DB	0baH
	DB	00H
	DB	00H
	DB	00H
	DB	0baH
	DB	00H
	DB	00H
	DB	00H
	DB	0baH
	DB	00H
	DB	00H
	DB	00H
	DB	0baH
	DB	00H
	DB	00H
	DB	00H
	DB	0baH
	DB	00H
	DB	00H
	DB	00H
	DB	0baH
	DB	00H
	DB	00H
	DB	00H
	DB	0baH
	DB	00H
	DB	00H
	DB	00H
	DB	0baH
	DB	00H
	DB	00H
	DB	00H
	DB	0baH
	DB	00H
	DB	00H
	DB	00H
	DB	0baH
	DB	00H
	DB	00H
	DB	00H
	DB	0baH
	DB	00H
	DB	00H
	DB	00H
	DB	0baH
	DB	00H
	DB	00H
	DB	00H
	DB	0baH
	DB	00H
	DB	00H
	DB	00H
	DB	0baH
	DB	00H
	DB	00H
	DB	00H
	DB	0baH
	DB	00H
	DB	00H
	DB	00H
	DB	0baH
	DB	00H
	DB	00H
	DB	00H
	DB	0baH
	DB	00H
	DB	00H
	DB	00H
	DB	0baH
	DB	00H
	DB	00H
	DB	00H
	DB	0baH
	DB	00H
	DB	00H
	DB	00H
	DB	0baH
	DB	00H
	DB	00H
	DB	00H
	DB	0baH
	DB	00H
	DB	00H
	DB	00H
	DB	0baH
	DB	00H
	DB	00H
	DB	00H
	DB	0baH
	DB	00H
	DB	00H
	DB	00H
	DB	0baH
	DB	00H
	DB	00H
	DB	00H
	DB	0baH
	DB	00H
	DB	00H
	DB	00H
	DB	0baH
	DB	00H
	DB	00H
	DB	00H
	DB	0baH
	DB	00H
	DB	00H
	DB	00H
	DB	0baH
	DB	00H
	DB	00H
	DB	00H
	DB	0baH
	DB	00H
	DB	00H
	DB	00H
	DB	0baH
	DB	00H
	DB	00H
	DB	00H
	DB	0baH
	DB	00H
	DB	00H
	DB	00H
	DB	0baH
	DB	00H
	DB	00H
	DB	00H
	DB	0baH
	DB	00H
	DB	00H
	DB	00H
	DB	0baH
	DB	00H
	DB	00H
	DB	00H
	DB	0baH
	DB	00H
	DB	00H
	DB	00H
	DB	0baH
	DB	00H
	DB	00H
	DB	00H
	DB	0baH
	DB	00H
	DB	00H
	DB	00H
	DB	0baH
	DB	00H
	DB	00H
	DB	00H
	DB	0baH
	DB	00H
	DB	00H
	DB	00H
	DB	0baH
	DB	00H
	DB	00H
	DB	00H
	DB	0baH
	DB	00H
	DB	00H
	DB	00H
	DB	0baH
	DB	00H
	DB	00H
	DB	00H
	DB	0baH
	DB	00H
	DB	00H
	DB	00H
	DB	0baH
	DB	00H
	DB	00H
	DB	00H
	DB	0baH
	DB	00H
	DB	00H
	DB	00H
	DB	0baH
	DB	00H
	DB	00H
	DB	00H
	DB	0baH
	DB	00H
	DB	00H
	DB	00H
	DB	0baH
	DB	00H
	DB	00H
	DB	00H
	DB	0baH
	DB	00H
	DB	00H
	DB	00H
	DB	0baH
	DB	00H
	DB	00H
	DB	00H
	DB	0baH
	DB	00H
	DB	00H
	DB	00H
	DB	0baH
	DB	00H
	DB	00H
	DB	00H
	DB	0baH
	DB	00H
	DB	00H
	DB	00H
	DB	0baH
	DB	00H
	DB	00H
	DB	00H
	DB	0baH
	DB	00H
	DB	00H
	DB	00H
	DB	0baH
	DB	00H
	DB	00H
	DB	00H
	DB	0baH
	DB	00H
	DB	00H
	DB	00H
	DB	0baH
	DB	00H
	DB	00H
	DB	00H
	DB	0baH
	DB	00H
	DB	00H
	DB	00H
	DB	0baH
	DB	00H
	DB	00H
	DB	00H
	DB	0baH
	DB	00H
	DB	00H
	DB	00H
	DB	0baH
	DB	00H
	DB	00H
	DB	00H
	DB	0baH
	DB	00H
	DB	00H
	DB	00H
	DB	0baH
	DB	00H
	DB	00H
	DB	00H
	DB	0baH
	DB	00H
	DB	00H
	DB	00H
	DB	0baH
	DB	00H
	DB	00H
	DB	00H
	DB	0baH
	DB	00H
	DB	00H
	DB	00H
	DB	0baH
	DB	00H
	DB	00H
	DB	00H
	DB	0baH
	DB	00H
	DB	00H
	DB	00H
	DB	0baH
	DB	00H
	DB	00H
	DB	00H
	DB	0baH
	DB	00H
	DB	00H
	DB	00H
	DB	0baH
	DB	00H
	DB	00H
	DB	00H
	DB	0baH
	DB	00H
	DB	00H
	DB	00H
	DB	0baH
	DB	00H
	DB	00H
	DB	00H
	DB	0baH
	DB	00H
	DB	00H
	DB	00H
	DB	0baH
	DB	00H
	DB	00H
	DB	00H
	DB	0baH
	DB	00H
	DB	00H
	DB	00H
	DB	0baH
	DB	00H
	DB	00H
	DB	00H
	DB	0baH
	DB	00H
	DB	00H
	DB	00H
	DB	0baH
	DB	00H
	DB	00H
	DB	00H
	DB	0baH
	DB	00H
	DB	00H
	DB	00H
	DB	0baH
	DB	00H
	DB	00H
	DB	00H
	DB	0baH
	DB	00H
	DB	00H
	DB	00H
	DB	0baH
	DB	00H
	DB	00H
	DB	00H
	DB	0baH
	DB	00H
	DB	00H
	DB	00H
	DB	0baH
	DB	00H
	DB	00H
	DB	00H
	DB	0baH
	DB	00H
	DB	00H
	DB	00H
	DB	0baH
	DB	00H
	DB	00H
	DB	00H
	DB	0baH
	DB	00H
	DB	00H
	DB	00H
	DB	0baH
	DB	00H
	DB	00H
	DB	00H
	DB	0baH
	DB	00H
	DB	00H
	DB	00H
	DB	0baH
	DB	00H
	DB	00H
	DB	00H
	DB	0baH
	DB	00H
	DB	00H
	DB	00H
	DB	0baH
	DB	00H
	DB	00H
	DB	00H
	DB	0baH
	DB	00H
	DB	00H
	DB	00H
	DB	0baH
	DB	00H
	DB	00H
	DB	00H
	DB	0baH
	DB	00H
	DB	00H
	DB	00H
	DB	0baH
	DB	00H
	DB	00H
	DB	00H
	DB	0baH
	DB	00H
	DB	00H
	DB	00H
	DB	0baH
	DB	00H
	DB	00H
	DB	00H
	DB	0baH
	DB	00H
	DB	00H
	DB	00H
	DB	0baH
	DB	00H
	DB	00H
	DB	00H
	DB	0baH
	DB	00H
	DB	00H
	DB	00H
	DB	0baH
	DB	00H
	DB	00H
	DB	00H
	DB	0baH
	DB	00H
	DB	00H
	DB	00H
	DB	0baH
	DB	00H
	DB	00H
	DB	00H
	DB	0baH
	DB	00H
	DB	00H
	DB	00H
	DB	0baH
	DB	00H
	DB	00H
	DB	00H
	DB	0baH
	DB	00H
	DB	00H
	DB	00H
	DB	0baH
	DB	00H
	DB	00H
	DB	00H
	DB	0baH
	DB	00H
	DB	00H
	DB	00H
	DB	0baH
	DB	00H
	DB	00H
	DB	00H
	DB	0baH
	DB	00H
	DB	00H
	DB	00H
	DB	0baH
	DB	00H
	DB	00H
	DB	00H
	DB	0baH
	DB	00H
	DB	00H
	DB	00H
	DB	0baH
	DB	00H
	DB	00H
	DB	00H
	DB	0baH
	DB	00H
	DB	00H
	DB	00H
	DB	0baH
	DB	00H
	DB	00H
	DB	00H
	DB	0baH
	DB	00H
	DB	00H
	DB	00H
	DB	0baH
	DB	00H
	DB	00H
	DB	00H
	DB	0baH
	DB	00H
	DB	00H
	DB	00H
	DB	0baH
	DB	00H
	DB	00H
	DB	00H
	DB	0baH
	DB	00H
	DB	00H
	DB	00H
	DB	0baH
	DB	00H
	DB	00H
	DB	00H
	DB	0baH
	DB	00H
	DB	00H
	DB	00H
	DB	0baH
	DB	00H
	DB	00H
	DB	00H
	DB	0baH
	DB	00H
	DB	00H
	DB	00H
	DB	0baH
	DB	00H
	DB	00H
	DB	00H
	DB	0baH
	DB	00H
	DB	00H
	DB	00H
	DB	0baH
	DB	00H
	DB	00H
	DB	00H
	DB	0baH
	DB	00H
	DB	00H
	DB	00H
	DB	0baH
	DB	00H
	DB	00H
	DB	00H
	DB	0baH
	DB	00H
	DB	00H
	DB	00H
	DB	0baH
	DB	00H
	DB	00H
	DB	00H
	DB	0baH
	DB	00H
	DB	00H
	DB	00H
	DB	0baH
	DB	00H
	DB	00H
	DB	00H
	DB	0baH
	DB	00H
	DB	00H
	DB	00H
	DB	0baH
	DB	00H
	DB	00H
	DB	00H
	DB	0baH
	DB	00H
	DB	00H
	DB	00H
	DB	0baH
	DB	00H
	DB	00H
	DB	00H
	DB	0baH
	DB	00H
	DB	00H
	DB	00H
	DB	0baH
	DB	00H
	DB	00H
	DB	00H
	DB	0baH
	DB	00H
	DB	00H
	DB	00H
	DB	0baH
	DB	00H
	DB	00H
	DB	00H
	DB	0baH
	DB	00H
	DB	00H
	DB	00H
	DB	0baH
	DB	00H
	DB	00H
	DB	00H
	DB	0baH
	DB	00H
	DB	00H
	DB	00H
	DB	0baH
	DB	00H
	DB	00H
	DB	00H
	DB	0baH
	DB	00H
	DB	00H
	DB	00H
	DB	0baH
	DB	00H
	DB	00H
	DB	00H
	DB	0baH
	DB	00H
	DB	00H
	DB	00H
	DB	0baH
	DB	00H
	DB	00H
	DB	00H
	DB	0baH
	DB	00H
	DB	00H
	DB	00H
	DB	0baH
	DB	00H
	DB	00H
	DB	00H
	DB	0baH
	DB	00H
	DB	00H
	DB	00H
	DB	0baH
	DB	00H
	DB	00H
	DB	00H
	DB	0baH
	DB	00H
	DB	00H
	DB	00H
	DB	0baH
	DB	00H
	DB	00H
	DB	00H
	DB	0baH
	DB	00H
	DB	00H
	DB	00H
	DB	0baH
	DB	00H
	DB	00H
	DB	00H
	DB	0baH
	DB	00H
	DB	00H
	DB	00H
	DB	0baH
	DB	00H
	DB	00H
	DB	00H
	DB	0baH
	DB	00H
	DB	00H
	DB	00H
	DB	0baH
	DB	00H
	DB	00H
	DB	00H
	DB	0baH
	DB	00H
	DB	00H
	DB	00H
	DB	0baH
	DB	00H
	DB	00H
	DB	00H
	DB	0baH
	DB	00H
	DB	00H
	DB	00H
	DB	0baH
	DB	00H
	DB	00H
	DB	00H
	DB	0baH
	DB	00H
	DB	00H
	DB	00H
	DB	0baH
	DB	00H
	DB	00H
	DB	00H
	DB	0baH
	DB	00H
	DB	00H
	DB	00H
	DB	0baH
	DB	00H
	DB	00H
	DB	00H
	DB	0baH
	DB	00H
	DB	00H
	DB	00H
	DB	0baH
	DB	00H
	DB	00H
	DB	00H
	DB	0baH
	DB	00H
	DB	00H
	DB	00H
	DB	0baH
	DB	00H
	DB	00H
	DB	00H
	DB	0baH
	DB	00H
	DB	00H
	DB	00H
	DB	0baH
	DB	00H
	DB	00H
	DB	00H
	DB	0baH
	DB	00H
	DB	00H
	DB	00H
	DB	0baH
	DB	00H
	DB	00H
	DB	00H
	DB	0baH
	DB	00H
	DB	00H
	DB	00H
	DB	0baH
	DB	00H
	DB	00H
	DB	00H
	DB	0baH
	DB	00H
	DB	00H
	DB	00H
	DB	0baH
	DB	00H
	DB	00H
	DB	00H
	DB	0baH
	DB	00H
	DB	00H
	DB	00H
	DB	0baH
	DB	00H
	DB	00H
	DB	00H
	DB	0baH
	DB	00H
	DB	00H
	DB	00H
	DB	0baH
	DB	00H
	DB	00H
	DB	00H
	DB	0baH
	DB	00H
	DB	00H
	DB	00H
	DB	0baH
	DB	00H
	DB	00H
	DB	00H
	DB	0baH
	DB	00H
	DB	00H
	DB	00H
	DB	0baH
	DB	00H
	DB	00H
	DB	00H
	DB	0baH
	DB	00H
	DB	00H
	DB	00H
	DB	0baH
	DB	00H
	DB	00H
	DB	00H
	DB	0baH
	DB	00H
	DB	00H
	DB	00H
	DB	0baH
	DB	00H
	DB	00H
	DB	00H
	DB	0baH
	DB	00H
	DB	00H
	DB	00H
	DB	0baH
	DB	00H
	DB	00H
	DB	00H
	DB	0baH
	DB	00H
	DB	00H
	DB	00H
	DB	0baH
	DB	00H
	DB	00H
	DB	00H
	DB	0baH
	DB	00H
	DB	00H
	DB	00H
	DB	0baH
	DB	00H
	DB	00H
	DB	00H
	DB	0baH
	DB	00H
	DB	00H
	DB	00H
	DB	0baH
	DB	00H
	DB	00H
	DB	00H
	DB	0baH
	DB	00H
	DB	00H
	DB	00H
	DB	0baH
	DB	00H
	DB	00H
	DB	00H
	DB	0baH
	DB	00H
	DB	00H
	DB	00H
	DB	0baH
	DB	00H
	DB	00H
	DB	00H
	DB	0baH
	DB	00H
	DB	00H
	DB	00H
	DB	0baH
	DB	00H
	DB	00H
	DB	00H
	DB	0baH
	DB	00H
	DB	00H
	DB	00H
	DB	0baH
	DB	00H
	DB	00H
	DB	00H
	DB	0baH
	DB	00H
	DB	00H
	DB	00H
	DB	0baH
	DB	00H
	DB	00H
	DB	00H
	DB	0baH
	DB	00H
	DB	00H
	DB	00H
	DB	0baH
	DB	00H
	DB	00H
	DB	00H
	DB	0baH
	DB	00H
	DB	00H
	DB	00H
	DB	0baH
	DB	00H
	DB	00H
	DB	00H
	DB	0baH
	DB	00H
	DB	00H
	DB	00H
	DB	0baH
	DB	00H
	DB	00H
	DB	00H
	DB	0baH
	DB	00H
	DB	00H
	DB	00H
	DB	0baH
	DB	00H
	DB	00H
	DB	00H
	DB	0baH
	DB	00H
	DB	00H
	DB	00H
	DB	0baH
	DB	00H
	DB	00H
	DB	00H
	DB	0baH
	DB	00H
	DB	00H
	DB	00H
	DB	0baH
	DB	00H
	DB	00H
	DB	00H
	DB	0baH
	DB	00H
	DB	00H
	DB	00H
	DB	0baH
	DB	00H
	DB	00H
	DB	00H
	DB	0baH
	DB	00H
	DB	00H
	DB	00H
	DB	0baH
	DB	00H
	DB	00H
	DB	00H
	DB	0baH
	DB	00H
	DB	00H
	DB	00H
	DB	0baH
	DB	00H
	DB	00H
	DB	00H
	DB	0baH
	DB	00H
	DB	00H
	DB	00H
	DB	0baH
	DB	00H
	DB	00H
	DB	00H
	DB	0baH
	DB	00H
	DB	00H
	DB	00H
	DB	0baH
	DB	00H
	DB	00H
	DB	00H
	DB	0baH
	DB	00H
	DB	00H
	DB	00H
	DB	0baH
	DB	00H
	DB	00H
	DB	00H
	DB	0baH
	DB	00H
	DB	00H
	DB	00H
	DB	0baH
	DB	00H
	DB	00H
	DB	00H
	DB	0baH
	DB	00H
	DB	00H
	DB	00H
	DB	0baH
	DB	00H
	DB	00H
	DB	00H
	DB	0baH
	DB	00H
	DB	00H
	DB	00H
	DB	0baH
	DB	00H
	DB	00H
	DB	00H
	DB	0baH
	DB	00H
	DB	00H
	DB	00H
	DB	0baH
	DB	00H
	DB	00H
	DB	00H
	DB	0baH
	DB	00H
	DB	00H
	DB	00H
	DB	0baH
	DB	00H
	DB	00H
	DB	00H
	DB	0baH
	DB	00H
	DB	00H
	DB	00H
	DB	0baH
	DB	00H
	DB	00H
	DB	00H
	DB	0baH
	DB	00H
	DB	00H
	DB	00H
	DB	0baH
	DB	00H
	DB	00H
	DB	00H
	DB	0baH
	DB	00H
	DB	00H
	DB	00H
	DB	0baH
	DB	00H
	DB	00H
	DB	00H
	DB	0baH
	DB	00H
	DB	00H
	DB	00H
	DB	0baH
	DB	00H
	DB	00H
	DB	00H
	DB	0baH
	DB	00H
	DB	00H
	DB	00H
	DB	0baH
	DB	00H
	DB	00H
	DB	00H
	DB	0baH
	DB	00H
	DB	00H
	DB	00H
	DB	0baH
	DB	00H
	DB	00H
	DB	00H
	DB	0baH
	DB	00H
	DB	00H
	DB	00H
	DB	0baH
	DB	00H
	DB	00H
	DB	00H
	DB	0baH
	DB	00H
	DB	00H
	DB	00H
	DB	0baH
	DB	00H
	DB	00H
	DB	00H
	DB	0baH
	DB	00H
	DB	00H
	DB	00H
	DB	0baH
	DB	00H
	DB	00H
	DB	00H
	DB	0baH
	DB	00H
	DB	00H
	DB	00H
	DB	0baH
	DB	00H
	DB	00H
	DB	00H
	DB	0baH
	DB	00H
	DB	00H
	DB	00H
	DB	0baH
	DB	00H
	DB	00H
	DB	00H
	DB	0baH
	DB	00H
	DB	00H
	DB	00H
	DB	0baH
	DB	00H
	DB	00H
	DB	00H
	DB	0baH
	DB	00H
	DB	00H
	DB	00H
	DB	0baH
	DB	00H
	DB	00H
	DB	00H
	DB	0baH
	DB	00H
	DB	00H
	DB	00H
	DB	0baH
	DB	00H
	DB	00H
	DB	00H
	DB	0baH
	DB	00H
	DB	00H
	DB	00H
	DB	0baH
	DB	00H
	DB	00H
	DB	00H
	DB	0baH
	DB	00H
	DB	00H
	DB	00H
	DB	0baH
	DB	00H
	DB	00H
	DB	00H
	DB	0baH
	DB	00H
	DB	00H
	DB	00H
	DB	0baH
	DB	00H
	DB	00H
	DB	00H
	DB	0baH
	DB	00H
	DB	00H
	DB	00H
	DB	0baH
	DB	00H
	DB	00H
	DB	00H
	DB	0baH
	DB	00H
	DB	00H
	DB	00H
	DB	0baH
	DB	00H
	DB	00H
	DB	00H
	DB	0baH
	DB	00H
	DB	00H
	DB	00H
	DB	0baH
	DB	00H
	DB	00H
	DB	00H
	DB	0baH
	DB	00H
	DB	00H
	DB	00H
	DB	0baH
	DB	00H
	DB	00H
	DB	00H
	DB	0baH
	DB	00H
	DB	00H
	DB	00H
	DB	0baH
	DB	00H
	DB	00H
	DB	00H
	DB	0baH
	DB	00H
	DB	00H
	DB	00H
	DB	0baH
	DB	00H
	DB	00H
	DB	00H
	DB	0baH
	DB	00H
	DB	00H
	DB	00H
	DB	0baH
	DB	00H
	DB	00H
	DB	00H
	DB	0baH
	DB	00H
	DB	00H
	DB	00H
	DB	0baH
	DB	00H
	DB	00H
	DB	00H
	DB	0baH
	DB	00H
	DB	00H
	DB	00H
	DB	0baH
	DB	00H
	DB	00H
	DB	00H
	DB	0baH
	DB	00H
	DB	00H
	DB	00H
	DB	0baH
	DB	00H
	DB	00H
	DB	00H
	DB	0baH
	DB	00H
	DB	00H
	DB	00H
	DB	0baH
	DB	00H
	DB	00H
	DB	00H
	DB	0baH
	DB	00H
	DB	00H
	DB	00H
	DB	0baH
	DB	00H
	DB	00H
	DB	00H
	DB	0baH
	DB	00H
	DB	00H
	DB	00H
	DB	0baH
	DB	00H
	DB	00H
	DB	00H
	DB	0baH
	DB	00H
	DB	00H
	DB	00H
	DB	0baH
	DB	00H
	DB	00H
	DB	00H
	DB	0baH
	DB	00H
	DB	00H
	DB	00H
	DB	0baH
	DB	00H
	DB	00H
	DB	00H
	DB	0baH
	DB	00H
	DB	00H
	DB	00H
	DB	0baH
	DB	00H
	DB	00H
	DB	00H
	DB	0baH
	DB	00H
	DB	00H
	DB	00H
	DB	0baH
	DB	00H
	DB	00H
	DB	00H
	DB	0baH
	DB	00H
	DB	00H
	DB	00H
	DB	0baH
	DB	00H
	DB	00H
	DB	00H
	DB	0baH
	DB	00H
	DB	00H
	DB	00H
	DB	0baH
	DB	00H
	DB	00H
	DB	00H
	DB	0baH
	DB	00H
	DB	00H
	DB	00H
	DB	0baH
	DB	00H
	DB	00H
	DB	00H
	DB	0baH
	DB	00H
	DB	00H
	DB	00H
	DB	0baH
	DB	00H
	DB	00H
	DB	00H
	DB	0baH
	DB	00H
	DB	00H
	DB	00H
	DB	0baH
	DB	00H
	DB	00H
	DB	00H
	DB	0baH
	DB	00H
	DB	00H
	DB	00H
	DB	0baH
	DB	00H
	DB	00H
	DB	00H
	DB	0baH
	DB	00H
	DB	00H
	DB	00H
	DB	0baH
	DB	00H
	DB	00H
	DB	00H
	DB	0baH
	DB	00H
	DB	00H
	DB	00H
	DB	0baH
	DB	00H
	DB	00H
	DB	00H
	DB	0baH
	DB	00H
	DB	00H
	DB	00H
	DB	0baH
	DB	00H
	DB	00H
	DB	00H
	DB	0baH
	DB	00H
	DB	00H
	DB	00H
	DB	0baH
	DB	00H
	DB	00H
	DB	00H
	DB	0baH
	DB	00H
	DB	00H
	DB	00H
	DB	0baH
	DB	00H
	DB	00H
	DB	00H
	DB	0baH
	DB	00H
	DB	00H
	DB	00H
	DB	0baH
	DB	00H
	DB	00H
	DB	00H
	DB	0baH
	DB	00H
	DB	00H
	DB	00H
	DB	0baH
	DB	00H
	DB	00H
	DB	00H
	DB	0baH
	DB	00H
	DB	00H
	DB	00H
	DB	0baH
	DB	00H
	DB	00H
	DB	00H
	DB	0baH
	DB	00H
	DB	00H
	DB	00H
	DB	0baH
	DB	00H
	DB	00H
	DB	00H
	DB	0baH
	DB	00H
	DB	00H
	DB	00H
	DB	0baH
	DB	00H
	DB	00H
	DB	00H
	DB	0baH
	DB	00H
	DB	00H
	DB	00H
	DB	0baH
	DB	00H
	DB	00H
	DB	00H
	DB	0baH
	DB	00H
	DB	00H
	DB	00H
	DB	0baH
	DB	00H
	DB	00H
	DB	00H
	DB	0baH
	DB	00H
	DB	00H
	DB	00H
	DB	0baH
	DB	00H
	DB	00H
	DB	00H
	DB	0baH
	DB	00H
	DB	00H
	DB	00H
	DB	0baH
	DB	00H
	DB	00H
	DB	00H
	DB	0baH
	DB	00H
	DB	00H
	DB	00H
	DB	0baH
	DB	00H
	DB	00H
	DB	00H
	DB	0baH
	DB	00H
	DB	00H
	DB	00H
	DB	0baH
	DB	00H
	DB	00H
	DB	00H
	DB	0baH
	DB	00H
	DB	00H
	DB	00H
	DB	0baH
	DB	00H
	DB	00H
	DB	00H
	DB	0baH
	DB	00H
	DB	00H
	DB	00H
	DB	0baH
	DB	00H
	DB	00H
	DB	00H
	DB	0baH
	DB	00H
	DB	00H
	DB	00H
	DB	0baH
	DB	00H
	DB	00H
	DB	00H
	DB	0baH
	DB	00H
	DB	00H
	DB	00H
	DB	0baH
	DB	00H
	DB	00H
	DB	00H
	DB	0baH
	DB	00H
	DB	00H
	DB	00H
	DB	0baH
	DB	00H
	DB	00H
	DB	00H
	DB	0baH
	DB	00H
	DB	00H
	DB	00H
	DB	0baH
	DB	00H
	DB	00H
	DB	00H
	DB	0baH
	DB	00H
	DB	00H
	DB	00H
	DB	0baH
	DB	00H
	DB	00H
	DB	00H
	DB	0baH
	DB	00H
	DB	00H
	DB	00H
	DB	0baH
	DB	00H
	DB	00H
	DB	00H
	DB	0baH
	DB	00H
	DB	00H
	DB	00H
	DB	0baH
	DB	00H
	DB	00H
	DB	00H
	DB	0baH
	DB	00H
	DB	00H
	DB	00H
	DB	0baH
	DB	00H
	DB	00H
	DB	00H
	DB	0baH
	DB	00H
	DB	00H
	DB	00H
	DB	0baH
	DB	00H
	DB	00H
	DB	00H
	DB	0baH
	DB	00H
	DB	00H
	DB	00H
	DB	0baH
	DB	00H
	DB	00H
	DB	00H
	DB	0baH
	DB	00H
	DB	00H
	DB	00H
	DB	0baH
	DB	00H
	DB	00H
	DB	00H
	DB	0baH
	DB	00H
	DB	00H
	DB	00H
	DB	0baH
	DB	00H
	DB	00H
	DB	00H
	DB	0baH
	DB	00H
	DB	00H
	DB	00H
	DB	0baH
	DB	00H
	DB	00H
	DB	00H
	DB	0baH
	DB	00H
	DB	00H
	DB	00H
	DB	0baH
	DB	00H
	DB	00H
	DB	00H
	DB	0baH
	DB	00H
	DB	00H
	DB	00H
	DB	0baH
	DB	00H
	DB	00H
	DB	00H
	DB	0baH
	DB	00H
	DB	00H
	DB	00H
	DB	0baH
	DB	00H
	DB	00H
	DB	00H
	DB	0baH
	DB	00H
	DB	00H
	DB	00H
	DB	0baH
	DB	00H
	DB	00H
	DB	00H
	DB	0baH
	DB	00H
	DB	00H
	DB	00H
	DB	0baH
	DB	00H
	DB	00H
	DB	00H
	DB	0baH
	DB	00H
	DB	00H
	DB	00H
	DB	0baH
	DB	00H
	DB	00H
	DB	00H
	DB	0baH
	DB	00H
	DB	00H
	DB	00H
	DB	0baH
	DB	00H
	DB	00H
	DB	00H
	DB	0baH
	DB	00H
	DB	00H
	DB	00H
	DB	0baH
	DB	00H
	DB	00H
	DB	00H
	DB	0baH
	DB	00H
	DB	00H
	DB	00H
	DB	0baH
	DB	00H
	DB	00H
	DB	00H
	DB	0baH
	DB	00H
	DB	00H
	DB	00H
	DB	0baH
	DB	00H
	DB	00H
	DB	00H
	DB	0baH
	DB	00H
	DB	00H
	DB	00H
	DB	0baH
	DB	00H
	DB	00H
	DB	00H
	DB	0baH
	DB	00H
	DB	00H
	DB	00H
	DB	0baH
	DB	00H
	DB	00H
	DB	00H
	DB	0baH
	DB	00H
	DB	00H
	DB	00H
	DB	0baH
	DB	00H
	DB	00H
	DB	00H
	DB	0baH
	DB	00H
	DB	00H
	DB	00H
	DB	0baH
	DB	00H
	DB	00H
	DB	00H
	DB	0baH
	DB	00H
	DB	00H
	DB	00H
	DB	0baH
	DB	00H
	DB	00H
	DB	00H
	DB	0baH
	DB	00H
	DB	00H
	DB	00H
	DB	0baH
	DB	00H
	DB	00H
	DB	00H
	DB	0baH
	DB	00H
	DB	00H
	DB	00H
	DB	0baH
	DB	00H
	DB	00H
	DB	00H
	DB	0baH
	DB	00H
	DB	00H
	DB	00H
	DB	0baH
	DB	00H
	DB	00H
	DB	00H
	DB	0baH
	DB	00H
	DB	00H
	DB	00H
	DB	0baH
	DB	00H
	DB	00H
	DB	00H
	DB	0baH
	DB	00H
	DB	00H
	DB	00H
	DB	0baH
	DB	00H
	DB	00H
	DB	00H
	DB	0baH
	DB	00H
	DB	00H
	DB	00H
	DB	0baH
	DB	00H
	DB	00H
	DB	00H
	DB	0baH
	DB	00H
	DB	00H
	DB	00H
	DB	0baH
	DB	00H
	DB	00H
	DB	00H
	DB	0baH
	DB	00H
	DB	00H
	DB	00H
	DB	0baH
	DB	00H
	DB	00H
	DB	00H
	DB	0baH
	DB	00H
	DB	00H
	DB	00H
	DB	0baH
	DB	00H
	DB	00H
	DB	00H
	DB	0baH
	DB	00H
	DB	00H
	DB	00H
	DB	0baH
	DB	00H
	DB	00H
	DB	00H
	DB	0baH
	DB	00H
	DB	00H
	DB	00H
	DB	0baH
	DB	00H
	DB	00H
	DB	00H
	DB	0baH
	DB	00H
	DB	00H
	DB	00H
	DB	0baH
	DB	00H
	DB	00H
	DB	00H
	DB	0baH
	DB	00H
	DB	00H
	DB	00H
	DB	0baH
	DB	00H
	DB	00H
	DB	00H
	DB	0baH
	DB	00H
	DB	00H
	DB	00H
	DB	0baH
	DB	00H
	DB	00H
	DB	00H
	DB	0baH
	DB	00H
	DB	00H
	DB	00H
	DB	0baH
	DB	00H
	DB	00H
	DB	00H
	DB	0baH
	DB	00H
	DB	00H
	DB	00H
	DB	0baH
	DB	00H
	DB	00H
	DB	00H
	DB	0baH
	DB	00H
	DB	00H
	DB	00H
	DB	0baH
	DB	00H
	DB	00H
	DB	00H
	DB	0baH
	DB	00H
	DB	00H
	DB	00H
	DB	0baH
	DB	00H
	DB	00H
	DB	00H
	DB	0baH
	DB	00H
	DB	00H
	DB	00H
	DB	0baH
	DB	00H
	DB	00H
	DB	00H
	DB	0baH
	DB	00H
	DB	00H
	DB	00H
	DB	0baH
	DB	00H
	DB	00H
	DB	00H
	DB	0baH
	DB	00H
	DB	00H
	DB	00H
	DB	0baH
	DB	00H
	DB	00H
	DB	00H
	DB	0baH
	DB	00H
	DB	00H
	DB	00H
	DB	0baH
	DB	00H
	DB	00H
	DB	00H
	DB	0baH
	DB	00H
	DB	00H
	DB	00H
	DB	0baH
	DB	00H
	DB	00H
	DB	00H
	DB	0baH
	DB	00H
	DB	00H
	DB	00H
	DB	0baH
	DB	00H
	DB	00H
	DB	00H
	DB	0baH
	DB	00H
	DB	00H
	DB	00H
	DB	0baH
	DB	00H
	DB	00H
	DB	00H
	DB	0baH
	DB	00H
	DB	00H
	DB	00H
	DB	0baH
	DB	00H
	DB	00H
	DB	00H
	DB	0baH
	DB	00H
	DB	00H
	DB	00H
	DB	0baH
	DB	00H
	DB	00H
	DB	00H
	DB	0baH
	DB	00H
	DB	00H
	DB	00H
	DB	0baH
	DB	00H
	DB	00H
	DB	00H
	DB	0baH
	DB	00H
	DB	00H
	DB	00H
	DB	0baH
	DB	00H
	DB	00H
	DB	00H
	DB	0baH
	DB	00H
	DB	00H
	DB	00H
	DB	0baH
	DB	00H
	DB	00H
	DB	00H
	DB	0baH
	DB	00H
	DB	00H
	DB	00H
	DB	0baH
	DB	00H
	DB	00H
	DB	00H
	DB	0baH
	DB	00H
	DB	00H
	DB	00H
	DB	0baH
	DB	00H
	DB	00H
	DB	00H
	DB	0baH
	DB	00H
	DB	00H
	DB	00H
	DB	0baH
	DB	00H
	DB	00H
	DB	00H
	DB	0baH
	DB	00H
	DB	00H
	DB	00H
	DB	0baH
	DB	00H
	DB	00H
	DB	00H
	DB	0baH
	DB	00H
	DB	00H
	DB	00H
	DB	0baH
	DB	00H
	DB	00H
	DB	00H
	DB	0baH
	DB	00H
	DB	00H
	DB	00H
	DB	0baH
	DB	00H
	DB	00H
	DB	00H
	DB	0baH
	DB	00H
	DB	00H
	DB	00H
	DB	0baH
	DB	00H
	DB	00H
	DB	00H
	DB	0baH
	DB	00H
	DB	00H
	DB	00H
	DB	0baH
	DB	00H
	DB	00H
	DB	00H
	DB	0baH
	DB	00H
	DB	00H
	DB	00H
	DB	0baH
	DB	00H
	DB	00H
	DB	00H
	DB	0baH
	DB	00H
	DB	00H
	DB	00H
	DB	0baH
	DB	00H
	DB	00H
	DB	00H
	DB	0baH
	DB	00H
	DB	00H
	DB	00H
	DB	0baH
	DB	00H
	DB	00H
	DB	00H
	DB	0baH
	DB	00H
	DB	00H
	DB	00H
	DB	0baH
	DB	00H
	DB	00H
	DB	00H
	DB	0baH
	DB	00H
	DB	00H
	DB	00H
	DB	0baH
	DB	00H
	DB	00H
	DB	00H
	DB	0baH
	DB	00H
	DB	00H
	DB	00H
	DB	0baH
	DB	00H
	DB	00H
	DB	00H
	DB	0baH
	DB	00H
	DB	00H
	DB	00H
	DB	0baH
	DB	00H
	DB	00H
	DB	00H
	DB	0baH
	DB	00H
	DB	00H
	DB	00H
	DB	0baH
	DB	00H
	DB	00H
	DB	00H
	DB	0baH
	DB	00H
	DB	00H
	DB	00H
	DB	0baH
	DB	00H
	DB	00H
	DB	00H
	DB	0baH
	DB	00H
	DB	00H
	DB	00H
	DB	0baH
	DB	00H
	DB	00H
	DB	00H
	DB	0baH
	DB	00H
	DB	00H
	DB	00H
	DB	0baH
	DB	00H
	DB	00H
	DB	00H
	DB	0baH
	DB	00H
	DB	00H
	DB	00H
	DB	0baH
	DB	00H
	DB	00H
	DB	00H
	DB	0baH
	DB	00H
	DB	00H
	DB	00H
	DB	0baH
	DB	00H
	DB	00H
	DB	00H
	DB	0baH
	DB	00H
	DB	00H
	DB	00H
	DB	0baH
	DB	00H
	DB	00H
	DB	00H
	DB	0baH
	DB	00H
	DB	00H
	DB	00H
	DB	0baH
	DB	00H
	DB	00H
	DB	00H
	DB	0baH
	DB	00H
	DB	00H
	DB	00H
	DB	0baH
	DB	00H
	DB	00H
	DB	00H
	DB	0baH
	DB	00H
	DB	00H
	DB	00H
	DB	0baH
	DB	00H
	DB	00H
	DB	00H
	DB	0baH
	DB	00H
	DB	00H
	DB	00H
	DB	0baH
	DB	00H
	DB	00H
	DB	00H
	DB	0baH
	DB	00H
	DB	00H
	DB	00H
	DB	0baH
	DB	00H
	DB	00H
	DB	00H
	DB	0baH
	DB	00H
	DB	00H
	DB	00H
	DB	0baH
	DB	00H
	DB	00H
	DB	00H
	DB	0baH
	DB	00H
	DB	00H
	DB	00H
	DB	0baH
	DB	00H
	DB	00H
	DB	00H
	DB	0baH
	DB	00H
	DB	00H
	DB	00H
	DB	0baH
	DB	00H
	DB	00H
	DB	00H
	DB	0baH
	DB	00H
	DB	00H
	DB	00H
	DB	0baH
	DB	00H
	DB	00H
	DB	00H
	DB	0baH
	DB	00H
	DB	00H
	DB	00H
	DB	0baH
	DB	00H
	DB	00H
	DB	00H
	DB	0baH
	DB	00H
	DB	00H
	DB	00H
	DB	0baH
	DB	00H
	DB	00H
	DB	00H
	DB	0baH
	DB	00H
	DB	00H
	DB	00H
	DB	0baH
	DB	00H
	DB	00H
	DB	00H
	DB	0baH
	DB	00H
	DB	00H
	DB	00H
	DB	0baH
	DB	00H
	DB	00H
	DB	00H
	DB	0baH
	DB	00H
	DB	00H
	DB	00H
	DB	0baH
	DB	00H
	DB	00H
	DB	00H
	DB	0baH
	DB	00H
	DB	00H
	DB	00H
	DB	0baH
	DB	00H
	DB	00H
	DB	00H
	DB	0baH
	DB	00H
	DB	00H
	DB	00H
	DB	0baH
	DB	00H
	DB	00H
	DB	00H
	DB	0baH
	DB	00H
	DB	00H
	DB	00H
	DB	0baH
	DB	00H
	DB	00H
	DB	00H
	DB	0baH
	DB	00H
	DB	00H
	DB	00H
	DB	0baH
	DB	00H
	DB	00H
	DB	00H
	DB	0baH
	DB	00H
	DB	00H
	DB	00H
	DB	0baH
	DB	00H
	DB	00H
	DB	00H
	DB	0baH
	DB	00H
	DB	00H
	DB	00H
	DB	0baH
	DB	00H
	DB	00H
	DB	00H
	DB	0baH
	DB	00H
	DB	00H
	DB	00H
	DB	0baH
	DB	00H
	DB	00H
	DB	00H
	DB	0baH
	DB	00H
	DB	00H
	DB	00H
	DB	0baH
	DB	00H
	DB	00H
	DB	00H
	DB	0baH
	DB	00H
	DB	00H
	DB	00H
	DB	0baH
	DB	00H
	DB	00H
	DB	00H
	DB	0baH
	DB	00H
	DB	00H
	DB	00H
	DB	0baH
	DB	00H
	DB	00H
	DB	00H
	DB	0baH
	DB	00H
	DB	00H
	DB	00H
	DB	0baH
	DB	00H
	DB	00H
	DB	00H
	DB	0baH
	DB	00H
	DB	00H
	DB	00H
	DB	0baH
	DB	00H
	DB	00H
	DB	00H
	DB	0baH
	DB	00H
	DB	00H
	DB	00H
	DB	0baH
	DB	00H
	DB	00H
	DB	00H
	DB	0baH
	DB	00H
	DB	00H
	DB	00H
	DB	0baH
	DB	00H
	DB	00H
	DB	00H
	DB	0baH
	DB	00H
	DB	00H
	DB	00H
	DB	0baH
	DB	00H
	DB	00H
	DB	00H
	DB	0baH
	DB	00H
	DB	00H
	DB	00H
	DB	0baH
	DB	00H
	DB	00H
	DB	00H
	DB	0baH
	DB	00H
	DB	00H
	DB	00H
	DB	0baH
	DB	00H
	DB	00H
	DB	00H
	DB	0baH
	DB	00H
	DB	00H
	DB	00H
	DB	0baH
	DB	00H
	DB	00H
	DB	00H
	DB	0baH
	DB	00H
	DB	00H
	DB	00H
	DB	0baH
	DB	00H
	DB	00H
	DB	00H
	DB	0baH
	DB	00H
	DB	00H
	DB	00H
	DB	0baH
	DB	00H
	DB	00H
	DB	00H
	DB	0baH
	DB	00H
	DB	00H
	DB	00H
	DB	0baH
	DB	00H
	DB	00H
	DB	00H
	DB	0baH
	DB	00H
	DB	00H
	DB	00H
	DB	0baH
	DB	00H
	DB	00H
	DB	00H
	DB	0baH
	DB	00H
	DB	00H
	DB	00H
	DB	0baH
	DB	00H
	DB	00H
	DB	00H
	DB	0baH
	DB	00H
	DB	00H
	DB	00H
	DB	0baH
	DB	00H
	DB	00H
	DB	00H
	DB	0baH
	DB	00H
	DB	00H
	DB	00H
	DB	0baH
	DB	00H
	DB	00H
	DB	00H
	DB	0baH
	DB	00H
	DB	00H
	DB	00H
	DB	0baH
	DB	00H
	DB	00H
	DB	00H
	DB	0baH
	DB	00H
	DB	00H
	DB	00H
	DB	0baH
	DB	00H
	DB	00H
	DB	00H
	DB	0baH
	DB	00H
	DB	00H
	DB	00H
	DB	0baH
	DB	00H
	DB	00H
	DB	00H
	DB	0baH
	DB	00H
	DB	00H
	DB	00H
	DB	0baH
	DB	00H
	DB	00H
	DB	00H
	DB	0baH
	DB	00H
	DB	00H
	DB	00H
	DB	0baH
	DB	00H
	DB	00H
	DB	00H
	DB	0baH
	DB	00H
	DB	00H
	DB	00H
	DB	0baH
	DB	00H
	DB	00H
	DB	00H
	DB	0baH
	DB	00H
	DB	00H
	DB	00H
	DB	0baH
	DB	00H
	DB	00H
	DB	00H
	DB	0baH
	DB	00H
	DB	00H
	DB	00H
	DB	0baH
	DB	00H
	DB	00H
	DB	00H
	DB	0baH
	DB	00H
	DB	00H
	DB	00H
	DB	0baH
	DB	00H
	DB	00H
	DB	00H
	DB	0baH
	DB	00H
	DB	00H
	DB	00H
	DB	0baH
	DB	00H
	DB	00H
	DB	00H
	DB	0baH
	DB	00H
	DB	00H
	DB	00H
	DB	0baH
	DB	00H
	DB	00H
	DB	00H
	DB	0baH
	DB	00H
	DB	00H
	DB	00H
	DB	0baH
	DB	00H
	DB	00H
	DB	00H
	DB	0baH
	DB	00H
	DB	00H
	DB	00H
	DB	0baH
	DB	00H
	DB	00H
	DB	00H
	DB	0baH
	DB	00H
	DB	00H
	DB	00H
	DB	0baH
	DB	00H
	DB	00H
	DB	00H
	DB	0baH
	DB	00H
	DB	00H
	DB	00H
	DB	0baH
	DB	00H
	DB	00H
	DB	00H
	DB	0baH
	DB	00H
	DB	00H
	DB	00H
	DB	0baH
	DB	00H
	DB	00H
	DB	00H
	DB	0baH
	DB	00H
	DB	00H
	DB	00H
	DB	0baH
	DB	00H
	DB	00H
	DB	00H
	DB	0baH
	DB	00H
	DB	00H
	DB	00H
	DB	0baH
	DB	00H
	DB	00H
	DB	00H
	DB	0baH
	DB	00H
	DB	00H
	DB	00H
	DB	0baH
	DB	00H
	DB	00H
	DB	00H
	DB	0baH
	DB	00H
	DB	00H
	DB	00H
	DB	0baH
	DB	00H
	DB	00H
	DB	00H
	DB	0baH
	DB	00H
	DB	00H
	DB	00H
	DB	0baH
	DB	00H
	DB	00H
	DB	00H
	DB	0baH
	DB	00H
	DB	00H
	DB	00H
	DB	0baH
	DB	00H
	DB	00H
	DB	00H
	DB	0baH
	DB	00H
	DB	00H
	DB	00H
	DB	0baH
	DB	00H
	DB	00H
	DB	00H
	DB	0baH
	DB	00H
	DB	00H
	DB	00H
	DB	0baH
	DB	00H
	DB	00H
	DB	00H
	DB	0baH
	DB	00H
	DB	00H
	DB	00H
	DB	0baH
	DB	00H
	DB	00H
	DB	00H
	DB	0baH
	DB	00H
	DB	00H
	DB	00H
	DB	0baH
	DB	00H
	DB	00H
	DB	00H
	DB	0baH
	DB	00H
	DB	00H
	DB	00H
	DB	0baH
	DB	00H
	DB	00H
	DB	00H
	DB	0baH
	DB	00H
	DB	00H
	DB	00H
	DB	0baH
	DB	00H
	DB	00H
	DB	00H
	DB	0baH
	DB	00H
	DB	00H
	DB	00H
	DB	0baH
	DB	00H
	DB	00H
	DB	00H
	DB	0baH
	DB	00H
	DB	00H
	DB	00H
	DB	0baH
	DB	00H
	DB	00H
	DB	00H
	DB	0baH
	DB	00H
	DB	00H
	DB	00H
	DB	0baH
	DB	00H
	DB	00H
	DB	00H
	DB	0baH
	DB	00H
	DB	00H
	DB	00H
	DB	0baH
	DB	00H
	DB	00H
	DB	00H
	DB	0baH
	DB	00H
	DB	00H
	DB	00H
	DB	0baH
	DB	00H
	DB	00H
	DB	00H
	DB	0baH
	DB	00H
	DB	00H
	DB	00H
	DB	0baH
	DB	00H
	DB	00H
	DB	00H
	DB	0baH
	DB	00H
	DB	00H
	DB	00H
	DB	0baH
	DB	00H
	DB	00H
	DB	00H
	DB	0baH
	DB	00H
	DB	00H
	DB	00H
	DB	0baH
	DB	00H
	DB	00H
	DB	00H
	DB	0baH
	DB	00H
	DB	00H
	DB	00H
	DB	0baH
	DB	00H
	DB	00H
	DB	00H
	DB	0baH
	DB	00H
	DB	00H
	DB	00H
	DB	0baH
	DB	00H
	DB	00H
	DB	00H
	DB	0baH
	DB	00H
	DB	00H
	DB	00H
	DB	0baH
	DB	00H
	DB	00H
	DB	00H
	DB	0baH
	DB	00H
	DB	00H
	DB	00H
	DB	0baH
	DB	00H
	DB	00H
	DB	00H
	DB	0baH
	DB	00H
	DB	00H
	DB	00H
	DB	0baH
	DB	00H
	DB	00H
	DB	00H
	DB	0baH
	DB	00H
	DB	00H
	DB	00H
	DB	0baH
	DB	00H
	DB	00H
	DB	00H
	DB	0baH
	DB	00H
	DB	00H
	DB	00H
	DB	0baH
	DB	00H
	DB	00H
	DB	00H
	DB	0baH
	DB	00H
	DB	00H
	DB	00H
	DB	0baH
	DB	00H
	DB	00H
	DB	00H
	DB	0baH
	DB	00H
	DB	00H
	DB	00H
	DB	0baH
	DB	00H
	DB	00H
	DB	00H
	DB	0baH
	DB	00H
	DB	00H
	DB	00H
	DB	0baH
	DB	00H
	DB	00H
	DB	00H
	DB	0baH
	DB	00H
	DB	00H
	DB	00H
	DB	0baH
	DB	00H
	DB	00H
	DB	00H
	DB	0baH
	DB	00H
	DB	00H
	DB	00H
	DB	0baH
	DB	00H
	DB	00H
	DB	00H
	DB	0baH
	DB	00H
	DB	00H
	DB	00H
	DB	0baH
	DB	00H
	DB	00H
	DB	00H
	DB	0baH
	DB	00H
	DB	00H
	DB	00H
	DB	0baH
	DB	00H
	DB	00H
	DB	00H
	DB	0baH
	DB	00H
	DB	00H
	DB	00H
	DB	0baH
	DB	00H
	DB	00H
	DB	00H
	DB	0baH
	DB	00H
	DB	00H
	DB	00H
	DB	0baH
	DB	00H
	DB	00H
	DB	00H
	DB	0baH
	DB	00H
	DB	00H
	DB	00H
	DB	0baH
	DB	00H
	DB	00H
	DB	00H
	DB	0baH
	DB	00H
	DB	00H
	DB	00H
	DB	0baH
	DB	00H
	DB	00H
	DB	00H
	DB	0baH
	DB	00H
	DB	00H
	DB	00H
	DB	0baH
	DB	00H
	DB	00H
	DB	00H
	DB	0baH
	DB	00H
	DB	00H
	DB	00H
	DB	0baH
	DB	00H
	DB	00H
	DB	00H
	DB	0baH
	DB	00H
	DB	00H
	DB	00H
	DB	0baH
	DB	00H
	DB	00H
	DB	00H
	DB	0baH
	DB	00H
	DB	00H
	DB	00H
	DB	0baH
	DB	00H
	DB	00H
	DB	00H
	DB	0baH
	DB	00H
	DB	00H
	DB	00H
	DB	0baH
	DB	00H
	DB	00H
	DB	00H
	DB	0baH
	DB	00H
	DB	00H
	DB	00H
	DB	0baH
	DB	00H
	DB	00H
	DB	00H
	DB	0baH
	DB	00H
	DB	00H
	DB	00H
	DB	0baH
	DB	00H
	DB	00H
	DB	00H
	DB	0baH
	DB	00H
	DB	00H
	DB	00H
	DB	0baH
	DB	00H
	DB	00H
	DB	00H
	DB	0baH
	DB	00H
	DB	00H
	DB	00H
	DB	0baH
	DB	00H
	DB	00H
	DB	00H
	DB	0baH
	DB	00H
	DB	00H
	DB	00H
	DB	0baH
	DB	00H
	DB	00H
	DB	00H
	DB	0baH
	DB	00H
	DB	00H
	DB	00H
	DB	0baH
	DB	00H
	DB	00H
	DB	00H
	DB	0baH
	DB	00H
	DB	00H
	DB	00H
	DB	0baH
	DB	00H
	DB	00H
	DB	00H
	DB	0baH
	DB	00H
	DB	00H
	DB	00H
	DB	0baH
	DB	00H
	DB	00H
	DB	00H
	DB	0baH
	DB	00H
	DB	00H
	DB	00H
	DB	0baH
	DB	00H
	DB	00H
	DB	00H
	DB	0baH
	DB	00H
	DB	00H
	DB	00H
	DB	0baH
	DB	00H
	DB	00H
	DB	00H
	DB	0baH
	DB	00H
	DB	00H
	DB	00H
	DB	0baH
	DB	00H
	DB	00H
	DB	00H
	DB	0baH
	DB	00H
	DB	00H
	DB	00H
	DB	0baH
	DB	00H
	DB	00H
	DB	00H
	DB	0baH
	DB	00H
	DB	00H
	DB	00H
	DB	0baH
	DB	00H
	DB	00H
	DB	00H
	DB	0baH
	DB	00H
	DB	00H
	DB	00H
	DB	0baH
	DB	00H
	DB	00H
	DB	00H
	DB	0baH
	DB	00H
	DB	00H
	DB	00H
	DB	0baH
	DB	00H
	DB	00H
	DB	00H
	DB	0baH
	DB	00H
	DB	00H
	DB	00H
	DB	0baH
	DB	00H
	DB	00H
	DB	00H
	DB	0baH
	DB	00H
	DB	00H
	DB	00H
	DB	0baH
	DB	00H
	DB	00H
	DB	00H
	DB	0baH
	DB	00H
	DB	00H
	DB	00H
	DB	0baH
	DB	00H
	DB	00H
	DB	00H
	DB	0baH
	DB	00H
	DB	00H
	DB	00H
	DB	0baH
	DB	00H
	DB	00H
	DB	00H
	DB	0baH
	DB	00H
	DB	00H
	DB	00H
	DB	0baH
	DB	00H
	DB	00H
	DB	00H
	DB	0baH
	DB	00H
	DB	00H
	DB	00H
	DB	0baH
	DB	00H
	DB	00H
	DB	00H
	DB	0baH
	DB	00H
	DB	00H
	DB	00H
	DB	0baH
	DB	00H
	DB	00H
	DB	00H
	DB	0baH
	DB	00H
	DB	00H
	DB	00H
	DB	0baH
	DB	00H
	DB	00H
	DB	00H
	DB	0baH
	DB	00H
	DB	00H
	DB	00H
	DB	0baH
	DB	00H
	DB	00H
	DB	00H
	DB	0baH
	DB	00H
	DB	00H
	DB	00H
	DB	0baH
	DB	00H
	DB	00H
	DB	00H
	DB	0baH
	DB	00H
	DB	00H
	DB	00H
	DB	0baH
	DB	00H
	DB	00H
	DB	00H
	DB	0baH
	DB	00H
	DB	00H
	DB	00H
	DB	0baH
	DB	00H
	DB	00H
	DB	00H
	DB	0baH
	DB	00H
	DB	00H
	DB	00H
	DB	0baH
	DB	00H
	DB	00H
	DB	00H
	DB	0baH
	DB	00H
	DB	00H
	DB	00H
	DB	0baH
	DB	00H
	DB	00H
	DB	00H
	DB	0baH
	DB	00H
	DB	00H
	DB	00H
	DB	0baH
	DB	00H
	DB	00H
	DB	00H
	DB	0baH
	DB	00H
	DB	00H
	DB	00H
	DB	0baH
	DB	00H
	DB	00H
	DB	00H
	DB	0baH
	DB	00H
	DB	00H
	DB	00H
	DB	0baH
	DB	00H
	DB	00H
	DB	00H
	DB	0baH
	DB	00H
	DB	00H
	DB	00H
	DB	0baH
	DB	00H
	DB	00H
	DB	00H
	DB	0baH
	DB	00H
	DB	00H
	DB	00H
	DB	0baH
	DB	00H
	DB	00H
	DB	00H
	DB	0baH
	DB	00H
	DB	00H
	DB	00H
	DB	0baH
	DB	00H
	DB	00H
	DB	00H
	DB	0baH
	DB	00H
	DB	00H
	DB	00H
	DB	0baH
	DB	00H
	DB	00H
	DB	00H
	DB	0baH
	DB	00H
	DB	00H
	DB	00H
	DB	0baH
	DB	00H
	DB	00H
	DB	00H
	DB	0baH
	DB	00H
	DB	00H
	DB	00H
	DB	0baH
	DB	00H
	DB	00H
	DB	00H
	DB	0baH
	DB	00H
	DB	00H
	DB	00H
	DB	0baH
	DB	00H
	DB	00H
	DB	00H
	DB	0baH
	DB	00H
	DB	00H
	DB	00H
	DB	0baH
	DB	00H
	DB	00H
	DB	00H
	DB	0baH
	DB	00H
	DB	00H
	DB	00H
	DB	0baH
	DB	00H
	DB	00H
	DB	00H
	DB	0baH
	DB	00H
	DB	00H
	DB	00H
	DB	0baH
	DB	00H
	DB	00H
	DB	00H
	DB	0baH
	DB	00H
	DB	00H
	DB	00H
	DB	0baH
	DB	00H
	DB	00H
	DB	00H
	DB	0baH
	DB	00H
	DB	00H
	DB	00H
	DB	0baH
	DB	00H
	DB	00H
	DB	00H
	DB	0baH
	DB	00H
	DB	00H
	DB	00H
	DB	0baH
	DB	00H
	DB	00H
	DB	00H
	DB	0baH
	DB	00H
	DB	00H
	DB	00H
	DB	0baH
	DB	00H
	DB	00H
	DB	00H
	DB	0baH
	DB	00H
	DB	00H
	DB	00H
	DB	0baH
	DB	00H
	DB	00H
	DB	00H
	DB	0baH
	DB	00H
	DB	00H
	DB	00H
	DB	0baH
	DB	00H
	DB	00H
	DB	00H
	DB	0baH
	DB	00H
	DB	00H
	DB	00H
	DB	0baH
	DB	00H
	DB	00H
	DB	00H
	DB	0baH
	DB	00H
	DB	00H
	DB	00H
	DB	0baH
	DB	00H
	DB	00H
	DB	00H
	DB	0baH
	DB	00H
	DB	00H
	DB	00H
	DB	0baH
	DB	00H
	DB	00H
	DB	00H
	DB	0baH
	DB	00H
	DB	00H
	DB	00H
	DB	0baH
	DB	00H
	DB	00H
	DB	00H
	DB	0baH
	DB	00H
	DB	00H
	DB	00H
	DB	0baH
	DB	00H
	DB	00H
	DB	00H
	DB	0baH
	DB	00H
	DB	00H
	DB	00H
	DB	0baH
	DB	00H
	DB	00H
	DB	00H
	DB	0baH
	DB	00H
	DB	00H
	DB	00H
	DB	0baH
	DB	00H
	DB	00H
	DB	00H
	DB	0baH
	DB	00H
	DB	00H
	DB	00H
	DB	0baH
	DB	00H
	DB	00H
	DB	00H
	DB	0baH
	DB	00H
	DB	00H
	DB	00H
	DB	0baH
	DB	00H
	DB	00H
	DB	00H
	DB	0baH
	DB	00H
	DB	00H
	DB	00H
	DB	0baH
	DB	00H
	DB	00H
	DB	00H
	DB	0baH
	DB	00H
	DB	00H
	DB	00H
	DB	0baH
	DB	00H
	DB	00H
	DB	00H
	DB	0baH
	DB	00H
	DB	00H
	DB	00H
	DB	0baH
	DB	00H
	DB	00H
	DB	00H
	DB	0baH
	DB	00H
	DB	00H
	DB	00H
	DB	0baH
	DB	00H
	DB	00H
	DB	00H
	DB	0baH
	DB	00H
	DB	00H
	DB	00H
	DB	0baH
	DB	00H
	DB	00H
	DB	00H
	DB	0baH
	DB	00H
	DB	00H
	DB	00H
	DB	0baH
	DB	00H
	DB	00H
	DB	00H
	DB	0baH
	DB	00H
	DB	00H
	DB	00H
	DB	0baH
	DB	00H
	DB	00H
	DB	00H
	DB	0baH
	DB	00H
	DB	00H
	DB	00H
	DB	0baH
	DB	00H
	DB	00H
	DB	00H
	DB	0baH
	DB	00H
	DB	00H
	DB	00H
	DB	0baH
	DB	00H
	DB	00H
	DB	00H
	DB	0baH
	DB	00H
	DB	00H
	DB	00H
	DB	0baH
	DB	00H
	DB	00H
	DB	00H
	DB	0baH
	DB	00H
	DB	00H
	DB	00H
	DB	0baH
	DB	00H
	DB	00H
	DB	00H
	DB	0baH
	DB	00H
	DB	00H
	DB	00H
	DB	0baH
	DB	00H
	DB	00H
	DB	00H
	DB	0baH
	DB	00H
	DB	00H
	DB	00H
	DB	0baH
	DB	00H
	DB	00H
	DB	00H
	DB	0baH
	DB	00H
	DB	00H
	DB	00H
	DB	0baH
	DB	00H
	DB	00H
	DB	00H
	DB	0baH
	DB	00H
	DB	00H
	DB	00H
	DB	0baH
	DB	00H
	DB	00H
	DB	00H
	DB	0baH
	DB	00H
	DB	00H
	DB	00H
	DB	0baH
	DB	00H
	DB	00H
	DB	00H
	DB	0baH
	DB	00H
	DB	00H
	DB	00H
	DB	0baH
	DB	00H
	DB	00H
	DB	00H
	DB	0baH
	DB	00H
	DB	00H
	DB	00H
	DB	0baH
	DB	00H
	DB	00H
	DB	00H
	DB	0baH
	DB	00H
	DB	00H
	DB	00H
	DB	0baH
	DB	00H
	DB	00H
	DB	00H
	DB	0baH
	DB	00H
	DB	00H
	DB	00H
	DB	0baH
	DB	00H
	DB	00H
	DB	00H
	DB	0baH
	DB	00H
	DB	00H
	DB	00H
	DB	0baH
	DB	00H
	DB	00H
	DB	00H
	DB	0baH
	DB	00H
	DB	00H
	DB	00H
	DB	0baH
	DB	00H
	DB	00H
	DB	00H
	DB	0baH
	DB	00H
	DB	00H
	DB	00H
	DB	0baH
	DB	00H
	DB	00H
	DB	00H
	DB	0baH
	DB	00H
	DB	00H
	DB	00H
	DB	0baH
	DB	00H
	DB	00H
	DB	00H
	DB	0baH
	DB	00H
	DB	00H
	DB	00H
	DB	0baH
	DB	00H
	DB	00H
	DB	00H
	DB	0baH
	DB	00H
	DB	00H
	DB	00H
	DB	0baH
	DB	00H
	DB	00H
	DB	00H
	DB	0baH
	DB	00H
	DB	00H
	DB	00H
	DB	0baH
	DB	00H
	DB	00H
	DB	00H
	DB	0baH
	DB	00H
	DB	00H
	DB	00H
	DB	0baH
	DB	00H
	DB	00H
	DB	00H
	DB	0baH
	DB	07cH
	DB	07cH
	DB	07cH
	DB	0ccH
	DB	0ffH
	DB	0ffH
	DB	0ffH
	DB	0ffH
	DB	0ffH
	DB	0ffH
	DB	0ffH
	DB	0ffH
	DB	0ffH
	DB	0ffH
	DB	0ffH
	DB	0ffH
	DB	0ffH
	DB	0ffH
	DB	0ffH
	DB	0ffH
	DB	0ffH
	DB	0ffH
	DB	0ffH
	DB	0ffH
	DB	0ffH
	DB	0ffH
	DB	0ffH
	DB	0ffH
	DB	0ffH
	DB	0ffH
	DB	0ffH
	DB	0ffH
	DB	0ffH
	DB	0ffH
	DB	0ffH
	DB	0ffH
	DB	0ffH
	DB	0ffH
	DB	0ffH
	DB	0ffH
	DB	0ffH
	DB	0ffH
	DB	0ffH
	DB	0ffH
	DB	0e5H
	DB	0e5H
	DB	0e5H
	DB	0f1H
	DB	0acH
	DB	0acH
	DB	0acH
	DB	0daH
	DB	07cH
	DB	07cH
	DB	07cH
	DB	0ccH
	DB	00H
	DB	00H
	DB	00H
	DB	0baH
	DB	00H
	DB	00H
	DB	00H
	DB	0baH
	DB	00H
	DB	00H
	DB	00H
	DB	0baH
	DB	00H
	DB	00H
	DB	00H
	DB	0baH
	DB	00H
	DB	00H
	DB	00H
	DB	0baH
	DB	00H
	DB	00H
	DB	00H
	DB	0baH
	DB	00H
	DB	00H
	DB	00H
	DB	0baH
	DB	00H
	DB	00H
	DB	00H
	DB	0baH
	DB	00H
	DB	00H
	DB	00H
	DB	0baH
	DB	07cH
	DB	07cH
	DB	07cH
	DB	0ccH
	DB	0acH
	DB	0acH
	DB	0acH
	DB	0daH
	DB	0e5H
	DB	0e5H
	DB	0e5H
	DB	0f1H
	DB	0ffH
	DB	0ffH
	DB	0ffH
	DB	0ffH
	DB	0ffH
	DB	0ffH
	DB	0ffH
	DB	0ffH
	DB	0ffH
	DB	0ffH
	DB	0ffH
	DB	0ffH
	DB	0ffH
	DB	0ffH
	DB	0ffH
	DB	0ffH
	DB	0ffH
	DB	0ffH
	DB	0ffH
	DB	0ffH
	DB	0ffH
	DB	0ffH
	DB	0ffH
	DB	0ffH
	DB	0ffH
	DB	0ffH
	DB	0ffH
	DB	0ffH
	DB	0acH
	DB	0acH
	DB	0acH
	DB	0daH
	DB	0acH
	DB	0acH
	DB	0acH
	DB	0daH
	DB	00H
	DB	00H
	DB	00H
	DB	0baH
	DB	00H
	DB	00H
	DB	00H
	DB	0baH
	DB	00H
	DB	00H
	DB	00H
	DB	0baH
	DB	00H
	DB	00H
	DB	00H
	DB	0baH
	DB	00H
	DB	00H
	DB	00H
	DB	0baH
	DB	00H
	DB	00H
	DB	00H
	DB	0baH
	DB	00H
	DB	00H
	DB	00H
	DB	0baH
	DB	07cH
	DB	07cH
	DB	07cH
	DB	0ccH
	DB	0ffH
	DB	0ffH
	DB	0ffH
	DB	0ffH
	DB	0ffH
	DB	0ffH
	DB	0ffH
	DB	0ffH
	DB	0ffH
	DB	0ffH
	DB	0ffH
	DB	0ffH
	DB	0baH
	DB	0baH
	DB	0baH
	DB	0dfH
	DB	00H
	DB	00H
	DB	00H
	DB	0baH
	DB	00H
	DB	00H
	DB	00H
	DB	0baH
	DB	00H
	DB	00H
	DB	00H
	DB	0baH
	DB	00H
	DB	00H
	DB	00H
	DB	0baH
	DB	00H
	DB	00H
	DB	00H
	DB	0baH
	DB	00H
	DB	00H
	DB	00H
	DB	0baH
	DB	00H
	DB	00H
	DB	00H
	DB	0baH
	DB	00H
	DB	00H
	DB	00H
	DB	0baH
	DB	050H
	DB	050H
	DB	050H
	DB	0c3H
	DB	0ffH
	DB	0ffH
	DB	0ffH
	DB	0ffH
	DB	0ffH
	DB	0ffH
	DB	0ffH
	DB	0ffH
	DB	0ffH
	DB	0ffH
	DB	0ffH
	DB	0ffH
	DB	050H
	DB	050H
	DB	050H
	DB	0c3H
	DB	00H
	DB	00H
	DB	00H
	DB	0baH
	DB	00H
	DB	00H
	DB	00H
	DB	0baH
	DB	00H
	DB	00H
	DB	00H
	DB	0baH
	DB	00H
	DB	00H
	DB	00H
	DB	0baH
	DB	07cH
	DB	07cH
	DB	07cH
	DB	0ccH
	DB	0ffH
	DB	0ffH
	DB	0ffH
	DB	0ffH
	DB	0ffH
	DB	0ffH
	DB	0ffH
	DB	0ffH
	DB	0ffH
	DB	0ffH
	DB	0ffH
	DB	0ffH
	DB	0ffH
	DB	0ffH
	DB	0ffH
	DB	0ffH
	DB	0ffH
	DB	0ffH
	DB	0ffH
	DB	0ffH
	DB	0ffH
	DB	0ffH
	DB	0ffH
	DB	0ffH
	DB	0ffH
	DB	0ffH
	DB	0ffH
	DB	0ffH
	DB	0ffH
	DB	0ffH
	DB	0ffH
	DB	0ffH
	DB	0ffH
	DB	0ffH
	DB	0ffH
	DB	0ffH
	DB	0ffH
	DB	0ffH
	DB	0ffH
	DB	0ffH
	DB	0ffH
	DB	0ffH
	DB	0ffH
	DB	0ffH
	DB	0ffH
	DB	0ffH
	DB	0ffH
	DB	0ffH
	DB	0ffH
	DB	0ffH
	DB	0ffH
	DB	0ffH
	DB	0acH
	DB	0acH
	DB	0acH
	DB	0daH
	DB	00H
	DB	00H
	DB	00H
	DB	0baH
	DB	00H
	DB	00H
	DB	00H
	DB	0baH
	DB	00H
	DB	00H
	DB	00H
	DB	0baH
	DB	00H
	DB	00H
	DB	00H
	DB	0baH
	DB	00H
	DB	00H
	DB	00H
	DB	0baH
	DB	00H
	DB	00H
	DB	00H
	DB	0baH
	DB	00H
	DB	00H
	DB	00H
	DB	0baH
	DB	00H
	DB	00H
	DB	00H
	DB	0baH
	DB	00H
	DB	00H
	DB	00H
	DB	0baH
	DB	00H
	DB	00H
	DB	00H
	DB	0baH
	DB	00H
	DB	00H
	DB	00H
	DB	0baH
	DB	00H
	DB	00H
	DB	00H
	DB	0baH
	DB	00H
	DB	00H
	DB	00H
	DB	0baH
	DB	00H
	DB	00H
	DB	00H
	DB	0baH
	DB	00H
	DB	00H
	DB	00H
	DB	0baH
	DB	00H
	DB	00H
	DB	00H
	DB	0baH
	DB	00H
	DB	00H
	DB	00H
	DB	0baH
	DB	00H
	DB	00H
	DB	00H
	DB	0baH
	DB	00H
	DB	00H
	DB	00H
	DB	0baH
	DB	00H
	DB	00H
	DB	00H
	DB	0baH
	DB	00H
	DB	00H
	DB	00H
	DB	0baH
	DB	00H
	DB	00H
	DB	00H
	DB	0baH
	DB	00H
	DB	00H
	DB	00H
	DB	0baH
	DB	00H
	DB	00H
	DB	00H
	DB	0baH
	DB	00H
	DB	00H
	DB	00H
	DB	0baH
	DB	00H
	DB	00H
	DB	00H
	DB	0baH
	DB	00H
	DB	00H
	DB	00H
	DB	0baH
	DB	00H
	DB	00H
	DB	00H
	DB	0baH
	DB	00H
	DB	00H
	DB	00H
	DB	0baH
	DB	00H
	DB	00H
	DB	00H
	DB	0baH
	DB	00H
	DB	00H
	DB	00H
	DB	0baH
	DB	00H
	DB	00H
	DB	00H
	DB	0baH
	DB	00H
	DB	00H
	DB	00H
	DB	0baH
	DB	00H
	DB	00H
	DB	00H
	DB	0baH
	DB	00H
	DB	00H
	DB	00H
	DB	0baH
	DB	00H
	DB	00H
	DB	00H
	DB	0baH
	DB	00H
	DB	00H
	DB	00H
	DB	0baH
	DB	00H
	DB	00H
	DB	00H
	DB	0baH
	DB	00H
	DB	00H
	DB	00H
	DB	0baH
	DB	00H
	DB	00H
	DB	00H
	DB	0baH
	DB	00H
	DB	00H
	DB	00H
	DB	0baH
	DB	00H
	DB	00H
	DB	00H
	DB	0baH
	DB	00H
	DB	00H
	DB	00H
	DB	0baH
	DB	00H
	DB	00H
	DB	00H
	DB	0baH
	DB	00H
	DB	00H
	DB	00H
	DB	0baH
	DB	00H
	DB	00H
	DB	00H
	DB	0baH
	DB	00H
	DB	00H
	DB	00H
	DB	0baH
	DB	00H
	DB	00H
	DB	00H
	DB	0baH
	DB	00H
	DB	00H
	DB	00H
	DB	0baH
	DB	00H
	DB	00H
	DB	00H
	DB	0baH
	DB	00H
	DB	00H
	DB	00H
	DB	0baH
	DB	07cH
	DB	07cH
	DB	07cH
	DB	0ccH
	DB	0ffH
	DB	0ffH
	DB	0ffH
	DB	0ffH
	DB	0ffH
	DB	0ffH
	DB	0ffH
	DB	0ffH
	DB	0ffH
	DB	0ffH
	DB	0ffH
	DB	0ffH
	DB	0ffH
	DB	0ffH
	DB	0ffH
	DB	0ffH
	DB	0ffH
	DB	0ffH
	DB	0ffH
	DB	0ffH
	DB	0ffH
	DB	0ffH
	DB	0ffH
	DB	0ffH
	DB	0ffH
	DB	0ffH
	DB	0ffH
	DB	0ffH
	DB	0ffH
	DB	0ffH
	DB	0ffH
	DB	0ffH
	DB	0ffH
	DB	0ffH
	DB	0ffH
	DB	0ffH
	DB	0ffH
	DB	0ffH
	DB	0ffH
	DB	0ffH
	DB	0ffH
	DB	0ffH
	DB	0ffH
	DB	0ffH
	DB	0ffH
	DB	0ffH
	DB	0ffH
	DB	0ffH
	DB	0ffH
	DB	0ffH
	DB	0ffH
	DB	0ffH
	DB	0dbH
	DB	0dbH
	DB	0dbH
	DB	0edH
	DB	00H
	DB	00H
	DB	00H
	DB	0baH
	DB	00H
	DB	00H
	DB	00H
	DB	0baH
	DB	00H
	DB	00H
	DB	00H
	DB	0baH
	DB	00H
	DB	00H
	DB	00H
	DB	0baH
	DB	00H
	DB	00H
	DB	00H
	DB	0baH
	DB	00H
	DB	00H
	DB	00H
	DB	0baH
	DB	00H
	DB	00H
	DB	00H
	DB	0baH
	DB	0c6H
	DB	0c6H
	DB	0c6H
	DB	0e3H
	DB	0ffH
	DB	0ffH
	DB	0ffH
	DB	0ffH
	DB	0ffH
	DB	0ffH
	DB	0ffH
	DB	0ffH
	DB	0ffH
	DB	0ffH
	DB	0ffH
	DB	0ffH
	DB	0ffH
	DB	0ffH
	DB	0ffH
	DB	0ffH
	DB	0ffH
	DB	0ffH
	DB	0ffH
	DB	0ffH
	DB	0ffH
	DB	0ffH
	DB	0ffH
	DB	0ffH
	DB	0ffH
	DB	0ffH
	DB	0ffH
	DB	0ffH
	DB	0ffH
	DB	0ffH
	DB	0ffH
	DB	0ffH
	DB	0ffH
	DB	0ffH
	DB	0ffH
	DB	0ffH
	DB	0ffH
	DB	0ffH
	DB	0ffH
	DB	0ffH
	DB	0ffH
	DB	0ffH
	DB	0ffH
	DB	0ffH
	DB	0ffH
	DB	0ffH
	DB	0ffH
	DB	0ffH
	DB	0eeH
	DB	0eeH
	DB	0eeH
	DB	0f6H
	DB	068H
	DB	068H
	DB	068H
	DB	0c8H
	DB	00H
	DB	00H
	DB	00H
	DB	0baH
	DB	00H
	DB	00H
	DB	00H
	DB	0baH
	DB	00H
	DB	00H
	DB	00H
	DB	0baH
	DB	00H
	DB	00H
	DB	00H
	DB	0baH
	DB	00H
	DB	00H
	DB	00H
	DB	0baH
	DB	07cH
	DB	07cH
	DB	07cH
	DB	0ccH
	DB	0ffH
	DB	0ffH
	DB	0ffH
	DB	0ffH
	DB	0ffH
	DB	0ffH
	DB	0ffH
	DB	0ffH
	DB	0ffH
	DB	0ffH
	DB	0ffH
	DB	0ffH
	DB	0ffH
	DB	0ffH
	DB	0ffH
	DB	0ffH
	DB	07cH
	DB	07cH
	DB	07cH
	DB	0ccH
	DB	00H
	DB	00H
	DB	00H
	DB	0baH
	DB	00H
	DB	00H
	DB	00H
	DB	0baH
	DB	00H
	DB	00H
	DB	00H
	DB	0baH
	DB	00H
	DB	00H
	DB	00H
	DB	0baH
	DB	00H
	DB	00H
	DB	00H
	DB	0baH
	DB	00H
	DB	00H
	DB	00H
	DB	0baH
	DB	00H
	DB	00H
	DB	00H
	DB	0baH
	DB	050H
	DB	050H
	DB	050H
	DB	0c3H
	DB	0ffH
	DB	0ffH
	DB	0ffH
	DB	0ffH
	DB	0ffH
	DB	0ffH
	DB	0ffH
	DB	0ffH
	DB	0ffH
	DB	0ffH
	DB	0ffH
	DB	0ffH
	DB	050H
	DB	050H
	DB	050H
	DB	0c3H
	DB	00H
	DB	00H
	DB	00H
	DB	0baH
	DB	00H
	DB	00H
	DB	00H
	DB	0baH
	DB	00H
	DB	00H
	DB	00H
	DB	0baH
	DB	00H
	DB	00H
	DB	00H
	DB	0baH
	DB	07cH
	DB	07cH
	DB	07cH
	DB	0ccH
	DB	0ffH
	DB	0ffH
	DB	0ffH
	DB	0ffH
	DB	0ffH
	DB	0ffH
	DB	0ffH
	DB	0ffH
	DB	0ffH
	DB	0ffH
	DB	0ffH
	DB	0ffH
	DB	0ffH
	DB	0ffH
	DB	0ffH
	DB	0ffH
	DB	0ffH
	DB	0ffH
	DB	0ffH
	DB	0ffH
	DB	0ffH
	DB	0ffH
	DB	0ffH
	DB	0ffH
	DB	0ffH
	DB	0ffH
	DB	0ffH
	DB	0ffH
	DB	0ffH
	DB	0ffH
	DB	0ffH
	DB	0ffH
	DB	0ffH
	DB	0ffH
	DB	0ffH
	DB	0ffH
	DB	0ffH
	DB	0ffH
	DB	0ffH
	DB	0ffH
	DB	0ffH
	DB	0ffH
	DB	0ffH
	DB	0ffH
	DB	0ffH
	DB	0ffH
	DB	0ffH
	DB	0ffH
	DB	0ffH
	DB	0ffH
	DB	0ffH
	DB	0ffH
	DB	0acH
	DB	0acH
	DB	0acH
	DB	0daH
	DB	00H
	DB	00H
	DB	00H
	DB	0baH
	DB	00H
	DB	00H
	DB	00H
	DB	0baH
	DB	00H
	DB	00H
	DB	00H
	DB	0baH
	DB	00H
	DB	00H
	DB	00H
	DB	0baH
	DB	00H
	DB	00H
	DB	00H
	DB	0baH
	DB	00H
	DB	00H
	DB	00H
	DB	0baH
	DB	00H
	DB	00H
	DB	00H
	DB	0baH
	DB	00H
	DB	00H
	DB	00H
	DB	0baH
	DB	00H
	DB	00H
	DB	00H
	DB	0baH
	DB	00H
	DB	00H
	DB	00H
	DB	0baH
	DB	00H
	DB	00H
	DB	00H
	DB	0baH
	DB	00H
	DB	00H
	DB	00H
	DB	0baH
	DB	00H
	DB	00H
	DB	00H
	DB	0baH
	DB	00H
	DB	00H
	DB	00H
	DB	0baH
	DB	00H
	DB	00H
	DB	00H
	DB	0baH
	DB	00H
	DB	00H
	DB	00H
	DB	0baH
	DB	00H
	DB	00H
	DB	00H
	DB	0baH
	DB	00H
	DB	00H
	DB	00H
	DB	0baH
	DB	00H
	DB	00H
	DB	00H
	DB	0baH
	DB	00H
	DB	00H
	DB	00H
	DB	0baH
	DB	00H
	DB	00H
	DB	00H
	DB	0baH
	DB	00H
	DB	00H
	DB	00H
	DB	0baH
	DB	00H
	DB	00H
	DB	00H
	DB	0baH
	DB	00H
	DB	00H
	DB	00H
	DB	0baH
	DB	00H
	DB	00H
	DB	00H
	DB	0baH
	DB	00H
	DB	00H
	DB	00H
	DB	0baH
	DB	00H
	DB	00H
	DB	00H
	DB	0baH
	DB	00H
	DB	00H
	DB	00H
	DB	0baH
	DB	00H
	DB	00H
	DB	00H
	DB	0baH
	DB	00H
	DB	00H
	DB	00H
	DB	0baH
	DB	00H
	DB	00H
	DB	00H
	DB	0baH
	DB	00H
	DB	00H
	DB	00H
	DB	0baH
	DB	00H
	DB	00H
	DB	00H
	DB	0baH
	DB	00H
	DB	00H
	DB	00H
	DB	0baH
	DB	00H
	DB	00H
	DB	00H
	DB	0baH
	DB	00H
	DB	00H
	DB	00H
	DB	0baH
	DB	00H
	DB	00H
	DB	00H
	DB	0baH
	DB	00H
	DB	00H
	DB	00H
	DB	0baH
	DB	00H
	DB	00H
	DB	00H
	DB	0baH
	DB	00H
	DB	00H
	DB	00H
	DB	0baH
	DB	00H
	DB	00H
	DB	00H
	DB	0baH
	DB	00H
	DB	00H
	DB	00H
	DB	0baH
	DB	00H
	DB	00H
	DB	00H
	DB	0baH
	DB	00H
	DB	00H
	DB	00H
	DB	0baH
	DB	00H
	DB	00H
	DB	00H
	DB	0baH
	DB	00H
	DB	00H
	DB	00H
	DB	0baH
	DB	00H
	DB	00H
	DB	00H
	DB	0baH
	DB	00H
	DB	00H
	DB	00H
	DB	0baH
	DB	00H
	DB	00H
	DB	00H
	DB	0baH
	DB	00H
	DB	00H
	DB	00H
	DB	0baH
	DB	00H
	DB	00H
	DB	00H
	DB	0baH
	DB	07cH
	DB	07cH
	DB	07cH
	DB	0ccH
	DB	0ffH
	DB	0ffH
	DB	0ffH
	DB	0ffH
	DB	0ffH
	DB	0ffH
	DB	0ffH
	DB	0ffH
	DB	0ffH
	DB	0ffH
	DB	0ffH
	DB	0ffH
	DB	0ffH
	DB	0ffH
	DB	0ffH
	DB	0ffH
	DB	0ffH
	DB	0ffH
	DB	0ffH
	DB	0ffH
	DB	0ffH
	DB	0ffH
	DB	0ffH
	DB	0ffH
	DB	0ffH
	DB	0ffH
	DB	0ffH
	DB	0ffH
	DB	0ffH
	DB	0ffH
	DB	0ffH
	DB	0ffH
	DB	0ffH
	DB	0ffH
	DB	0ffH
	DB	0ffH
	DB	0ffH
	DB	0ffH
	DB	0ffH
	DB	0ffH
	DB	0ffH
	DB	0ffH
	DB	0ffH
	DB	0ffH
	DB	0ffH
	DB	0ffH
	DB	0ffH
	DB	0ffH
	DB	0ffH
	DB	0ffH
	DB	0ffH
	DB	0ffH
	DB	0ffH
	DB	0ffH
	DB	0ffH
	DB	0ffH
	DB	0c6H
	DB	0c6H
	DB	0c6H
	DB	0e3H
	DB	00H
	DB	00H
	DB	00H
	DB	0baH
	DB	00H
	DB	00H
	DB	00H
	DB	0baH
	DB	00H
	DB	00H
	DB	00H
	DB	0baH
	DB	00H
	DB	00H
	DB	00H
	DB	0baH
	DB	00H
	DB	00H
	DB	00H
	DB	0baH
	DB	0acH
	DB	0acH
	DB	0acH
	DB	0daH
	DB	0ffH
	DB	0ffH
	DB	0ffH
	DB	0ffH
	DB	0ffH
	DB	0ffH
	DB	0ffH
	DB	0ffH
	DB	0ffH
	DB	0ffH
	DB	0ffH
	DB	0ffH
	DB	0ffH
	DB	0ffH
	DB	0ffH
	DB	0ffH
	DB	0ffH
	DB	0ffH
	DB	0ffH
	DB	0ffH
	DB	0ffH
	DB	0ffH
	DB	0ffH
	DB	0ffH
	DB	0ffH
	DB	0ffH
	DB	0ffH
	DB	0ffH
	DB	0ffH
	DB	0ffH
	DB	0ffH
	DB	0ffH
	DB	0ffH
	DB	0ffH
	DB	0ffH
	DB	0ffH
	DB	0ffH
	DB	0ffH
	DB	0ffH
	DB	0ffH
	DB	0ffH
	DB	0ffH
	DB	0ffH
	DB	0ffH
	DB	0ffH
	DB	0ffH
	DB	0ffH
	DB	0ffH
	DB	0ffH
	DB	0ffH
	DB	0ffH
	DB	0ffH
	DB	0ffH
	DB	0ffH
	DB	0ffH
	DB	0ffH
	DB	0eeH
	DB	0eeH
	DB	0eeH
	DB	0f6H
	DB	00H
	DB	00H
	DB	00H
	DB	0baH
	DB	00H
	DB	00H
	DB	00H
	DB	0baH
	DB	00H
	DB	00H
	DB	00H
	DB	0baH
	DB	00H
	DB	00H
	DB	00H
	DB	0baH
	DB	00H
	DB	00H
	DB	00H
	DB	0baH
	DB	07cH
	DB	07cH
	DB	07cH
	DB	0ccH
	DB	0ffH
	DB	0ffH
	DB	0ffH
	DB	0ffH
	DB	0ffH
	DB	0ffH
	DB	0ffH
	DB	0ffH
	DB	0ffH
	DB	0ffH
	DB	0ffH
	DB	0ffH
	DB	0ffH
	DB	0ffH
	DB	0ffH
	DB	0ffH
	DB	0eeH
	DB	0eeH
	DB	0eeH
	DB	0f6H
	DB	030H
	DB	030H
	DB	030H
	DB	0bfH
	DB	00H
	DB	00H
	DB	00H
	DB	0baH
	DB	00H
	DB	00H
	DB	00H
	DB	0baH
	DB	00H
	DB	00H
	DB	00H
	DB	0baH
	DB	00H
	DB	00H
	DB	00H
	DB	0baH
	DB	00H
	DB	00H
	DB	00H
	DB	0baH
	DB	00H
	DB	00H
	DB	00H
	DB	0baH
	DB	050H
	DB	050H
	DB	050H
	DB	0c3H
	DB	0ffH
	DB	0ffH
	DB	0ffH
	DB	0ffH
	DB	0ffH
	DB	0ffH
	DB	0ffH
	DB	0ffH
	DB	0ffH
	DB	0ffH
	DB	0ffH
	DB	0ffH
	DB	050H
	DB	050H
	DB	050H
	DB	0c3H
	DB	00H
	DB	00H
	DB	00H
	DB	0baH
	DB	00H
	DB	00H
	DB	00H
	DB	0baH
	DB	00H
	DB	00H
	DB	00H
	DB	0baH
	DB	00H
	DB	00H
	DB	00H
	DB	0baH
	DB	07cH
	DB	07cH
	DB	07cH
	DB	0ccH
	DB	0ffH
	DB	0ffH
	DB	0ffH
	DB	0ffH
	DB	0ffH
	DB	0ffH
	DB	0ffH
	DB	0ffH
	DB	0ffH
	DB	0ffH
	DB	0ffH
	DB	0ffH
	DB	0ffH
	DB	0ffH
	DB	0ffH
	DB	0ffH
	DB	0ffH
	DB	0ffH
	DB	0ffH
	DB	0ffH
	DB	0ffH
	DB	0ffH
	DB	0ffH
	DB	0ffH
	DB	0ffH
	DB	0ffH
	DB	0ffH
	DB	0ffH
	DB	0ffH
	DB	0ffH
	DB	0ffH
	DB	0ffH
	DB	0ffH
	DB	0ffH
	DB	0ffH
	DB	0ffH
	DB	0ffH
	DB	0ffH
	DB	0ffH
	DB	0ffH
	DB	0ffH
	DB	0ffH
	DB	0ffH
	DB	0ffH
	DB	0ffH
	DB	0ffH
	DB	0ffH
	DB	0ffH
	DB	0ffH
	DB	0ffH
	DB	0ffH
	DB	0ffH
	DB	0acH
	DB	0acH
	DB	0acH
	DB	0daH
	DB	00H
	DB	00H
	DB	00H
	DB	0baH
	DB	00H
	DB	00H
	DB	00H
	DB	0baH
	DB	00H
	DB	00H
	DB	00H
	DB	0baH
	DB	00H
	DB	00H
	DB	00H
	DB	0baH
	DB	00H
	DB	00H
	DB	00H
	DB	0baH
	DB	00H
	DB	00H
	DB	00H
	DB	0baH
	DB	00H
	DB	00H
	DB	00H
	DB	0baH
	DB	00H
	DB	00H
	DB	00H
	DB	0baH
	DB	00H
	DB	00H
	DB	00H
	DB	0baH
	DB	00H
	DB	00H
	DB	00H
	DB	0baH
	DB	00H
	DB	00H
	DB	00H
	DB	0baH
	DB	00H
	DB	00H
	DB	00H
	DB	0baH
	DB	00H
	DB	00H
	DB	00H
	DB	0baH
	DB	00H
	DB	00H
	DB	00H
	DB	0baH
	DB	00H
	DB	00H
	DB	00H
	DB	0baH
	DB	00H
	DB	00H
	DB	00H
	DB	0baH
	DB	00H
	DB	00H
	DB	00H
	DB	0baH
	DB	00H
	DB	00H
	DB	00H
	DB	0baH
	DB	00H
	DB	00H
	DB	00H
	DB	0baH
	DB	00H
	DB	00H
	DB	00H
	DB	0baH
	DB	00H
	DB	00H
	DB	00H
	DB	0baH
	DB	00H
	DB	00H
	DB	00H
	DB	0baH
	DB	00H
	DB	00H
	DB	00H
	DB	0baH
	DB	00H
	DB	00H
	DB	00H
	DB	0baH
	DB	00H
	DB	00H
	DB	00H
	DB	0baH
	DB	00H
	DB	00H
	DB	00H
	DB	0baH
	DB	00H
	DB	00H
	DB	00H
	DB	0baH
	DB	00H
	DB	00H
	DB	00H
	DB	0baH
	DB	00H
	DB	00H
	DB	00H
	DB	0baH
	DB	00H
	DB	00H
	DB	00H
	DB	0baH
	DB	00H
	DB	00H
	DB	00H
	DB	0baH
	DB	00H
	DB	00H
	DB	00H
	DB	0baH
	DB	00H
	DB	00H
	DB	00H
	DB	0baH
	DB	00H
	DB	00H
	DB	00H
	DB	0baH
	DB	00H
	DB	00H
	DB	00H
	DB	0baH
	DB	00H
	DB	00H
	DB	00H
	DB	0baH
	DB	00H
	DB	00H
	DB	00H
	DB	0baH
	DB	00H
	DB	00H
	DB	00H
	DB	0baH
	DB	00H
	DB	00H
	DB	00H
	DB	0baH
	DB	00H
	DB	00H
	DB	00H
	DB	0baH
	DB	00H
	DB	00H
	DB	00H
	DB	0baH
	DB	00H
	DB	00H
	DB	00H
	DB	0baH
	DB	00H
	DB	00H
	DB	00H
	DB	0baH
	DB	00H
	DB	00H
	DB	00H
	DB	0baH
	DB	00H
	DB	00H
	DB	00H
	DB	0baH
	DB	00H
	DB	00H
	DB	00H
	DB	0baH
	DB	00H
	DB	00H
	DB	00H
	DB	0baH
	DB	00H
	DB	00H
	DB	00H
	DB	0baH
	DB	00H
	DB	00H
	DB	00H
	DB	0baH
	DB	00H
	DB	00H
	DB	00H
	DB	0baH
	DB	00H
	DB	00H
	DB	00H
	DB	0baH
	DB	07cH
	DB	07cH
	DB	07cH
	DB	0ccH
	DB	0ffH
	DB	0ffH
	DB	0ffH
	DB	0ffH
	DB	0ffH
	DB	0ffH
	DB	0ffH
	DB	0ffH
	DB	0ffH
	DB	0ffH
	DB	0ffH
	DB	0ffH
	DB	050H
	DB	050H
	DB	050H
	DB	0c3H
	DB	00H
	DB	00H
	DB	00H
	DB	0baH
	DB	00H
	DB	00H
	DB	00H
	DB	0baH
	DB	00H
	DB	00H
	DB	00H
	DB	0baH
	DB	00H
	DB	00H
	DB	00H
	DB	0baH
	DB	00H
	DB	00H
	DB	00H
	DB	0baH
	DB	00H
	DB	00H
	DB	00H
	DB	0baH
	DB	08eH
	DB	08eH
	DB	08eH
	DB	0d1H
	DB	0eeH
	DB	0eeH
	DB	0eeH
	DB	0f6H
	DB	0ffH
	DB	0ffH
	DB	0ffH
	DB	0ffH
	DB	0ffH
	DB	0ffH
	DB	0ffH
	DB	0ffH
	DB	0f7H
	DB	0f7H
	DB	0f7H
	DB	0faH
	DB	00H
	DB	00H
	DB	00H
	DB	0baH
	DB	00H
	DB	00H
	DB	00H
	DB	0baH
	DB	00H
	DB	00H
	DB	00H
	DB	0baH
	DB	00H
	DB	00H
	DB	00H
	DB	0baH
	DB	00H
	DB	00H
	DB	00H
	DB	0baH
	DB	0f7H
	DB	0f7H
	DB	0f7H
	DB	0faH
	DB	0ffH
	DB	0ffH
	DB	0ffH
	DB	0ffH
	DB	0ffH
	DB	0ffH
	DB	0ffH
	DB	0ffH
	DB	0eeH
	DB	0eeH
	DB	0eeH
	DB	0f6H
	DB	07cH
	DB	07cH
	DB	07cH
	DB	0ccH
	DB	00H
	DB	00H
	DB	00H
	DB	0baH
	DB	00H
	DB	00H
	DB	00H
	DB	0baH
	DB	00H
	DB	00H
	DB	00H
	DB	0baH
	DB	00H
	DB	00H
	DB	00H
	DB	0baH
	DB	00H
	DB	00H
	DB	00H
	DB	0baH
	DB	00H
	DB	00H
	DB	00H
	DB	0baH
	DB	030H
	DB	030H
	DB	030H
	DB	0bfH
	DB	0d1H
	DB	0d1H
	DB	0d1H
	DB	0e8H
	DB	0ffH
	DB	0ffH
	DB	0ffH
	DB	0ffH
	DB	0ffH
	DB	0ffH
	DB	0ffH
	DB	0ffH
	DB	0ffH
	DB	0ffH
	DB	0ffH
	DB	0ffH
	DB	08eH
	DB	08eH
	DB	08eH
	DB	0d1H
	DB	00H
	DB	00H
	DB	00H
	DB	0baH
	DB	00H
	DB	00H
	DB	00H
	DB	0baH
	DB	00H
	DB	00H
	DB	00H
	DB	0baH
	DB	00H
	DB	00H
	DB	00H
	DB	0baH
	DB	07cH
	DB	07cH
	DB	07cH
	DB	0ccH
	DB	0ffH
	DB	0ffH
	DB	0ffH
	DB	0ffH
	DB	0ffH
	DB	0ffH
	DB	0ffH
	DB	0ffH
	DB	0ffH
	DB	0ffH
	DB	0ffH
	DB	0ffH
	DB	0ffH
	DB	0ffH
	DB	0ffH
	DB	0ffH
	DB	0ffH
	DB	0ffH
	DB	0ffH
	DB	0ffH
	DB	0baH
	DB	0baH
	DB	0baH
	DB	0dfH
	DB	00H
	DB	00H
	DB	00H
	DB	0baH
	DB	00H
	DB	00H
	DB	00H
	DB	0baH
	DB	00H
	DB	00H
	DB	00H
	DB	0baH
	DB	00H
	DB	00H
	DB	00H
	DB	0baH
	DB	00H
	DB	00H
	DB	00H
	DB	0baH
	DB	00H
	DB	00H
	DB	00H
	DB	0baH
	DB	050H
	DB	050H
	DB	050H
	DB	0c3H
	DB	0ffH
	DB	0ffH
	DB	0ffH
	DB	0ffH
	DB	0ffH
	DB	0ffH
	DB	0ffH
	DB	0ffH
	DB	0ffH
	DB	0ffH
	DB	0ffH
	DB	0ffH
	DB	050H
	DB	050H
	DB	050H
	DB	0c3H
	DB	00H
	DB	00H
	DB	00H
	DB	0baH
	DB	00H
	DB	00H
	DB	00H
	DB	0baH
	DB	00H
	DB	00H
	DB	00H
	DB	0baH
	DB	00H
	DB	00H
	DB	00H
	DB	0baH
	DB	07cH
	DB	07cH
	DB	07cH
	DB	0ccH
	DB	0ffH
	DB	0ffH
	DB	0ffH
	DB	0ffH
	DB	0ffH
	DB	0ffH
	DB	0ffH
	DB	0ffH
	DB	0ffH
	DB	0ffH
	DB	0ffH
	DB	0ffH
	DB	050H
	DB	050H
	DB	050H
	DB	0c3H
	DB	00H
	DB	00H
	DB	00H
	DB	0baH
	DB	00H
	DB	00H
	DB	00H
	DB	0baH
	DB	00H
	DB	00H
	DB	00H
	DB	0baH
	DB	00H
	DB	00H
	DB	00H
	DB	0baH
	DB	00H
	DB	00H
	DB	00H
	DB	0baH
	DB	00H
	DB	00H
	DB	00H
	DB	0baH
	DB	00H
	DB	00H
	DB	00H
	DB	0baH
	DB	00H
	DB	00H
	DB	00H
	DB	0baH
	DB	00H
	DB	00H
	DB	00H
	DB	0baH
	DB	00H
	DB	00H
	DB	00H
	DB	0baH
	DB	00H
	DB	00H
	DB	00H
	DB	0baH
	DB	00H
	DB	00H
	DB	00H
	DB	0baH
	DB	00H
	DB	00H
	DB	00H
	DB	0baH
	DB	00H
	DB	00H
	DB	00H
	DB	0baH
	DB	00H
	DB	00H
	DB	00H
	DB	0baH
	DB	00H
	DB	00H
	DB	00H
	DB	0baH
	DB	00H
	DB	00H
	DB	00H
	DB	0baH
	DB	00H
	DB	00H
	DB	00H
	DB	0baH
	DB	00H
	DB	00H
	DB	00H
	DB	0baH
	DB	00H
	DB	00H
	DB	00H
	DB	0baH
	DB	00H
	DB	00H
	DB	00H
	DB	0baH
	DB	00H
	DB	00H
	DB	00H
	DB	0baH
	DB	00H
	DB	00H
	DB	00H
	DB	0baH
	DB	00H
	DB	00H
	DB	00H
	DB	0baH
	DB	00H
	DB	00H
	DB	00H
	DB	0baH
	DB	00H
	DB	00H
	DB	00H
	DB	0baH
	DB	00H
	DB	00H
	DB	00H
	DB	0baH
	DB	00H
	DB	00H
	DB	00H
	DB	0baH
	DB	00H
	DB	00H
	DB	00H
	DB	0baH
	DB	00H
	DB	00H
	DB	00H
	DB	0baH
	DB	00H
	DB	00H
	DB	00H
	DB	0baH
	DB	00H
	DB	00H
	DB	00H
	DB	0baH
	DB	00H
	DB	00H
	DB	00H
	DB	0baH
	DB	00H
	DB	00H
	DB	00H
	DB	0baH
	DB	00H
	DB	00H
	DB	00H
	DB	0baH
	DB	00H
	DB	00H
	DB	00H
	DB	0baH
	DB	00H
	DB	00H
	DB	00H
	DB	0baH
	DB	00H
	DB	00H
	DB	00H
	DB	0baH
	DB	00H
	DB	00H
	DB	00H
	DB	0baH
	DB	00H
	DB	00H
	DB	00H
	DB	0baH
	DB	00H
	DB	00H
	DB	00H
	DB	0baH
	DB	00H
	DB	00H
	DB	00H
	DB	0baH
	DB	00H
	DB	00H
	DB	00H
	DB	0baH
	DB	00H
	DB	00H
	DB	00H
	DB	0baH
	DB	00H
	DB	00H
	DB	00H
	DB	0baH
	DB	00H
	DB	00H
	DB	00H
	DB	0baH
	DB	00H
	DB	00H
	DB	00H
	DB	0baH
	DB	00H
	DB	00H
	DB	00H
	DB	0baH
	DB	00H
	DB	00H
	DB	00H
	DB	0baH
	DB	00H
	DB	00H
	DB	00H
	DB	0baH
	DB	00H
	DB	00H
	DB	00H
	DB	0baH
	DB	00H
	DB	00H
	DB	00H
	DB	0baH
	DB	00H
	DB	00H
	DB	00H
	DB	0baH
	DB	00H
	DB	00H
	DB	00H
	DB	0baH
	DB	00H
	DB	00H
	DB	00H
	DB	0baH
	DB	00H
	DB	00H
	DB	00H
	DB	0baH
	DB	00H
	DB	00H
	DB	00H
	DB	0baH
	DB	00H
	DB	00H
	DB	00H
	DB	0baH
	DB	00H
	DB	00H
	DB	00H
	DB	0baH
	DB	00H
	DB	00H
	DB	00H
	DB	0baH
	DB	00H
	DB	00H
	DB	00H
	DB	0baH
	DB	07cH
	DB	07cH
	DB	07cH
	DB	0ccH
	DB	0ffH
	DB	0ffH
	DB	0ffH
	DB	0ffH
	DB	0ffH
	DB	0ffH
	DB	0ffH
	DB	0ffH
	DB	0ffH
	DB	0ffH
	DB	0ffH
	DB	0ffH
	DB	050H
	DB	050H
	DB	050H
	DB	0c3H
	DB	00H
	DB	00H
	DB	00H
	DB	0baH
	DB	00H
	DB	00H
	DB	00H
	DB	0baH
	DB	00H
	DB	00H
	DB	00H
	DB	0baH
	DB	00H
	DB	00H
	DB	00H
	DB	0baH
	DB	00H
	DB	00H
	DB	00H
	DB	0baH
	DB	00H
	DB	00H
	DB	00H
	DB	0baH
	DB	00H
	DB	00H
	DB	00H
	DB	0baH
	DB	09eH
	DB	09eH
	DB	09eH
	DB	0d6H
	DB	0ffH
	DB	0ffH
	DB	0ffH
	DB	0ffH
	DB	0ffH
	DB	0ffH
	DB	0ffH
	DB	0ffH
	DB	0ffH
	DB	0ffH
	DB	0ffH
	DB	0ffH
	DB	068H
	DB	068H
	DB	068H
	DB	0c8H
	DB	00H
	DB	00H
	DB	00H
	DB	0baH
	DB	00H
	DB	00H
	DB	00H
	DB	0baH
	DB	00H
	DB	00H
	DB	00H
	DB	0baH
	DB	030H
	DB	030H
	DB	030H
	DB	0bfH
	DB	0ffH
	DB	0ffH
	DB	0ffH
	DB	0ffH
	DB	0ffH
	DB	0ffH
	DB	0ffH
	DB	0ffH
	DB	0ffH
	DB	0ffH
	DB	0ffH
	DB	0ffH
	DB	0acH
	DB	0acH
	DB	0acH
	DB	0daH
	DB	00H
	DB	00H
	DB	00H
	DB	0baH
	DB	00H
	DB	00H
	DB	00H
	DB	0baH
	DB	00H
	DB	00H
	DB	00H
	DB	0baH
	DB	00H
	DB	00H
	DB	00H
	DB	0baH
	DB	00H
	DB	00H
	DB	00H
	DB	0baH
	DB	00H
	DB	00H
	DB	00H
	DB	0baH
	DB	00H
	DB	00H
	DB	00H
	DB	0baH
	DB	00H
	DB	00H
	DB	00H
	DB	0baH
	DB	030H
	DB	030H
	DB	030H
	DB	0bfH
	DB	0f7H
	DB	0f7H
	DB	0f7H
	DB	0faH
	DB	0ffH
	DB	0ffH
	DB	0ffH
	DB	0ffH
	DB	0ffH
	DB	0ffH
	DB	0ffH
	DB	0ffH
	DB	0acH
	DB	0acH
	DB	0acH
	DB	0daH
	DB	00H
	DB	00H
	DB	00H
	DB	0baH
	DB	00H
	DB	00H
	DB	00H
	DB	0baH
	DB	00H
	DB	00H
	DB	00H
	DB	0baH
	DB	00H
	DB	00H
	DB	00H
	DB	0baH
	DB	07cH
	DB	07cH
	DB	07cH
	DB	0ccH
	DB	0ffH
	DB	0ffH
	DB	0ffH
	DB	0ffH
	DB	0ffH
	DB	0ffH
	DB	0ffH
	DB	0ffH
	DB	0ffH
	DB	0ffH
	DB	0ffH
	DB	0ffH
	DB	0ffH
	DB	0ffH
	DB	0ffH
	DB	0ffH
	DB	0ffH
	DB	0ffH
	DB	0ffH
	DB	0ffH
	DB	0ffH
	DB	0ffH
	DB	0ffH
	DB	0ffH
	DB	07cH
	DB	07cH
	DB	07cH
	DB	0ccH
	DB	00H
	DB	00H
	DB	00H
	DB	0baH
	DB	00H
	DB	00H
	DB	00H
	DB	0baH
	DB	00H
	DB	00H
	DB	00H
	DB	0baH
	DB	00H
	DB	00H
	DB	00H
	DB	0baH
	DB	00H
	DB	00H
	DB	00H
	DB	0baH
	DB	050H
	DB	050H
	DB	050H
	DB	0c3H
	DB	0ffH
	DB	0ffH
	DB	0ffH
	DB	0ffH
	DB	0ffH
	DB	0ffH
	DB	0ffH
	DB	0ffH
	DB	0ffH
	DB	0ffH
	DB	0ffH
	DB	0ffH
	DB	050H
	DB	050H
	DB	050H
	DB	0c3H
	DB	00H
	DB	00H
	DB	00H
	DB	0baH
	DB	00H
	DB	00H
	DB	00H
	DB	0baH
	DB	00H
	DB	00H
	DB	00H
	DB	0baH
	DB	00H
	DB	00H
	DB	00H
	DB	0baH
	DB	07cH
	DB	07cH
	DB	07cH
	DB	0ccH
	DB	0ffH
	DB	0ffH
	DB	0ffH
	DB	0ffH
	DB	0ffH
	DB	0ffH
	DB	0ffH
	DB	0ffH
	DB	0ffH
	DB	0ffH
	DB	0ffH
	DB	0ffH
	DB	050H
	DB	050H
	DB	050H
	DB	0c3H
	DB	00H
	DB	00H
	DB	00H
	DB	0baH
	DB	00H
	DB	00H
	DB	00H
	DB	0baH
	DB	00H
	DB	00H
	DB	00H
	DB	0baH
	DB	00H
	DB	00H
	DB	00H
	DB	0baH
	DB	00H
	DB	00H
	DB	00H
	DB	0baH
	DB	00H
	DB	00H
	DB	00H
	DB	0baH
	DB	00H
	DB	00H
	DB	00H
	DB	0baH
	DB	00H
	DB	00H
	DB	00H
	DB	0baH
	DB	00H
	DB	00H
	DB	00H
	DB	0baH
	DB	00H
	DB	00H
	DB	00H
	DB	0baH
	DB	00H
	DB	00H
	DB	00H
	DB	0baH
	DB	00H
	DB	00H
	DB	00H
	DB	0baH
	DB	00H
	DB	00H
	DB	00H
	DB	0baH
	DB	00H
	DB	00H
	DB	00H
	DB	0baH
	DB	00H
	DB	00H
	DB	00H
	DB	0baH
	DB	00H
	DB	00H
	DB	00H
	DB	0baH
	DB	00H
	DB	00H
	DB	00H
	DB	0baH
	DB	00H
	DB	00H
	DB	00H
	DB	0baH
	DB	00H
	DB	00H
	DB	00H
	DB	0baH
	DB	00H
	DB	00H
	DB	00H
	DB	0baH
	DB	00H
	DB	00H
	DB	00H
	DB	0baH
	DB	00H
	DB	00H
	DB	00H
	DB	0baH
	DB	00H
	DB	00H
	DB	00H
	DB	0baH
	DB	00H
	DB	00H
	DB	00H
	DB	0baH
	DB	00H
	DB	00H
	DB	00H
	DB	0baH
	DB	00H
	DB	00H
	DB	00H
	DB	0baH
	DB	00H
	DB	00H
	DB	00H
	DB	0baH
	DB	00H
	DB	00H
	DB	00H
	DB	0baH
	DB	00H
	DB	00H
	DB	00H
	DB	0baH
	DB	00H
	DB	00H
	DB	00H
	DB	0baH
	DB	00H
	DB	00H
	DB	00H
	DB	0baH
	DB	00H
	DB	00H
	DB	00H
	DB	0baH
	DB	00H
	DB	00H
	DB	00H
	DB	0baH
	DB	00H
	DB	00H
	DB	00H
	DB	0baH
	DB	00H
	DB	00H
	DB	00H
	DB	0baH
	DB	00H
	DB	00H
	DB	00H
	DB	0baH
	DB	00H
	DB	00H
	DB	00H
	DB	0baH
	DB	00H
	DB	00H
	DB	00H
	DB	0baH
	DB	00H
	DB	00H
	DB	00H
	DB	0baH
	DB	00H
	DB	00H
	DB	00H
	DB	0baH
	DB	00H
	DB	00H
	DB	00H
	DB	0baH
	DB	00H
	DB	00H
	DB	00H
	DB	0baH
	DB	00H
	DB	00H
	DB	00H
	DB	0baH
	DB	00H
	DB	00H
	DB	00H
	DB	0baH
	DB	00H
	DB	00H
	DB	00H
	DB	0baH
	DB	00H
	DB	00H
	DB	00H
	DB	0baH
	DB	00H
	DB	00H
	DB	00H
	DB	0baH
	DB	00H
	DB	00H
	DB	00H
	DB	0baH
	DB	00H
	DB	00H
	DB	00H
	DB	0baH
	DB	00H
	DB	00H
	DB	00H
	DB	0baH
	DB	00H
	DB	00H
	DB	00H
	DB	0baH
	DB	00H
	DB	00H
	DB	00H
	DB	0baH
	DB	00H
	DB	00H
	DB	00H
	DB	0baH
	DB	00H
	DB	00H
	DB	00H
	DB	0baH
	DB	00H
	DB	00H
	DB	00H
	DB	0baH
	DB	00H
	DB	00H
	DB	00H
	DB	0baH
	DB	00H
	DB	00H
	DB	00H
	DB	0baH
	DB	00H
	DB	00H
	DB	00H
	DB	0baH
	DB	00H
	DB	00H
	DB	00H
	DB	0baH
	DB	00H
	DB	00H
	DB	00H
	DB	0baH
	DB	00H
	DB	00H
	DB	00H
	DB	0baH
	DB	07cH
	DB	07cH
	DB	07cH
	DB	0ccH
	DB	0ffH
	DB	0ffH
	DB	0ffH
	DB	0ffH
	DB	0ffH
	DB	0ffH
	DB	0ffH
	DB	0ffH
	DB	0ffH
	DB	0ffH
	DB	0ffH
	DB	0ffH
	DB	050H
	DB	050H
	DB	050H
	DB	0c3H
	DB	00H
	DB	00H
	DB	00H
	DB	0baH
	DB	00H
	DB	00H
	DB	00H
	DB	0baH
	DB	00H
	DB	00H
	DB	00H
	DB	0baH
	DB	00H
	DB	00H
	DB	00H
	DB	0baH
	DB	00H
	DB	00H
	DB	00H
	DB	0baH
	DB	00H
	DB	00H
	DB	00H
	DB	0baH
	DB	00H
	DB	00H
	DB	00H
	DB	0baH
	DB	030H
	DB	030H
	DB	030H
	DB	0bfH
	DB	0ffH
	DB	0ffH
	DB	0ffH
	DB	0ffH
	DB	0ffH
	DB	0ffH
	DB	0ffH
	DB	0ffH
	DB	0ffH
	DB	0ffH
	DB	0ffH
	DB	0ffH
	DB	08eH
	DB	08eH
	DB	08eH
	DB	0d1H
	DB	00H
	DB	00H
	DB	00H
	DB	0baH
	DB	00H
	DB	00H
	DB	00H
	DB	0baH
	DB	00H
	DB	00H
	DB	00H
	DB	0baH
	DB	07cH
	DB	07cH
	DB	07cH
	DB	0ccH
	DB	0ffH
	DB	0ffH
	DB	0ffH
	DB	0ffH
	DB	0ffH
	DB	0ffH
	DB	0ffH
	DB	0ffH
	DB	0ffH
	DB	0ffH
	DB	0ffH
	DB	0ffH
	DB	068H
	DB	068H
	DB	068H
	DB	0c8H
	DB	00H
	DB	00H
	DB	00H
	DB	0baH
	DB	00H
	DB	00H
	DB	00H
	DB	0baH
	DB	00H
	DB	00H
	DB	00H
	DB	0baH
	DB	00H
	DB	00H
	DB	00H
	DB	0baH
	DB	00H
	DB	00H
	DB	00H
	DB	0baH
	DB	00H
	DB	00H
	DB	00H
	DB	0baH
	DB	00H
	DB	00H
	DB	00H
	DB	0baH
	DB	00H
	DB	00H
	DB	00H
	DB	0baH
	DB	00H
	DB	00H
	DB	00H
	DB	0baH
	DB	0e5H
	DB	0e5H
	DB	0e5H
	DB	0f1H
	DB	0ffH
	DB	0ffH
	DB	0ffH
	DB	0ffH
	DB	0ffH
	DB	0ffH
	DB	0ffH
	DB	0ffH
	DB	0c6H
	DB	0c6H
	DB	0c6H
	DB	0e3H
	DB	00H
	DB	00H
	DB	00H
	DB	0baH
	DB	00H
	DB	00H
	DB	00H
	DB	0baH
	DB	00H
	DB	00H
	DB	00H
	DB	0baH
	DB	00H
	DB	00H
	DB	00H
	DB	0baH
	DB	07cH
	DB	07cH
	DB	07cH
	DB	0ccH
	DB	0ffH
	DB	0ffH
	DB	0ffH
	DB	0ffH
	DB	0ffH
	DB	0ffH
	DB	0ffH
	DB	0ffH
	DB	0ffH
	DB	0ffH
	DB	0ffH
	DB	0ffH
	DB	0ffH
	DB	0ffH
	DB	0ffH
	DB	0ffH
	DB	0ffH
	DB	0ffH
	DB	0ffH
	DB	0ffH
	DB	0ffH
	DB	0ffH
	DB	0ffH
	DB	0ffH
	DB	0eeH
	DB	0eeH
	DB	0eeH
	DB	0f6H
	DB	030H
	DB	030H
	DB	030H
	DB	0bfH
	DB	00H
	DB	00H
	DB	00H
	DB	0baH
	DB	00H
	DB	00H
	DB	00H
	DB	0baH
	DB	00H
	DB	00H
	DB	00H
	DB	0baH
	DB	00H
	DB	00H
	DB	00H
	DB	0baH
	DB	050H
	DB	050H
	DB	050H
	DB	0c3H
	DB	0ffH
	DB	0ffH
	DB	0ffH
	DB	0ffH
	DB	0ffH
	DB	0ffH
	DB	0ffH
	DB	0ffH
	DB	0ffH
	DB	0ffH
	DB	0ffH
	DB	0ffH
	DB	050H
	DB	050H
	DB	050H
	DB	0c3H
	DB	00H
	DB	00H
	DB	00H
	DB	0baH
	DB	00H
	DB	00H
	DB	00H
	DB	0baH
	DB	00H
	DB	00H
	DB	00H
	DB	0baH
	DB	00H
	DB	00H
	DB	00H
	DB	0baH
	DB	07cH
	DB	07cH
	DB	07cH
	DB	0ccH
	DB	0ffH
	DB	0ffH
	DB	0ffH
	DB	0ffH
	DB	0ffH
	DB	0ffH
	DB	0ffH
	DB	0ffH
	DB	0ffH
	DB	0ffH
	DB	0ffH
	DB	0ffH
	DB	050H
	DB	050H
	DB	050H
	DB	0c3H
	DB	00H
	DB	00H
	DB	00H
	DB	0baH
	DB	00H
	DB	00H
	DB	00H
	DB	0baH
	DB	00H
	DB	00H
	DB	00H
	DB	0baH
	DB	00H
	DB	00H
	DB	00H
	DB	0baH
	DB	00H
	DB	00H
	DB	00H
	DB	0baH
	DB	00H
	DB	00H
	DB	00H
	DB	0baH
	DB	00H
	DB	00H
	DB	00H
	DB	0baH
	DB	00H
	DB	00H
	DB	00H
	DB	0baH
	DB	00H
	DB	00H
	DB	00H
	DB	0baH
	DB	00H
	DB	00H
	DB	00H
	DB	0baH
	DB	00H
	DB	00H
	DB	00H
	DB	0baH
	DB	00H
	DB	00H
	DB	00H
	DB	0baH
	DB	00H
	DB	00H
	DB	00H
	DB	0baH
	DB	00H
	DB	00H
	DB	00H
	DB	0baH
	DB	00H
	DB	00H
	DB	00H
	DB	0baH
	DB	00H
	DB	00H
	DB	00H
	DB	0baH
	DB	00H
	DB	00H
	DB	00H
	DB	0baH
	DB	00H
	DB	00H
	DB	00H
	DB	0baH
	DB	00H
	DB	00H
	DB	00H
	DB	0baH
	DB	00H
	DB	00H
	DB	00H
	DB	0baH
	DB	00H
	DB	00H
	DB	00H
	DB	0baH
	DB	00H
	DB	00H
	DB	00H
	DB	0baH
	DB	00H
	DB	00H
	DB	00H
	DB	0baH
	DB	00H
	DB	00H
	DB	00H
	DB	0baH
	DB	00H
	DB	00H
	DB	00H
	DB	0baH
	DB	00H
	DB	00H
	DB	00H
	DB	0baH
	DB	00H
	DB	00H
	DB	00H
	DB	0baH
	DB	00H
	DB	00H
	DB	00H
	DB	0baH
	DB	00H
	DB	00H
	DB	00H
	DB	0baH
	DB	00H
	DB	00H
	DB	00H
	DB	0baH
	DB	00H
	DB	00H
	DB	00H
	DB	0baH
	DB	00H
	DB	00H
	DB	00H
	DB	0baH
	DB	00H
	DB	00H
	DB	00H
	DB	0baH
	DB	00H
	DB	00H
	DB	00H
	DB	0baH
	DB	00H
	DB	00H
	DB	00H
	DB	0baH
	DB	00H
	DB	00H
	DB	00H
	DB	0baH
	DB	00H
	DB	00H
	DB	00H
	DB	0baH
	DB	00H
	DB	00H
	DB	00H
	DB	0baH
	DB	00H
	DB	00H
	DB	00H
	DB	0baH
	DB	00H
	DB	00H
	DB	00H
	DB	0baH
	DB	00H
	DB	00H
	DB	00H
	DB	0baH
	DB	00H
	DB	00H
	DB	00H
	DB	0baH
	DB	00H
	DB	00H
	DB	00H
	DB	0baH
	DB	00H
	DB	00H
	DB	00H
	DB	0baH
	DB	00H
	DB	00H
	DB	00H
	DB	0baH
	DB	00H
	DB	00H
	DB	00H
	DB	0baH
	DB	00H
	DB	00H
	DB	00H
	DB	0baH
	DB	00H
	DB	00H
	DB	00H
	DB	0baH
	DB	00H
	DB	00H
	DB	00H
	DB	0baH
	DB	00H
	DB	00H
	DB	00H
	DB	0baH
	DB	00H
	DB	00H
	DB	00H
	DB	0baH
	DB	00H
	DB	00H
	DB	00H
	DB	0baH
	DB	00H
	DB	00H
	DB	00H
	DB	0baH
	DB	00H
	DB	00H
	DB	00H
	DB	0baH
	DB	00H
	DB	00H
	DB	00H
	DB	0baH
	DB	00H
	DB	00H
	DB	00H
	DB	0baH
	DB	00H
	DB	00H
	DB	00H
	DB	0baH
	DB	00H
	DB	00H
	DB	00H
	DB	0baH
	DB	00H
	DB	00H
	DB	00H
	DB	0baH
	DB	00H
	DB	00H
	DB	00H
	DB	0baH
	DB	00H
	DB	00H
	DB	00H
	DB	0baH
	DB	07cH
	DB	07cH
	DB	07cH
	DB	0ccH
	DB	0ffH
	DB	0ffH
	DB	0ffH
	DB	0ffH
	DB	0ffH
	DB	0ffH
	DB	0ffH
	DB	0ffH
	DB	0ffH
	DB	0ffH
	DB	0ffH
	DB	0ffH
	DB	050H
	DB	050H
	DB	050H
	DB	0c3H
	DB	00H
	DB	00H
	DB	00H
	DB	0baH
	DB	00H
	DB	00H
	DB	00H
	DB	0baH
	DB	00H
	DB	00H
	DB	00H
	DB	0baH
	DB	00H
	DB	00H
	DB	00H
	DB	0baH
	DB	00H
	DB	00H
	DB	00H
	DB	0baH
	DB	00H
	DB	00H
	DB	00H
	DB	0baH
	DB	00H
	DB	00H
	DB	00H
	DB	0baH
	DB	00H
	DB	00H
	DB	00H
	DB	0baH
	DB	0ffH
	DB	0ffH
	DB	0ffH
	DB	0ffH
	DB	0ffH
	DB	0ffH
	DB	0ffH
	DB	0ffH
	DB	0ffH
	DB	0ffH
	DB	0ffH
	DB	0ffH
	DB	09eH
	DB	09eH
	DB	09eH
	DB	0d6H
	DB	00H
	DB	00H
	DB	00H
	DB	0baH
	DB	00H
	DB	00H
	DB	00H
	DB	0baH
	DB	00H
	DB	00H
	DB	00H
	DB	0baH
	DB	08eH
	DB	08eH
	DB	08eH
	DB	0d1H
	DB	0ffH
	DB	0ffH
	DB	0ffH
	DB	0ffH
	DB	0ffH
	DB	0ffH
	DB	0ffH
	DB	0ffH
	DB	0ffH
	DB	0ffH
	DB	0ffH
	DB	0ffH
	DB	030H
	DB	030H
	DB	030H
	DB	0bfH
	DB	00H
	DB	00H
	DB	00H
	DB	0baH
	DB	00H
	DB	00H
	DB	00H
	DB	0baH
	DB	00H
	DB	00H
	DB	00H
	DB	0baH
	DB	00H
	DB	00H
	DB	00H
	DB	0baH
	DB	00H
	DB	00H
	DB	00H
	DB	0baH
	DB	00H
	DB	00H
	DB	00H
	DB	0baH
	DB	00H
	DB	00H
	DB	00H
	DB	0baH
	DB	00H
	DB	00H
	DB	00H
	DB	0baH
	DB	00H
	DB	00H
	DB	00H
	DB	0baH
	DB	0d1H
	DB	0d1H
	DB	0d1H
	DB	0e8H
	DB	0ffH
	DB	0ffH
	DB	0ffH
	DB	0ffH
	DB	0ffH
	DB	0ffH
	DB	0ffH
	DB	0ffH
	DB	0d1H
	DB	0d1H
	DB	0d1H
	DB	0e8H
	DB	00H
	DB	00H
	DB	00H
	DB	0baH
	DB	00H
	DB	00H
	DB	00H
	DB	0baH
	DB	00H
	DB	00H
	DB	00H
	DB	0baH
	DB	00H
	DB	00H
	DB	00H
	DB	0baH
	DB	07cH
	DB	07cH
	DB	07cH
	DB	0ccH
	DB	0ffH
	DB	0ffH
	DB	0ffH
	DB	0ffH
	DB	0ffH
	DB	0ffH
	DB	0ffH
	DB	0ffH
	DB	0ffH
	DB	0ffH
	DB	0ffH
	DB	0ffH
	DB	0e5H
	DB	0e5H
	DB	0e5H
	DB	0f1H
	DB	0ffH
	DB	0ffH
	DB	0ffH
	DB	0ffH
	DB	0ffH
	DB	0ffH
	DB	0ffH
	DB	0ffH
	DB	0ffH
	DB	0ffH
	DB	0ffH
	DB	0ffH
	DB	0baH
	DB	0baH
	DB	0baH
	DB	0dfH
	DB	00H
	DB	00H
	DB	00H
	DB	0baH
	DB	00H
	DB	00H
	DB	00H
	DB	0baH
	DB	00H
	DB	00H
	DB	00H
	DB	0baH
	DB	00H
	DB	00H
	DB	00H
	DB	0baH
	DB	050H
	DB	050H
	DB	050H
	DB	0c3H
	DB	0ffH
	DB	0ffH
	DB	0ffH
	DB	0ffH
	DB	0ffH
	DB	0ffH
	DB	0ffH
	DB	0ffH
	DB	0ffH
	DB	0ffH
	DB	0ffH
	DB	0ffH
	DB	050H
	DB	050H
	DB	050H
	DB	0c3H
	DB	00H
	DB	00H
	DB	00H
	DB	0baH
	DB	00H
	DB	00H
	DB	00H
	DB	0baH
	DB	00H
	DB	00H
	DB	00H
	DB	0baH
	DB	00H
	DB	00H
	DB	00H
	DB	0baH
	DB	07cH
	DB	07cH
	DB	07cH
	DB	0ccH
	DB	0ffH
	DB	0ffH
	DB	0ffH
	DB	0ffH
	DB	0ffH
	DB	0ffH
	DB	0ffH
	DB	0ffH
	DB	0ffH
	DB	0ffH
	DB	0ffH
	DB	0ffH
	DB	050H
	DB	050H
	DB	050H
	DB	0c3H
	DB	00H
	DB	00H
	DB	00H
	DB	0baH
	DB	00H
	DB	00H
	DB	00H
	DB	0baH
	DB	00H
	DB	00H
	DB	00H
	DB	0baH
	DB	00H
	DB	00H
	DB	00H
	DB	0baH
	DB	00H
	DB	00H
	DB	00H
	DB	0baH
	DB	00H
	DB	00H
	DB	00H
	DB	0baH
	DB	00H
	DB	00H
	DB	00H
	DB	0baH
	DB	00H
	DB	00H
	DB	00H
	DB	0baH
	DB	00H
	DB	00H
	DB	00H
	DB	0baH
	DB	00H
	DB	00H
	DB	00H
	DB	0baH
	DB	00H
	DB	00H
	DB	00H
	DB	0baH
	DB	00H
	DB	00H
	DB	00H
	DB	0baH
	DB	00H
	DB	00H
	DB	00H
	DB	0baH
	DB	00H
	DB	00H
	DB	00H
	DB	0baH
	DB	00H
	DB	00H
	DB	00H
	DB	0baH
	DB	00H
	DB	00H
	DB	00H
	DB	0baH
	DB	00H
	DB	00H
	DB	00H
	DB	0baH
	DB	00H
	DB	00H
	DB	00H
	DB	0baH
	DB	00H
	DB	00H
	DB	00H
	DB	0baH
	DB	00H
	DB	00H
	DB	00H
	DB	0baH
	DB	00H
	DB	00H
	DB	00H
	DB	0baH
	DB	00H
	DB	00H
	DB	00H
	DB	0baH
	DB	00H
	DB	00H
	DB	00H
	DB	0baH
	DB	00H
	DB	00H
	DB	00H
	DB	0baH
	DB	00H
	DB	00H
	DB	00H
	DB	0baH
	DB	00H
	DB	00H
	DB	00H
	DB	0baH
	DB	00H
	DB	00H
	DB	00H
	DB	0baH
	DB	00H
	DB	00H
	DB	00H
	DB	0baH
	DB	00H
	DB	00H
	DB	00H
	DB	0baH
	DB	00H
	DB	00H
	DB	00H
	DB	0baH
	DB	00H
	DB	00H
	DB	00H
	DB	0baH
	DB	00H
	DB	00H
	DB	00H
	DB	0baH
	DB	00H
	DB	00H
	DB	00H
	DB	0baH
	DB	00H
	DB	00H
	DB	00H
	DB	0baH
	DB	00H
	DB	00H
	DB	00H
	DB	0baH
	DB	00H
	DB	00H
	DB	00H
	DB	0baH
	DB	00H
	DB	00H
	DB	00H
	DB	0baH
	DB	00H
	DB	00H
	DB	00H
	DB	0baH
	DB	00H
	DB	00H
	DB	00H
	DB	0baH
	DB	00H
	DB	00H
	DB	00H
	DB	0baH
	DB	00H
	DB	00H
	DB	00H
	DB	0baH
	DB	00H
	DB	00H
	DB	00H
	DB	0baH
	DB	00H
	DB	00H
	DB	00H
	DB	0baH
	DB	00H
	DB	00H
	DB	00H
	DB	0baH
	DB	00H
	DB	00H
	DB	00H
	DB	0baH
	DB	00H
	DB	00H
	DB	00H
	DB	0baH
	DB	00H
	DB	00H
	DB	00H
	DB	0baH
	DB	00H
	DB	00H
	DB	00H
	DB	0baH
	DB	00H
	DB	00H
	DB	00H
	DB	0baH
	DB	00H
	DB	00H
	DB	00H
	DB	0baH
	DB	00H
	DB	00H
	DB	00H
	DB	0baH
	DB	00H
	DB	00H
	DB	00H
	DB	0baH
	DB	00H
	DB	00H
	DB	00H
	DB	0baH
	DB	00H
	DB	00H
	DB	00H
	DB	0baH
	DB	00H
	DB	00H
	DB	00H
	DB	0baH
	DB	00H
	DB	00H
	DB	00H
	DB	0baH
	DB	00H
	DB	00H
	DB	00H
	DB	0baH
	DB	00H
	DB	00H
	DB	00H
	DB	0baH
	DB	00H
	DB	00H
	DB	00H
	DB	0baH
	DB	00H
	DB	00H
	DB	00H
	DB	0baH
	DB	00H
	DB	00H
	DB	00H
	DB	0baH
	DB	07cH
	DB	07cH
	DB	07cH
	DB	0ccH
	DB	0ffH
	DB	0ffH
	DB	0ffH
	DB	0ffH
	DB	0ffH
	DB	0ffH
	DB	0ffH
	DB	0ffH
	DB	0ffH
	DB	0ffH
	DB	0ffH
	DB	0ffH
	DB	050H
	DB	050H
	DB	050H
	DB	0c3H
	DB	00H
	DB	00H
	DB	00H
	DB	0baH
	DB	00H
	DB	00H
	DB	00H
	DB	0baH
	DB	00H
	DB	00H
	DB	00H
	DB	0baH
	DB	00H
	DB	00H
	DB	00H
	DB	0baH
	DB	00H
	DB	00H
	DB	00H
	DB	0baH
	DB	00H
	DB	00H
	DB	00H
	DB	0baH
	DB	00H
	DB	00H
	DB	00H
	DB	0baH
	DB	00H
	DB	00H
	DB	00H
	DB	0baH
	DB	0eeH
	DB	0eeH
	DB	0eeH
	DB	0f6H
	DB	0ffH
	DB	0ffH
	DB	0ffH
	DB	0ffH
	DB	0ffH
	DB	0ffH
	DB	0ffH
	DB	0ffH
	DB	0acH
	DB	0acH
	DB	0acH
	DB	0daH
	DB	00H
	DB	00H
	DB	00H
	DB	0baH
	DB	00H
	DB	00H
	DB	00H
	DB	0baH
	DB	00H
	DB	00H
	DB	00H
	DB	0baH
	DB	09eH
	DB	09eH
	DB	09eH
	DB	0d6H
	DB	0ffH
	DB	0ffH
	DB	0ffH
	DB	0ffH
	DB	0ffH
	DB	0ffH
	DB	0ffH
	DB	0ffH
	DB	0ffH
	DB	0ffH
	DB	0ffH
	DB	0ffH
	DB	00H
	DB	00H
	DB	00H
	DB	0baH
	DB	00H
	DB	00H
	DB	00H
	DB	0baH
	DB	00H
	DB	00H
	DB	00H
	DB	0baH
	DB	00H
	DB	00H
	DB	00H
	DB	0baH
	DB	00H
	DB	00H
	DB	00H
	DB	0baH
	DB	00H
	DB	00H
	DB	00H
	DB	0baH
	DB	00H
	DB	00H
	DB	00H
	DB	0baH
	DB	00H
	DB	00H
	DB	00H
	DB	0baH
	DB	00H
	DB	00H
	DB	00H
	DB	0baH
	DB	00H
	DB	00H
	DB	00H
	DB	0baH
	DB	0c6H
	DB	0c6H
	DB	0c6H
	DB	0e3H
	DB	0ffH
	DB	0ffH
	DB	0ffH
	DB	0ffH
	DB	0ffH
	DB	0ffH
	DB	0ffH
	DB	0ffH
	DB	0dbH
	DB	0dbH
	DB	0dbH
	DB	0edH
	DB	00H
	DB	00H
	DB	00H
	DB	0baH
	DB	00H
	DB	00H
	DB	00H
	DB	0baH
	DB	00H
	DB	00H
	DB	00H
	DB	0baH
	DB	00H
	DB	00H
	DB	00H
	DB	0baH
	DB	07cH
	DB	07cH
	DB	07cH
	DB	0ccH
	DB	0ffH
	DB	0ffH
	DB	0ffH
	DB	0ffH
	DB	0ffH
	DB	0ffH
	DB	0ffH
	DB	0ffH
	DB	0ffH
	DB	0ffH
	DB	0ffH
	DB	0ffH
	DB	050H
	DB	050H
	DB	050H
	DB	0c3H
	DB	0ffH
	DB	0ffH
	DB	0ffH
	DB	0ffH
	DB	0ffH
	DB	0ffH
	DB	0ffH
	DB	0ffH
	DB	0ffH
	DB	0ffH
	DB	0ffH
	DB	0ffH
	DB	0ffH
	DB	0ffH
	DB	0ffH
	DB	0ffH
	DB	07cH
	DB	07cH
	DB	07cH
	DB	0ccH
	DB	00H
	DB	00H
	DB	00H
	DB	0baH
	DB	00H
	DB	00H
	DB	00H
	DB	0baH
	DB	00H
	DB	00H
	DB	00H
	DB	0baH
	DB	050H
	DB	050H
	DB	050H
	DB	0c3H
	DB	0ffH
	DB	0ffH
	DB	0ffH
	DB	0ffH
	DB	0ffH
	DB	0ffH
	DB	0ffH
	DB	0ffH
	DB	0ffH
	DB	0ffH
	DB	0ffH
	DB	0ffH
	DB	050H
	DB	050H
	DB	050H
	DB	0c3H
	DB	00H
	DB	00H
	DB	00H
	DB	0baH
	DB	00H
	DB	00H
	DB	00H
	DB	0baH
	DB	00H
	DB	00H
	DB	00H
	DB	0baH
	DB	00H
	DB	00H
	DB	00H
	DB	0baH
	DB	07cH
	DB	07cH
	DB	07cH
	DB	0ccH
	DB	0ffH
	DB	0ffH
	DB	0ffH
	DB	0ffH
	DB	0ffH
	DB	0ffH
	DB	0ffH
	DB	0ffH
	DB	0ffH
	DB	0ffH
	DB	0ffH
	DB	0ffH
	DB	050H
	DB	050H
	DB	050H
	DB	0c3H
	DB	00H
	DB	00H
	DB	00H
	DB	0baH
	DB	00H
	DB	00H
	DB	00H
	DB	0baH
	DB	00H
	DB	00H
	DB	00H
	DB	0baH
	DB	00H
	DB	00H
	DB	00H
	DB	0baH
	DB	00H
	DB	00H
	DB	00H
	DB	0baH
	DB	00H
	DB	00H
	DB	00H
	DB	0baH
	DB	00H
	DB	00H
	DB	00H
	DB	0baH
	DB	00H
	DB	00H
	DB	00H
	DB	0baH
	DB	00H
	DB	00H
	DB	00H
	DB	0baH
	DB	00H
	DB	00H
	DB	00H
	DB	0baH
	DB	00H
	DB	00H
	DB	00H
	DB	0baH
	DB	00H
	DB	00H
	DB	00H
	DB	0baH
	DB	00H
	DB	00H
	DB	00H
	DB	0baH
	DB	00H
	DB	00H
	DB	00H
	DB	0baH
	DB	00H
	DB	00H
	DB	00H
	DB	0baH
	DB	00H
	DB	00H
	DB	00H
	DB	0baH
	DB	00H
	DB	00H
	DB	00H
	DB	0baH
	DB	00H
	DB	00H
	DB	00H
	DB	0baH
	DB	00H
	DB	00H
	DB	00H
	DB	0baH
	DB	00H
	DB	00H
	DB	00H
	DB	0baH
	DB	00H
	DB	00H
	DB	00H
	DB	0baH
	DB	00H
	DB	00H
	DB	00H
	DB	0baH
	DB	00H
	DB	00H
	DB	00H
	DB	0baH
	DB	00H
	DB	00H
	DB	00H
	DB	0baH
	DB	00H
	DB	00H
	DB	00H
	DB	0baH
	DB	00H
	DB	00H
	DB	00H
	DB	0baH
	DB	00H
	DB	00H
	DB	00H
	DB	0baH
	DB	00H
	DB	00H
	DB	00H
	DB	0baH
	DB	00H
	DB	00H
	DB	00H
	DB	0baH
	DB	00H
	DB	00H
	DB	00H
	DB	0baH
	DB	00H
	DB	00H
	DB	00H
	DB	0baH
	DB	00H
	DB	00H
	DB	00H
	DB	0baH
	DB	00H
	DB	00H
	DB	00H
	DB	0baH
	DB	00H
	DB	00H
	DB	00H
	DB	0baH
	DB	00H
	DB	00H
	DB	00H
	DB	0baH
	DB	00H
	DB	00H
	DB	00H
	DB	0baH
	DB	00H
	DB	00H
	DB	00H
	DB	0baH
	DB	00H
	DB	00H
	DB	00H
	DB	0baH
	DB	00H
	DB	00H
	DB	00H
	DB	0baH
	DB	00H
	DB	00H
	DB	00H
	DB	0baH
	DB	00H
	DB	00H
	DB	00H
	DB	0baH
	DB	00H
	DB	00H
	DB	00H
	DB	0baH
	DB	00H
	DB	00H
	DB	00H
	DB	0baH
	DB	00H
	DB	00H
	DB	00H
	DB	0baH
	DB	00H
	DB	00H
	DB	00H
	DB	0baH
	DB	00H
	DB	00H
	DB	00H
	DB	0baH
	DB	00H
	DB	00H
	DB	00H
	DB	0baH
	DB	00H
	DB	00H
	DB	00H
	DB	0baH
	DB	00H
	DB	00H
	DB	00H
	DB	0baH
	DB	00H
	DB	00H
	DB	00H
	DB	0baH
	DB	00H
	DB	00H
	DB	00H
	DB	0baH
	DB	00H
	DB	00H
	DB	00H
	DB	0baH
	DB	00H
	DB	00H
	DB	00H
	DB	0baH
	DB	00H
	DB	00H
	DB	00H
	DB	0baH
	DB	00H
	DB	00H
	DB	00H
	DB	0baH
	DB	00H
	DB	00H
	DB	00H
	DB	0baH
	DB	00H
	DB	00H
	DB	00H
	DB	0baH
	DB	00H
	DB	00H
	DB	00H
	DB	0baH
	DB	00H
	DB	00H
	DB	00H
	DB	0baH
	DB	00H
	DB	00H
	DB	00H
	DB	0baH
	DB	00H
	DB	00H
	DB	00H
	DB	0baH
	DB	07cH
	DB	07cH
	DB	07cH
	DB	0ccH
	DB	0ffH
	DB	0ffH
	DB	0ffH
	DB	0ffH
	DB	0ffH
	DB	0ffH
	DB	0ffH
	DB	0ffH
	DB	0ffH
	DB	0ffH
	DB	0ffH
	DB	0ffH
	DB	050H
	DB	050H
	DB	050H
	DB	0c3H
	DB	00H
	DB	00H
	DB	00H
	DB	0baH
	DB	00H
	DB	00H
	DB	00H
	DB	0baH
	DB	00H
	DB	00H
	DB	00H
	DB	0baH
	DB	00H
	DB	00H
	DB	00H
	DB	0baH
	DB	00H
	DB	00H
	DB	00H
	DB	0baH
	DB	00H
	DB	00H
	DB	00H
	DB	0baH
	DB	00H
	DB	00H
	DB	00H
	DB	0baH
	DB	00H
	DB	00H
	DB	00H
	DB	0baH
	DB	0eeH
	DB	0eeH
	DB	0eeH
	DB	0f6H
	DB	0ffH
	DB	0ffH
	DB	0ffH
	DB	0ffH
	DB	0ffH
	DB	0ffH
	DB	0ffH
	DB	0ffH
	DB	0acH
	DB	0acH
	DB	0acH
	DB	0daH
	DB	00H
	DB	00H
	DB	00H
	DB	0baH
	DB	00H
	DB	00H
	DB	00H
	DB	0baH
	DB	00H
	DB	00H
	DB	00H
	DB	0baH
	DB	09eH
	DB	09eH
	DB	09eH
	DB	0d6H
	DB	0ffH
	DB	0ffH
	DB	0ffH
	DB	0ffH
	DB	0ffH
	DB	0ffH
	DB	0ffH
	DB	0ffH
	DB	0ffH
	DB	0ffH
	DB	0ffH
	DB	0ffH
	DB	00H
	DB	00H
	DB	00H
	DB	0baH
	DB	00H
	DB	00H
	DB	00H
	DB	0baH
	DB	00H
	DB	00H
	DB	00H
	DB	0baH
	DB	00H
	DB	00H
	DB	00H
	DB	0baH
	DB	00H
	DB	00H
	DB	00H
	DB	0baH
	DB	00H
	DB	00H
	DB	00H
	DB	0baH
	DB	00H
	DB	00H
	DB	00H
	DB	0baH
	DB	00H
	DB	00H
	DB	00H
	DB	0baH
	DB	00H
	DB	00H
	DB	00H
	DB	0baH
	DB	00H
	DB	00H
	DB	00H
	DB	0baH
	DB	0c6H
	DB	0c6H
	DB	0c6H
	DB	0e3H
	DB	0ffH
	DB	0ffH
	DB	0ffH
	DB	0ffH
	DB	0ffH
	DB	0ffH
	DB	0ffH
	DB	0ffH
	DB	0dbH
	DB	0dbH
	DB	0dbH
	DB	0edH
	DB	00H
	DB	00H
	DB	00H
	DB	0baH
	DB	00H
	DB	00H
	DB	00H
	DB	0baH
	DB	00H
	DB	00H
	DB	00H
	DB	0baH
	DB	00H
	DB	00H
	DB	00H
	DB	0baH
	DB	07cH
	DB	07cH
	DB	07cH
	DB	0ccH
	DB	0ffH
	DB	0ffH
	DB	0ffH
	DB	0ffH
	DB	0ffH
	DB	0ffH
	DB	0ffH
	DB	0ffH
	DB	0ffH
	DB	0ffH
	DB	0ffH
	DB	0ffH
	DB	00H
	DB	00H
	DB	00H
	DB	0baH
	DB	0acH
	DB	0acH
	DB	0acH
	DB	0daH
	DB	0ffH
	DB	0ffH
	DB	0ffH
	DB	0ffH
	DB	0ffH
	DB	0ffH
	DB	0ffH
	DB	0ffH
	DB	0ffH
	DB	0ffH
	DB	0ffH
	DB	0ffH
	DB	0eeH
	DB	0eeH
	DB	0eeH
	DB	0f6H
	DB	030H
	DB	030H
	DB	030H
	DB	0bfH
	DB	00H
	DB	00H
	DB	00H
	DB	0baH
	DB	00H
	DB	00H
	DB	00H
	DB	0baH
	DB	050H
	DB	050H
	DB	050H
	DB	0c3H
	DB	0ffH
	DB	0ffH
	DB	0ffH
	DB	0ffH
	DB	0ffH
	DB	0ffH
	DB	0ffH
	DB	0ffH
	DB	0ffH
	DB	0ffH
	DB	0ffH
	DB	0ffH
	DB	050H
	DB	050H
	DB	050H
	DB	0c3H
	DB	00H
	DB	00H
	DB	00H
	DB	0baH
	DB	00H
	DB	00H
	DB	00H
	DB	0baH
	DB	00H
	DB	00H
	DB	00H
	DB	0baH
	DB	00H
	DB	00H
	DB	00H
	DB	0baH
	DB	07cH
	DB	07cH
	DB	07cH
	DB	0ccH
	DB	0ffH
	DB	0ffH
	DB	0ffH
	DB	0ffH
	DB	0ffH
	DB	0ffH
	DB	0ffH
	DB	0ffH
	DB	0ffH
	DB	0ffH
	DB	0ffH
	DB	0ffH
	DB	050H
	DB	050H
	DB	050H
	DB	0c3H
	DB	00H
	DB	00H
	DB	00H
	DB	0baH
	DB	00H
	DB	00H
	DB	00H
	DB	0baH
	DB	00H
	DB	00H
	DB	00H
	DB	0baH
	DB	00H
	DB	00H
	DB	00H
	DB	0baH
	DB	00H
	DB	00H
	DB	00H
	DB	0baH
	DB	00H
	DB	00H
	DB	00H
	DB	0baH
	DB	00H
	DB	00H
	DB	00H
	DB	0baH
	DB	00H
	DB	00H
	DB	00H
	DB	0baH
	DB	00H
	DB	00H
	DB	00H
	DB	0baH
	DB	00H
	DB	00H
	DB	00H
	DB	0baH
	DB	00H
	DB	00H
	DB	00H
	DB	0baH
	DB	00H
	DB	00H
	DB	00H
	DB	0baH
	DB	00H
	DB	00H
	DB	00H
	DB	0baH
	DB	00H
	DB	00H
	DB	00H
	DB	0baH
	DB	00H
	DB	00H
	DB	00H
	DB	0baH
	DB	00H
	DB	00H
	DB	00H
	DB	0baH
	DB	00H
	DB	00H
	DB	00H
	DB	0baH
	DB	00H
	DB	00H
	DB	00H
	DB	0baH
	DB	00H
	DB	00H
	DB	00H
	DB	0baH
	DB	00H
	DB	00H
	DB	00H
	DB	0baH
	DB	00H
	DB	00H
	DB	00H
	DB	0baH
	DB	00H
	DB	00H
	DB	00H
	DB	0baH
	DB	00H
	DB	00H
	DB	00H
	DB	0baH
	DB	00H
	DB	00H
	DB	00H
	DB	0baH
	DB	00H
	DB	00H
	DB	00H
	DB	0baH
	DB	00H
	DB	00H
	DB	00H
	DB	0baH
	DB	00H
	DB	00H
	DB	00H
	DB	0baH
	DB	00H
	DB	00H
	DB	00H
	DB	0baH
	DB	00H
	DB	00H
	DB	00H
	DB	0baH
	DB	00H
	DB	00H
	DB	00H
	DB	0baH
	DB	00H
	DB	00H
	DB	00H
	DB	0baH
	DB	00H
	DB	00H
	DB	00H
	DB	0baH
	DB	00H
	DB	00H
	DB	00H
	DB	0baH
	DB	00H
	DB	00H
	DB	00H
	DB	0baH
	DB	00H
	DB	00H
	DB	00H
	DB	0baH
	DB	00H
	DB	00H
	DB	00H
	DB	0baH
	DB	00H
	DB	00H
	DB	00H
	DB	0baH
	DB	00H
	DB	00H
	DB	00H
	DB	0baH
	DB	00H
	DB	00H
	DB	00H
	DB	0baH
	DB	00H
	DB	00H
	DB	00H
	DB	0baH
	DB	00H
	DB	00H
	DB	00H
	DB	0baH
	DB	00H
	DB	00H
	DB	00H
	DB	0baH
	DB	00H
	DB	00H
	DB	00H
	DB	0baH
	DB	00H
	DB	00H
	DB	00H
	DB	0baH
	DB	00H
	DB	00H
	DB	00H
	DB	0baH
	DB	00H
	DB	00H
	DB	00H
	DB	0baH
	DB	00H
	DB	00H
	DB	00H
	DB	0baH
	DB	00H
	DB	00H
	DB	00H
	DB	0baH
	DB	00H
	DB	00H
	DB	00H
	DB	0baH
	DB	00H
	DB	00H
	DB	00H
	DB	0baH
	DB	00H
	DB	00H
	DB	00H
	DB	0baH
	DB	00H
	DB	00H
	DB	00H
	DB	0baH
	DB	00H
	DB	00H
	DB	00H
	DB	0baH
	DB	00H
	DB	00H
	DB	00H
	DB	0baH
	DB	00H
	DB	00H
	DB	00H
	DB	0baH
	DB	00H
	DB	00H
	DB	00H
	DB	0baH
	DB	00H
	DB	00H
	DB	00H
	DB	0baH
	DB	00H
	DB	00H
	DB	00H
	DB	0baH
	DB	00H
	DB	00H
	DB	00H
	DB	0baH
	DB	00H
	DB	00H
	DB	00H
	DB	0baH
	DB	00H
	DB	00H
	DB	00H
	DB	0baH
	DB	07cH
	DB	07cH
	DB	07cH
	DB	0ccH
	DB	0ffH
	DB	0ffH
	DB	0ffH
	DB	0ffH
	DB	0ffH
	DB	0ffH
	DB	0ffH
	DB	0ffH
	DB	0ffH
	DB	0ffH
	DB	0ffH
	DB	0ffH
	DB	050H
	DB	050H
	DB	050H
	DB	0c3H
	DB	00H
	DB	00H
	DB	00H
	DB	0baH
	DB	00H
	DB	00H
	DB	00H
	DB	0baH
	DB	00H
	DB	00H
	DB	00H
	DB	0baH
	DB	00H
	DB	00H
	DB	00H
	DB	0baH
	DB	00H
	DB	00H
	DB	00H
	DB	0baH
	DB	00H
	DB	00H
	DB	00H
	DB	0baH
	DB	00H
	DB	00H
	DB	00H
	DB	0baH
	DB	00H
	DB	00H
	DB	00H
	DB	0baH
	DB	0eeH
	DB	0eeH
	DB	0eeH
	DB	0f6H
	DB	0ffH
	DB	0ffH
	DB	0ffH
	DB	0ffH
	DB	0ffH
	DB	0ffH
	DB	0ffH
	DB	0ffH
	DB	0acH
	DB	0acH
	DB	0acH
	DB	0daH
	DB	00H
	DB	00H
	DB	00H
	DB	0baH
	DB	00H
	DB	00H
	DB	00H
	DB	0baH
	DB	00H
	DB	00H
	DB	00H
	DB	0baH
	DB	09eH
	DB	09eH
	DB	09eH
	DB	0d6H
	DB	0ffH
	DB	0ffH
	DB	0ffH
	DB	0ffH
	DB	0ffH
	DB	0ffH
	DB	0ffH
	DB	0ffH
	DB	0ffH
	DB	0ffH
	DB	0ffH
	DB	0ffH
	DB	00H
	DB	00H
	DB	00H
	DB	0baH
	DB	00H
	DB	00H
	DB	00H
	DB	0baH
	DB	00H
	DB	00H
	DB	00H
	DB	0baH
	DB	00H
	DB	00H
	DB	00H
	DB	0baH
	DB	00H
	DB	00H
	DB	00H
	DB	0baH
	DB	00H
	DB	00H
	DB	00H
	DB	0baH
	DB	00H
	DB	00H
	DB	00H
	DB	0baH
	DB	00H
	DB	00H
	DB	00H
	DB	0baH
	DB	00H
	DB	00H
	DB	00H
	DB	0baH
	DB	00H
	DB	00H
	DB	00H
	DB	0baH
	DB	0c6H
	DB	0c6H
	DB	0c6H
	DB	0e3H
	DB	0ffH
	DB	0ffH
	DB	0ffH
	DB	0ffH
	DB	0ffH
	DB	0ffH
	DB	0ffH
	DB	0ffH
	DB	0dbH
	DB	0dbH
	DB	0dbH
	DB	0edH
	DB	00H
	DB	00H
	DB	00H
	DB	0baH
	DB	00H
	DB	00H
	DB	00H
	DB	0baH
	DB	00H
	DB	00H
	DB	00H
	DB	0baH
	DB	00H
	DB	00H
	DB	00H
	DB	0baH
	DB	07cH
	DB	07cH
	DB	07cH
	DB	0ccH
	DB	0ffH
	DB	0ffH
	DB	0ffH
	DB	0ffH
	DB	0ffH
	DB	0ffH
	DB	0ffH
	DB	0ffH
	DB	0ffH
	DB	0ffH
	DB	0ffH
	DB	0ffH
	DB	00H
	DB	00H
	DB	00H
	DB	0baH
	DB	00H
	DB	00H
	DB	00H
	DB	0baH
	DB	0e5H
	DB	0e5H
	DB	0e5H
	DB	0f1H
	DB	0ffH
	DB	0ffH
	DB	0ffH
	DB	0ffH
	DB	0ffH
	DB	0ffH
	DB	0ffH
	DB	0ffH
	DB	0ffH
	DB	0ffH
	DB	0ffH
	DB	0ffH
	DB	0baH
	DB	0baH
	DB	0baH
	DB	0dfH
	DB	00H
	DB	00H
	DB	00H
	DB	0baH
	DB	00H
	DB	00H
	DB	00H
	DB	0baH
	DB	050H
	DB	050H
	DB	050H
	DB	0c3H
	DB	0ffH
	DB	0ffH
	DB	0ffH
	DB	0ffH
	DB	0ffH
	DB	0ffH
	DB	0ffH
	DB	0ffH
	DB	0ffH
	DB	0ffH
	DB	0ffH
	DB	0ffH
	DB	050H
	DB	050H
	DB	050H
	DB	0c3H
	DB	00H
	DB	00H
	DB	00H
	DB	0baH
	DB	00H
	DB	00H
	DB	00H
	DB	0baH
	DB	00H
	DB	00H
	DB	00H
	DB	0baH
	DB	00H
	DB	00H
	DB	00H
	DB	0baH
	DB	07cH
	DB	07cH
	DB	07cH
	DB	0ccH
	DB	0ffH
	DB	0ffH
	DB	0ffH
	DB	0ffH
	DB	0ffH
	DB	0ffH
	DB	0ffH
	DB	0ffH
	DB	0ffH
	DB	0ffH
	DB	0ffH
	DB	0ffH
	DB	0ffH
	DB	0ffH
	DB	0ffH
	DB	0ffH
	DB	0ffH
	DB	0ffH
	DB	0ffH
	DB	0ffH
	DB	0ffH
	DB	0ffH
	DB	0ffH
	DB	0ffH
	DB	0ffH
	DB	0ffH
	DB	0ffH
	DB	0ffH
	DB	0ffH
	DB	0ffH
	DB	0ffH
	DB	0ffH
	DB	0ffH
	DB	0ffH
	DB	0ffH
	DB	0ffH
	DB	0ffH
	DB	0ffH
	DB	0ffH
	DB	0ffH
	DB	0ffH
	DB	0ffH
	DB	0ffH
	DB	0ffH
	DB	0ffH
	DB	0ffH
	DB	0ffH
	DB	0ffH
	DB	050H
	DB	050H
	DB	050H
	DB	0c3H
	DB	00H
	DB	00H
	DB	00H
	DB	0baH
	DB	00H
	DB	00H
	DB	00H
	DB	0baH
	DB	00H
	DB	00H
	DB	00H
	DB	0baH
	DB	00H
	DB	00H
	DB	00H
	DB	0baH
	DB	00H
	DB	00H
	DB	00H
	DB	0baH
	DB	00H
	DB	00H
	DB	00H
	DB	0baH
	DB	00H
	DB	00H
	DB	00H
	DB	0baH
	DB	00H
	DB	00H
	DB	00H
	DB	0baH
	DB	00H
	DB	00H
	DB	00H
	DB	0baH
	DB	00H
	DB	00H
	DB	00H
	DB	0baH
	DB	00H
	DB	00H
	DB	00H
	DB	0baH
	DB	00H
	DB	00H
	DB	00H
	DB	0baH
	DB	00H
	DB	00H
	DB	00H
	DB	0baH
	DB	00H
	DB	00H
	DB	00H
	DB	0baH
	DB	00H
	DB	00H
	DB	00H
	DB	0baH
	DB	00H
	DB	00H
	DB	00H
	DB	0baH
	DB	00H
	DB	00H
	DB	00H
	DB	0baH
	DB	00H
	DB	00H
	DB	00H
	DB	0baH
	DB	00H
	DB	00H
	DB	00H
	DB	0baH
	DB	00H
	DB	00H
	DB	00H
	DB	0baH
	DB	00H
	DB	00H
	DB	00H
	DB	0baH
	DB	00H
	DB	00H
	DB	00H
	DB	0baH
	DB	00H
	DB	00H
	DB	00H
	DB	0baH
	DB	00H
	DB	00H
	DB	00H
	DB	0baH
	DB	00H
	DB	00H
	DB	00H
	DB	0baH
	DB	00H
	DB	00H
	DB	00H
	DB	0baH
	DB	00H
	DB	00H
	DB	00H
	DB	0baH
	DB	00H
	DB	00H
	DB	00H
	DB	0baH
	DB	00H
	DB	00H
	DB	00H
	DB	0baH
	DB	00H
	DB	00H
	DB	00H
	DB	0baH
	DB	00H
	DB	00H
	DB	00H
	DB	0baH
	DB	00H
	DB	00H
	DB	00H
	DB	0baH
	DB	00H
	DB	00H
	DB	00H
	DB	0baH
	DB	00H
	DB	00H
	DB	00H
	DB	0baH
	DB	00H
	DB	00H
	DB	00H
	DB	0baH
	DB	00H
	DB	00H
	DB	00H
	DB	0baH
	DB	00H
	DB	00H
	DB	00H
	DB	0baH
	DB	00H
	DB	00H
	DB	00H
	DB	0baH
	DB	00H
	DB	00H
	DB	00H
	DB	0baH
	DB	00H
	DB	00H
	DB	00H
	DB	0baH
	DB	00H
	DB	00H
	DB	00H
	DB	0baH
	DB	00H
	DB	00H
	DB	00H
	DB	0baH
	DB	00H
	DB	00H
	DB	00H
	DB	0baH
	DB	00H
	DB	00H
	DB	00H
	DB	0baH
	DB	00H
	DB	00H
	DB	00H
	DB	0baH
	DB	00H
	DB	00H
	DB	00H
	DB	0baH
	DB	00H
	DB	00H
	DB	00H
	DB	0baH
	DB	00H
	DB	00H
	DB	00H
	DB	0baH
	DB	00H
	DB	00H
	DB	00H
	DB	0baH
	DB	00H
	DB	00H
	DB	00H
	DB	0baH
	DB	00H
	DB	00H
	DB	00H
	DB	0baH
	DB	00H
	DB	00H
	DB	00H
	DB	0baH
	DB	07cH
	DB	07cH
	DB	07cH
	DB	0ccH
	DB	0ffH
	DB	0ffH
	DB	0ffH
	DB	0ffH
	DB	0ffH
	DB	0ffH
	DB	0ffH
	DB	0ffH
	DB	0ffH
	DB	0ffH
	DB	0ffH
	DB	0ffH
	DB	050H
	DB	050H
	DB	050H
	DB	0c3H
	DB	00H
	DB	00H
	DB	00H
	DB	0baH
	DB	00H
	DB	00H
	DB	00H
	DB	0baH
	DB	00H
	DB	00H
	DB	00H
	DB	0baH
	DB	00H
	DB	00H
	DB	00H
	DB	0baH
	DB	00H
	DB	00H
	DB	00H
	DB	0baH
	DB	00H
	DB	00H
	DB	00H
	DB	0baH
	DB	00H
	DB	00H
	DB	00H
	DB	0baH
	DB	00H
	DB	00H
	DB	00H
	DB	0baH
	DB	0eeH
	DB	0eeH
	DB	0eeH
	DB	0f6H
	DB	0ffH
	DB	0ffH
	DB	0ffH
	DB	0ffH
	DB	0ffH
	DB	0ffH
	DB	0ffH
	DB	0ffH
	DB	0acH
	DB	0acH
	DB	0acH
	DB	0daH
	DB	00H
	DB	00H
	DB	00H
	DB	0baH
	DB	00H
	DB	00H
	DB	00H
	DB	0baH
	DB	00H
	DB	00H
	DB	00H
	DB	0baH
	DB	0acH
	DB	0acH
	DB	0acH
	DB	0daH
	DB	0ffH
	DB	0ffH
	DB	0ffH
	DB	0ffH
	DB	0ffH
	DB	0ffH
	DB	0ffH
	DB	0ffH
	DB	0ffH
	DB	0ffH
	DB	0ffH
	DB	0ffH
	DB	00H
	DB	00H
	DB	00H
	DB	0baH
	DB	00H
	DB	00H
	DB	00H
	DB	0baH
	DB	00H
	DB	00H
	DB	00H
	DB	0baH
	DB	00H
	DB	00H
	DB	00H
	DB	0baH
	DB	00H
	DB	00H
	DB	00H
	DB	0baH
	DB	00H
	DB	00H
	DB	00H
	DB	0baH
	DB	00H
	DB	00H
	DB	00H
	DB	0baH
	DB	00H
	DB	00H
	DB	00H
	DB	0baH
	DB	00H
	DB	00H
	DB	00H
	DB	0baH
	DB	00H
	DB	00H
	DB	00H
	DB	0baH
	DB	0c6H
	DB	0c6H
	DB	0c6H
	DB	0e3H
	DB	0ffH
	DB	0ffH
	DB	0ffH
	DB	0ffH
	DB	0ffH
	DB	0ffH
	DB	0ffH
	DB	0ffH
	DB	0e5H
	DB	0e5H
	DB	0e5H
	DB	0f1H
	DB	00H
	DB	00H
	DB	00H
	DB	0baH
	DB	00H
	DB	00H
	DB	00H
	DB	0baH
	DB	00H
	DB	00H
	DB	00H
	DB	0baH
	DB	00H
	DB	00H
	DB	00H
	DB	0baH
	DB	07cH
	DB	07cH
	DB	07cH
	DB	0ccH
	DB	0ffH
	DB	0ffH
	DB	0ffH
	DB	0ffH
	DB	0ffH
	DB	0ffH
	DB	0ffH
	DB	0ffH
	DB	0ffH
	DB	0ffH
	DB	0ffH
	DB	0ffH
	DB	00H
	DB	00H
	DB	00H
	DB	0baH
	DB	00H
	DB	00H
	DB	00H
	DB	0baH
	DB	050H
	DB	050H
	DB	050H
	DB	0c3H
	DB	0ffH
	DB	0ffH
	DB	0ffH
	DB	0ffH
	DB	0ffH
	DB	0ffH
	DB	0ffH
	DB	0ffH
	DB	0ffH
	DB	0ffH
	DB	0ffH
	DB	0ffH
	DB	0ffH
	DB	0ffH
	DB	0ffH
	DB	0ffH
	DB	07cH
	DB	07cH
	DB	07cH
	DB	0ccH
	DB	00H
	DB	00H
	DB	00H
	DB	0baH
	DB	050H
	DB	050H
	DB	050H
	DB	0c3H
	DB	0ffH
	DB	0ffH
	DB	0ffH
	DB	0ffH
	DB	0ffH
	DB	0ffH
	DB	0ffH
	DB	0ffH
	DB	0ffH
	DB	0ffH
	DB	0ffH
	DB	0ffH
	DB	050H
	DB	050H
	DB	050H
	DB	0c3H
	DB	00H
	DB	00H
	DB	00H
	DB	0baH
	DB	00H
	DB	00H
	DB	00H
	DB	0baH
	DB	00H
	DB	00H
	DB	00H
	DB	0baH
	DB	00H
	DB	00H
	DB	00H
	DB	0baH
	DB	07cH
	DB	07cH
	DB	07cH
	DB	0ccH
	DB	0ffH
	DB	0ffH
	DB	0ffH
	DB	0ffH
	DB	0ffH
	DB	0ffH
	DB	0ffH
	DB	0ffH
	DB	0ffH
	DB	0ffH
	DB	0ffH
	DB	0ffH
	DB	0ffH
	DB	0ffH
	DB	0ffH
	DB	0ffH
	DB	0ffH
	DB	0ffH
	DB	0ffH
	DB	0ffH
	DB	0ffH
	DB	0ffH
	DB	0ffH
	DB	0ffH
	DB	0ffH
	DB	0ffH
	DB	0ffH
	DB	0ffH
	DB	0ffH
	DB	0ffH
	DB	0ffH
	DB	0ffH
	DB	0ffH
	DB	0ffH
	DB	0ffH
	DB	0ffH
	DB	0ffH
	DB	0ffH
	DB	0ffH
	DB	0ffH
	DB	0ffH
	DB	0ffH
	DB	0ffH
	DB	0ffH
	DB	0ffH
	DB	0ffH
	DB	0ffH
	DB	0ffH
	DB	050H
	DB	050H
	DB	050H
	DB	0c3H
	DB	00H
	DB	00H
	DB	00H
	DB	0baH
	DB	00H
	DB	00H
	DB	00H
	DB	0baH
	DB	00H
	DB	00H
	DB	00H
	DB	0baH
	DB	00H
	DB	00H
	DB	00H
	DB	0baH
	DB	00H
	DB	00H
	DB	00H
	DB	0baH
	DB	00H
	DB	00H
	DB	00H
	DB	0baH
	DB	00H
	DB	00H
	DB	00H
	DB	0baH
	DB	00H
	DB	00H
	DB	00H
	DB	0baH
	DB	00H
	DB	00H
	DB	00H
	DB	0baH
	DB	00H
	DB	00H
	DB	00H
	DB	0baH
	DB	00H
	DB	00H
	DB	00H
	DB	0baH
	DB	00H
	DB	00H
	DB	00H
	DB	0baH
	DB	00H
	DB	00H
	DB	00H
	DB	0baH
	DB	00H
	DB	00H
	DB	00H
	DB	0baH
	DB	00H
	DB	00H
	DB	00H
	DB	0baH
	DB	00H
	DB	00H
	DB	00H
	DB	0baH
	DB	00H
	DB	00H
	DB	00H
	DB	0baH
	DB	00H
	DB	00H
	DB	00H
	DB	0baH
	DB	00H
	DB	00H
	DB	00H
	DB	0baH
	DB	00H
	DB	00H
	DB	00H
	DB	0baH
	DB	00H
	DB	00H
	DB	00H
	DB	0baH
	DB	00H
	DB	00H
	DB	00H
	DB	0baH
	DB	00H
	DB	00H
	DB	00H
	DB	0baH
	DB	00H
	DB	00H
	DB	00H
	DB	0baH
	DB	00H
	DB	00H
	DB	00H
	DB	0baH
	DB	00H
	DB	00H
	DB	00H
	DB	0baH
	DB	00H
	DB	00H
	DB	00H
	DB	0baH
	DB	00H
	DB	00H
	DB	00H
	DB	0baH
	DB	00H
	DB	00H
	DB	00H
	DB	0baH
	DB	00H
	DB	00H
	DB	00H
	DB	0baH
	DB	00H
	DB	00H
	DB	00H
	DB	0baH
	DB	00H
	DB	00H
	DB	00H
	DB	0baH
	DB	00H
	DB	00H
	DB	00H
	DB	0baH
	DB	00H
	DB	00H
	DB	00H
	DB	0baH
	DB	00H
	DB	00H
	DB	00H
	DB	0baH
	DB	00H
	DB	00H
	DB	00H
	DB	0baH
	DB	00H
	DB	00H
	DB	00H
	DB	0baH
	DB	00H
	DB	00H
	DB	00H
	DB	0baH
	DB	00H
	DB	00H
	DB	00H
	DB	0baH
	DB	00H
	DB	00H
	DB	00H
	DB	0baH
	DB	00H
	DB	00H
	DB	00H
	DB	0baH
	DB	00H
	DB	00H
	DB	00H
	DB	0baH
	DB	00H
	DB	00H
	DB	00H
	DB	0baH
	DB	00H
	DB	00H
	DB	00H
	DB	0baH
	DB	00H
	DB	00H
	DB	00H
	DB	0baH
	DB	00H
	DB	00H
	DB	00H
	DB	0baH
	DB	00H
	DB	00H
	DB	00H
	DB	0baH
	DB	00H
	DB	00H
	DB	00H
	DB	0baH
	DB	00H
	DB	00H
	DB	00H
	DB	0baH
	DB	00H
	DB	00H
	DB	00H
	DB	0baH
	DB	00H
	DB	00H
	DB	00H
	DB	0baH
	DB	00H
	DB	00H
	DB	00H
	DB	0baH
	DB	07cH
	DB	07cH
	DB	07cH
	DB	0ccH
	DB	0ffH
	DB	0ffH
	DB	0ffH
	DB	0ffH
	DB	0ffH
	DB	0ffH
	DB	0ffH
	DB	0ffH
	DB	0ffH
	DB	0ffH
	DB	0ffH
	DB	0ffH
	DB	050H
	DB	050H
	DB	050H
	DB	0c3H
	DB	00H
	DB	00H
	DB	00H
	DB	0baH
	DB	00H
	DB	00H
	DB	00H
	DB	0baH
	DB	00H
	DB	00H
	DB	00H
	DB	0baH
	DB	00H
	DB	00H
	DB	00H
	DB	0baH
	DB	00H
	DB	00H
	DB	00H
	DB	0baH
	DB	00H
	DB	00H
	DB	00H
	DB	0baH
	DB	00H
	DB	00H
	DB	00H
	DB	0baH
	DB	00H
	DB	00H
	DB	00H
	DB	0baH
	DB	0eeH
	DB	0eeH
	DB	0eeH
	DB	0f6H
	DB	0ffH
	DB	0ffH
	DB	0ffH
	DB	0ffH
	DB	0ffH
	DB	0ffH
	DB	0ffH
	DB	0ffH
	DB	0acH
	DB	0acH
	DB	0acH
	DB	0daH
	DB	00H
	DB	00H
	DB	00H
	DB	0baH
	DB	00H
	DB	00H
	DB	00H
	DB	0baH
	DB	00H
	DB	00H
	DB	00H
	DB	0baH
	DB	09eH
	DB	09eH
	DB	09eH
	DB	0d6H
	DB	0ffH
	DB	0ffH
	DB	0ffH
	DB	0ffH
	DB	0ffH
	DB	0ffH
	DB	0ffH
	DB	0ffH
	DB	0ffH
	DB	0ffH
	DB	0ffH
	DB	0ffH
	DB	00H
	DB	00H
	DB	00H
	DB	0baH
	DB	00H
	DB	00H
	DB	00H
	DB	0baH
	DB	00H
	DB	00H
	DB	00H
	DB	0baH
	DB	00H
	DB	00H
	DB	00H
	DB	0baH
	DB	00H
	DB	00H
	DB	00H
	DB	0baH
	DB	00H
	DB	00H
	DB	00H
	DB	0baH
	DB	00H
	DB	00H
	DB	00H
	DB	0baH
	DB	00H
	DB	00H
	DB	00H
	DB	0baH
	DB	00H
	DB	00H
	DB	00H
	DB	0baH
	DB	00H
	DB	00H
	DB	00H
	DB	0baH
	DB	0c6H
	DB	0c6H
	DB	0c6H
	DB	0e3H
	DB	0ffH
	DB	0ffH
	DB	0ffH
	DB	0ffH
	DB	0ffH
	DB	0ffH
	DB	0ffH
	DB	0ffH
	DB	0dbH
	DB	0dbH
	DB	0dbH
	DB	0edH
	DB	00H
	DB	00H
	DB	00H
	DB	0baH
	DB	00H
	DB	00H
	DB	00H
	DB	0baH
	DB	00H
	DB	00H
	DB	00H
	DB	0baH
	DB	00H
	DB	00H
	DB	00H
	DB	0baH
	DB	07cH
	DB	07cH
	DB	07cH
	DB	0ccH
	DB	0ffH
	DB	0ffH
	DB	0ffH
	DB	0ffH
	DB	0ffH
	DB	0ffH
	DB	0ffH
	DB	0ffH
	DB	0ffH
	DB	0ffH
	DB	0ffH
	DB	0ffH
	DB	00H
	DB	00H
	DB	00H
	DB	0baH
	DB	00H
	DB	00H
	DB	00H
	DB	0baH
	DB	00H
	DB	00H
	DB	00H
	DB	0baH
	DB	0acH
	DB	0acH
	DB	0acH
	DB	0daH
	DB	0ffH
	DB	0ffH
	DB	0ffH
	DB	0ffH
	DB	0ffH
	DB	0ffH
	DB	0ffH
	DB	0ffH
	DB	0ffH
	DB	0ffH
	DB	0ffH
	DB	0ffH
	DB	0eeH
	DB	0eeH
	DB	0eeH
	DB	0f6H
	DB	030H
	DB	030H
	DB	030H
	DB	0bfH
	DB	050H
	DB	050H
	DB	050H
	DB	0c3H
	DB	0ffH
	DB	0ffH
	DB	0ffH
	DB	0ffH
	DB	0ffH
	DB	0ffH
	DB	0ffH
	DB	0ffH
	DB	0ffH
	DB	0ffH
	DB	0ffH
	DB	0ffH
	DB	050H
	DB	050H
	DB	050H
	DB	0c3H
	DB	00H
	DB	00H
	DB	00H
	DB	0baH
	DB	00H
	DB	00H
	DB	00H
	DB	0baH
	DB	00H
	DB	00H
	DB	00H
	DB	0baH
	DB	00H
	DB	00H
	DB	00H
	DB	0baH
	DB	07cH
	DB	07cH
	DB	07cH
	DB	0ccH
	DB	0ffH
	DB	0ffH
	DB	0ffH
	DB	0ffH
	DB	0ffH
	DB	0ffH
	DB	0ffH
	DB	0ffH
	DB	0ffH
	DB	0ffH
	DB	0ffH
	DB	0ffH
	DB	0ffH
	DB	0ffH
	DB	0ffH
	DB	0ffH
	DB	0ffH
	DB	0ffH
	DB	0ffH
	DB	0ffH
	DB	0ffH
	DB	0ffH
	DB	0ffH
	DB	0ffH
	DB	0ffH
	DB	0ffH
	DB	0ffH
	DB	0ffH
	DB	0ffH
	DB	0ffH
	DB	0ffH
	DB	0ffH
	DB	0ffH
	DB	0ffH
	DB	0ffH
	DB	0ffH
	DB	0ffH
	DB	0ffH
	DB	0ffH
	DB	0ffH
	DB	0ffH
	DB	0ffH
	DB	0ffH
	DB	0ffH
	DB	0ffH
	DB	0ffH
	DB	0ffH
	DB	0ffH
	DB	050H
	DB	050H
	DB	050H
	DB	0c3H
	DB	00H
	DB	00H
	DB	00H
	DB	0baH
	DB	00H
	DB	00H
	DB	00H
	DB	0baH
	DB	00H
	DB	00H
	DB	00H
	DB	0baH
	DB	00H
	DB	00H
	DB	00H
	DB	0baH
	DB	00H
	DB	00H
	DB	00H
	DB	0baH
	DB	00H
	DB	00H
	DB	00H
	DB	0baH
	DB	00H
	DB	00H
	DB	00H
	DB	0baH
	DB	00H
	DB	00H
	DB	00H
	DB	0baH
	DB	00H
	DB	00H
	DB	00H
	DB	0baH
	DB	00H
	DB	00H
	DB	00H
	DB	0baH
	DB	00H
	DB	00H
	DB	00H
	DB	0baH
	DB	00H
	DB	00H
	DB	00H
	DB	0baH
	DB	00H
	DB	00H
	DB	00H
	DB	0baH
	DB	00H
	DB	00H
	DB	00H
	DB	0baH
	DB	00H
	DB	00H
	DB	00H
	DB	0baH
	DB	00H
	DB	00H
	DB	00H
	DB	0baH
	DB	00H
	DB	00H
	DB	00H
	DB	0baH
	DB	00H
	DB	00H
	DB	00H
	DB	0baH
	DB	00H
	DB	00H
	DB	00H
	DB	0baH
	DB	00H
	DB	00H
	DB	00H
	DB	0baH
	DB	00H
	DB	00H
	DB	00H
	DB	0baH
	DB	00H
	DB	00H
	DB	00H
	DB	0baH
	DB	00H
	DB	00H
	DB	00H
	DB	0baH
	DB	00H
	DB	00H
	DB	00H
	DB	0baH
	DB	00H
	DB	00H
	DB	00H
	DB	0baH
	DB	00H
	DB	00H
	DB	00H
	DB	0baH
	DB	00H
	DB	00H
	DB	00H
	DB	0baH
	DB	00H
	DB	00H
	DB	00H
	DB	0baH
	DB	00H
	DB	00H
	DB	00H
	DB	0baH
	DB	00H
	DB	00H
	DB	00H
	DB	0baH
	DB	00H
	DB	00H
	DB	00H
	DB	0baH
	DB	00H
	DB	00H
	DB	00H
	DB	0baH
	DB	00H
	DB	00H
	DB	00H
	DB	0baH
	DB	00H
	DB	00H
	DB	00H
	DB	0baH
	DB	00H
	DB	00H
	DB	00H
	DB	0baH
	DB	00H
	DB	00H
	DB	00H
	DB	0baH
	DB	00H
	DB	00H
	DB	00H
	DB	0baH
	DB	00H
	DB	00H
	DB	00H
	DB	0baH
	DB	00H
	DB	00H
	DB	00H
	DB	0baH
	DB	00H
	DB	00H
	DB	00H
	DB	0baH
	DB	00H
	DB	00H
	DB	00H
	DB	0baH
	DB	00H
	DB	00H
	DB	00H
	DB	0baH
	DB	00H
	DB	00H
	DB	00H
	DB	0baH
	DB	00H
	DB	00H
	DB	00H
	DB	0baH
	DB	00H
	DB	00H
	DB	00H
	DB	0baH
	DB	00H
	DB	00H
	DB	00H
	DB	0baH
	DB	00H
	DB	00H
	DB	00H
	DB	0baH
	DB	00H
	DB	00H
	DB	00H
	DB	0baH
	DB	00H
	DB	00H
	DB	00H
	DB	0baH
	DB	00H
	DB	00H
	DB	00H
	DB	0baH
	DB	00H
	DB	00H
	DB	00H
	DB	0baH
	DB	00H
	DB	00H
	DB	00H
	DB	0baH
	DB	07cH
	DB	07cH
	DB	07cH
	DB	0ccH
	DB	0ffH
	DB	0ffH
	DB	0ffH
	DB	0ffH
	DB	0ffH
	DB	0ffH
	DB	0ffH
	DB	0ffH
	DB	0ffH
	DB	0ffH
	DB	0ffH
	DB	0ffH
	DB	050H
	DB	050H
	DB	050H
	DB	0c3H
	DB	00H
	DB	00H
	DB	00H
	DB	0baH
	DB	00H
	DB	00H
	DB	00H
	DB	0baH
	DB	00H
	DB	00H
	DB	00H
	DB	0baH
	DB	00H
	DB	00H
	DB	00H
	DB	0baH
	DB	00H
	DB	00H
	DB	00H
	DB	0baH
	DB	00H
	DB	00H
	DB	00H
	DB	0baH
	DB	00H
	DB	00H
	DB	00H
	DB	0baH
	DB	00H
	DB	00H
	DB	00H
	DB	0baH
	DB	0eeH
	DB	0eeH
	DB	0eeH
	DB	0f6H
	DB	0ffH
	DB	0ffH
	DB	0ffH
	DB	0ffH
	DB	0ffH
	DB	0ffH
	DB	0ffH
	DB	0ffH
	DB	0acH
	DB	0acH
	DB	0acH
	DB	0daH
	DB	00H
	DB	00H
	DB	00H
	DB	0baH
	DB	00H
	DB	00H
	DB	00H
	DB	0baH
	DB	00H
	DB	00H
	DB	00H
	DB	0baH
	DB	09eH
	DB	09eH
	DB	09eH
	DB	0d6H
	DB	0ffH
	DB	0ffH
	DB	0ffH
	DB	0ffH
	DB	0ffH
	DB	0ffH
	DB	0ffH
	DB	0ffH
	DB	0ffH
	DB	0ffH
	DB	0ffH
	DB	0ffH
	DB	00H
	DB	00H
	DB	00H
	DB	0baH
	DB	00H
	DB	00H
	DB	00H
	DB	0baH
	DB	00H
	DB	00H
	DB	00H
	DB	0baH
	DB	00H
	DB	00H
	DB	00H
	DB	0baH
	DB	00H
	DB	00H
	DB	00H
	DB	0baH
	DB	00H
	DB	00H
	DB	00H
	DB	0baH
	DB	00H
	DB	00H
	DB	00H
	DB	0baH
	DB	00H
	DB	00H
	DB	00H
	DB	0baH
	DB	00H
	DB	00H
	DB	00H
	DB	0baH
	DB	00H
	DB	00H
	DB	00H
	DB	0baH
	DB	0c6H
	DB	0c6H
	DB	0c6H
	DB	0e3H
	DB	0ffH
	DB	0ffH
	DB	0ffH
	DB	0ffH
	DB	0ffH
	DB	0ffH
	DB	0ffH
	DB	0ffH
	DB	0dbH
	DB	0dbH
	DB	0dbH
	DB	0edH
	DB	00H
	DB	00H
	DB	00H
	DB	0baH
	DB	00H
	DB	00H
	DB	00H
	DB	0baH
	DB	00H
	DB	00H
	DB	00H
	DB	0baH
	DB	00H
	DB	00H
	DB	00H
	DB	0baH
	DB	07cH
	DB	07cH
	DB	07cH
	DB	0ccH
	DB	0ffH
	DB	0ffH
	DB	0ffH
	DB	0ffH
	DB	0ffH
	DB	0ffH
	DB	0ffH
	DB	0ffH
	DB	0ffH
	DB	0ffH
	DB	0ffH
	DB	0ffH
	DB	00H
	DB	00H
	DB	00H
	DB	0baH
	DB	00H
	DB	00H
	DB	00H
	DB	0baH
	DB	00H
	DB	00H
	DB	00H
	DB	0baH
	DB	00H
	DB	00H
	DB	00H
	DB	0baH
	DB	0e5H
	DB	0e5H
	DB	0e5H
	DB	0f1H
	DB	0ffH
	DB	0ffH
	DB	0ffH
	DB	0ffH
	DB	0ffH
	DB	0ffH
	DB	0ffH
	DB	0ffH
	DB	0ffH
	DB	0ffH
	DB	0ffH
	DB	0ffH
	DB	0baH
	DB	0baH
	DB	0baH
	DB	0dfH
	DB	050H
	DB	050H
	DB	050H
	DB	0c3H
	DB	0ffH
	DB	0ffH
	DB	0ffH
	DB	0ffH
	DB	0ffH
	DB	0ffH
	DB	0ffH
	DB	0ffH
	DB	0ffH
	DB	0ffH
	DB	0ffH
	DB	0ffH
	DB	050H
	DB	050H
	DB	050H
	DB	0c3H
	DB	00H
	DB	00H
	DB	00H
	DB	0baH
	DB	00H
	DB	00H
	DB	00H
	DB	0baH
	DB	00H
	DB	00H
	DB	00H
	DB	0baH
	DB	00H
	DB	00H
	DB	00H
	DB	0baH
	DB	07cH
	DB	07cH
	DB	07cH
	DB	0ccH
	DB	0ffH
	DB	0ffH
	DB	0ffH
	DB	0ffH
	DB	0ffH
	DB	0ffH
	DB	0ffH
	DB	0ffH
	DB	0ffH
	DB	0ffH
	DB	0ffH
	DB	0ffH
	DB	050H
	DB	050H
	DB	050H
	DB	0c3H
	DB	00H
	DB	00H
	DB	00H
	DB	0baH
	DB	00H
	DB	00H
	DB	00H
	DB	0baH
	DB	00H
	DB	00H
	DB	00H
	DB	0baH
	DB	00H
	DB	00H
	DB	00H
	DB	0baH
	DB	00H
	DB	00H
	DB	00H
	DB	0baH
	DB	00H
	DB	00H
	DB	00H
	DB	0baH
	DB	00H
	DB	00H
	DB	00H
	DB	0baH
	DB	00H
	DB	00H
	DB	00H
	DB	0baH
	DB	00H
	DB	00H
	DB	00H
	DB	0baH
	DB	00H
	DB	00H
	DB	00H
	DB	0baH
	DB	00H
	DB	00H
	DB	00H
	DB	0baH
	DB	00H
	DB	00H
	DB	00H
	DB	0baH
	DB	00H
	DB	00H
	DB	00H
	DB	0baH
	DB	00H
	DB	00H
	DB	00H
	DB	0baH
	DB	00H
	DB	00H
	DB	00H
	DB	0baH
	DB	00H
	DB	00H
	DB	00H
	DB	0baH
	DB	00H
	DB	00H
	DB	00H
	DB	0baH
	DB	00H
	DB	00H
	DB	00H
	DB	0baH
	DB	00H
	DB	00H
	DB	00H
	DB	0baH
	DB	00H
	DB	00H
	DB	00H
	DB	0baH
	DB	00H
	DB	00H
	DB	00H
	DB	0baH
	DB	00H
	DB	00H
	DB	00H
	DB	0baH
	DB	00H
	DB	00H
	DB	00H
	DB	0baH
	DB	00H
	DB	00H
	DB	00H
	DB	0baH
	DB	00H
	DB	00H
	DB	00H
	DB	0baH
	DB	00H
	DB	00H
	DB	00H
	DB	0baH
	DB	00H
	DB	00H
	DB	00H
	DB	0baH
	DB	00H
	DB	00H
	DB	00H
	DB	0baH
	DB	00H
	DB	00H
	DB	00H
	DB	0baH
	DB	00H
	DB	00H
	DB	00H
	DB	0baH
	DB	00H
	DB	00H
	DB	00H
	DB	0baH
	DB	00H
	DB	00H
	DB	00H
	DB	0baH
	DB	00H
	DB	00H
	DB	00H
	DB	0baH
	DB	00H
	DB	00H
	DB	00H
	DB	0baH
	DB	00H
	DB	00H
	DB	00H
	DB	0baH
	DB	00H
	DB	00H
	DB	00H
	DB	0baH
	DB	00H
	DB	00H
	DB	00H
	DB	0baH
	DB	00H
	DB	00H
	DB	00H
	DB	0baH
	DB	00H
	DB	00H
	DB	00H
	DB	0baH
	DB	00H
	DB	00H
	DB	00H
	DB	0baH
	DB	00H
	DB	00H
	DB	00H
	DB	0baH
	DB	00H
	DB	00H
	DB	00H
	DB	0baH
	DB	00H
	DB	00H
	DB	00H
	DB	0baH
	DB	00H
	DB	00H
	DB	00H
	DB	0baH
	DB	00H
	DB	00H
	DB	00H
	DB	0baH
	DB	00H
	DB	00H
	DB	00H
	DB	0baH
	DB	00H
	DB	00H
	DB	00H
	DB	0baH
	DB	00H
	DB	00H
	DB	00H
	DB	0baH
	DB	00H
	DB	00H
	DB	00H
	DB	0baH
	DB	00H
	DB	00H
	DB	00H
	DB	0baH
	DB	00H
	DB	00H
	DB	00H
	DB	0baH
	DB	00H
	DB	00H
	DB	00H
	DB	0baH
	DB	00H
	DB	00H
	DB	00H
	DB	0baH
	DB	00H
	DB	00H
	DB	00H
	DB	0baH
	DB	00H
	DB	00H
	DB	00H
	DB	0baH
	DB	00H
	DB	00H
	DB	00H
	DB	0baH
	DB	00H
	DB	00H
	DB	00H
	DB	0baH
	DB	00H
	DB	00H
	DB	00H
	DB	0baH
	DB	00H
	DB	00H
	DB	00H
	DB	0baH
	DB	00H
	DB	00H
	DB	00H
	DB	0baH
	DB	00H
	DB	00H
	DB	00H
	DB	0baH
	DB	07cH
	DB	07cH
	DB	07cH
	DB	0ccH
	DB	0ffH
	DB	0ffH
	DB	0ffH
	DB	0ffH
	DB	0ffH
	DB	0ffH
	DB	0ffH
	DB	0ffH
	DB	0ffH
	DB	0ffH
	DB	0ffH
	DB	0ffH
	DB	050H
	DB	050H
	DB	050H
	DB	0c3H
	DB	00H
	DB	00H
	DB	00H
	DB	0baH
	DB	00H
	DB	00H
	DB	00H
	DB	0baH
	DB	00H
	DB	00H
	DB	00H
	DB	0baH
	DB	00H
	DB	00H
	DB	00H
	DB	0baH
	DB	00H
	DB	00H
	DB	00H
	DB	0baH
	DB	00H
	DB	00H
	DB	00H
	DB	0baH
	DB	00H
	DB	00H
	DB	00H
	DB	0baH
	DB	00H
	DB	00H
	DB	00H
	DB	0baH
	DB	0eeH
	DB	0eeH
	DB	0eeH
	DB	0f6H
	DB	0ffH
	DB	0ffH
	DB	0ffH
	DB	0ffH
	DB	0ffH
	DB	0ffH
	DB	0ffH
	DB	0ffH
	DB	0acH
	DB	0acH
	DB	0acH
	DB	0daH
	DB	00H
	DB	00H
	DB	00H
	DB	0baH
	DB	00H
	DB	00H
	DB	00H
	DB	0baH
	DB	00H
	DB	00H
	DB	00H
	DB	0baH
	DB	09eH
	DB	09eH
	DB	09eH
	DB	0d6H
	DB	0ffH
	DB	0ffH
	DB	0ffH
	DB	0ffH
	DB	0ffH
	DB	0ffH
	DB	0ffH
	DB	0ffH
	DB	0ffH
	DB	0ffH
	DB	0ffH
	DB	0ffH
	DB	00H
	DB	00H
	DB	00H
	DB	0baH
	DB	00H
	DB	00H
	DB	00H
	DB	0baH
	DB	00H
	DB	00H
	DB	00H
	DB	0baH
	DB	00H
	DB	00H
	DB	00H
	DB	0baH
	DB	00H
	DB	00H
	DB	00H
	DB	0baH
	DB	00H
	DB	00H
	DB	00H
	DB	0baH
	DB	00H
	DB	00H
	DB	00H
	DB	0baH
	DB	00H
	DB	00H
	DB	00H
	DB	0baH
	DB	00H
	DB	00H
	DB	00H
	DB	0baH
	DB	00H
	DB	00H
	DB	00H
	DB	0baH
	DB	0c6H
	DB	0c6H
	DB	0c6H
	DB	0e3H
	DB	0ffH
	DB	0ffH
	DB	0ffH
	DB	0ffH
	DB	0ffH
	DB	0ffH
	DB	0ffH
	DB	0ffH
	DB	0dbH
	DB	0dbH
	DB	0dbH
	DB	0edH
	DB	00H
	DB	00H
	DB	00H
	DB	0baH
	DB	00H
	DB	00H
	DB	00H
	DB	0baH
	DB	00H
	DB	00H
	DB	00H
	DB	0baH
	DB	00H
	DB	00H
	DB	00H
	DB	0baH
	DB	07cH
	DB	07cH
	DB	07cH
	DB	0ccH
	DB	0ffH
	DB	0ffH
	DB	0ffH
	DB	0ffH
	DB	0ffH
	DB	0ffH
	DB	0ffH
	DB	0ffH
	DB	0ffH
	DB	0ffH
	DB	0ffH
	DB	0ffH
	DB	00H
	DB	00H
	DB	00H
	DB	0baH
	DB	00H
	DB	00H
	DB	00H
	DB	0baH
	DB	00H
	DB	00H
	DB	00H
	DB	0baH
	DB	00H
	DB	00H
	DB	00H
	DB	0baH
	DB	050H
	DB	050H
	DB	050H
	DB	0c3H
	DB	0ffH
	DB	0ffH
	DB	0ffH
	DB	0ffH
	DB	0ffH
	DB	0ffH
	DB	0ffH
	DB	0ffH
	DB	0ffH
	DB	0ffH
	DB	0ffH
	DB	0ffH
	DB	0ffH
	DB	0ffH
	DB	0ffH
	DB	0ffH
	DB	09eH
	DB	09eH
	DB	09eH
	DB	0d6H
	DB	0ffH
	DB	0ffH
	DB	0ffH
	DB	0ffH
	DB	0ffH
	DB	0ffH
	DB	0ffH
	DB	0ffH
	DB	0ffH
	DB	0ffH
	DB	0ffH
	DB	0ffH
	DB	050H
	DB	050H
	DB	050H
	DB	0c3H
	DB	00H
	DB	00H
	DB	00H
	DB	0baH
	DB	00H
	DB	00H
	DB	00H
	DB	0baH
	DB	00H
	DB	00H
	DB	00H
	DB	0baH
	DB	00H
	DB	00H
	DB	00H
	DB	0baH
	DB	07cH
	DB	07cH
	DB	07cH
	DB	0ccH
	DB	0ffH
	DB	0ffH
	DB	0ffH
	DB	0ffH
	DB	0ffH
	DB	0ffH
	DB	0ffH
	DB	0ffH
	DB	0ffH
	DB	0ffH
	DB	0ffH
	DB	0ffH
	DB	050H
	DB	050H
	DB	050H
	DB	0c3H
	DB	00H
	DB	00H
	DB	00H
	DB	0baH
	DB	00H
	DB	00H
	DB	00H
	DB	0baH
	DB	00H
	DB	00H
	DB	00H
	DB	0baH
	DB	00H
	DB	00H
	DB	00H
	DB	0baH
	DB	00H
	DB	00H
	DB	00H
	DB	0baH
	DB	00H
	DB	00H
	DB	00H
	DB	0baH
	DB	00H
	DB	00H
	DB	00H
	DB	0baH
	DB	00H
	DB	00H
	DB	00H
	DB	0baH
	DB	00H
	DB	00H
	DB	00H
	DB	0baH
	DB	00H
	DB	00H
	DB	00H
	DB	0baH
	DB	00H
	DB	00H
	DB	00H
	DB	0baH
	DB	00H
	DB	00H
	DB	00H
	DB	0baH
	DB	00H
	DB	00H
	DB	00H
	DB	0baH
	DB	00H
	DB	00H
	DB	00H
	DB	0baH
	DB	00H
	DB	00H
	DB	00H
	DB	0baH
	DB	00H
	DB	00H
	DB	00H
	DB	0baH
	DB	00H
	DB	00H
	DB	00H
	DB	0baH
	DB	00H
	DB	00H
	DB	00H
	DB	0baH
	DB	00H
	DB	00H
	DB	00H
	DB	0baH
	DB	00H
	DB	00H
	DB	00H
	DB	0baH
	DB	00H
	DB	00H
	DB	00H
	DB	0baH
	DB	00H
	DB	00H
	DB	00H
	DB	0baH
	DB	00H
	DB	00H
	DB	00H
	DB	0baH
	DB	00H
	DB	00H
	DB	00H
	DB	0baH
	DB	00H
	DB	00H
	DB	00H
	DB	0baH
	DB	00H
	DB	00H
	DB	00H
	DB	0baH
	DB	00H
	DB	00H
	DB	00H
	DB	0baH
	DB	00H
	DB	00H
	DB	00H
	DB	0baH
	DB	00H
	DB	00H
	DB	00H
	DB	0baH
	DB	00H
	DB	00H
	DB	00H
	DB	0baH
	DB	00H
	DB	00H
	DB	00H
	DB	0baH
	DB	00H
	DB	00H
	DB	00H
	DB	0baH
	DB	00H
	DB	00H
	DB	00H
	DB	0baH
	DB	00H
	DB	00H
	DB	00H
	DB	0baH
	DB	00H
	DB	00H
	DB	00H
	DB	0baH
	DB	00H
	DB	00H
	DB	00H
	DB	0baH
	DB	00H
	DB	00H
	DB	00H
	DB	0baH
	DB	00H
	DB	00H
	DB	00H
	DB	0baH
	DB	00H
	DB	00H
	DB	00H
	DB	0baH
	DB	00H
	DB	00H
	DB	00H
	DB	0baH
	DB	00H
	DB	00H
	DB	00H
	DB	0baH
	DB	00H
	DB	00H
	DB	00H
	DB	0baH
	DB	00H
	DB	00H
	DB	00H
	DB	0baH
	DB	00H
	DB	00H
	DB	00H
	DB	0baH
	DB	00H
	DB	00H
	DB	00H
	DB	0baH
	DB	00H
	DB	00H
	DB	00H
	DB	0baH
	DB	00H
	DB	00H
	DB	00H
	DB	0baH
	DB	00H
	DB	00H
	DB	00H
	DB	0baH
	DB	00H
	DB	00H
	DB	00H
	DB	0baH
	DB	00H
	DB	00H
	DB	00H
	DB	0baH
	DB	00H
	DB	00H
	DB	00H
	DB	0baH
	DB	00H
	DB	00H
	DB	00H
	DB	0baH
	DB	00H
	DB	00H
	DB	00H
	DB	0baH
	DB	00H
	DB	00H
	DB	00H
	DB	0baH
	DB	00H
	DB	00H
	DB	00H
	DB	0baH
	DB	00H
	DB	00H
	DB	00H
	DB	0baH
	DB	00H
	DB	00H
	DB	00H
	DB	0baH
	DB	00H
	DB	00H
	DB	00H
	DB	0baH
	DB	00H
	DB	00H
	DB	00H
	DB	0baH
	DB	00H
	DB	00H
	DB	00H
	DB	0baH
	DB	00H
	DB	00H
	DB	00H
	DB	0baH
	DB	07cH
	DB	07cH
	DB	07cH
	DB	0ccH
	DB	0ffH
	DB	0ffH
	DB	0ffH
	DB	0ffH
	DB	0ffH
	DB	0ffH
	DB	0ffH
	DB	0ffH
	DB	0ffH
	DB	0ffH
	DB	0ffH
	DB	0ffH
	DB	050H
	DB	050H
	DB	050H
	DB	0c3H
	DB	00H
	DB	00H
	DB	00H
	DB	0baH
	DB	00H
	DB	00H
	DB	00H
	DB	0baH
	DB	00H
	DB	00H
	DB	00H
	DB	0baH
	DB	00H
	DB	00H
	DB	00H
	DB	0baH
	DB	00H
	DB	00H
	DB	00H
	DB	0baH
	DB	00H
	DB	00H
	DB	00H
	DB	0baH
	DB	00H
	DB	00H
	DB	00H
	DB	0baH
	DB	00H
	DB	00H
	DB	00H
	DB	0baH
	DB	0ffH
	DB	0ffH
	DB	0ffH
	DB	0ffH
	DB	0ffH
	DB	0ffH
	DB	0ffH
	DB	0ffH
	DB	0ffH
	DB	0ffH
	DB	0ffH
	DB	0ffH
	DB	09eH
	DB	09eH
	DB	09eH
	DB	0d6H
	DB	00H
	DB	00H
	DB	00H
	DB	0baH
	DB	00H
	DB	00H
	DB	00H
	DB	0baH
	DB	00H
	DB	00H
	DB	00H
	DB	0baH
	DB	08eH
	DB	08eH
	DB	08eH
	DB	0d1H
	DB	0ffH
	DB	0ffH
	DB	0ffH
	DB	0ffH
	DB	0ffH
	DB	0ffH
	DB	0ffH
	DB	0ffH
	DB	0ffH
	DB	0ffH
	DB	0ffH
	DB	0ffH
	DB	030H
	DB	030H
	DB	030H
	DB	0bfH
	DB	00H
	DB	00H
	DB	00H
	DB	0baH
	DB	00H
	DB	00H
	DB	00H
	DB	0baH
	DB	00H
	DB	00H
	DB	00H
	DB	0baH
	DB	00H
	DB	00H
	DB	00H
	DB	0baH
	DB	00H
	DB	00H
	DB	00H
	DB	0baH
	DB	00H
	DB	00H
	DB	00H
	DB	0baH
	DB	00H
	DB	00H
	DB	00H
	DB	0baH
	DB	00H
	DB	00H
	DB	00H
	DB	0baH
	DB	00H
	DB	00H
	DB	00H
	DB	0baH
	DB	0d1H
	DB	0d1H
	DB	0d1H
	DB	0e8H
	DB	0ffH
	DB	0ffH
	DB	0ffH
	DB	0ffH
	DB	0ffH
	DB	0ffH
	DB	0ffH
	DB	0ffH
	DB	0d1H
	DB	0d1H
	DB	0d1H
	DB	0e8H
	DB	00H
	DB	00H
	DB	00H
	DB	0baH
	DB	00H
	DB	00H
	DB	00H
	DB	0baH
	DB	00H
	DB	00H
	DB	00H
	DB	0baH
	DB	00H
	DB	00H
	DB	00H
	DB	0baH
	DB	07cH
	DB	07cH
	DB	07cH
	DB	0ccH
	DB	0ffH
	DB	0ffH
	DB	0ffH
	DB	0ffH
	DB	0ffH
	DB	0ffH
	DB	0ffH
	DB	0ffH
	DB	0ffH
	DB	0ffH
	DB	0ffH
	DB	0ffH
	DB	00H
	DB	00H
	DB	00H
	DB	0baH
	DB	00H
	DB	00H
	DB	00H
	DB	0baH
	DB	00H
	DB	00H
	DB	00H
	DB	0baH
	DB	00H
	DB	00H
	DB	00H
	DB	0baH
	DB	00H
	DB	00H
	DB	00H
	DB	0baH
	DB	0acH
	DB	0acH
	DB	0acH
	DB	0daH
	DB	0ffH
	DB	0ffH
	DB	0ffH
	DB	0ffH
	DB	0ffH
	DB	0ffH
	DB	0ffH
	DB	0ffH
	DB	0ffH
	DB	0ffH
	DB	0ffH
	DB	0ffH
	DB	0ffH
	DB	0ffH
	DB	0ffH
	DB	0ffH
	DB	0ffH
	DB	0ffH
	DB	0ffH
	DB	0ffH
	DB	0ffH
	DB	0ffH
	DB	0ffH
	DB	0ffH
	DB	0ffH
	DB	0ffH
	DB	0ffH
	DB	0ffH
	DB	050H
	DB	050H
	DB	050H
	DB	0c3H
	DB	00H
	DB	00H
	DB	00H
	DB	0baH
	DB	00H
	DB	00H
	DB	00H
	DB	0baH
	DB	00H
	DB	00H
	DB	00H
	DB	0baH
	DB	00H
	DB	00H
	DB	00H
	DB	0baH
	DB	07cH
	DB	07cH
	DB	07cH
	DB	0ccH
	DB	0ffH
	DB	0ffH
	DB	0ffH
	DB	0ffH
	DB	0ffH
	DB	0ffH
	DB	0ffH
	DB	0ffH
	DB	0ffH
	DB	0ffH
	DB	0ffH
	DB	0ffH
	DB	050H
	DB	050H
	DB	050H
	DB	0c3H
	DB	00H
	DB	00H
	DB	00H
	DB	0baH
	DB	00H
	DB	00H
	DB	00H
	DB	0baH
	DB	00H
	DB	00H
	DB	00H
	DB	0baH
	DB	00H
	DB	00H
	DB	00H
	DB	0baH
	DB	00H
	DB	00H
	DB	00H
	DB	0baH
	DB	00H
	DB	00H
	DB	00H
	DB	0baH
	DB	00H
	DB	00H
	DB	00H
	DB	0baH
	DB	00H
	DB	00H
	DB	00H
	DB	0baH
	DB	00H
	DB	00H
	DB	00H
	DB	0baH
	DB	00H
	DB	00H
	DB	00H
	DB	0baH
	DB	00H
	DB	00H
	DB	00H
	DB	0baH
	DB	00H
	DB	00H
	DB	00H
	DB	0baH
	DB	00H
	DB	00H
	DB	00H
	DB	0baH
	DB	00H
	DB	00H
	DB	00H
	DB	0baH
	DB	00H
	DB	00H
	DB	00H
	DB	0baH
	DB	00H
	DB	00H
	DB	00H
	DB	0baH
	DB	00H
	DB	00H
	DB	00H
	DB	0baH
	DB	00H
	DB	00H
	DB	00H
	DB	0baH
	DB	00H
	DB	00H
	DB	00H
	DB	0baH
	DB	00H
	DB	00H
	DB	00H
	DB	0baH
	DB	00H
	DB	00H
	DB	00H
	DB	0baH
	DB	00H
	DB	00H
	DB	00H
	DB	0baH
	DB	00H
	DB	00H
	DB	00H
	DB	0baH
	DB	00H
	DB	00H
	DB	00H
	DB	0baH
	DB	00H
	DB	00H
	DB	00H
	DB	0baH
	DB	00H
	DB	00H
	DB	00H
	DB	0baH
	DB	00H
	DB	00H
	DB	00H
	DB	0baH
	DB	00H
	DB	00H
	DB	00H
	DB	0baH
	DB	00H
	DB	00H
	DB	00H
	DB	0baH
	DB	00H
	DB	00H
	DB	00H
	DB	0baH
	DB	00H
	DB	00H
	DB	00H
	DB	0baH
	DB	00H
	DB	00H
	DB	00H
	DB	0baH
	DB	00H
	DB	00H
	DB	00H
	DB	0baH
	DB	00H
	DB	00H
	DB	00H
	DB	0baH
	DB	00H
	DB	00H
	DB	00H
	DB	0baH
	DB	00H
	DB	00H
	DB	00H
	DB	0baH
	DB	00H
	DB	00H
	DB	00H
	DB	0baH
	DB	00H
	DB	00H
	DB	00H
	DB	0baH
	DB	00H
	DB	00H
	DB	00H
	DB	0baH
	DB	00H
	DB	00H
	DB	00H
	DB	0baH
	DB	00H
	DB	00H
	DB	00H
	DB	0baH
	DB	00H
	DB	00H
	DB	00H
	DB	0baH
	DB	00H
	DB	00H
	DB	00H
	DB	0baH
	DB	00H
	DB	00H
	DB	00H
	DB	0baH
	DB	00H
	DB	00H
	DB	00H
	DB	0baH
	DB	00H
	DB	00H
	DB	00H
	DB	0baH
	DB	00H
	DB	00H
	DB	00H
	DB	0baH
	DB	00H
	DB	00H
	DB	00H
	DB	0baH
	DB	00H
	DB	00H
	DB	00H
	DB	0baH
	DB	00H
	DB	00H
	DB	00H
	DB	0baH
	DB	00H
	DB	00H
	DB	00H
	DB	0baH
	DB	00H
	DB	00H
	DB	00H
	DB	0baH
	DB	00H
	DB	00H
	DB	00H
	DB	0baH
	DB	00H
	DB	00H
	DB	00H
	DB	0baH
	DB	00H
	DB	00H
	DB	00H
	DB	0baH
	DB	00H
	DB	00H
	DB	00H
	DB	0baH
	DB	00H
	DB	00H
	DB	00H
	DB	0baH
	DB	00H
	DB	00H
	DB	00H
	DB	0baH
	DB	00H
	DB	00H
	DB	00H
	DB	0baH
	DB	00H
	DB	00H
	DB	00H
	DB	0baH
	DB	00H
	DB	00H
	DB	00H
	DB	0baH
	DB	07cH
	DB	07cH
	DB	07cH
	DB	0ccH
	DB	0ffH
	DB	0ffH
	DB	0ffH
	DB	0ffH
	DB	0ffH
	DB	0ffH
	DB	0ffH
	DB	0ffH
	DB	0ffH
	DB	0ffH
	DB	0ffH
	DB	0ffH
	DB	050H
	DB	050H
	DB	050H
	DB	0c3H
	DB	00H
	DB	00H
	DB	00H
	DB	0baH
	DB	00H
	DB	00H
	DB	00H
	DB	0baH
	DB	00H
	DB	00H
	DB	00H
	DB	0baH
	DB	00H
	DB	00H
	DB	00H
	DB	0baH
	DB	00H
	DB	00H
	DB	00H
	DB	0baH
	DB	00H
	DB	00H
	DB	00H
	DB	0baH
	DB	00H
	DB	00H
	DB	00H
	DB	0baH
	DB	030H
	DB	030H
	DB	030H
	DB	0bfH
	DB	0ffH
	DB	0ffH
	DB	0ffH
	DB	0ffH
	DB	0ffH
	DB	0ffH
	DB	0ffH
	DB	0ffH
	DB	0ffH
	DB	0ffH
	DB	0ffH
	DB	0ffH
	DB	08eH
	DB	08eH
	DB	08eH
	DB	0d1H
	DB	00H
	DB	00H
	DB	00H
	DB	0baH
	DB	00H
	DB	00H
	DB	00H
	DB	0baH
	DB	00H
	DB	00H
	DB	00H
	DB	0baH
	DB	07cH
	DB	07cH
	DB	07cH
	DB	0ccH
	DB	0ffH
	DB	0ffH
	DB	0ffH
	DB	0ffH
	DB	0ffH
	DB	0ffH
	DB	0ffH
	DB	0ffH
	DB	0ffH
	DB	0ffH
	DB	0ffH
	DB	0ffH
	DB	068H
	DB	068H
	DB	068H
	DB	0c8H
	DB	00H
	DB	00H
	DB	00H
	DB	0baH
	DB	00H
	DB	00H
	DB	00H
	DB	0baH
	DB	00H
	DB	00H
	DB	00H
	DB	0baH
	DB	00H
	DB	00H
	DB	00H
	DB	0baH
	DB	00H
	DB	00H
	DB	00H
	DB	0baH
	DB	00H
	DB	00H
	DB	00H
	DB	0baH
	DB	00H
	DB	00H
	DB	00H
	DB	0baH
	DB	00H
	DB	00H
	DB	00H
	DB	0baH
	DB	00H
	DB	00H
	DB	00H
	DB	0baH
	DB	0e5H
	DB	0e5H
	DB	0e5H
	DB	0f1H
	DB	0ffH
	DB	0ffH
	DB	0ffH
	DB	0ffH
	DB	0ffH
	DB	0ffH
	DB	0ffH
	DB	0ffH
	DB	0c6H
	DB	0c6H
	DB	0c6H
	DB	0e3H
	DB	00H
	DB	00H
	DB	00H
	DB	0baH
	DB	00H
	DB	00H
	DB	00H
	DB	0baH
	DB	00H
	DB	00H
	DB	00H
	DB	0baH
	DB	00H
	DB	00H
	DB	00H
	DB	0baH
	DB	07cH
	DB	07cH
	DB	07cH
	DB	0ccH
	DB	0ffH
	DB	0ffH
	DB	0ffH
	DB	0ffH
	DB	0ffH
	DB	0ffH
	DB	0ffH
	DB	0ffH
	DB	0ffH
	DB	0ffH
	DB	0ffH
	DB	0ffH
	DB	00H
	DB	00H
	DB	00H
	DB	0baH
	DB	00H
	DB	00H
	DB	00H
	DB	0baH
	DB	00H
	DB	00H
	DB	00H
	DB	0baH
	DB	00H
	DB	00H
	DB	00H
	DB	0baH
	DB	00H
	DB	00H
	DB	00H
	DB	0baH
	DB	00H
	DB	00H
	DB	00H
	DB	0baH
	DB	0e5H
	DB	0e5H
	DB	0e5H
	DB	0f1H
	DB	0ffH
	DB	0ffH
	DB	0ffH
	DB	0ffH
	DB	0ffH
	DB	0ffH
	DB	0ffH
	DB	0ffH
	DB	0ffH
	DB	0ffH
	DB	0ffH
	DB	0ffH
	DB	0ffH
	DB	0ffH
	DB	0ffH
	DB	0ffH
	DB	0ffH
	DB	0ffH
	DB	0ffH
	DB	0ffH
	DB	0ffH
	DB	0ffH
	DB	0ffH
	DB	0ffH
	DB	050H
	DB	050H
	DB	050H
	DB	0c3H
	DB	00H
	DB	00H
	DB	00H
	DB	0baH
	DB	00H
	DB	00H
	DB	00H
	DB	0baH
	DB	00H
	DB	00H
	DB	00H
	DB	0baH
	DB	00H
	DB	00H
	DB	00H
	DB	0baH
	DB	07cH
	DB	07cH
	DB	07cH
	DB	0ccH
	DB	0ffH
	DB	0ffH
	DB	0ffH
	DB	0ffH
	DB	0ffH
	DB	0ffH
	DB	0ffH
	DB	0ffH
	DB	0ffH
	DB	0ffH
	DB	0ffH
	DB	0ffH
	DB	050H
	DB	050H
	DB	050H
	DB	0c3H
	DB	00H
	DB	00H
	DB	00H
	DB	0baH
	DB	00H
	DB	00H
	DB	00H
	DB	0baH
	DB	00H
	DB	00H
	DB	00H
	DB	0baH
	DB	00H
	DB	00H
	DB	00H
	DB	0baH
	DB	00H
	DB	00H
	DB	00H
	DB	0baH
	DB	00H
	DB	00H
	DB	00H
	DB	0baH
	DB	00H
	DB	00H
	DB	00H
	DB	0baH
	DB	00H
	DB	00H
	DB	00H
	DB	0baH
	DB	00H
	DB	00H
	DB	00H
	DB	0baH
	DB	00H
	DB	00H
	DB	00H
	DB	0baH
	DB	00H
	DB	00H
	DB	00H
	DB	0baH
	DB	00H
	DB	00H
	DB	00H
	DB	0baH
	DB	00H
	DB	00H
	DB	00H
	DB	0baH
	DB	00H
	DB	00H
	DB	00H
	DB	0baH
	DB	00H
	DB	00H
	DB	00H
	DB	0baH
	DB	00H
	DB	00H
	DB	00H
	DB	0baH
	DB	00H
	DB	00H
	DB	00H
	DB	0baH
	DB	00H
	DB	00H
	DB	00H
	DB	0baH
	DB	00H
	DB	00H
	DB	00H
	DB	0baH
	DB	00H
	DB	00H
	DB	00H
	DB	0baH
	DB	00H
	DB	00H
	DB	00H
	DB	0baH
	DB	00H
	DB	00H
	DB	00H
	DB	0baH
	DB	00H
	DB	00H
	DB	00H
	DB	0baH
	DB	00H
	DB	00H
	DB	00H
	DB	0baH
	DB	00H
	DB	00H
	DB	00H
	DB	0baH
	DB	00H
	DB	00H
	DB	00H
	DB	0baH
	DB	00H
	DB	00H
	DB	00H
	DB	0baH
	DB	00H
	DB	00H
	DB	00H
	DB	0baH
	DB	00H
	DB	00H
	DB	00H
	DB	0baH
	DB	00H
	DB	00H
	DB	00H
	DB	0baH
	DB	00H
	DB	00H
	DB	00H
	DB	0baH
	DB	00H
	DB	00H
	DB	00H
	DB	0baH
	DB	00H
	DB	00H
	DB	00H
	DB	0baH
	DB	00H
	DB	00H
	DB	00H
	DB	0baH
	DB	00H
	DB	00H
	DB	00H
	DB	0baH
	DB	00H
	DB	00H
	DB	00H
	DB	0baH
	DB	00H
	DB	00H
	DB	00H
	DB	0baH
	DB	00H
	DB	00H
	DB	00H
	DB	0baH
	DB	00H
	DB	00H
	DB	00H
	DB	0baH
	DB	00H
	DB	00H
	DB	00H
	DB	0baH
	DB	00H
	DB	00H
	DB	00H
	DB	0baH
	DB	00H
	DB	00H
	DB	00H
	DB	0baH
	DB	00H
	DB	00H
	DB	00H
	DB	0baH
	DB	00H
	DB	00H
	DB	00H
	DB	0baH
	DB	00H
	DB	00H
	DB	00H
	DB	0baH
	DB	00H
	DB	00H
	DB	00H
	DB	0baH
	DB	00H
	DB	00H
	DB	00H
	DB	0baH
	DB	00H
	DB	00H
	DB	00H
	DB	0baH
	DB	00H
	DB	00H
	DB	00H
	DB	0baH
	DB	00H
	DB	00H
	DB	00H
	DB	0baH
	DB	00H
	DB	00H
	DB	00H
	DB	0baH
	DB	00H
	DB	00H
	DB	00H
	DB	0baH
	DB	00H
	DB	00H
	DB	00H
	DB	0baH
	DB	00H
	DB	00H
	DB	00H
	DB	0baH
	DB	00H
	DB	00H
	DB	00H
	DB	0baH
	DB	00H
	DB	00H
	DB	00H
	DB	0baH
	DB	00H
	DB	00H
	DB	00H
	DB	0baH
	DB	00H
	DB	00H
	DB	00H
	DB	0baH
	DB	00H
	DB	00H
	DB	00H
	DB	0baH
	DB	00H
	DB	00H
	DB	00H
	DB	0baH
	DB	00H
	DB	00H
	DB	00H
	DB	0baH
	DB	07cH
	DB	07cH
	DB	07cH
	DB	0ccH
	DB	0ffH
	DB	0ffH
	DB	0ffH
	DB	0ffH
	DB	0ffH
	DB	0ffH
	DB	0ffH
	DB	0ffH
	DB	0ffH
	DB	0ffH
	DB	0ffH
	DB	0ffH
	DB	050H
	DB	050H
	DB	050H
	DB	0c3H
	DB	00H
	DB	00H
	DB	00H
	DB	0baH
	DB	00H
	DB	00H
	DB	00H
	DB	0baH
	DB	00H
	DB	00H
	DB	00H
	DB	0baH
	DB	00H
	DB	00H
	DB	00H
	DB	0baH
	DB	00H
	DB	00H
	DB	00H
	DB	0baH
	DB	00H
	DB	00H
	DB	00H
	DB	0baH
	DB	00H
	DB	00H
	DB	00H
	DB	0baH
	DB	08eH
	DB	08eH
	DB	08eH
	DB	0d1H
	DB	0ffH
	DB	0ffH
	DB	0ffH
	DB	0ffH
	DB	0ffH
	DB	0ffH
	DB	0ffH
	DB	0ffH
	DB	0ffH
	DB	0ffH
	DB	0ffH
	DB	0ffH
	DB	068H
	DB	068H
	DB	068H
	DB	0c8H
	DB	00H
	DB	00H
	DB	00H
	DB	0baH
	DB	00H
	DB	00H
	DB	00H
	DB	0baH
	DB	00H
	DB	00H
	DB	00H
	DB	0baH
	DB	030H
	DB	030H
	DB	030H
	DB	0bfH
	DB	0ffH
	DB	0ffH
	DB	0ffH
	DB	0ffH
	DB	0ffH
	DB	0ffH
	DB	0ffH
	DB	0ffH
	DB	0ffH
	DB	0ffH
	DB	0ffH
	DB	0ffH
	DB	0acH
	DB	0acH
	DB	0acH
	DB	0daH
	DB	00H
	DB	00H
	DB	00H
	DB	0baH
	DB	00H
	DB	00H
	DB	00H
	DB	0baH
	DB	00H
	DB	00H
	DB	00H
	DB	0baH
	DB	00H
	DB	00H
	DB	00H
	DB	0baH
	DB	00H
	DB	00H
	DB	00H
	DB	0baH
	DB	00H
	DB	00H
	DB	00H
	DB	0baH
	DB	00H
	DB	00H
	DB	00H
	DB	0baH
	DB	00H
	DB	00H
	DB	00H
	DB	0baH
	DB	030H
	DB	030H
	DB	030H
	DB	0bfH
	DB	0f7H
	DB	0f7H
	DB	0f7H
	DB	0faH
	DB	0ffH
	DB	0ffH
	DB	0ffH
	DB	0ffH
	DB	0ffH
	DB	0ffH
	DB	0ffH
	DB	0ffH
	DB	0acH
	DB	0acH
	DB	0acH
	DB	0daH
	DB	00H
	DB	00H
	DB	00H
	DB	0baH
	DB	00H
	DB	00H
	DB	00H
	DB	0baH
	DB	00H
	DB	00H
	DB	00H
	DB	0baH
	DB	00H
	DB	00H
	DB	00H
	DB	0baH
	DB	07cH
	DB	07cH
	DB	07cH
	DB	0ccH
	DB	0ffH
	DB	0ffH
	DB	0ffH
	DB	0ffH
	DB	0ffH
	DB	0ffH
	DB	0ffH
	DB	0ffH
	DB	0ffH
	DB	0ffH
	DB	0ffH
	DB	0ffH
	DB	00H
	DB	00H
	DB	00H
	DB	0baH
	DB	00H
	DB	00H
	DB	00H
	DB	0baH
	DB	00H
	DB	00H
	DB	00H
	DB	0baH
	DB	00H
	DB	00H
	DB	00H
	DB	0baH
	DB	00H
	DB	00H
	DB	00H
	DB	0baH
	DB	00H
	DB	00H
	DB	00H
	DB	0baH
	DB	050H
	DB	050H
	DB	050H
	DB	0c3H
	DB	0ffH
	DB	0ffH
	DB	0ffH
	DB	0ffH
	DB	0ffH
	DB	0ffH
	DB	0ffH
	DB	0ffH
	DB	0ffH
	DB	0ffH
	DB	0ffH
	DB	0ffH
	DB	0ffH
	DB	0ffH
	DB	0ffH
	DB	0ffH
	DB	0ffH
	DB	0ffH
	DB	0ffH
	DB	0ffH
	DB	0ffH
	DB	0ffH
	DB	0ffH
	DB	0ffH
	DB	050H
	DB	050H
	DB	050H
	DB	0c3H
	DB	00H
	DB	00H
	DB	00H
	DB	0baH
	DB	00H
	DB	00H
	DB	00H
	DB	0baH
	DB	00H
	DB	00H
	DB	00H
	DB	0baH
	DB	00H
	DB	00H
	DB	00H
	DB	0baH
	DB	07cH
	DB	07cH
	DB	07cH
	DB	0ccH
	DB	0ffH
	DB	0ffH
	DB	0ffH
	DB	0ffH
	DB	0ffH
	DB	0ffH
	DB	0ffH
	DB	0ffH
	DB	0ffH
	DB	0ffH
	DB	0ffH
	DB	0ffH
	DB	050H
	DB	050H
	DB	050H
	DB	0c3H
	DB	00H
	DB	00H
	DB	00H
	DB	0baH
	DB	00H
	DB	00H
	DB	00H
	DB	0baH
	DB	00H
	DB	00H
	DB	00H
	DB	0baH
	DB	00H
	DB	00H
	DB	00H
	DB	0baH
	DB	00H
	DB	00H
	DB	00H
	DB	0baH
	DB	00H
	DB	00H
	DB	00H
	DB	0baH
	DB	00H
	DB	00H
	DB	00H
	DB	0baH
	DB	00H
	DB	00H
	DB	00H
	DB	0baH
	DB	00H
	DB	00H
	DB	00H
	DB	0baH
	DB	00H
	DB	00H
	DB	00H
	DB	0baH
	DB	00H
	DB	00H
	DB	00H
	DB	0baH
	DB	00H
	DB	00H
	DB	00H
	DB	0baH
	DB	00H
	DB	00H
	DB	00H
	DB	0baH
	DB	00H
	DB	00H
	DB	00H
	DB	0baH
	DB	00H
	DB	00H
	DB	00H
	DB	0baH
	DB	00H
	DB	00H
	DB	00H
	DB	0baH
	DB	00H
	DB	00H
	DB	00H
	DB	0baH
	DB	00H
	DB	00H
	DB	00H
	DB	0baH
	DB	00H
	DB	00H
	DB	00H
	DB	0baH
	DB	00H
	DB	00H
	DB	00H
	DB	0baH
	DB	00H
	DB	00H
	DB	00H
	DB	0baH
	DB	00H
	DB	00H
	DB	00H
	DB	0baH
	DB	00H
	DB	00H
	DB	00H
	DB	0baH
	DB	00H
	DB	00H
	DB	00H
	DB	0baH
	DB	00H
	DB	00H
	DB	00H
	DB	0baH
	DB	00H
	DB	00H
	DB	00H
	DB	0baH
	DB	00H
	DB	00H
	DB	00H
	DB	0baH
	DB	00H
	DB	00H
	DB	00H
	DB	0baH
	DB	00H
	DB	00H
	DB	00H
	DB	0baH
	DB	00H
	DB	00H
	DB	00H
	DB	0baH
	DB	00H
	DB	00H
	DB	00H
	DB	0baH
	DB	00H
	DB	00H
	DB	00H
	DB	0baH
	DB	00H
	DB	00H
	DB	00H
	DB	0baH
	DB	00H
	DB	00H
	DB	00H
	DB	0baH
	DB	00H
	DB	00H
	DB	00H
	DB	0baH
	DB	00H
	DB	00H
	DB	00H
	DB	0baH
	DB	00H
	DB	00H
	DB	00H
	DB	0baH
	DB	00H
	DB	00H
	DB	00H
	DB	0baH
	DB	00H
	DB	00H
	DB	00H
	DB	0baH
	DB	00H
	DB	00H
	DB	00H
	DB	0baH
	DB	00H
	DB	00H
	DB	00H
	DB	0baH
	DB	00H
	DB	00H
	DB	00H
	DB	0baH
	DB	00H
	DB	00H
	DB	00H
	DB	0baH
	DB	00H
	DB	00H
	DB	00H
	DB	0baH
	DB	00H
	DB	00H
	DB	00H
	DB	0baH
	DB	00H
	DB	00H
	DB	00H
	DB	0baH
	DB	00H
	DB	00H
	DB	00H
	DB	0baH
	DB	00H
	DB	00H
	DB	00H
	DB	0baH
	DB	00H
	DB	00H
	DB	00H
	DB	0baH
	DB	00H
	DB	00H
	DB	00H
	DB	0baH
	DB	00H
	DB	00H
	DB	00H
	DB	0baH
	DB	00H
	DB	00H
	DB	00H
	DB	0baH
	DB	00H
	DB	00H
	DB	00H
	DB	0baH
	DB	00H
	DB	00H
	DB	00H
	DB	0baH
	DB	00H
	DB	00H
	DB	00H
	DB	0baH
	DB	00H
	DB	00H
	DB	00H
	DB	0baH
	DB	00H
	DB	00H
	DB	00H
	DB	0baH
	DB	00H
	DB	00H
	DB	00H
	DB	0baH
	DB	00H
	DB	00H
	DB	00H
	DB	0baH
	DB	00H
	DB	00H
	DB	00H
	DB	0baH
	DB	00H
	DB	00H
	DB	00H
	DB	0baH
	DB	07cH
	DB	07cH
	DB	07cH
	DB	0ccH
	DB	0ffH
	DB	0ffH
	DB	0ffH
	DB	0ffH
	DB	0ffH
	DB	0ffH
	DB	0ffH
	DB	0ffH
	DB	0ffH
	DB	0ffH
	DB	0ffH
	DB	0ffH
	DB	050H
	DB	050H
	DB	050H
	DB	0c3H
	DB	00H
	DB	00H
	DB	00H
	DB	0baH
	DB	00H
	DB	00H
	DB	00H
	DB	0baH
	DB	00H
	DB	00H
	DB	00H
	DB	0baH
	DB	00H
	DB	00H
	DB	00H
	DB	0baH
	DB	00H
	DB	00H
	DB	00H
	DB	0baH
	DB	00H
	DB	00H
	DB	00H
	DB	0baH
	DB	07cH
	DB	07cH
	DB	07cH
	DB	0ccH
	DB	0eeH
	DB	0eeH
	DB	0eeH
	DB	0f6H
	DB	0ffH
	DB	0ffH
	DB	0ffH
	DB	0ffH
	DB	0ffH
	DB	0ffH
	DB	0ffH
	DB	0ffH
	DB	0f7H
	DB	0f7H
	DB	0f7H
	DB	0faH
	DB	00H
	DB	00H
	DB	00H
	DB	0baH
	DB	00H
	DB	00H
	DB	00H
	DB	0baH
	DB	00H
	DB	00H
	DB	00H
	DB	0baH
	DB	00H
	DB	00H
	DB	00H
	DB	0baH
	DB	00H
	DB	00H
	DB	00H
	DB	0baH
	DB	0f7H
	DB	0f7H
	DB	0f7H
	DB	0faH
	DB	0ffH
	DB	0ffH
	DB	0ffH
	DB	0ffH
	DB	0ffH
	DB	0ffH
	DB	0ffH
	DB	0ffH
	DB	0eeH
	DB	0eeH
	DB	0eeH
	DB	0f6H
	DB	07cH
	DB	07cH
	DB	07cH
	DB	0ccH
	DB	00H
	DB	00H
	DB	00H
	DB	0baH
	DB	00H
	DB	00H
	DB	00H
	DB	0baH
	DB	00H
	DB	00H
	DB	00H
	DB	0baH
	DB	00H
	DB	00H
	DB	00H
	DB	0baH
	DB	00H
	DB	00H
	DB	00H
	DB	0baH
	DB	00H
	DB	00H
	DB	00H
	DB	0baH
	DB	030H
	DB	030H
	DB	030H
	DB	0bfH
	DB	0d1H
	DB	0d1H
	DB	0d1H
	DB	0e8H
	DB	0ffH
	DB	0ffH
	DB	0ffH
	DB	0ffH
	DB	0ffH
	DB	0ffH
	DB	0ffH
	DB	0ffH
	DB	0ffH
	DB	0ffH
	DB	0ffH
	DB	0ffH
	DB	08eH
	DB	08eH
	DB	08eH
	DB	0d1H
	DB	00H
	DB	00H
	DB	00H
	DB	0baH
	DB	00H
	DB	00H
	DB	00H
	DB	0baH
	DB	00H
	DB	00H
	DB	00H
	DB	0baH
	DB	00H
	DB	00H
	DB	00H
	DB	0baH
	DB	07cH
	DB	07cH
	DB	07cH
	DB	0ccH
	DB	0ffH
	DB	0ffH
	DB	0ffH
	DB	0ffH
	DB	0ffH
	DB	0ffH
	DB	0ffH
	DB	0ffH
	DB	0ffH
	DB	0ffH
	DB	0ffH
	DB	0ffH
	DB	00H
	DB	00H
	DB	00H
	DB	0baH
	DB	00H
	DB	00H
	DB	00H
	DB	0baH
	DB	00H
	DB	00H
	DB	00H
	DB	0baH
	DB	00H
	DB	00H
	DB	00H
	DB	0baH
	DB	00H
	DB	00H
	DB	00H
	DB	0baH
	DB	00H
	DB	00H
	DB	00H
	DB	0baH
	DB	00H
	DB	00H
	DB	00H
	DB	0baH
	DB	0acH
	DB	0acH
	DB	0acH
	DB	0daH
	DB	0ffH
	DB	0ffH
	DB	0ffH
	DB	0ffH
	DB	0ffH
	DB	0ffH
	DB	0ffH
	DB	0ffH
	DB	0ffH
	DB	0ffH
	DB	0ffH
	DB	0ffH
	DB	0ffH
	DB	0ffH
	DB	0ffH
	DB	0ffH
	DB	0ffH
	DB	0ffH
	DB	0ffH
	DB	0ffH
	DB	050H
	DB	050H
	DB	050H
	DB	0c3H
	DB	00H
	DB	00H
	DB	00H
	DB	0baH
	DB	00H
	DB	00H
	DB	00H
	DB	0baH
	DB	00H
	DB	00H
	DB	00H
	DB	0baH
	DB	00H
	DB	00H
	DB	00H
	DB	0baH
	DB	07cH
	DB	07cH
	DB	07cH
	DB	0ccH
	DB	0ffH
	DB	0ffH
	DB	0ffH
	DB	0ffH
	DB	0ffH
	DB	0ffH
	DB	0ffH
	DB	0ffH
	DB	0ffH
	DB	0ffH
	DB	0ffH
	DB	0ffH
	DB	050H
	DB	050H
	DB	050H
	DB	0c3H
	DB	00H
	DB	00H
	DB	00H
	DB	0baH
	DB	00H
	DB	00H
	DB	00H
	DB	0baH
	DB	00H
	DB	00H
	DB	00H
	DB	0baH
	DB	00H
	DB	00H
	DB	00H
	DB	0baH
	DB	00H
	DB	00H
	DB	00H
	DB	0baH
	DB	00H
	DB	00H
	DB	00H
	DB	0baH
	DB	00H
	DB	00H
	DB	00H
	DB	0baH
	DB	00H
	DB	00H
	DB	00H
	DB	0baH
	DB	00H
	DB	00H
	DB	00H
	DB	0baH
	DB	00H
	DB	00H
	DB	00H
	DB	0baH
	DB	00H
	DB	00H
	DB	00H
	DB	0baH
	DB	00H
	DB	00H
	DB	00H
	DB	0baH
	DB	00H
	DB	00H
	DB	00H
	DB	0baH
	DB	00H
	DB	00H
	DB	00H
	DB	0baH
	DB	00H
	DB	00H
	DB	00H
	DB	0baH
	DB	00H
	DB	00H
	DB	00H
	DB	0baH
	DB	00H
	DB	00H
	DB	00H
	DB	0baH
	DB	00H
	DB	00H
	DB	00H
	DB	0baH
	DB	00H
	DB	00H
	DB	00H
	DB	0baH
	DB	00H
	DB	00H
	DB	00H
	DB	0baH
	DB	00H
	DB	00H
	DB	00H
	DB	0baH
	DB	00H
	DB	00H
	DB	00H
	DB	0baH
	DB	00H
	DB	00H
	DB	00H
	DB	0baH
	DB	00H
	DB	00H
	DB	00H
	DB	0baH
	DB	00H
	DB	00H
	DB	00H
	DB	0baH
	DB	00H
	DB	00H
	DB	00H
	DB	0baH
	DB	00H
	DB	00H
	DB	00H
	DB	0baH
	DB	00H
	DB	00H
	DB	00H
	DB	0baH
	DB	00H
	DB	00H
	DB	00H
	DB	0baH
	DB	00H
	DB	00H
	DB	00H
	DB	0baH
	DB	00H
	DB	00H
	DB	00H
	DB	0baH
	DB	00H
	DB	00H
	DB	00H
	DB	0baH
	DB	00H
	DB	00H
	DB	00H
	DB	0baH
	DB	00H
	DB	00H
	DB	00H
	DB	0baH
	DB	00H
	DB	00H
	DB	00H
	DB	0baH
	DB	00H
	DB	00H
	DB	00H
	DB	0baH
	DB	00H
	DB	00H
	DB	00H
	DB	0baH
	DB	00H
	DB	00H
	DB	00H
	DB	0baH
	DB	00H
	DB	00H
	DB	00H
	DB	0baH
	DB	00H
	DB	00H
	DB	00H
	DB	0baH
	DB	00H
	DB	00H
	DB	00H
	DB	0baH
	DB	00H
	DB	00H
	DB	00H
	DB	0baH
	DB	00H
	DB	00H
	DB	00H
	DB	0baH
	DB	00H
	DB	00H
	DB	00H
	DB	0baH
	DB	00H
	DB	00H
	DB	00H
	DB	0baH
	DB	00H
	DB	00H
	DB	00H
	DB	0baH
	DB	00H
	DB	00H
	DB	00H
	DB	0baH
	DB	00H
	DB	00H
	DB	00H
	DB	0baH
	DB	00H
	DB	00H
	DB	00H
	DB	0baH
	DB	00H
	DB	00H
	DB	00H
	DB	0baH
	DB	00H
	DB	00H
	DB	00H
	DB	0baH
	DB	00H
	DB	00H
	DB	00H
	DB	0baH
	DB	00H
	DB	00H
	DB	00H
	DB	0baH
	DB	00H
	DB	00H
	DB	00H
	DB	0baH
	DB	00H
	DB	00H
	DB	00H
	DB	0baH
	DB	00H
	DB	00H
	DB	00H
	DB	0baH
	DB	00H
	DB	00H
	DB	00H
	DB	0baH
	DB	00H
	DB	00H
	DB	00H
	DB	0baH
	DB	00H
	DB	00H
	DB	00H
	DB	0baH
	DB	00H
	DB	00H
	DB	00H
	DB	0baH
	DB	00H
	DB	00H
	DB	00H
	DB	0baH
	DB	07cH
	DB	07cH
	DB	07cH
	DB	0ccH
	DB	0ffH
	DB	0ffH
	DB	0ffH
	DB	0ffH
	DB	0ffH
	DB	0ffH
	DB	0ffH
	DB	0ffH
	DB	0ffH
	DB	0ffH
	DB	0ffH
	DB	0ffH
	DB	0ffH
	DB	0ffH
	DB	0ffH
	DB	0ffH
	DB	0ffH
	DB	0ffH
	DB	0ffH
	DB	0ffH
	DB	0ffH
	DB	0ffH
	DB	0ffH
	DB	0ffH
	DB	0ffH
	DB	0ffH
	DB	0ffH
	DB	0ffH
	DB	0ffH
	DB	0ffH
	DB	0ffH
	DB	0ffH
	DB	0ffH
	DB	0ffH
	DB	0ffH
	DB	0ffH
	DB	0ffH
	DB	0ffH
	DB	0ffH
	DB	0ffH
	DB	0ffH
	DB	0ffH
	DB	0ffH
	DB	0ffH
	DB	0ffH
	DB	0ffH
	DB	0ffH
	DB	0ffH
	DB	0ffH
	DB	0ffH
	DB	0ffH
	DB	0ffH
	DB	0ffH
	DB	0ffH
	DB	0ffH
	DB	0ffH
	DB	0c6H
	DB	0c6H
	DB	0c6H
	DB	0e3H
	DB	00H
	DB	00H
	DB	00H
	DB	0baH
	DB	00H
	DB	00H
	DB	00H
	DB	0baH
	DB	00H
	DB	00H
	DB	00H
	DB	0baH
	DB	00H
	DB	00H
	DB	00H
	DB	0baH
	DB	00H
	DB	00H
	DB	00H
	DB	0baH
	DB	0acH
	DB	0acH
	DB	0acH
	DB	0daH
	DB	0ffH
	DB	0ffH
	DB	0ffH
	DB	0ffH
	DB	0ffH
	DB	0ffH
	DB	0ffH
	DB	0ffH
	DB	0ffH
	DB	0ffH
	DB	0ffH
	DB	0ffH
	DB	0ffH
	DB	0ffH
	DB	0ffH
	DB	0ffH
	DB	0ffH
	DB	0ffH
	DB	0ffH
	DB	0ffH
	DB	0ffH
	DB	0ffH
	DB	0ffH
	DB	0ffH
	DB	0ffH
	DB	0ffH
	DB	0ffH
	DB	0ffH
	DB	0ffH
	DB	0ffH
	DB	0ffH
	DB	0ffH
	DB	0ffH
	DB	0ffH
	DB	0ffH
	DB	0ffH
	DB	0ffH
	DB	0ffH
	DB	0ffH
	DB	0ffH
	DB	0ffH
	DB	0ffH
	DB	0ffH
	DB	0ffH
	DB	0ffH
	DB	0ffH
	DB	0ffH
	DB	0ffH
	DB	0ffH
	DB	0ffH
	DB	0ffH
	DB	0ffH
	DB	0ffH
	DB	0ffH
	DB	0ffH
	DB	0ffH
	DB	0eeH
	DB	0eeH
	DB	0eeH
	DB	0f6H
	DB	00H
	DB	00H
	DB	00H
	DB	0baH
	DB	00H
	DB	00H
	DB	00H
	DB	0baH
	DB	00H
	DB	00H
	DB	00H
	DB	0baH
	DB	00H
	DB	00H
	DB	00H
	DB	0baH
	DB	00H
	DB	00H
	DB	00H
	DB	0baH
	DB	07cH
	DB	07cH
	DB	07cH
	DB	0ccH
	DB	0ffH
	DB	0ffH
	DB	0ffH
	DB	0ffH
	DB	0ffH
	DB	0ffH
	DB	0ffH
	DB	0ffH
	DB	0ffH
	DB	0ffH
	DB	0ffH
	DB	0ffH
	DB	00H
	DB	00H
	DB	00H
	DB	0baH
	DB	00H
	DB	00H
	DB	00H
	DB	0baH
	DB	00H
	DB	00H
	DB	00H
	DB	0baH
	DB	00H
	DB	00H
	DB	00H
	DB	0baH
	DB	00H
	DB	00H
	DB	00H
	DB	0baH
	DB	00H
	DB	00H
	DB	00H
	DB	0baH
	DB	00H
	DB	00H
	DB	00H
	DB	0baH
	DB	00H
	DB	00H
	DB	00H
	DB	0baH
	DB	0e5H
	DB	0e5H
	DB	0e5H
	DB	0f1H
	DB	0ffH
	DB	0ffH
	DB	0ffH
	DB	0ffH
	DB	0ffH
	DB	0ffH
	DB	0ffH
	DB	0ffH
	DB	0ffH
	DB	0ffH
	DB	0ffH
	DB	0ffH
	DB	0ffH
	DB	0ffH
	DB	0ffH
	DB	0ffH
	DB	050H
	DB	050H
	DB	050H
	DB	0c3H
	DB	00H
	DB	00H
	DB	00H
	DB	0baH
	DB	00H
	DB	00H
	DB	00H
	DB	0baH
	DB	00H
	DB	00H
	DB	00H
	DB	0baH
	DB	00H
	DB	00H
	DB	00H
	DB	0baH
	DB	07cH
	DB	07cH
	DB	07cH
	DB	0ccH
	DB	0ffH
	DB	0ffH
	DB	0ffH
	DB	0ffH
	DB	0ffH
	DB	0ffH
	DB	0ffH
	DB	0ffH
	DB	0ffH
	DB	0ffH
	DB	0ffH
	DB	0ffH
	DB	0ffH
	DB	0ffH
	DB	0ffH
	DB	0ffH
	DB	0ffH
	DB	0ffH
	DB	0ffH
	DB	0ffH
	DB	0ffH
	DB	0ffH
	DB	0ffH
	DB	0ffH
	DB	0ffH
	DB	0ffH
	DB	0ffH
	DB	0ffH
	DB	0ffH
	DB	0ffH
	DB	0ffH
	DB	0ffH
	DB	0ffH
	DB	0ffH
	DB	0ffH
	DB	0ffH
	DB	0ffH
	DB	0ffH
	DB	0ffH
	DB	0ffH
	DB	0ffH
	DB	0ffH
	DB	0ffH
	DB	0ffH
	DB	0ffH
	DB	0ffH
	DB	0ffH
	DB	0ffH
	DB	0ffH
	DB	0ffH
	DB	0ffH
	DB	0ffH
	DB	0acH
	DB	0acH
	DB	0acH
	DB	0daH
	DB	00H
	DB	00H
	DB	00H
	DB	0baH
	DB	00H
	DB	00H
	DB	00H
	DB	0baH
	DB	00H
	DB	00H
	DB	00H
	DB	0baH
	DB	00H
	DB	00H
	DB	00H
	DB	0baH
	DB	00H
	DB	00H
	DB	00H
	DB	0baH
	DB	00H
	DB	00H
	DB	00H
	DB	0baH
	DB	00H
	DB	00H
	DB	00H
	DB	0baH
	DB	00H
	DB	00H
	DB	00H
	DB	0baH
	DB	00H
	DB	00H
	DB	00H
	DB	0baH
	DB	00H
	DB	00H
	DB	00H
	DB	0baH
	DB	00H
	DB	00H
	DB	00H
	DB	0baH
	DB	00H
	DB	00H
	DB	00H
	DB	0baH
	DB	00H
	DB	00H
	DB	00H
	DB	0baH
	DB	00H
	DB	00H
	DB	00H
	DB	0baH
	DB	00H
	DB	00H
	DB	00H
	DB	0baH
	DB	00H
	DB	00H
	DB	00H
	DB	0baH
	DB	00H
	DB	00H
	DB	00H
	DB	0baH
	DB	00H
	DB	00H
	DB	00H
	DB	0baH
	DB	00H
	DB	00H
	DB	00H
	DB	0baH
	DB	00H
	DB	00H
	DB	00H
	DB	0baH
	DB	00H
	DB	00H
	DB	00H
	DB	0baH
	DB	00H
	DB	00H
	DB	00H
	DB	0baH
	DB	00H
	DB	00H
	DB	00H
	DB	0baH
	DB	00H
	DB	00H
	DB	00H
	DB	0baH
	DB	00H
	DB	00H
	DB	00H
	DB	0baH
	DB	00H
	DB	00H
	DB	00H
	DB	0baH
	DB	00H
	DB	00H
	DB	00H
	DB	0baH
	DB	00H
	DB	00H
	DB	00H
	DB	0baH
	DB	00H
	DB	00H
	DB	00H
	DB	0baH
	DB	00H
	DB	00H
	DB	00H
	DB	0baH
	DB	00H
	DB	00H
	DB	00H
	DB	0baH
	DB	00H
	DB	00H
	DB	00H
	DB	0baH
	DB	00H
	DB	00H
	DB	00H
	DB	0baH
	DB	00H
	DB	00H
	DB	00H
	DB	0baH
	DB	00H
	DB	00H
	DB	00H
	DB	0baH
	DB	00H
	DB	00H
	DB	00H
	DB	0baH
	DB	00H
	DB	00H
	DB	00H
	DB	0baH
	DB	00H
	DB	00H
	DB	00H
	DB	0baH
	DB	00H
	DB	00H
	DB	00H
	DB	0baH
	DB	00H
	DB	00H
	DB	00H
	DB	0baH
	DB	00H
	DB	00H
	DB	00H
	DB	0baH
	DB	00H
	DB	00H
	DB	00H
	DB	0baH
	DB	00H
	DB	00H
	DB	00H
	DB	0baH
	DB	00H
	DB	00H
	DB	00H
	DB	0baH
	DB	00H
	DB	00H
	DB	00H
	DB	0baH
	DB	00H
	DB	00H
	DB	00H
	DB	0baH
	DB	00H
	DB	00H
	DB	00H
	DB	0baH
	DB	00H
	DB	00H
	DB	00H
	DB	0baH
	DB	00H
	DB	00H
	DB	00H
	DB	0baH
	DB	00H
	DB	00H
	DB	00H
	DB	0baH
	DB	00H
	DB	00H
	DB	00H
	DB	0baH
	DB	07cH
	DB	07cH
	DB	07cH
	DB	0ccH
	DB	0ffH
	DB	0ffH
	DB	0ffH
	DB	0ffH
	DB	0ffH
	DB	0ffH
	DB	0ffH
	DB	0ffH
	DB	0ffH
	DB	0ffH
	DB	0ffH
	DB	0ffH
	DB	0ffH
	DB	0ffH
	DB	0ffH
	DB	0ffH
	DB	0ffH
	DB	0ffH
	DB	0ffH
	DB	0ffH
	DB	0ffH
	DB	0ffH
	DB	0ffH
	DB	0ffH
	DB	0ffH
	DB	0ffH
	DB	0ffH
	DB	0ffH
	DB	0ffH
	DB	0ffH
	DB	0ffH
	DB	0ffH
	DB	0ffH
	DB	0ffH
	DB	0ffH
	DB	0ffH
	DB	0ffH
	DB	0ffH
	DB	0ffH
	DB	0ffH
	DB	0ffH
	DB	0ffH
	DB	0ffH
	DB	0ffH
	DB	0ffH
	DB	0ffH
	DB	0ffH
	DB	0ffH
	DB	0ffH
	DB	0ffH
	DB	0ffH
	DB	0ffH
	DB	0dbH
	DB	0dbH
	DB	0dbH
	DB	0edH
	DB	030H
	DB	030H
	DB	030H
	DB	0bfH
	DB	00H
	DB	00H
	DB	00H
	DB	0baH
	DB	00H
	DB	00H
	DB	00H
	DB	0baH
	DB	00H
	DB	00H
	DB	00H
	DB	0baH
	DB	00H
	DB	00H
	DB	00H
	DB	0baH
	DB	00H
	DB	00H
	DB	00H
	DB	0baH
	DB	00H
	DB	00H
	DB	00H
	DB	0baH
	DB	0d1H
	DB	0d1H
	DB	0d1H
	DB	0e8H
	DB	0ffH
	DB	0ffH
	DB	0ffH
	DB	0ffH
	DB	0ffH
	DB	0ffH
	DB	0ffH
	DB	0ffH
	DB	0ffH
	DB	0ffH
	DB	0ffH
	DB	0ffH
	DB	0ffH
	DB	0ffH
	DB	0ffH
	DB	0ffH
	DB	0ffH
	DB	0ffH
	DB	0ffH
	DB	0ffH
	DB	0ffH
	DB	0ffH
	DB	0ffH
	DB	0ffH
	DB	0ffH
	DB	0ffH
	DB	0ffH
	DB	0ffH
	DB	0ffH
	DB	0ffH
	DB	0ffH
	DB	0ffH
	DB	0ffH
	DB	0ffH
	DB	0ffH
	DB	0ffH
	DB	0ffH
	DB	0ffH
	DB	0ffH
	DB	0ffH
	DB	0ffH
	DB	0ffH
	DB	0ffH
	DB	0ffH
	DB	0ffH
	DB	0ffH
	DB	0ffH
	DB	0ffH
	DB	0eeH
	DB	0eeH
	DB	0eeH
	DB	0f6H
	DB	068H
	DB	068H
	DB	068H
	DB	0c8H
	DB	00H
	DB	00H
	DB	00H
	DB	0baH
	DB	00H
	DB	00H
	DB	00H
	DB	0baH
	DB	00H
	DB	00H
	DB	00H
	DB	0baH
	DB	00H
	DB	00H
	DB	00H
	DB	0baH
	DB	00H
	DB	00H
	DB	00H
	DB	0baH
	DB	07cH
	DB	07cH
	DB	07cH
	DB	0ccH
	DB	0ffH
	DB	0ffH
	DB	0ffH
	DB	0ffH
	DB	0ffH
	DB	0ffH
	DB	0ffH
	DB	0ffH
	DB	0ffH
	DB	0ffH
	DB	0ffH
	DB	0ffH
	DB	00H
	DB	00H
	DB	00H
	DB	0baH
	DB	00H
	DB	00H
	DB	00H
	DB	0baH
	DB	00H
	DB	00H
	DB	00H
	DB	0baH
	DB	00H
	DB	00H
	DB	00H
	DB	0baH
	DB	00H
	DB	00H
	DB	00H
	DB	0baH
	DB	00H
	DB	00H
	DB	00H
	DB	0baH
	DB	00H
	DB	00H
	DB	00H
	DB	0baH
	DB	00H
	DB	00H
	DB	00H
	DB	0baH
	DB	050H
	DB	050H
	DB	050H
	DB	0c3H
	DB	0ffH
	DB	0ffH
	DB	0ffH
	DB	0ffH
	DB	0ffH
	DB	0ffH
	DB	0ffH
	DB	0ffH
	DB	0ffH
	DB	0ffH
	DB	0ffH
	DB	0ffH
	DB	0ffH
	DB	0ffH
	DB	0ffH
	DB	0ffH
	DB	050H
	DB	050H
	DB	050H
	DB	0c3H
	DB	00H
	DB	00H
	DB	00H
	DB	0baH
	DB	00H
	DB	00H
	DB	00H
	DB	0baH
	DB	00H
	DB	00H
	DB	00H
	DB	0baH
	DB	00H
	DB	00H
	DB	00H
	DB	0baH
	DB	07cH
	DB	07cH
	DB	07cH
	DB	0ccH
	DB	0ffH
	DB	0ffH
	DB	0ffH
	DB	0ffH
	DB	0ffH
	DB	0ffH
	DB	0ffH
	DB	0ffH
	DB	0ffH
	DB	0ffH
	DB	0ffH
	DB	0ffH
	DB	0ffH
	DB	0ffH
	DB	0ffH
	DB	0ffH
	DB	0ffH
	DB	0ffH
	DB	0ffH
	DB	0ffH
	DB	0ffH
	DB	0ffH
	DB	0ffH
	DB	0ffH
	DB	0ffH
	DB	0ffH
	DB	0ffH
	DB	0ffH
	DB	0ffH
	DB	0ffH
	DB	0ffH
	DB	0ffH
	DB	0ffH
	DB	0ffH
	DB	0ffH
	DB	0ffH
	DB	0ffH
	DB	0ffH
	DB	0ffH
	DB	0ffH
	DB	0ffH
	DB	0ffH
	DB	0ffH
	DB	0ffH
	DB	0ffH
	DB	0ffH
	DB	0ffH
	DB	0ffH
	DB	0ffH
	DB	0ffH
	DB	0ffH
	DB	0ffH
	DB	0acH
	DB	0acH
	DB	0acH
	DB	0daH
	DB	00H
	DB	00H
	DB	00H
	DB	0baH
	DB	00H
	DB	00H
	DB	00H
	DB	0baH
	DB	00H
	DB	00H
	DB	00H
	DB	0baH
	DB	00H
	DB	00H
	DB	00H
	DB	0baH
	DB	00H
	DB	00H
	DB	00H
	DB	0baH
	DB	00H
	DB	00H
	DB	00H
	DB	0baH
	DB	00H
	DB	00H
	DB	00H
	DB	0baH
	DB	00H
	DB	00H
	DB	00H
	DB	0baH
	DB	00H
	DB	00H
	DB	00H
	DB	0baH
	DB	00H
	DB	00H
	DB	00H
	DB	0baH
	DB	00H
	DB	00H
	DB	00H
	DB	0baH
	DB	00H
	DB	00H
	DB	00H
	DB	0baH
	DB	00H
	DB	00H
	DB	00H
	DB	0baH
	DB	00H
	DB	00H
	DB	00H
	DB	0baH
	DB	00H
	DB	00H
	DB	00H
	DB	0baH
	DB	00H
	DB	00H
	DB	00H
	DB	0baH
	DB	00H
	DB	00H
	DB	00H
	DB	0baH
	DB	00H
	DB	00H
	DB	00H
	DB	0baH
	DB	00H
	DB	00H
	DB	00H
	DB	0baH
	DB	00H
	DB	00H
	DB	00H
	DB	0baH
	DB	00H
	DB	00H
	DB	00H
	DB	0baH
	DB	00H
	DB	00H
	DB	00H
	DB	0baH
	DB	00H
	DB	00H
	DB	00H
	DB	0baH
	DB	00H
	DB	00H
	DB	00H
	DB	0baH
	DB	00H
	DB	00H
	DB	00H
	DB	0baH
	DB	00H
	DB	00H
	DB	00H
	DB	0baH
	DB	00H
	DB	00H
	DB	00H
	DB	0baH
	DB	00H
	DB	00H
	DB	00H
	DB	0baH
	DB	00H
	DB	00H
	DB	00H
	DB	0baH
	DB	00H
	DB	00H
	DB	00H
	DB	0baH
	DB	00H
	DB	00H
	DB	00H
	DB	0baH
	DB	00H
	DB	00H
	DB	00H
	DB	0baH
	DB	00H
	DB	00H
	DB	00H
	DB	0baH
	DB	00H
	DB	00H
	DB	00H
	DB	0baH
	DB	00H
	DB	00H
	DB	00H
	DB	0baH
	DB	00H
	DB	00H
	DB	00H
	DB	0baH
	DB	00H
	DB	00H
	DB	00H
	DB	0baH
	DB	00H
	DB	00H
	DB	00H
	DB	0baH
	DB	00H
	DB	00H
	DB	00H
	DB	0baH
	DB	00H
	DB	00H
	DB	00H
	DB	0baH
	DB	00H
	DB	00H
	DB	00H
	DB	0baH
	DB	00H
	DB	00H
	DB	00H
	DB	0baH
	DB	00H
	DB	00H
	DB	00H
	DB	0baH
	DB	00H
	DB	00H
	DB	00H
	DB	0baH
	DB	00H
	DB	00H
	DB	00H
	DB	0baH
	DB	00H
	DB	00H
	DB	00H
	DB	0baH
	DB	00H
	DB	00H
	DB	00H
	DB	0baH
	DB	00H
	DB	00H
	DB	00H
	DB	0baH
	DB	00H
	DB	00H
	DB	00H
	DB	0baH
	DB	00H
	DB	00H
	DB	00H
	DB	0baH
	DB	00H
	DB	00H
	DB	00H
	DB	0baH
	DB	07cH
	DB	07cH
	DB	07cH
	DB	0ccH
	DB	0ffH
	DB	0ffH
	DB	0ffH
	DB	0ffH
	DB	0ffH
	DB	0ffH
	DB	0ffH
	DB	0ffH
	DB	0ffH
	DB	0ffH
	DB	0ffH
	DB	0ffH
	DB	0ffH
	DB	0ffH
	DB	0ffH
	DB	0ffH
	DB	0ffH
	DB	0ffH
	DB	0ffH
	DB	0ffH
	DB	0ffH
	DB	0ffH
	DB	0ffH
	DB	0ffH
	DB	0ffH
	DB	0ffH
	DB	0ffH
	DB	0ffH
	DB	0ffH
	DB	0ffH
	DB	0ffH
	DB	0ffH
	DB	0ffH
	DB	0ffH
	DB	0ffH
	DB	0ffH
	DB	0ffH
	DB	0ffH
	DB	0ffH
	DB	0ffH
	DB	0e5H
	DB	0e5H
	DB	0e5H
	DB	0f1H
	DB	0acH
	DB	0acH
	DB	0acH
	DB	0daH
	DB	08eH
	DB	08eH
	DB	08eH
	DB	0d1H
	DB	00H
	DB	00H
	DB	00H
	DB	0baH
	DB	00H
	DB	00H
	DB	00H
	DB	0baH
	DB	00H
	DB	00H
	DB	00H
	DB	0baH
	DB	00H
	DB	00H
	DB	00H
	DB	0baH
	DB	00H
	DB	00H
	DB	00H
	DB	0baH
	DB	00H
	DB	00H
	DB	00H
	DB	0baH
	DB	00H
	DB	00H
	DB	00H
	DB	0baH
	DB	00H
	DB	00H
	DB	00H
	DB	0baH
	DB	00H
	DB	00H
	DB	00H
	DB	0baH
	DB	07cH
	DB	07cH
	DB	07cH
	DB	0ccH
	DB	0acH
	DB	0acH
	DB	0acH
	DB	0daH
	DB	0e5H
	DB	0e5H
	DB	0e5H
	DB	0f1H
	DB	0ffH
	DB	0ffH
	DB	0ffH
	DB	0ffH
	DB	0ffH
	DB	0ffH
	DB	0ffH
	DB	0ffH
	DB	0ffH
	DB	0ffH
	DB	0ffH
	DB	0ffH
	DB	0ffH
	DB	0ffH
	DB	0ffH
	DB	0ffH
	DB	0ffH
	DB	0ffH
	DB	0ffH
	DB	0ffH
	DB	0ffH
	DB	0ffH
	DB	0ffH
	DB	0ffH
	DB	0ffH
	DB	0ffH
	DB	0ffH
	DB	0ffH
	DB	0acH
	DB	0acH
	DB	0acH
	DB	0daH
	DB	0acH
	DB	0acH
	DB	0acH
	DB	0daH
	DB	00H
	DB	00H
	DB	00H
	DB	0baH
	DB	00H
	DB	00H
	DB	00H
	DB	0baH
	DB	00H
	DB	00H
	DB	00H
	DB	0baH
	DB	00H
	DB	00H
	DB	00H
	DB	0baH
	DB	00H
	DB	00H
	DB	00H
	DB	0baH
	DB	00H
	DB	00H
	DB	00H
	DB	0baH
	DB	00H
	DB	00H
	DB	00H
	DB	0baH
	DB	07cH
	DB	07cH
	DB	07cH
	DB	0ccH
	DB	0ffH
	DB	0ffH
	DB	0ffH
	DB	0ffH
	DB	0ffH
	DB	0ffH
	DB	0ffH
	DB	0ffH
	DB	0ffH
	DB	0ffH
	DB	0ffH
	DB	0ffH
	DB	00H
	DB	00H
	DB	00H
	DB	0baH
	DB	00H
	DB	00H
	DB	00H
	DB	0baH
	DB	00H
	DB	00H
	DB	00H
	DB	0baH
	DB	00H
	DB	00H
	DB	00H
	DB	0baH
	DB	00H
	DB	00H
	DB	00H
	DB	0baH
	DB	00H
	DB	00H
	DB	00H
	DB	0baH
	DB	00H
	DB	00H
	DB	00H
	DB	0baH
	DB	00H
	DB	00H
	DB	00H
	DB	0baH
	DB	00H
	DB	00H
	DB	00H
	DB	0baH
	DB	0acH
	DB	0acH
	DB	0acH
	DB	0daH
	DB	0ffH
	DB	0ffH
	DB	0ffH
	DB	0ffH
	DB	0ffH
	DB	0ffH
	DB	0ffH
	DB	0ffH
	DB	0ffH
	DB	0ffH
	DB	0ffH
	DB	0ffH
	DB	050H
	DB	050H
	DB	050H
	DB	0c3H
	DB	00H
	DB	00H
	DB	00H
	DB	0baH
	DB	00H
	DB	00H
	DB	00H
	DB	0baH
	DB	00H
	DB	00H
	DB	00H
	DB	0baH
	DB	00H
	DB	00H
	DB	00H
	DB	0baH
	DB	07cH
	DB	07cH
	DB	07cH
	DB	0ccH
	DB	0ffH
	DB	0ffH
	DB	0ffH
	DB	0ffH
	DB	0ffH
	DB	0ffH
	DB	0ffH
	DB	0ffH
	DB	0ffH
	DB	0ffH
	DB	0ffH
	DB	0ffH
	DB	0ffH
	DB	0ffH
	DB	0ffH
	DB	0ffH
	DB	0ffH
	DB	0ffH
	DB	0ffH
	DB	0ffH
	DB	0ffH
	DB	0ffH
	DB	0ffH
	DB	0ffH
	DB	0ffH
	DB	0ffH
	DB	0ffH
	DB	0ffH
	DB	0ffH
	DB	0ffH
	DB	0ffH
	DB	0ffH
	DB	0ffH
	DB	0ffH
	DB	0ffH
	DB	0ffH
	DB	0ffH
	DB	0ffH
	DB	0ffH
	DB	0ffH
	DB	0ffH
	DB	0ffH
	DB	0ffH
	DB	0ffH
	DB	0ffH
	DB	0ffH
	DB	0ffH
	DB	0ffH
	DB	0ffH
	DB	0ffH
	DB	0ffH
	DB	0ffH
	DB	0acH
	DB	0acH
	DB	0acH
	DB	0daH
	DB	00H
	DB	00H
	DB	00H
	DB	0baH
	DB	00H
	DB	00H
	DB	00H
	DB	0baH
	DB	00H
	DB	00H
	DB	00H
	DB	0baH
	DB	00H
	DB	00H
	DB	00H
	DB	0baH
	DB	00H
	DB	00H
	DB	00H
	DB	0baH
	DB	00H
	DB	00H
	DB	00H
	DB	0baH
	DB	00H
	DB	00H
	DB	00H
	DB	0baH
	DB	00H
	DB	00H
	DB	00H
	DB	0baH
	DB	00H
	DB	00H
	DB	00H
	DB	0baH
	DB	00H
	DB	00H
	DB	00H
	DB	0baH
	DB	00H
	DB	00H
	DB	00H
	DB	0baH
	DB	00H
	DB	00H
	DB	00H
	DB	0baH
	DB	00H
	DB	00H
	DB	00H
	DB	0baH
	DB	00H
	DB	00H
	DB	00H
	DB	0baH
	DB	00H
	DB	00H
	DB	00H
	DB	0baH
	DB	00H
	DB	00H
	DB	00H
	DB	0baH
	DB	00H
	DB	00H
	DB	00H
	DB	0baH
	DB	00H
	DB	00H
	DB	00H
	DB	0baH
	DB	00H
	DB	00H
	DB	00H
	DB	0baH
	DB	00H
	DB	00H
	DB	00H
	DB	0baH
	DB	00H
	DB	00H
	DB	00H
	DB	0baH
	DB	00H
	DB	00H
	DB	00H
	DB	0baH
	DB	00H
	DB	00H
	DB	00H
	DB	0baH
	DB	00H
	DB	00H
	DB	00H
	DB	0baH
	DB	00H
	DB	00H
	DB	00H
	DB	0baH
	DB	00H
	DB	00H
	DB	00H
	DB	0baH
	DB	00H
	DB	00H
	DB	00H
	DB	0baH
	DB	00H
	DB	00H
	DB	00H
	DB	0baH
	DB	00H
	DB	00H
	DB	00H
	DB	0baH
	DB	00H
	DB	00H
	DB	00H
	DB	0baH
	DB	00H
	DB	00H
	DB	00H
	DB	0baH
	DB	00H
	DB	00H
	DB	00H
	DB	0baH
	DB	00H
	DB	00H
	DB	00H
	DB	0baH
	DB	00H
	DB	00H
	DB	00H
	DB	0baH
	DB	00H
	DB	00H
	DB	00H
	DB	0baH
	DB	00H
	DB	00H
	DB	00H
	DB	0baH
	DB	00H
	DB	00H
	DB	00H
	DB	0baH
	DB	00H
	DB	00H
	DB	00H
	DB	0baH
	DB	00H
	DB	00H
	DB	00H
	DB	0baH
	DB	00H
	DB	00H
	DB	00H
	DB	0baH
	DB	00H
	DB	00H
	DB	00H
	DB	0baH
	DB	00H
	DB	00H
	DB	00H
	DB	0baH
	DB	00H
	DB	00H
	DB	00H
	DB	0baH
	DB	00H
	DB	00H
	DB	00H
	DB	0baH
	DB	00H
	DB	00H
	DB	00H
	DB	0baH
	DB	00H
	DB	00H
	DB	00H
	DB	0baH
	DB	00H
	DB	00H
	DB	00H
	DB	0baH
	DB	00H
	DB	00H
	DB	00H
	DB	0baH
	DB	00H
	DB	00H
	DB	00H
	DB	0baH
	DB	00H
	DB	00H
	DB	00H
	DB	0baH
	DB	00H
	DB	00H
	DB	00H
	DB	0baH
	DB	00H
	DB	00H
	DB	00H
	DB	0baH
	DB	00H
	DB	00H
	DB	00H
	DB	0baH
	DB	00H
	DB	00H
	DB	00H
	DB	0baH
	DB	00H
	DB	00H
	DB	00H
	DB	0baH
	DB	00H
	DB	00H
	DB	00H
	DB	0baH
	DB	00H
	DB	00H
	DB	00H
	DB	0baH
	DB	00H
	DB	00H
	DB	00H
	DB	0baH
	DB	00H
	DB	00H
	DB	00H
	DB	0baH
	DB	00H
	DB	00H
	DB	00H
	DB	0baH
	DB	00H
	DB	00H
	DB	00H
	DB	0baH
	DB	00H
	DB	00H
	DB	00H
	DB	0baH
	DB	00H
	DB	00H
	DB	00H
	DB	0baH
	DB	00H
	DB	00H
	DB	00H
	DB	0baH
	DB	00H
	DB	00H
	DB	00H
	DB	0baH
	DB	00H
	DB	00H
	DB	00H
	DB	0baH
	DB	00H
	DB	00H
	DB	00H
	DB	0baH
	DB	00H
	DB	00H
	DB	00H
	DB	0baH
	DB	00H
	DB	00H
	DB	00H
	DB	0baH
	DB	00H
	DB	00H
	DB	00H
	DB	0baH
	DB	00H
	DB	00H
	DB	00H
	DB	0baH
	DB	00H
	DB	00H
	DB	00H
	DB	0baH
	DB	00H
	DB	00H
	DB	00H
	DB	0baH
	DB	00H
	DB	00H
	DB	00H
	DB	0baH
	DB	00H
	DB	00H
	DB	00H
	DB	0baH
	DB	00H
	DB	00H
	DB	00H
	DB	0baH
	DB	00H
	DB	00H
	DB	00H
	DB	0baH
	DB	00H
	DB	00H
	DB	00H
	DB	0baH
	DB	00H
	DB	00H
	DB	00H
	DB	0baH
	DB	00H
	DB	00H
	DB	00H
	DB	0baH
	DB	00H
	DB	00H
	DB	00H
	DB	0baH
	DB	00H
	DB	00H
	DB	00H
	DB	0baH
	DB	00H
	DB	00H
	DB	00H
	DB	0baH
	DB	00H
	DB	00H
	DB	00H
	DB	0baH
	DB	00H
	DB	00H
	DB	00H
	DB	0baH
	DB	00H
	DB	00H
	DB	00H
	DB	0baH
	DB	00H
	DB	00H
	DB	00H
	DB	0baH
	DB	00H
	DB	00H
	DB	00H
	DB	0baH
	DB	00H
	DB	00H
	DB	00H
	DB	0baH
	DB	00H
	DB	00H
	DB	00H
	DB	0baH
	DB	00H
	DB	00H
	DB	00H
	DB	0baH
	DB	00H
	DB	00H
	DB	00H
	DB	0baH
	DB	00H
	DB	00H
	DB	00H
	DB	0baH
	DB	00H
	DB	00H
	DB	00H
	DB	0baH
	DB	00H
	DB	00H
	DB	00H
	DB	0baH
	DB	00H
	DB	00H
	DB	00H
	DB	0baH
	DB	00H
	DB	00H
	DB	00H
	DB	0baH
	DB	00H
	DB	00H
	DB	00H
	DB	0baH
	DB	00H
	DB	00H
	DB	00H
	DB	0baH
	DB	00H
	DB	00H
	DB	00H
	DB	0baH
	DB	00H
	DB	00H
	DB	00H
	DB	0baH
	DB	00H
	DB	00H
	DB	00H
	DB	0baH
	DB	00H
	DB	00H
	DB	00H
	DB	0baH
	DB	00H
	DB	00H
	DB	00H
	DB	0baH
	DB	00H
	DB	00H
	DB	00H
	DB	0baH
	DB	00H
	DB	00H
	DB	00H
	DB	0baH
	DB	00H
	DB	00H
	DB	00H
	DB	0baH
	DB	00H
	DB	00H
	DB	00H
	DB	0baH
	DB	00H
	DB	00H
	DB	00H
	DB	0baH
	DB	00H
	DB	00H
	DB	00H
	DB	0baH
	DB	00H
	DB	00H
	DB	00H
	DB	0baH
	DB	00H
	DB	00H
	DB	00H
	DB	0baH
	DB	00H
	DB	00H
	DB	00H
	DB	0baH
	DB	00H
	DB	00H
	DB	00H
	DB	0baH
	DB	00H
	DB	00H
	DB	00H
	DB	0baH
	DB	00H
	DB	00H
	DB	00H
	DB	0baH
	DB	00H
	DB	00H
	DB	00H
	DB	0baH
	DB	00H
	DB	00H
	DB	00H
	DB	0baH
	DB	00H
	DB	00H
	DB	00H
	DB	0baH
	DB	00H
	DB	00H
	DB	00H
	DB	0baH
	DB	00H
	DB	00H
	DB	00H
	DB	0baH
	DB	00H
	DB	00H
	DB	00H
	DB	0baH
	DB	00H
	DB	00H
	DB	00H
	DB	0baH
	DB	00H
	DB	00H
	DB	00H
	DB	0baH
	DB	00H
	DB	00H
	DB	00H
	DB	0baH
	DB	00H
	DB	00H
	DB	00H
	DB	0baH
	DB	00H
	DB	00H
	DB	00H
	DB	0baH
	DB	00H
	DB	00H
	DB	00H
	DB	0baH
	DB	00H
	DB	00H
	DB	00H
	DB	0baH
	DB	00H
	DB	00H
	DB	00H
	DB	0baH
	DB	00H
	DB	00H
	DB	00H
	DB	0baH
	DB	00H
	DB	00H
	DB	00H
	DB	0baH
	DB	00H
	DB	00H
	DB	00H
	DB	0baH
	DB	00H
	DB	00H
	DB	00H
	DB	0baH
	DB	00H
	DB	00H
	DB	00H
	DB	0baH
	DB	00H
	DB	00H
	DB	00H
	DB	0baH
	DB	00H
	DB	00H
	DB	00H
	DB	0baH
	DB	00H
	DB	00H
	DB	00H
	DB	0baH
	DB	00H
	DB	00H
	DB	00H
	DB	0baH
	DB	00H
	DB	00H
	DB	00H
	DB	0baH
	DB	00H
	DB	00H
	DB	00H
	DB	0baH
	DB	00H
	DB	00H
	DB	00H
	DB	0baH
	DB	00H
	DB	00H
	DB	00H
	DB	0baH
	DB	00H
	DB	00H
	DB	00H
	DB	0baH
	DB	00H
	DB	00H
	DB	00H
	DB	0baH
	DB	00H
	DB	00H
	DB	00H
	DB	0baH
	DB	00H
	DB	00H
	DB	00H
	DB	0baH
	DB	00H
	DB	00H
	DB	00H
	DB	0baH
	DB	00H
	DB	00H
	DB	00H
	DB	0baH
	DB	00H
	DB	00H
	DB	00H
	DB	0baH
	DB	00H
	DB	00H
	DB	00H
	DB	0baH
	DB	00H
	DB	00H
	DB	00H
	DB	0baH
	DB	00H
	DB	00H
	DB	00H
	DB	0baH
	DB	00H
	DB	00H
	DB	00H
	DB	0baH
	DB	00H
	DB	00H
	DB	00H
	DB	0baH
	DB	00H
	DB	00H
	DB	00H
	DB	0baH
	DB	00H
	DB	00H
	DB	00H
	DB	0baH
	DB	00H
	DB	00H
	DB	00H
	DB	0baH
	DB	00H
	DB	00H
	DB	00H
	DB	0baH
	DB	00H
	DB	00H
	DB	00H
	DB	0baH
	DB	00H
	DB	00H
	DB	00H
	DB	0baH
	DB	00H
	DB	00H
	DB	00H
	DB	0baH
	DB	00H
	DB	00H
	DB	00H
	DB	0baH
	DB	00H
	DB	00H
	DB	00H
	DB	0baH
	DB	00H
	DB	00H
	DB	00H
	DB	0baH
	DB	00H
	DB	00H
	DB	00H
	DB	0baH
	DB	00H
	DB	00H
	DB	00H
	DB	0baH
	DB	00H
	DB	00H
	DB	00H
	DB	0baH
	DB	00H
	DB	00H
	DB	00H
	DB	0baH
	DB	00H
	DB	00H
	DB	00H
	DB	0baH
	DB	00H
	DB	00H
	DB	00H
	DB	0baH
	DB	00H
	DB	00H
	DB	00H
	DB	0baH
	DB	00H
	DB	00H
	DB	00H
	DB	0baH
	DB	00H
	DB	00H
	DB	00H
	DB	0baH
	DB	00H
	DB	00H
	DB	00H
	DB	0baH
	DB	00H
	DB	00H
	DB	00H
	DB	0baH
	DB	00H
	DB	00H
	DB	00H
	DB	0baH
	DB	00H
	DB	00H
	DB	00H
	DB	0baH
	DB	00H
	DB	00H
	DB	00H
	DB	0baH
	DB	00H
	DB	00H
	DB	00H
	DB	0baH
	DB	00H
	DB	00H
	DB	00H
	DB	0baH
	DB	00H
	DB	00H
	DB	00H
	DB	0baH
	DB	00H
	DB	00H
	DB	00H
	DB	0baH
	DB	00H
	DB	00H
	DB	00H
	DB	0baH
	DB	00H
	DB	00H
	DB	00H
	DB	0baH
	DB	00H
	DB	00H
	DB	00H
	DB	0baH
	DB	00H
	DB	00H
	DB	00H
	DB	0baH
	DB	00H
	DB	00H
	DB	00H
	DB	0baH
	DB	00H
	DB	00H
	DB	00H
	DB	0baH
	DB	00H
	DB	00H
	DB	00H
	DB	0baH
	DB	00H
	DB	00H
	DB	00H
	DB	0baH
	DB	00H
	DB	00H
	DB	00H
	DB	0baH
	DB	00H
	DB	00H
	DB	00H
	DB	0baH
	DB	00H
	DB	00H
	DB	00H
	DB	0baH
	DB	00H
	DB	00H
	DB	00H
	DB	0baH
	DB	00H
	DB	00H
	DB	00H
	DB	0baH
	DB	00H
	DB	00H
	DB	00H
	DB	0baH
	DB	00H
	DB	00H
	DB	00H
	DB	0baH
	DB	00H
	DB	00H
	DB	00H
	DB	0baH
	DB	00H
	DB	00H
	DB	00H
	DB	0baH
	DB	00H
	DB	00H
	DB	00H
	DB	0baH
	DB	00H
	DB	00H
	DB	00H
	DB	0baH
	DB	00H
	DB	00H
	DB	00H
	DB	0baH
	DB	00H
	DB	00H
	DB	00H
	DB	0baH
	DB	00H
	DB	00H
	DB	00H
	DB	0baH
	DB	00H
	DB	00H
	DB	00H
	DB	0baH
	DB	00H
	DB	00H
	DB	00H
	DB	0baH
	DB	00H
	DB	00H
	DB	00H
	DB	0baH
	DB	00H
	DB	00H
	DB	00H
	DB	0baH
	DB	00H
	DB	00H
	DB	00H
	DB	0baH
	DB	00H
	DB	00H
	DB	00H
	DB	0baH
	DB	00H
	DB	00H
	DB	00H
	DB	0baH
	DB	00H
	DB	00H
	DB	00H
	DB	0baH
	DB	00H
	DB	00H
	DB	00H
	DB	0baH
	DB	00H
	DB	00H
	DB	00H
	DB	0baH
	DB	00H
	DB	00H
	DB	00H
	DB	0baH
	DB	00H
	DB	00H
	DB	00H
	DB	0baH
	DB	00H
	DB	00H
	DB	00H
	DB	0baH
	DB	00H
	DB	00H
	DB	00H
	DB	0baH
	DB	00H
	DB	00H
	DB	00H
	DB	0baH
	DB	00H
	DB	00H
	DB	00H
	DB	0baH
	DB	00H
	DB	00H
	DB	00H
	DB	0baH
	DB	00H
	DB	00H
	DB	00H
	DB	0baH
	DB	00H
	DB	00H
	DB	00H
	DB	0baH
	DB	00H
	DB	00H
	DB	00H
	DB	0baH
	DB	00H
	DB	00H
	DB	00H
	DB	0baH
	DB	00H
	DB	00H
	DB	00H
	DB	0baH
	DB	00H
	DB	00H
	DB	00H
	DB	0baH
	DB	00H
	DB	00H
	DB	00H
	DB	0baH
	DB	00H
	DB	00H
	DB	00H
	DB	0baH
	DB	00H
	DB	00H
	DB	00H
	DB	0baH
	DB	00H
	DB	00H
	DB	00H
	DB	0baH
	DB	00H
	DB	00H
	DB	00H
	DB	0baH
	DB	00H
	DB	00H
	DB	00H
	DB	0baH
	DB	00H
	DB	00H
	DB	00H
	DB	0baH
	DB	00H
	DB	00H
	DB	00H
	DB	0baH
	DB	00H
	DB	00H
	DB	00H
	DB	0baH
	DB	00H
	DB	00H
	DB	00H
	DB	0baH
	DB	00H
	DB	00H
	DB	00H
	DB	0baH
	DB	00H
	DB	00H
	DB	00H
	DB	0baH
	DB	00H
	DB	00H
	DB	00H
	DB	0baH
	DB	00H
	DB	00H
	DB	00H
	DB	0baH
	DB	00H
	DB	00H
	DB	00H
	DB	0baH
	DB	00H
	DB	00H
	DB	00H
	DB	0baH
	DB	00H
	DB	00H
	DB	00H
	DB	0baH
	DB	00H
	DB	00H
	DB	00H
	DB	0baH
	DB	00H
	DB	00H
	DB	00H
	DB	0baH
	DB	00H
	DB	00H
	DB	00H
	DB	0baH
	DB	00H
	DB	00H
	DB	00H
	DB	0baH
	DB	00H
	DB	00H
	DB	00H
	DB	0baH
	DB	00H
	DB	00H
	DB	00H
	DB	0baH
	DB	00H
	DB	00H
	DB	00H
	DB	0baH
	DB	00H
	DB	00H
	DB	00H
	DB	0baH
	DB	00H
	DB	00H
	DB	00H
	DB	0baH
	DB	00H
	DB	00H
	DB	00H
	DB	0baH
	DB	00H
	DB	00H
	DB	00H
	DB	0baH
	DB	00H
	DB	00H
	DB	00H
	DB	0baH
	DB	00H
	DB	00H
	DB	00H
	DB	0baH
	DB	00H
	DB	00H
	DB	00H
	DB	0baH
	DB	00H
	DB	00H
	DB	00H
	DB	0baH
	DB	00H
	DB	00H
	DB	00H
	DB	0baH
	DB	00H
	DB	00H
	DB	00H
	DB	0baH
	DB	00H
	DB	00H
	DB	00H
	DB	0baH
	DB	00H
	DB	00H
	DB	00H
	DB	0baH
	DB	00H
	DB	00H
	DB	00H
	DB	0baH
	DB	00H
	DB	00H
	DB	00H
	DB	0baH
	DB	00H
	DB	00H
	DB	00H
	DB	0baH
	DB	00H
	DB	00H
	DB	00H
	DB	0baH
	DB	00H
	DB	00H
	DB	00H
	DB	0baH
	DB	00H
	DB	00H
	DB	00H
	DB	0baH
	DB	00H
	DB	00H
	DB	00H
	DB	0baH
	DB	00H
	DB	00H
	DB	00H
	DB	0baH
	DB	00H
	DB	00H
	DB	00H
	DB	0baH
	DB	00H
	DB	00H
	DB	00H
	DB	0baH
	DB	00H
	DB	00H
	DB	00H
	DB	0baH
	DB	00H
	DB	00H
	DB	00H
	DB	0baH
	DB	00H
	DB	00H
	DB	00H
	DB	0baH
	DB	00H
	DB	00H
	DB	00H
	DB	0baH
	DB	00H
	DB	00H
	DB	00H
	DB	0baH
	DB	00H
	DB	00H
	DB	00H
	DB	0baH
	DB	00H
	DB	00H
	DB	00H
	DB	0baH
	DB	00H
	DB	00H
	DB	00H
	DB	0baH
	DB	00H
	DB	00H
	DB	00H
	DB	0baH
	DB	00H
	DB	00H
	DB	00H
	DB	0baH
	DB	00H
	DB	00H
	DB	00H
	DB	0baH
	DB	00H
	DB	00H
	DB	00H
	DB	0baH
	DB	00H
	DB	00H
	DB	00H
	DB	0baH
	DB	00H
	DB	00H
	DB	00H
	DB	0baH
	DB	00H
	DB	00H
	DB	00H
	DB	0baH
	DB	00H
	DB	00H
	DB	00H
	DB	0baH
	DB	00H
	DB	00H
	DB	00H
	DB	0baH
	DB	00H
	DB	00H
	DB	00H
	DB	0baH
	DB	00H
	DB	00H
	DB	00H
	DB	0baH
	DB	00H
	DB	00H
	DB	00H
	DB	0baH
	DB	00H
	DB	00H
	DB	00H
	DB	0baH
	DB	00H
	DB	00H
	DB	00H
	DB	0baH
	DB	00H
	DB	00H
	DB	00H
	DB	0baH
	DB	00H
	DB	00H
	DB	00H
	DB	0baH
	DB	00H
	DB	00H
	DB	00H
	DB	0baH
	DB	00H
	DB	00H
	DB	00H
	DB	0baH
	DB	00H
	DB	00H
	DB	00H
	DB	0baH
	DB	00H
	DB	00H
	DB	00H
	DB	0baH
	DB	00H
	DB	00H
	DB	00H
	DB	0baH
	DB	00H
	DB	00H
	DB	00H
	DB	0baH
	DB	00H
	DB	00H
	DB	00H
	DB	0baH
	DB	00H
	DB	00H
	DB	00H
	DB	0baH
	DB	00H
	DB	00H
	DB	00H
	DB	0baH
	DB	00H
	DB	00H
	DB	00H
	DB	0baH
	DB	00H
	DB	00H
	DB	00H
	DB	0baH
	DB	00H
	DB	00H
	DB	00H
	DB	0baH
	DB	00H
	DB	00H
	DB	00H
	DB	0baH
	DB	00H
	DB	00H
	DB	00H
	DB	0baH
	DB	00H
	DB	00H
	DB	00H
	DB	0baH
	DB	00H
	DB	00H
	DB	00H
	DB	0baH
	DB	00H
	DB	00H
	DB	00H
	DB	0baH
	DB	00H
	DB	00H
	DB	00H
	DB	0baH
	DB	00H
	DB	00H
	DB	00H
	DB	0baH
	DB	00H
	DB	00H
	DB	00H
	DB	0baH
	DB	00H
	DB	00H
	DB	00H
	DB	0baH
	DB	00H
	DB	00H
	DB	00H
	DB	0baH
	DB	00H
	DB	00H
	DB	00H
	DB	0baH
	DB	00H
	DB	00H
	DB	00H
	DB	0baH
	DB	00H
	DB	00H
	DB	00H
	DB	0baH
	DB	00H
	DB	00H
	DB	00H
	DB	0baH
	DB	00H
	DB	00H
	DB	00H
	DB	0baH
	DB	00H
	DB	00H
	DB	00H
	DB	0baH
	DB	00H
	DB	00H
	DB	00H
	DB	0baH
	DB	00H
	DB	00H
	DB	00H
	DB	0baH
	DB	00H
	DB	00H
	DB	00H
	DB	0baH
	DB	00H
	DB	00H
	DB	00H
	DB	0baH
	DB	00H
	DB	00H
	DB	00H
	DB	0baH
	DB	00H
	DB	00H
	DB	00H
	DB	0baH
	DB	00H
	DB	00H
	DB	00H
	DB	0baH
	DB	00H
	DB	00H
	DB	00H
	DB	0baH
	DB	00H
	DB	00H
	DB	00H
	DB	0baH
	DB	00H
	DB	00H
	DB	00H
	DB	0baH
	DB	00H
	DB	00H
	DB	00H
	DB	0baH
	DB	00H
	DB	00H
	DB	00H
	DB	0baH
	DB	00H
	DB	00H
	DB	00H
	DB	0baH
	DB	00H
	DB	00H
	DB	00H
	DB	0baH
	DB	00H
	DB	00H
	DB	00H
	DB	0baH
	DB	00H
	DB	00H
	DB	00H
	DB	0baH
	DB	00H
	DB	00H
	DB	00H
	DB	0baH
	DB	00H
	DB	00H
	DB	00H
	DB	0baH
	DB	00H
	DB	00H
	DB	00H
	DB	0baH
	DB	00H
	DB	00H
	DB	00H
	DB	0baH
	DB	00H
	DB	00H
	DB	00H
	DB	0baH
	DB	00H
	DB	00H
	DB	00H
	DB	0baH
	DB	00H
	DB	00H
	DB	00H
	DB	0baH
	DB	00H
	DB	00H
	DB	00H
	DB	0baH
	DB	00H
	DB	00H
	DB	00H
	DB	0baH
	DB	00H
	DB	00H
	DB	00H
	DB	0baH
	DB	00H
	DB	00H
	DB	00H
	DB	0baH
	DB	00H
	DB	00H
	DB	00H
	DB	0baH
	DB	00H
	DB	00H
	DB	00H
	DB	0baH
	DB	00H
	DB	00H
	DB	00H
	DB	0baH
	DB	00H
	DB	00H
	DB	00H
	DB	0baH
	DB	00H
	DB	00H
	DB	00H
	DB	0baH
	DB	00H
	DB	00H
	DB	00H
	DB	0baH
	DB	00H
	DB	00H
	DB	00H
	DB	0baH
	DB	00H
	DB	00H
	DB	00H
	DB	0baH
	DB	00H
	DB	00H
	DB	00H
	DB	0baH
	DB	00H
	DB	00H
	DB	00H
	DB	0baH
	DB	00H
	DB	00H
	DB	00H
	DB	0baH
	DB	00H
	DB	00H
	DB	00H
	DB	0baH
	DB	00H
	DB	00H
	DB	00H
	DB	0baH
	DB	00H
	DB	00H
	DB	00H
	DB	0baH
	DB	00H
	DB	00H
	DB	00H
	DB	0baH
	DB	00H
	DB	00H
	DB	00H
	DB	0baH
	DB	00H
	DB	00H
	DB	00H
	DB	0baH
	DB	00H
	DB	00H
	DB	00H
	DB	0baH
	DB	00H
	DB	00H
	DB	00H
	DB	0baH
	DB	00H
	DB	00H
	DB	00H
	DB	0baH
	DB	00H
	DB	00H
	DB	00H
	DB	0baH
	DB	00H
	DB	00H
	DB	00H
	DB	0baH
	DB	00H
	DB	00H
	DB	00H
	DB	0baH
	DB	00H
	DB	00H
	DB	00H
	DB	0baH
	DB	00H
	DB	00H
	DB	00H
	DB	0baH
	DB	00H
	DB	00H
	DB	00H
	DB	0baH
	DB	00H
	DB	00H
	DB	00H
	DB	0baH
	DB	00H
	DB	00H
	DB	00H
	DB	0baH
	DB	00H
	DB	00H
	DB	00H
	DB	0baH
	DB	00H
	DB	00H
	DB	00H
	DB	0baH
	DB	00H
	DB	00H
	DB	00H
	DB	0baH
	DB	00H
	DB	00H
	DB	00H
	DB	0baH
	DB	00H
	DB	00H
	DB	00H
	DB	0baH
	DB	00H
	DB	00H
	DB	00H
	DB	0baH
	DB	00H
	DB	00H
	DB	00H
	DB	0baH
	DB	00H
	DB	00H
	DB	00H
	DB	0baH
	DB	00H
	DB	00H
	DB	00H
	DB	0baH
	DB	00H
	DB	00H
	DB	00H
	DB	0baH
	DB	00H
	DB	00H
	DB	00H
	DB	0baH
	DB	00H
	DB	00H
	DB	00H
	DB	0baH
	DB	00H
	DB	00H
	DB	00H
	DB	0baH
	DB	00H
	DB	00H
	DB	00H
	DB	0baH
	DB	00H
	DB	00H
	DB	00H
	DB	0baH
	DB	00H
	DB	00H
	DB	00H
	DB	0baH
	DB	00H
	DB	00H
	DB	00H
	DB	0baH
	DB	00H
	DB	00H
	DB	00H
	DB	0baH
	DB	00H
	DB	00H
	DB	00H
	DB	0baH
	DB	00H
	DB	00H
	DB	00H
	DB	0baH
	DB	00H
	DB	00H
	DB	00H
	DB	0baH
	DB	00H
	DB	00H
	DB	00H
	DB	0baH
	DB	00H
	DB	00H
	DB	00H
	DB	0baH
	DB	00H
	DB	00H
	DB	00H
	DB	0baH
	DB	00H
	DB	00H
	DB	00H
	DB	0baH
	DB	00H
	DB	00H
	DB	00H
	DB	0baH
	DB	00H
	DB	00H
	DB	00H
	DB	0baH
	DB	00H
	DB	00H
	DB	00H
	DB	0baH
	DB	00H
	DB	00H
	DB	00H
	DB	0baH
	DB	00H
	DB	00H
	DB	00H
	DB	0baH
	DB	00H
	DB	00H
	DB	00H
	DB	0baH
	DB	00H
	DB	00H
	DB	00H
	DB	0baH
	DB	00H
	DB	00H
	DB	00H
	DB	0baH
	DB	00H
	DB	00H
	DB	00H
	DB	0baH
	DB	00H
	DB	00H
	DB	00H
	DB	0baH
	DB	00H
	DB	00H
	DB	00H
	DB	0baH
	DB	00H
	DB	00H
	DB	00H
	DB	0baH
	DB	00H
	DB	00H
	DB	00H
	DB	0baH
	DB	00H
	DB	00H
	DB	00H
	DB	0baH
	DB	00H
	DB	00H
	DB	00H
	DB	0baH
	DB	00H
	DB	00H
	DB	00H
	DB	0baH
	DB	00H
	DB	00H
	DB	00H
	DB	0baH
	DB	00H
	DB	00H
	DB	00H
	DB	0baH
	DB	00H
	DB	00H
	DB	00H
	DB	0baH
	DB	00H
	DB	00H
	DB	00H
	DB	0baH
	DB	00H
	DB	00H
	DB	00H
	DB	0baH
	DB	00H
	DB	00H
	DB	00H
	DB	0baH
	DB	00H
	DB	00H
	DB	00H
	DB	0baH
	DB	00H
	DB	00H
	DB	00H
	DB	0baH
	DB	00H
	DB	00H
	DB	00H
	DB	0baH
	DB	00H
	DB	00H
	DB	00H
	DB	0baH
	DB	00H
	DB	00H
	DB	00H
	DB	0baH
	DB	00H
	DB	00H
	DB	00H
	DB	0baH
	DB	00H
	DB	00H
	DB	00H
	DB	0baH
	DB	00H
	DB	00H
	DB	00H
	DB	0baH
	DB	00H
	DB	00H
	DB	00H
	DB	0baH
	DB	00H
	DB	00H
	DB	00H
	DB	0baH
	DB	00H
	DB	00H
	DB	00H
	DB	0baH
	DB	00H
	DB	00H
	DB	00H
	DB	0baH
	DB	00H
	DB	00H
	DB	00H
	DB	0baH
	DB	00H
	DB	00H
	DB	00H
	DB	0baH
	DB	00H
	DB	00H
	DB	00H
	DB	0baH
	DB	00H
	DB	00H
	DB	00H
	DB	0baH
	DB	00H
	DB	00H
	DB	00H
	DB	0baH
	DB	00H
	DB	00H
	DB	00H
	DB	0baH
	DB	00H
	DB	00H
	DB	00H
	DB	0baH
	DB	00H
	DB	00H
	DB	00H
	DB	0baH
	DB	00H
	DB	00H
	DB	00H
	DB	0baH
	DB	00H
	DB	00H
	DB	00H
	DB	0baH
	DB	00H
	DB	00H
	DB	00H
	DB	0baH
	DB	00H
	DB	00H
	DB	00H
	DB	0baH
	DB	00H
	DB	00H
	DB	00H
	DB	0baH
	DB	00H
	DB	00H
	DB	00H
	DB	0baH
	DB	00H
	DB	00H
	DB	00H
	DB	0baH
	DB	00H
	DB	00H
	DB	00H
	DB	0baH
	DB	00H
	DB	00H
	DB	00H
	DB	0baH
	DB	00H
	DB	00H
	DB	00H
	DB	0baH
	DB	00H
	DB	00H
	DB	00H
	DB	0baH
	DB	00H
	DB	00H
	DB	00H
	DB	0baH
	DB	00H
	DB	00H
	DB	00H
	DB	0baH
	DB	00H
	DB	00H
	DB	00H
	DB	0baH
	DB	00H
	DB	00H
	DB	00H
	DB	0baH
	DB	00H
	DB	00H
	DB	00H
	DB	0baH
	DB	00H
	DB	00H
	DB	00H
	DB	0baH
	DB	00H
	DB	00H
	DB	00H
	DB	0baH
	DB	00H
	DB	00H
	DB	00H
	DB	0baH
	DB	00H
	DB	00H
	DB	00H
	DB	0baH
	DB	00H
	DB	00H
	DB	00H
	DB	0baH
	DB	00H
	DB	00H
	DB	00H
	DB	0baH
	DB	00H
	DB	00H
	DB	00H
	DB	0baH
	DB	00H
	DB	00H
	DB	00H
	DB	0baH
	DB	00H
	DB	00H
	DB	00H
	DB	0baH
	DB	00H
	DB	00H
	DB	00H
	DB	0baH
	DB	00H
	DB	00H
	DB	00H
	DB	0baH
	DB	00H
	DB	00H
	DB	00H
	DB	0baH
	DB	00H
	DB	00H
	DB	00H
	DB	0baH
	DB	00H
	DB	00H
	DB	00H
	DB	0baH
	DB	00H
	DB	00H
	DB	00H
	DB	0baH
	DB	00H
	DB	00H
	DB	00H
	DB	0baH
	DB	00H
	DB	00H
	DB	00H
	DB	0baH
	DB	00H
	DB	00H
	DB	00H
	DB	0baH
	DB	00H
	DB	00H
	DB	00H
	DB	0baH
	DB	00H
	DB	00H
	DB	00H
	DB	0baH
	DB	00H
	DB	00H
	DB	00H
	DB	0baH
	DB	00H
	DB	00H
	DB	00H
	DB	0baH
	DB	00H
	DB	00H
	DB	00H
	DB	0baH
	DB	00H
	DB	00H
	DB	00H
	DB	0baH
	DB	00H
	DB	00H
	DB	00H
	DB	0baH
	DB	00H
	DB	00H
	DB	00H
	DB	0baH
	DB	00H
	DB	00H
	DB	00H
	DB	0baH
	DB	00H
	DB	00H
	DB	00H
	DB	0baH
	DB	00H
	DB	00H
	DB	00H
	DB	0baH
	DB	00H
	DB	00H
	DB	00H
	DB	0baH
	DB	00H
	DB	00H
	DB	00H
	DB	0baH
	DB	00H
	DB	00H
	DB	00H
	DB	0baH
	DB	00H
	DB	00H
	DB	00H
	DB	0baH
	DB	00H
	DB	00H
	DB	00H
	DB	0baH
	DB	00H
	DB	00H
	DB	00H
	DB	0baH
	DB	00H
	DB	00H
	DB	00H
	DB	0baH
	DB	00H
	DB	00H
	DB	00H
	DB	0baH
	DB	00H
	DB	00H
	DB	00H
	DB	0baH
	DB	00H
	DB	00H
	DB	00H
	DB	0baH
	DB	00H
	DB	00H
	DB	00H
	DB	0baH
	DB	00H
	DB	00H
	DB	00H
	DB	0baH
	DB	00H
	DB	00H
	DB	00H
	DB	0baH
	DB	00H
	DB	00H
	DB	00H
	DB	0baH
	DB	00H
	DB	00H
	DB	00H
	DB	0baH
	DB	00H
	DB	00H
	DB	00H
	DB	0baH
	DB	00H
	DB	00H
	DB	00H
	DB	0baH
	DB	00H
	DB	00H
	DB	00H
	DB	0baH
	DB	00H
	DB	00H
	DB	00H
	DB	0baH
	DB	00H
	DB	00H
	DB	00H
	DB	0baH
	DB	00H
	DB	00H
	DB	00H
	DB	0baH
	DB	00H
	DB	00H
	DB	00H
	DB	0baH
	DB	00H
	DB	00H
	DB	00H
	DB	0baH
	DB	00H
	DB	00H
	DB	00H
	DB	0baH
	DB	00H
	DB	00H
	DB	00H
	DB	0baH
	DB	00H
	DB	00H
	DB	00H
	DB	0baH
	DB	00H
	DB	00H
	DB	00H
	DB	0baH
	DB	00H
	DB	00H
	DB	00H
	DB	0baH
	DB	00H
	DB	00H
	DB	00H
	DB	0baH
	DB	00H
	DB	00H
	DB	00H
	DB	0baH
	DB	00H
	DB	00H
	DB	00H
	DB	0baH
	DB	00H
	DB	00H
	DB	00H
	DB	0baH
	DB	00H
	DB	00H
	DB	00H
	DB	0baH
	DB	00H
	DB	00H
	DB	00H
	DB	0baH
	DB	00H
	DB	00H
	DB	00H
	DB	0baH
	DB	00H
	DB	00H
	DB	00H
	DB	0baH
	DB	00H
	DB	00H
	DB	00H
	DB	0baH
	DB	00H
	DB	00H
	DB	00H
	DB	0baH
	DB	00H
	DB	00H
	DB	00H
	DB	0baH
	DB	00H
	DB	00H
	DB	00H
	DB	0baH
	DB	00H
	DB	00H
	DB	00H
	DB	0baH
	DB	00H
	DB	00H
	DB	00H
	DB	0baH
	DB	00H
	DB	00H
	DB	00H
	DB	0baH
	DB	00H
	DB	00H
	DB	00H
	DB	0baH
	DB	00H
	DB	00H
	DB	00H
	DB	0baH
	DB	00H
	DB	00H
	DB	00H
	DB	0baH
	DB	00H
	DB	00H
	DB	00H
	DB	0baH
	DB	00H
	DB	00H
	DB	00H
	DB	0baH
	DB	00H
	DB	00H
	DB	00H
	DB	0baH
	DB	00H
	DB	00H
	DB	00H
	DB	0baH
	DB	00H
	DB	00H
	DB	00H
	DB	0baH
	DB	00H
	DB	00H
	DB	00H
	DB	0baH
	DB	00H
	DB	00H
	DB	00H
	DB	0baH
	DB	00H
	DB	00H
	DB	00H
	DB	0baH
	DB	00H
	DB	00H
	DB	00H
	DB	0baH
	DB	00H
	DB	00H
	DB	00H
	DB	0baH
	DB	00H
	DB	00H
	DB	00H
	DB	0baH
	DB	00H
	DB	00H
	DB	00H
	DB	0baH
	DB	00H
	DB	00H
	DB	00H
	DB	0baH
	DB	00H
	DB	00H
	DB	00H
	DB	0baH
	DB	00H
	DB	00H
	DB	00H
	DB	0baH
	DB	00H
	DB	00H
	DB	00H
	DB	0baH
	DB	00H
	DB	00H
	DB	00H
	DB	0baH
	DB	00H
	DB	00H
	DB	00H
	DB	0baH
	DB	00H
	DB	00H
	DB	00H
	DB	0baH
	DB	00H
	DB	00H
	DB	00H
	DB	0baH
	DB	00H
	DB	00H
	DB	00H
	DB	0baH
	DB	00H
	DB	00H
	DB	00H
	DB	0baH
	DB	00H
	DB	00H
	DB	00H
	DB	0baH
	DB	00H
	DB	00H
	DB	00H
	DB	0baH
	DB	00H
	DB	00H
	DB	00H
	DB	0baH
	DB	00H
	DB	00H
	DB	00H
	DB	0baH
	DB	00H
	DB	00H
	DB	00H
	DB	0baH
	DB	00H
	DB	00H
	DB	00H
	DB	0baH
	DB	00H
	DB	00H
	DB	00H
	DB	0baH
	DB	00H
	DB	00H
	DB	00H
	DB	0baH
	DB	00H
	DB	00H
	DB	00H
	DB	0baH
	DB	00H
	DB	00H
	DB	00H
	DB	0baH
	DB	00H
	DB	00H
	DB	00H
	DB	0baH
	DB	00H
	DB	00H
	DB	00H
	DB	0baH
	DB	00H
	DB	00H
	DB	00H
	DB	0baH
	DB	00H
	DB	00H
	DB	00H
	DB	0baH
	DB	00H
	DB	00H
	DB	00H
	DB	0baH
	DB	00H
	DB	00H
	DB	00H
	DB	0baH
	DB	00H
	DB	00H
	DB	00H
	DB	0baH
	DB	00H
	DB	00H
	DB	00H
	DB	0baH
	DB	00H
	DB	00H
	DB	00H
	DB	0baH
	DB	00H
	DB	00H
	DB	00H
	DB	0baH
	DB	00H
	DB	00H
	DB	00H
	DB	0baH
	DB	00H
	DB	00H
	DB	00H
	DB	0baH
	DB	00H
	DB	00H
	DB	00H
	DB	0baH
	DB	00H
	DB	00H
	DB	00H
	DB	0baH
	DB	00H
	DB	00H
	DB	00H
	DB	0baH
	DB	00H
	DB	00H
	DB	00H
	DB	0baH
	DB	00H
	DB	00H
	DB	00H
	DB	0baH
	DB	00H
	DB	00H
	DB	00H
	DB	0baH
	DB	00H
	DB	00H
	DB	00H
	DB	0baH
	DB	00H
	DB	00H
	DB	00H
	DB	0baH
	DB	00H
	DB	00H
	DB	00H
	DB	0baH
	DB	00H
	DB	00H
	DB	00H
	DB	0baH
	DB	00H
	DB	00H
	DB	00H
	DB	0baH
	DB	00H
	DB	00H
	DB	00H
	DB	0baH
	DB	00H
	DB	00H
	DB	00H
	DB	0baH
	DB	00H
	DB	00H
	DB	00H
	DB	0baH
	DB	00H
	DB	00H
	DB	00H
	DB	0baH
	DB	00H
	DB	00H
	DB	00H
	DB	0baH
	DB	00H
	DB	00H
	DB	00H
	DB	0baH
	DB	00H
	DB	00H
	DB	00H
	DB	0baH
	DB	00H
	DB	00H
	DB	00H
	DB	0baH
	DB	00H
	DB	00H
	DB	00H
	DB	0baH
	DB	00H
	DB	00H
	DB	00H
	DB	0baH
	DB	00H
	DB	00H
	DB	00H
	DB	0baH
	DB	00H
	DB	00H
	DB	00H
	DB	0baH
	DB	00H
	DB	00H
	DB	00H
	DB	0baH
	DB	00H
	DB	00H
	DB	00H
	DB	0baH
	DB	00H
	DB	00H
	DB	00H
	DB	0baH
	DB	00H
	DB	00H
	DB	00H
	DB	0baH
	DB	00H
	DB	00H
	DB	00H
	DB	0baH
	DB	00H
	DB	00H
	DB	00H
	DB	0baH
	DB	00H
	DB	00H
	DB	00H
	DB	0baH
	DB	00H
	DB	00H
	DB	00H
	DB	0baH
	DB	00H
	DB	00H
	DB	00H
	DB	0baH
	DB	00H
	DB	00H
	DB	00H
	DB	0baH
	DB	00H
	DB	00H
	DB	00H
	DB	0baH
	DB	00H
	DB	00H
	DB	00H
	DB	0baH
	DB	00H
	DB	00H
	DB	00H
	DB	0baH
	DB	00H
	DB	00H
	DB	00H
	DB	0baH
	DB	00H
	DB	00H
	DB	00H
	DB	0baH
	DB	00H
	DB	00H
	DB	00H
	DB	0baH
	DB	00H
	DB	00H
	DB	00H
	DB	0baH
	DB	00H
	DB	00H
	DB	00H
	DB	0baH
	DB	00H
	DB	00H
	DB	00H
	DB	0baH
	DB	00H
	DB	00H
	DB	00H
	DB	0baH
	DB	00H
	DB	00H
	DB	00H
	DB	0baH
	DB	00H
	DB	00H
	DB	00H
	DB	0baH
	DB	00H
	DB	00H
	DB	00H
	DB	0baH
	DB	00H
	DB	00H
	DB	00H
	DB	0baH
	DB	00H
	DB	00H
	DB	00H
	DB	0baH
	DB	00H
	DB	00H
	DB	00H
	DB	0baH
	DB	00H
	DB	00H
	DB	00H
	DB	0baH
	DB	00H
	DB	00H
	DB	00H
	DB	0baH
	DB	00H
	DB	00H
	DB	00H
	DB	0baH
	DB	00H
	DB	00H
	DB	00H
	DB	0baH
	DB	00H
	DB	00H
	DB	00H
	DB	0baH
	DB	00H
	DB	00H
	DB	00H
	DB	0baH
	DB	00H
	DB	00H
	DB	00H
	DB	0baH
	DB	00H
	DB	00H
	DB	00H
	DB	0baH
	DB	00H
	DB	00H
	DB	00H
	DB	0baH
	DB	00H
	DB	00H
	DB	00H
	DB	0baH
	DB	00H
	DB	00H
	DB	00H
	DB	0baH
	DB	00H
	DB	00H
	DB	00H
	DB	0baH
	DB	00H
	DB	00H
	DB	00H
	DB	0baH
	DB	00H
	DB	00H
	DB	00H
	DB	0baH
	DB	00H
	DB	00H
	DB	00H
	DB	0baH
	DB	00H
	DB	00H
	DB	00H
	DB	0baH
	DB	00H
	DB	00H
	DB	00H
	DB	0baH
	DB	00H
	DB	00H
	DB	00H
	DB	0baH
	DB	00H
	DB	00H
	DB	00H
	DB	0baH
	DB	00H
	DB	00H
	DB	00H
	DB	0baH
	DB	00H
	DB	00H
	DB	00H
	DB	0baH
	DB	00H
	DB	00H
	DB	00H
	DB	0baH
	DB	00H
	DB	00H
	DB	00H
	DB	0baH
	DB	00H
	DB	00H
	DB	00H
	DB	0baH
	DB	00H
	DB	00H
	DB	00H
	DB	0baH
	DB	00H
	DB	00H
	DB	00H
	DB	0baH
	DB	00H
	DB	00H
	DB	00H
	DB	0baH
	DB	00H
	DB	00H
	DB	00H
	DB	0baH
	DB	00H
	DB	00H
	DB	00H
	DB	0baH
	DB	00H
	DB	00H
	DB	00H
	DB	0baH
	DB	00H
	DB	00H
	DB	00H
	DB	0baH
	DB	00H
	DB	00H
	DB	00H
	DB	0baH
	DB	00H
	DB	00H
	DB	00H
	DB	0baH
	DB	00H
	DB	00H
	DB	00H
	DB	0baH
	DB	00H
	DB	00H
	DB	00H
	DB	0baH
	DB	00H
	DB	00H
	DB	00H
	DB	0baH
	DB	00H
	DB	00H
	DB	00H
	DB	0baH
	DB	00H
	DB	00H
	DB	00H
	DB	0baH
	DB	00H
	DB	00H
	DB	00H
	DB	0baH
	DB	00H
	DB	00H
	DB	00H
	DB	0baH
	DB	00H
	DB	00H
	DB	00H
	DB	0baH
	DB	00H
	DB	00H
	DB	00H
	DB	0baH
	DB	00H
	DB	00H
	DB	00H
	DB	0baH
	DB	00H
	DB	00H
	DB	00H
	DB	0baH
	DB	00H
	DB	00H
	DB	00H
	DB	0baH
	DB	00H
	DB	00H
	DB	00H
	DB	0baH
	DB	00H
	DB	00H
	DB	00H
	DB	0baH
	DB	00H
	DB	00H
	DB	00H
	DB	0baH
	DB	00H
	DB	00H
	DB	00H
	DB	0baH
	DB	00H
	DB	00H
	DB	00H
	DB	0baH
	DB	00H
	DB	00H
	DB	00H
	DB	0baH
	DB	00H
	DB	00H
	DB	00H
	DB	0baH
	DB	00H
	DB	00H
	DB	00H
	DB	0baH
	DB	00H
	DB	00H
	DB	00H
	DB	0baH
	DB	00H
	DB	00H
	DB	00H
	DB	0baH
	DB	00H
	DB	00H
	DB	00H
	DB	0baH
	DB	00H
	DB	00H
	DB	00H
	DB	0baH
	DB	00H
	DB	00H
	DB	00H
	DB	0baH
	DB	00H
	DB	00H
	DB	00H
	DB	0baH
	DB	00H
	DB	00H
	DB	00H
	DB	0baH
	DB	00H
	DB	00H
	DB	00H
	DB	0baH
	DB	00H
	DB	00H
	DB	00H
	DB	0baH
	DB	00H
	DB	00H
	DB	00H
	DB	0baH
	DB	00H
	DB	00H
	DB	00H
	DB	0baH
	DB	00H
	DB	00H
	DB	00H
	DB	0baH
	DB	00H
	DB	00H
	DB	00H
	DB	0baH
	DB	00H
	DB	00H
	DB	00H
	DB	0baH
	DB	00H
	DB	00H
	DB	00H
	DB	0baH
	DB	00H
	DB	00H
	DB	00H
	DB	0baH
	DB	00H
	DB	00H
	DB	00H
	DB	0baH
	DB	00H
	DB	00H
	DB	00H
	DB	0baH
	DB	00H
	DB	00H
	DB	00H
	DB	0baH
	DB	00H
	DB	00H
	DB	00H
	DB	0baH
	DB	00H
	DB	00H
	DB	00H
	DB	0baH
	DB	00H
	DB	00H
	DB	00H
	DB	0baH
	DB	00H
	DB	00H
	DB	00H
	DB	0baH
	DB	00H
	DB	00H
	DB	00H
	DB	0baH
	DB	00H
	DB	00H
	DB	00H
	DB	0baH
	DB	00H
	DB	00H
	DB	00H
	DB	0baH
	DB	00H
	DB	00H
	DB	00H
	DB	0baH
	DB	00H
	DB	00H
	DB	00H
	DB	0baH
	DB	00H
	DB	00H
	DB	00H
	DB	0baH
	DB	00H
	DB	00H
	DB	00H
	DB	0baH
	DB	00H
	DB	00H
	DB	00H
	DB	0baH
	DB	00H
	DB	00H
	DB	00H
	DB	0baH
	DB	00H
	DB	00H
	DB	00H
	DB	0baH
	DB	00H
	DB	00H
	DB	00H
	DB	0baH
	DB	00H
	DB	00H
	DB	00H
	DB	0baH
	DB	00H
	DB	00H
	DB	00H
	DB	0baH
	DB	00H
	DB	00H
	DB	00H
	DB	0baH
	DB	00H
	DB	00H
	DB	00H
	DB	0baH
	DB	00H
	DB	00H
	DB	00H
	DB	0baH
	DB	00H
	DB	00H
	DB	00H
	DB	0baH
	DB	00H
	DB	00H
	DB	00H
	DB	0baH
	DB	00H
	DB	00H
	DB	00H
	DB	0baH
	DB	00H
	DB	00H
	DB	00H
	DB	0baH
	DB	00H
	DB	00H
	DB	00H
	DB	0baH
	DB	00H
	DB	00H
	DB	00H
	DB	0baH
	DB	00H
	DB	00H
	DB	00H
	DB	0baH
	DB	00H
	DB	00H
	DB	00H
	DB	0baH
	DB	00H
	DB	00H
	DB	00H
	DB	0baH
	DB	00H
	DB	00H
	DB	00H
	DB	0baH
	DB	00H
	DB	00H
	DB	00H
	DB	0baH
	DB	00H
	DB	00H
	DB	00H
	DB	0baH
	DB	00H
	DB	00H
	DB	00H
	DB	0baH
	DB	00H
	DB	00H
	DB	00H
	DB	0baH
	DB	00H
	DB	00H
	DB	00H
	DB	0baH
	DB	00H
	DB	00H
	DB	00H
	DB	0baH
	DB	00H
	DB	00H
	DB	00H
	DB	0baH
	DB	00H
	DB	00H
	DB	00H
	DB	0baH
	DB	00H
	DB	00H
	DB	00H
	DB	0baH
	DB	00H
	DB	00H
	DB	00H
	DB	0baH
	DB	00H
	DB	00H
	DB	00H
	DB	0baH
	DB	00H
	DB	00H
	DB	00H
	DB	0baH
	DB	00H
	DB	00H
	DB	00H
	DB	0baH
	DB	00H
	DB	00H
	DB	00H
	DB	0baH
	DB	00H
	DB	00H
	DB	00H
	DB	0baH
	DB	00H
	DB	00H
	DB	00H
	DB	0baH
	DB	00H
	DB	00H
	DB	00H
	DB	0baH
	DB	00H
	DB	00H
	DB	00H
	DB	0baH
	DB	00H
	DB	00H
	DB	00H
	DB	0baH
	DB	00H
	DB	00H
	DB	00H
	DB	0baH
	DB	00H
	DB	00H
	DB	00H
	DB	0baH
	DB	00H
	DB	00H
	DB	00H
	DB	0baH
	DB	00H
	DB	00H
	DB	00H
	DB	0baH
	DB	00H
	DB	00H
	DB	00H
	DB	0baH
	DB	00H
	DB	00H
	DB	00H
	DB	0baH
	DB	00H
	DB	00H
	DB	00H
	DB	0baH
	DB	00H
	DB	00H
	DB	00H
	DB	0baH
	DB	00H
	DB	00H
	DB	00H
	DB	0baH
	DB	00H
	DB	00H
	DB	00H
	DB	0baH
	DB	00H
	DB	00H
	DB	00H
	DB	0baH
	DB	00H
	DB	00H
	DB	00H
	DB	0baH
	DB	00H
	DB	00H
	DB	00H
	DB	0baH
	DB	00H
	DB	00H
	DB	00H
	DB	0baH
	DB	00H
	DB	00H
	DB	00H
	DB	0baH
	DB	00H
	DB	00H
	DB	00H
	DB	0baH
	DB	00H
	DB	00H
	DB	00H
	DB	0baH
	DB	00H
	DB	00H
	DB	00H
	DB	0baH
	DB	00H
	DB	00H
	DB	00H
	DB	0baH
	DB	00H
	DB	00H
	DB	00H
	DB	0baH
	DB	00H
	DB	00H
	DB	00H
	DB	0baH
	DB	00H
	DB	00H
	DB	00H
	DB	0baH
	DB	00H
	DB	00H
	DB	00H
	DB	0baH
	DB	00H
	DB	00H
	DB	00H
	DB	0baH
	DB	00H
	DB	00H
	DB	00H
	DB	0baH
	DB	00H
	DB	00H
	DB	00H
	DB	0baH
	DB	00H
	DB	00H
	DB	00H
	DB	0baH
	DB	00H
	DB	00H
	DB	00H
	DB	0baH
	DB	00H
	DB	00H
	DB	00H
	DB	0baH
	DB	00H
	DB	00H
	DB	00H
	DB	0baH
	DB	00H
	DB	00H
	DB	00H
	DB	0baH
	DB	00H
	DB	00H
	DB	00H
	DB	0baH
	DB	00H
	DB	00H
	DB	00H
	DB	0baH
	DB	00H
	DB	00H
	DB	00H
	DB	0baH
	DB	00H
	DB	00H
	DB	00H
	DB	0baH
	DB	00H
	DB	00H
	DB	00H
	DB	0baH
	DB	00H
	DB	00H
	DB	00H
	DB	0baH
	DB	00H
	DB	00H
	DB	00H
	DB	0baH
	DB	00H
	DB	00H
	DB	00H
	DB	0baH
	DB	00H
	DB	00H
	DB	00H
	DB	0baH
	DB	00H
	DB	00H
	DB	00H
	DB	0baH
	DB	00H
	DB	00H
	DB	00H
	DB	0baH
	DB	00H
	DB	00H
	DB	00H
	DB	0baH
	DB	00H
	DB	00H
	DB	00H
	DB	0baH
	DB	00H
	DB	00H
	DB	00H
	DB	0baH
	DB	00H
	DB	00H
	DB	00H
	DB	0baH
	DB	00H
	DB	00H
	DB	00H
	DB	0baH
	DB	00H
	DB	00H
	DB	00H
	DB	0baH
	DB	00H
	DB	00H
	DB	00H
	DB	0baH
	DB	00H
	DB	00H
	DB	00H
	DB	0baH
	DB	00H
	DB	00H
	DB	00H
	DB	0baH
	DB	00H
	DB	00H
	DB	00H
	DB	0baH
	DB	00H
	DB	00H
	DB	00H
	DB	0baH
	DB	00H
	DB	00H
	DB	00H
	DB	0baH
	DB	00H
	DB	00H
	DB	00H
	DB	0baH
	DB	00H
	DB	00H
	DB	00H
	DB	0baH
	DB	00H
	DB	00H
	DB	00H
	DB	0baH
	DB	00H
	DB	00H
	DB	00H
	DB	0baH
	DB	00H
	DB	00H
	DB	00H
	DB	0baH
	DB	00H
	DB	00H
	DB	00H
	DB	0baH
	DB	00H
	DB	00H
	DB	00H
	DB	0baH
	DB	00H
	DB	00H
	DB	00H
	DB	0baH
	DB	00H
	DB	00H
	DB	00H
	DB	0baH
	DB	00H
	DB	00H
	DB	00H
	DB	0baH
	DB	00H
	DB	00H
	DB	00H
	DB	0baH
	DB	00H
	DB	00H
	DB	00H
	DB	0baH
	DB	00H
	DB	00H
	DB	00H
	DB	0baH
	DB	00H
	DB	00H
	DB	00H
	DB	0baH
	DB	00H
	DB	00H
	DB	00H
	DB	0baH
	DB	00H
	DB	00H
	DB	00H
	DB	0baH
	DB	00H
	DB	00H
	DB	00H
	DB	0baH
	DB	00H
	DB	00H
	DB	00H
	DB	0baH
	DB	00H
	DB	00H
	DB	00H
	DB	0baH
	DB	00H
	DB	00H
	DB	00H
	DB	0baH
	DB	00H
	DB	00H
	DB	00H
	DB	0baH
	DB	00H
	DB	00H
	DB	00H
	DB	0baH
	DB	00H
	DB	00H
	DB	00H
	DB	0baH
	DB	00H
	DB	00H
	DB	00H
	DB	0baH
	DB	00H
	DB	00H
	DB	00H
	DB	0baH
	DB	00H
	DB	00H
	DB	00H
	DB	0baH
	DB	00H
	DB	00H
	DB	00H
	DB	0baH
	DB	00H
	DB	00H
	DB	00H
	DB	0baH
	DB	00H
	DB	00H
	DB	00H
	DB	0baH
	DB	00H
	DB	00H
	DB	00H
	DB	0baH
	DB	00H
	DB	00H
	DB	00H
	DB	0baH
	DB	00H
	DB	00H
	DB	00H
	DB	0baH
	DB	00H
	DB	00H
	DB	00H
	DB	0baH
	DB	00H
	DB	00H
	DB	00H
	DB	0baH
	DB	00H
	DB	00H
	DB	00H
	DB	0baH
	DB	00H
	DB	00H
	DB	00H
	DB	0baH
	DB	00H
	DB	00H
	DB	00H
	DB	0baH
	DB	00H
	DB	00H
	DB	00H
	DB	0baH
	DB	00H
	DB	00H
	DB	00H
	DB	0baH
	DB	00H
	DB	00H
	DB	00H
	DB	0baH
	DB	00H
	DB	00H
	DB	00H
	DB	0baH
	DB	00H
	DB	00H
	DB	00H
	DB	0baH
	DB	00H
	DB	00H
	DB	00H
	DB	0baH
	DB	00H
	DB	00H
	DB	00H
	DB	0baH
	DB	00H
	DB	00H
	DB	00H
	DB	0baH
	DB	00H
	DB	00H
	DB	00H
	DB	0baH
	DB	00H
	DB	00H
	DB	00H
	DB	0baH
	DB	00H
	DB	00H
	DB	00H
	DB	0baH
	DB	00H
	DB	00H
	DB	00H
	DB	0baH
	DB	00H
	DB	00H
	DB	00H
	DB	0baH
	DB	00H
	DB	00H
	DB	00H
	DB	0baH
	DB	00H
	DB	00H
	DB	00H
	DB	0baH
	DB	00H
	DB	00H
	DB	00H
	DB	0baH
	DB	00H
	DB	00H
	DB	00H
	DB	0baH
	DB	00H
	DB	00H
	DB	00H
	DB	0baH
	DB	00H
	DB	00H
	DB	00H
	DB	0baH
	DB	00H
	DB	00H
	DB	00H
	DB	0baH
	DB	00H
	DB	00H
	DB	00H
	DB	0baH
	DB	00H
	DB	00H
	DB	00H
	DB	0baH
	DB	00H
	DB	00H
	DB	00H
	DB	0baH
	DB	00H
	DB	00H
	DB	00H
	DB	0baH
	DB	00H
	DB	00H
	DB	00H
	DB	0baH
	DB	00H
	DB	00H
	DB	00H
	DB	0baH
	DB	00H
	DB	00H
	DB	00H
	DB	0baH
	DB	00H
	DB	00H
	DB	00H
	DB	0baH
	DB	00H
	DB	00H
	DB	00H
	DB	0baH
	DB	00H
	DB	00H
	DB	00H
	DB	0baH
	DB	00H
	DB	00H
	DB	00H
	DB	0baH
	DB	00H
	DB	00H
	DB	00H
	DB	0baH
	DB	00H
	DB	00H
	DB	00H
	DB	0baH
	DB	00H
	DB	00H
	DB	00H
	DB	0baH
	DB	00H
	DB	00H
	DB	00H
	DB	0baH
	DB	00H
	DB	00H
	DB	00H
	DB	0baH
	DB	00H
	DB	00H
	DB	00H
	DB	0baH
	DB	00H
	DB	00H
	DB	00H
	DB	0baH
	DB	00H
	DB	00H
	DB	00H
	DB	0baH
	DB	00H
	DB	00H
	DB	00H
	DB	0baH
	DB	00H
	DB	00H
	DB	00H
	DB	0baH
	DB	00H
	DB	00H
	DB	00H
	DB	0baH
	DB	00H
	DB	00H
	DB	00H
	DB	0baH
	DB	00H
	DB	00H
	DB	00H
	DB	0baH
	DB	00H
	DB	00H
	DB	00H
	DB	0baH
	DB	00H
	DB	00H
	DB	00H
	DB	0baH
	DB	00H
	DB	00H
	DB	00H
	DB	0baH
	DB	00H
	DB	00H
	DB	00H
	DB	0baH
	DB	00H
	DB	00H
	DB	00H
	DB	0baH
	DB	00H
	DB	00H
	DB	00H
	DB	0baH
	DB	00H
	DB	00H
	DB	00H
	DB	0baH
	DB	00H
	DB	00H
	DB	00H
	DB	0baH
	DB	00H
	DB	00H
	DB	00H
	DB	0baH
	DB	00H
	DB	00H
	DB	00H
	DB	0baH
	DB	00H
	DB	00H
	DB	00H
	DB	0baH
	DB	00H
	DB	00H
	DB	00H
	DB	0baH
	DB	00H
	DB	00H
	DB	00H
	DB	0baH
	DB	00H
	DB	00H
	DB	00H
	DB	0baH
	DB	00H
	DB	00H
	DB	00H
	DB	0baH
	DB	00H
	DB	00H
	DB	00H
	DB	0baH
	DB	00H
	DB	00H
	DB	00H
	DB	0baH
	DB	00H
	DB	00H
	DB	00H
	DB	0baH
	DB	00H
	DB	00H
	DB	00H
	DB	0baH
	DB	00H
	DB	00H
	DB	00H
	DB	0baH
	DB	00H
	DB	00H
	DB	00H
	DB	0baH
	DB	00H
	DB	00H
	DB	00H
	DB	0baH
	DB	00H
	DB	00H
	DB	00H
	DB	0baH
	DB	00H
	DB	00H
	DB	00H
	DB	0baH
	DB	00H
	DB	00H
	DB	00H
	DB	0baH
	DB	00H
	DB	00H
	DB	00H
	DB	0baH
	DB	00H
	DB	00H
	DB	00H
	DB	0baH
	DB	00H
	DB	00H
	DB	00H
	DB	0baH
	DB	00H
	DB	00H
	DB	00H
	DB	0baH
	DB	00H
	DB	00H
	DB	00H
	DB	0baH
	DB	00H
	DB	00H
	DB	00H
	DB	0baH
	DB	00H
	DB	00H
	DB	00H
	DB	0baH
	DB	00H
	DB	00H
	DB	00H
	DB	0baH
	DB	00H
	DB	00H
	DB	00H
	DB	0baH
	DB	00H
	DB	00H
	DB	00H
	DB	0baH
	DB	00H
	DB	00H
	DB	00H
	DB	0baH
	DB	00H
	DB	00H
	DB	00H
	DB	0baH
	DB	00H
	DB	00H
	DB	00H
	DB	0baH
	DB	00H
	DB	00H
	DB	00H
	DB	0baH
	DB	00H
	DB	00H
	DB	00H
	DB	0baH
	DB	00H
	DB	00H
	DB	00H
	DB	0baH
	DB	00H
	DB	00H
	DB	00H
	DB	0baH
	DB	00H
	DB	00H
	DB	00H
	DB	0baH
	DB	00H
	DB	00H
	DB	00H
	DB	0baH
	DB	00H
	DB	00H
	DB	00H
	DB	0baH
	DB	00H
	DB	00H
	DB	00H
	DB	0baH
	DB	00H
	DB	00H
	DB	00H
	DB	0baH
	DB	00H
	DB	00H
	DB	00H
	DB	0baH
	DB	00H
	DB	00H
	DB	00H
	DB	0baH
	DB	00H
	DB	00H
	DB	00H
	DB	0baH
	DB	00H
	DB	00H
	DB	00H
	DB	0baH
	DB	00H
	DB	00H
	DB	00H
	DB	0baH
	DB	00H
	DB	00H
	DB	00H
	DB	0baH
	DB	00H
	DB	00H
	DB	00H
	DB	0baH
	DB	00H
	DB	00H
	DB	00H
	DB	0baH
	DB	00H
	DB	00H
	DB	00H
	DB	0baH
	DB	00H
	DB	00H
	DB	00H
	DB	0baH
	DB	00H
	DB	00H
	DB	00H
	DB	0baH
	DB	00H
	DB	00H
	DB	00H
	DB	0baH
	DB	00H
	DB	00H
	DB	00H
	DB	0baH
	DB	00H
	DB	00H
	DB	00H
	DB	0baH
	DB	00H
	DB	00H
	DB	00H
	DB	0baH
	DB	00H
	DB	00H
	DB	00H
	DB	0baH
	DB	00H
	DB	00H
	DB	00H
	DB	0baH
	DB	00H
	DB	00H
	DB	00H
	DB	0baH
	DB	00H
	DB	00H
	DB	00H
	DB	0baH
	DB	00H
	DB	00H
	DB	00H
	DB	0baH
	DB	00H
	DB	00H
	DB	00H
	DB	0baH
	DB	00H
	DB	00H
	DB	00H
	DB	0baH
	DB	00H
	DB	00H
	DB	00H
	DB	0baH
	DB	00H
	DB	00H
	DB	00H
	DB	0baH
	DB	00H
	DB	00H
	DB	00H
	DB	0baH
	DB	00H
	DB	00H
	DB	00H
	DB	0baH
	DB	00H
	DB	00H
	DB	00H
	DB	0baH
	DB	00H
	DB	00H
	DB	00H
	DB	0baH
	DB	00H
	DB	00H
	DB	00H
	DB	0baH
	DB	00H
	DB	00H
	DB	00H
	DB	0baH
	DB	00H
	DB	00H
	DB	00H
	DB	0baH
	DB	00H
	DB	00H
	DB	00H
	DB	0baH
	DB	00H
	DB	00H
	DB	00H
	DB	0baH
	DB	00H
	DB	00H
	DB	00H
	DB	0baH
	DB	00H
	DB	00H
	DB	00H
	DB	0baH
	DB	00H
	DB	00H
	DB	00H
	DB	0baH
	DB	00H
	DB	00H
	DB	00H
	DB	0baH
	DB	00H
	DB	00H
	DB	00H
	DB	0baH
	DB	00H
	DB	00H
	DB	00H
	DB	0baH
	DB	00H
	DB	00H
	DB	00H
	DB	0baH
	DB	00H
	DB	00H
	DB	00H
	DB	0baH
	DB	00H
	DB	00H
	DB	00H
	DB	0baH
	DB	00H
	DB	00H
	DB	00H
	DB	0baH
	DB	00H
	DB	00H
	DB	00H
	DB	0baH
	DB	00H
	DB	00H
	DB	00H
	DB	0baH
	DB	00H
	DB	00H
	DB	00H
	DB	0baH
	DB	00H
	DB	00H
	DB	00H
	DB	0baH
	DB	00H
	DB	00H
	DB	00H
	DB	0baH
	DB	00H
	DB	00H
	DB	00H
	DB	0baH
	DB	00H
	DB	00H
	DB	00H
	DB	0baH
	DB	00H
	DB	00H
	DB	00H
	DB	0baH
	DB	00H
	DB	00H
	DB	00H
	DB	0baH
	DB	00H
	DB	00H
	DB	00H
	DB	0baH
	DB	00H
	DB	00H
	DB	00H
	DB	0baH
	DB	00H
	DB	00H
	DB	00H
	DB	0baH
	DB	00H
	DB	00H
	DB	00H
	DB	0baH
	DB	00H
	DB	00H
	DB	00H
	DB	0baH
	DB	00H
	DB	00H
	DB	00H
	DB	0baH
	DB	00H
	DB	00H
	DB	00H
	DB	0baH
	DB	00H
	DB	00H
	DB	00H
	DB	0baH
	DB	00H
	DB	00H
	DB	00H
	DB	0baH
	DB	00H
	DB	00H
	DB	00H
	DB	0baH
	DB	00H
	DB	00H
	DB	00H
	DB	0baH
	DB	00H
	DB	00H
	DB	00H
	DB	0baH
	DB	00H
	DB	00H
	DB	00H
	DB	0baH
	DB	00H
	DB	00H
	DB	00H
	DB	0baH
	DB	00H
	DB	00H
	DB	00H
	DB	0baH
	DB	00H
	DB	00H
	DB	00H
	DB	0baH
	DB	00H
	DB	00H
	DB	00H
	DB	0baH
	DB	00H
	DB	00H
	DB	00H
	DB	0baH
	DB	00H
	DB	00H
	DB	00H
	DB	0baH
	DB	00H
	DB	00H
	DB	00H
	DB	0baH
	DB	00H
	DB	00H
	DB	00H
	DB	0baH
	DB	00H
	DB	00H
	DB	00H
	DB	0baH
	DB	00H
	DB	00H
	DB	00H
	DB	0baH
	DB	00H
	DB	00H
	DB	00H
	DB	0baH
	DB	00H
	DB	00H
	DB	00H
	DB	0baH
	DB	00H
	DB	00H
	DB	00H
	DB	0baH
	DB	00H
	DB	00H
	DB	00H
	DB	0baH
	DB	00H
	DB	00H
	DB	00H
	DB	0baH
	DB	00H
	DB	00H
	DB	00H
	DB	0baH
	DB	00H
	DB	00H
	DB	00H
	DB	0baH
	DB	00H
	DB	00H
	DB	00H
	DB	0baH
	DB	00H
	DB	00H
	DB	00H
	DB	0baH
	DB	00H
	DB	00H
	DB	00H
	DB	0baH
	DB	00H
	DB	00H
	DB	00H
	DB	0baH
	DB	00H
	DB	00H
	DB	00H
	DB	0baH
	DB	00H
	DB	00H
	DB	00H
	DB	0baH
	DB	00H
	DB	00H
	DB	00H
	DB	0baH
	DB	00H
	DB	00H
	DB	00H
	DB	0baH
	DB	00H
	DB	00H
	DB	00H
	DB	0baH
	DB	00H
	DB	00H
	DB	00H
	DB	0baH
	DB	00H
	DB	00H
	DB	00H
	DB	0baH
	DB	00H
	DB	00H
	DB	00H
	DB	0baH
	DB	00H
	DB	00H
	DB	00H
	DB	0baH
	DB	00H
	DB	00H
	DB	00H
	DB	0baH
	DB	00H
	DB	00H
	DB	00H
	DB	0baH
	DB	00H
	DB	00H
	DB	00H
	DB	0baH
	DB	00H
	DB	00H
	DB	00H
	DB	0baH
	DB	00H
	DB	00H
	DB	00H
	DB	0baH
	DB	00H
	DB	00H
	DB	00H
	DB	0baH
	DB	00H
	DB	00H
	DB	00H
	DB	0baH
	DB	00H
	DB	00H
	DB	00H
	DB	0baH
	DB	00H
	DB	00H
	DB	00H
	DB	0baH
	DB	00H
	DB	00H
	DB	00H
	DB	0baH
	DB	00H
	DB	00H
	DB	00H
	DB	0baH
	DB	00H
	DB	00H
	DB	00H
	DB	0baH
	DB	00H
	DB	00H
	DB	00H
	DB	0baH
	DB	00H
	DB	00H
	DB	00H
	DB	0baH
	DB	00H
	DB	00H
	DB	00H
	DB	0baH
	DB	00H
	DB	00H
	DB	00H
	DB	0baH
	DB	00H
	DB	00H
	DB	00H
	DB	0baH
	DB	00H
	DB	00H
	DB	00H
	DB	0baH
	DB	00H
	DB	00H
	DB	00H
	DB	0baH
	DB	00H
	DB	00H
	DB	00H
	DB	0baH
	DB	00H
	DB	00H
	DB	00H
	DB	0baH
	DB	00H
	DB	00H
	DB	00H
	DB	0baH
	DB	00H
	DB	00H
	DB	00H
	DB	0baH
	DB	00H
	DB	00H
	DB	00H
	DB	0baH
	DB	00H
	DB	00H
	DB	00H
	DB	0baH
	DB	00H
	DB	00H
	DB	00H
	DB	0baH
	DB	00H
	DB	00H
	DB	00H
	DB	0baH
	DB	00H
	DB	00H
	DB	00H
	DB	0baH
	DB	00H
	DB	00H
	DB	00H
	DB	0baH
	DB	00H
	DB	00H
	DB	00H
	DB	0baH
	DB	00H
	DB	00H
	DB	00H
	DB	0baH
	DB	00H
	DB	00H
	DB	00H
	DB	0baH
	DB	00H
	DB	00H
	DB	00H
	DB	0baH
	DB	00H
	DB	00H
	DB	00H
	DB	0baH
	DB	00H
	DB	00H
	DB	00H
	DB	0baH
	DB	00H
	DB	00H
	DB	00H
	DB	0baH
	DB	00H
	DB	00H
	DB	00H
	DB	0baH
	DB	00H
	DB	00H
	DB	00H
	DB	0baH
	DB	00H
	DB	00H
	DB	00H
	DB	0baH
	DB	00H
	DB	00H
	DB	00H
	DB	0baH
	DB	00H
	DB	00H
	DB	00H
	DB	0baH
	DB	00H
	DB	00H
	DB	00H
	DB	0baH
	DB	00H
	DB	00H
	DB	00H
	DB	0baH
	DB	00H
	DB	00H
	DB	00H
	DB	0baH
	DB	00H
	DB	00H
	DB	00H
	DB	0baH
	DB	00H
	DB	00H
	DB	00H
	DB	0baH
	DB	00H
	DB	00H
	DB	00H
	DB	0baH
	DB	00H
	DB	00H
	DB	00H
	DB	0baH
	DB	00H
	DB	00H
	DB	00H
	DB	0baH
	DB	00H
	DB	00H
	DB	00H
	DB	0baH
	DB	00H
	DB	00H
	DB	00H
	DB	0baH
	DB	00H
	DB	00H
	DB	00H
	DB	0baH
	DB	00H
	DB	00H
	DB	00H
	DB	0baH
	DB	00H
	DB	00H
	DB	00H
	DB	0baH
	DB	00H
	DB	00H
	DB	00H
	DB	0baH
	DB	00H
	DB	00H
	DB	00H
	DB	0baH
	DB	00H
	DB	00H
	DB	00H
	DB	0baH
	DB	00H
	DB	00H
	DB	00H
	DB	0baH
	DB	00H
	DB	00H
	DB	00H
	DB	0baH
	DB	00H
	DB	00H
	DB	00H
	DB	0baH
	DB	00H
	DB	00H
	DB	00H
	DB	0baH
	DB	00H
	DB	00H
	DB	00H
	DB	0baH
	DB	00H
	DB	00H
	DB	00H
	DB	0baH
	DB	00H
	DB	00H
	DB	00H
	DB	0baH
	DB	00H
	DB	00H
	DB	00H
	DB	0baH
	DB	00H
	DB	00H
	DB	00H
	DB	0baH
	DB	00H
	DB	00H
	DB	00H
	DB	0baH
	DB	00H
	DB	00H
	DB	00H
	DB	0baH
	DB	00H
	DB	00H
	DB	00H
	DB	0baH
	DB	00H
	DB	00H
	DB	00H
	DB	0baH
	DB	00H
	DB	00H
	DB	00H
	DB	0baH
	DB	00H
	DB	00H
	DB	00H
	DB	0baH
	DB	00H
	DB	00H
	DB	00H
	DB	0baH
	DB	00H
	DB	00H
	DB	00H
	DB	0baH
	DB	00H
	DB	00H
	DB	00H
	DB	0baH
	DB	00H
	DB	00H
	DB	00H
	DB	0baH
	DB	00H
	DB	00H
	DB	00H
	DB	0baH
	DB	00H
	DB	00H
	DB	00H
	DB	0baH
	DB	00H
	DB	00H
	DB	00H
	DB	0baH
	DB	00H
	DB	00H
	DB	00H
	DB	0baH
	DB	00H
	DB	00H
	DB	00H
	DB	0baH
	DB	00H
	DB	00H
	DB	00H
	DB	0baH
	DB	00H
	DB	00H
	DB	00H
	DB	0baH
	DB	00H
	DB	00H
	DB	00H
	DB	0baH
	DB	00H
	DB	00H
	DB	00H
	DB	0baH
	DB	00H
	DB	00H
	DB	00H
	DB	0baH
	DB	00H
	DB	00H
	DB	00H
	DB	0baH
	DB	00H
	DB	00H
	DB	00H
	DB	0baH
	DB	00H
	DB	00H
	DB	00H
	DB	0baH
	DB	00H
	DB	00H
	DB	00H
	DB	0baH
	DB	00H
	DB	00H
	DB	00H
	DB	0baH
	DB	00H
	DB	00H
	DB	00H
	DB	0baH
	DB	00H
	DB	00H
	DB	00H
	DB	0baH
	DB	00H
	DB	00H
	DB	00H
	DB	0baH
	DB	00H
	DB	00H
	DB	00H
	DB	0baH
	DB	00H
	DB	00H
	DB	00H
	DB	0baH
	DB	00H
	DB	00H
	DB	00H
	DB	0baH
	DB	00H
	DB	00H
	DB	00H
	DB	0baH
	DB	00H
	DB	00H
	DB	00H
	DB	0baH
	DB	00H
	DB	00H
	DB	00H
	DB	0baH
	DB	00H
	DB	00H
	DB	00H
	DB	0baH
	DB	00H
	DB	00H
	DB	00H
	DB	0baH
	DB	00H
	DB	00H
	DB	00H
	DB	0baH
	DB	00H
	DB	00H
	DB	00H
	DB	0baH
	DB	00H
	DB	00H
	DB	00H
	DB	0baH
	DB	00H
	DB	00H
	DB	00H
	DB	0baH
	DB	00H
	DB	00H
	DB	00H
	DB	0baH
	DB	00H
	DB	00H
	DB	00H
	DB	0baH
	DB	00H
	DB	00H
	DB	00H
	DB	0baH
	DB	00H
	DB	00H
	DB	00H
	DB	0baH
	DB	00H
	DB	00H
	DB	00H
	DB	0baH
	DB	00H
	DB	00H
	DB	00H
	DB	0baH
	DB	00H
	DB	00H
	DB	00H
	DB	0baH
	DB	00H
	DB	00H
	DB	00H
	DB	0baH
	DB	00H
	DB	00H
	DB	00H
	DB	0baH
	DB	00H
	DB	00H
	DB	00H
	DB	0baH
	DB	00H
	DB	00H
	DB	00H
	DB	0baH
	DB	00H
	DB	00H
	DB	00H
	DB	0baH
	DB	00H
	DB	00H
	DB	00H
	DB	0baH
	DB	00H
	DB	00H
	DB	00H
	DB	0baH
	DB	00H
	DB	00H
	DB	00H
	DB	0baH
	DB	00H
	DB	00H
	DB	00H
	DB	0baH
	DB	00H
	DB	00H
	DB	00H
	DB	0baH
	DB	00H
	DB	00H
	DB	00H
	DB	0baH
	DB	00H
	DB	00H
	DB	00H
	DB	0baH
	DB	00H
	DB	00H
	DB	00H
	DB	0baH
	DB	00H
	DB	00H
	DB	00H
	DB	0baH
	DB	00H
	DB	00H
	DB	00H
	DB	0baH
	DB	00H
	DB	00H
	DB	00H
	DB	0baH
	DB	00H
	DB	00H
	DB	00H
	DB	0baH
	DB	00H
	DB	00H
	DB	00H
	DB	0baH
	DB	00H
	DB	00H
	DB	00H
	DB	0baH
	DB	00H
	DB	00H
	DB	00H
	DB	0baH
	DB	00H
	DB	00H
	DB	00H
	DB	0baH
	DB	00H
	DB	00H
	DB	00H
	DB	0baH
	DB	00H
	DB	00H
	DB	00H
	DB	0baH
	DB	00H
	DB	00H
	DB	00H
	DB	0baH
	DB	00H
	DB	00H
	DB	00H
	DB	0baH
	DB	00H
	DB	00H
	DB	00H
	DB	0baH
	DB	00H
	DB	00H
	DB	00H
	DB	0baH
	DB	00H
	DB	00H
	DB	00H
	DB	0baH
	DB	00H
	DB	00H
	DB	00H
	DB	0baH
	DB	00H
	DB	00H
	DB	00H
	DB	0baH
	DB	00H
	DB	00H
	DB	00H
	DB	0baH
	DB	00H
	DB	00H
	DB	00H
	DB	0baH
	DB	00H
	DB	00H
	DB	00H
	DB	0baH
	DB	00H
	DB	00H
	DB	00H
	DB	0baH
	DB	00H
	DB	00H
	DB	00H
	DB	0baH
	DB	00H
	DB	00H
	DB	00H
	DB	0baH
	DB	00H
	DB	00H
	DB	00H
	DB	0baH
	DB	00H
	DB	00H
	DB	00H
	DB	0baH
	DB	00H
	DB	00H
	DB	00H
	DB	0baH
	DB	00H
	DB	00H
	DB	00H
	DB	0baH
	DB	00H
	DB	00H
	DB	00H
	DB	0baH
	DB	00H
	DB	00H
	DB	00H
	DB	0baH
	DB	00H
	DB	00H
	DB	00H
	DB	0baH
	DB	00H
	DB	00H
	DB	00H
	DB	0baH
	DB	00H
	DB	00H
	DB	00H
	DB	0baH
	DB	00H
	DB	00H
	DB	00H
	DB	0baH
	DB	00H
	DB	00H
	DB	00H
	DB	0baH
	DB	00H
	DB	00H
	DB	00H
	DB	0baH
	DB	00H
	DB	00H
	DB	00H
	DB	0baH
	DB	00H
	DB	00H
	DB	00H
	DB	0baH
	DB	00H
	DB	00H
	DB	00H
	DB	0baH
	DB	00H
	DB	00H
	DB	00H
	DB	0baH
	DB	00H
	DB	00H
	DB	00H
	DB	0baH
	DB	00H
	DB	00H
	DB	00H
	DB	0baH
	DB	00H
	DB	00H
	DB	00H
	DB	0baH
	DB	00H
	DB	00H
	DB	00H
	DB	0baH
	DB	00H
	DB	00H
	DB	00H
	DB	0baH
	DB	00H
	DB	00H
	DB	00H
	DB	0baH
	DB	00H
	DB	00H
	DB	00H
	DB	0baH
	DB	00H
	DB	00H
	DB	00H
	DB	0baH
	DB	00H
	DB	00H
	DB	00H
	DB	0baH
	DB	00H
	DB	00H
	DB	00H
	DB	0baH
	DB	00H
	DB	00H
	DB	00H
	DB	0baH
	DB	00H
	DB	00H
	DB	00H
	DB	0baH
	DB	00H
	DB	00H
	DB	00H
	DB	0baH
	DB	00H
	DB	00H
	DB	00H
	DB	0baH
	DB	00H
	DB	00H
	DB	00H
	DB	0baH
	DB	00H
	DB	00H
	DB	00H
	DB	0baH
	DB	00H
	DB	00H
	DB	00H
	DB	0baH
	DB	00H
	DB	00H
	DB	00H
	DB	0baH
	DB	00H
	DB	00H
	DB	00H
	DB	0baH
	DB	00H
	DB	00H
	DB	00H
	DB	0baH
	DB	00H
	DB	00H
	DB	00H
	DB	0baH
	DB	00H
	DB	00H
	DB	00H
	DB	0baH
	DB	00H
	DB	00H
	DB	00H
	DB	0baH
	DB	00H
	DB	00H
	DB	00H
	DB	0baH
	DB	00H
	DB	00H
	DB	00H
	DB	0baH
	DB	00H
	DB	00H
	DB	00H
	DB	0baH
	DB	00H
	DB	00H
	DB	00H
	DB	0baH
	DB	00H
	DB	00H
	DB	00H
	DB	0baH
	DB	00H
	DB	00H
	DB	00H
	DB	0baH
	DB	00H
	DB	00H
	DB	00H
	DB	0baH
	DB	00H
	DB	00H
	DB	00H
	DB	0baH
	DB	00H
	DB	00H
	DB	00H
	DB	0baH
	DB	00H
	DB	00H
	DB	00H
	DB	0baH
	DB	00H
	DB	00H
	DB	00H
	DB	0baH
	DB	00H
	DB	00H
	DB	00H
	DB	0baH
	DB	00H
	DB	00H
	DB	00H
	DB	0baH
	DB	00H
	DB	00H
	DB	00H
	DB	0baH
	DB	00H
	DB	00H
	DB	00H
	DB	0baH
	DB	00H
	DB	00H
	DB	00H
	DB	0baH
	DB	00H
	DB	00H
	DB	00H
	DB	0baH
	DB	00H
	DB	00H
	DB	00H
	DB	0baH
	DB	00H
	DB	00H
	DB	00H
	DB	0baH
	DB	00H
	DB	00H
	DB	00H
	DB	0baH
	DB	00H
	DB	00H
	DB	00H
	DB	0baH
	DB	00H
	DB	00H
	DB	00H
	DB	0baH
	DB	00H
	DB	00H
	DB	00H
	DB	0baH
	DB	00H
	DB	00H
	DB	00H
	DB	0baH
	DB	00H
	DB	00H
	DB	00H
	DB	0baH
	DB	00H
	DB	00H
	DB	00H
	DB	0baH
	DB	00H
	DB	00H
	DB	00H
	DB	0baH
	DB	00H
	DB	00H
	DB	00H
	DB	0baH
	DB	00H
	DB	00H
	DB	00H
	DB	0baH
	DB	00H
	DB	00H
	DB	00H
	DB	0baH
	DB	00H
	DB	00H
	DB	00H
	DB	0baH
	DB	00H
	DB	00H
	DB	00H
	DB	0baH
	DB	00H
	DB	00H
	DB	00H
	DB	0baH
	DB	00H
	DB	00H
	DB	00H
	DB	0baH
	DB	00H
	DB	00H
	DB	00H
	DB	0baH
	DB	00H
	DB	00H
	DB	00H
	DB	0baH
	DB	00H
	DB	00H
	DB	00H
	DB	0baH
	DB	00H
	DB	00H
	DB	00H
	DB	0baH
	DB	00H
	DB	00H
	DB	00H
	DB	0baH
	DB	00H
	DB	00H
	DB	00H
	DB	0baH
	DB	00H
	DB	00H
	DB	00H
	DB	0baH
	DB	00H
	DB	00H
	DB	00H
	DB	0baH
	DB	00H
	DB	00H
	DB	00H
	DB	0baH
	DB	00H
	DB	00H
	DB	00H
	DB	0baH
	DB	00H
	DB	00H
	DB	00H
	DB	0baH
	DB	00H
	DB	00H
	DB	00H
	DB	0baH
	DB	00H
	DB	00H
	DB	00H
	DB	0baH
	DB	00H
	DB	00H
	DB	00H
	DB	0baH
	DB	00H
	DB	00H
	DB	00H
	DB	0baH
	DB	00H
	DB	00H
	DB	00H
	DB	0baH
	DB	00H
	DB	00H
	DB	00H
	DB	0baH
	DB	00H
	DB	00H
	DB	00H
	DB	0baH
	DB	00H
	DB	00H
	DB	00H
	DB	0baH
	DB	00H
	DB	00H
	DB	00H
	DB	0baH
	DB	00H
	DB	00H
	DB	00H
	DB	0baH
	DB	00H
	DB	00H
	DB	00H
	DB	0baH
	DB	00H
	DB	00H
	DB	00H
	DB	0baH
	DB	00H
	DB	00H
	DB	00H
	DB	0baH
	DB	00H
	DB	00H
	DB	00H
	DB	0baH
	DB	00H
	DB	00H
	DB	00H
	DB	0baH
	DB	00H
	DB	00H
	DB	00H
	DB	0baH
	DB	00H
	DB	00H
	DB	00H
	DB	0baH
	DB	00H
	DB	00H
	DB	00H
	DB	0baH
	DB	00H
	DB	00H
	DB	00H
	DB	0baH
	DB	00H
	DB	00H
	DB	00H
	DB	0baH
	DB	00H
	DB	00H
	DB	00H
	DB	0baH
	DB	00H
	DB	00H
	DB	00H
	DB	0baH
	DB	00H
	DB	00H
	DB	00H
	DB	0baH
	DB	00H
	DB	00H
	DB	00H
	DB	0baH
	DB	00H
	DB	00H
	DB	00H
	DB	0baH
	DB	00H
	DB	00H
	DB	00H
	DB	0baH
	DB	00H
	DB	00H
	DB	00H
	DB	0baH
	DB	00H
	DB	00H
	DB	00H
	DB	0baH
	DB	00H
	DB	00H
	DB	00H
	DB	0baH
	DB	00H
	DB	00H
	DB	00H
	DB	0baH
	DB	00H
	DB	00H
	DB	00H
	DB	0baH
	DB	00H
	DB	00H
	DB	00H
	DB	0baH
	DB	00H
	DB	00H
	DB	00H
	DB	0baH
	DB	00H
	DB	00H
	DB	00H
	DB	0baH
	DB	00H
	DB	00H
	DB	00H
	DB	0baH
	DB	00H
	DB	00H
	DB	00H
	DB	0baH
	DB	00H
	DB	00H
	DB	00H
	DB	0baH
	DB	00H
	DB	00H
	DB	00H
	DB	0baH
	DB	00H
	DB	00H
	DB	00H
	DB	0baH
	DB	00H
	DB	00H
	DB	00H
	DB	0baH
	DB	00H
	DB	00H
	DB	00H
	DB	0baH
	DB	00H
	DB	00H
	DB	00H
	DB	0baH
	DB	00H
	DB	00H
	DB	00H
	DB	0baH
	DB	00H
	DB	00H
	DB	00H
	DB	0baH
	DB	00H
	DB	00H
	DB	00H
	DB	0baH
	DB	00H
	DB	00H
	DB	00H
	DB	0baH
	DB	00H
	DB	00H
	DB	00H
	DB	0baH
	DB	00H
	DB	00H
	DB	00H
	DB	0baH
	DB	00H
	DB	00H
	DB	00H
	DB	0baH
	DB	00H
	DB	00H
	DB	00H
	DB	0baH
	DB	00H
	DB	00H
	DB	00H
	DB	0baH
	DB	00H
	DB	00H
	DB	00H
	DB	0baH
	DB	00H
	DB	00H
	DB	00H
	DB	0baH
	DB	00H
	DB	00H
	DB	00H
	DB	0baH
	DB	00H
	DB	00H
	DB	00H
	DB	0baH
	DB	00H
	DB	00H
	DB	00H
	DB	0baH
	DB	00H
	DB	00H
	DB	00H
	DB	0baH
	DB	00H
	DB	00H
	DB	00H
	DB	0baH
	DB	00H
	DB	00H
	DB	00H
	DB	0baH
	DB	00H
	DB	00H
	DB	00H
	DB	0baH
	DB	00H
	DB	00H
	DB	00H
	DB	0baH
	DB	00H
	DB	00H
	DB	00H
	DB	0baH
	DB	00H
	DB	00H
	DB	00H
	DB	0baH
	DB	00H
	DB	00H
	DB	00H
	DB	0baH
	DB	00H
	DB	00H
	DB	00H
	DB	0baH
	DB	00H
	DB	00H
	DB	00H
	DB	0baH
	DB	00H
	DB	00H
	DB	00H
	DB	0baH
	DB	00H
	DB	00H
	DB	00H
	DB	0baH
	DB	00H
	DB	00H
	DB	00H
	DB	0baH
	DB	00H
	DB	00H
	DB	00H
	DB	0baH
	DB	00H
	DB	00H
	DB	00H
	DB	0baH
	DB	00H
	DB	00H
	DB	00H
	DB	0baH
	DB	00H
	DB	00H
	DB	00H
	DB	0baH
	DB	00H
	DB	00H
	DB	00H
	DB	0baH
	DB	00H
	DB	00H
	DB	00H
	DB	0baH
	DB	00H
	DB	00H
	DB	00H
	DB	0baH
	DB	00H
	DB	00H
	DB	00H
	DB	0baH
	DB	00H
	DB	00H
	DB	00H
	DB	0baH
	DB	00H
	DB	00H
	DB	00H
	DB	0baH
	DB	00H
	DB	00H
	DB	00H
	DB	0baH
	DB	00H
	DB	00H
	DB	00H
	DB	0baH
	DB	00H
	DB	00H
	DB	00H
	DB	0baH
	DB	00H
	DB	00H
	DB	00H
	DB	0baH
	DB	00H
	DB	00H
	DB	00H
	DB	0baH
	DB	00H
	DB	00H
	DB	00H
	DB	0baH
	DB	00H
	DB	00H
	DB	00H
	DB	0baH
	DB	00H
	DB	00H
	DB	00H
	DB	0baH
	DB	00H
	DB	00H
	DB	00H
	DB	0baH
	DB	00H
	DB	00H
	DB	00H
	DB	0baH
	DB	00H
	DB	00H
	DB	00H
	DB	0baH
	DB	00H
	DB	00H
	DB	00H
	DB	0baH
	DB	00H
	DB	00H
	DB	00H
	DB	0baH
	DB	00H
	DB	00H
	DB	00H
	DB	0baH
	DB	00H
	DB	00H
	DB	00H
	DB	0baH
	DB	00H
	DB	00H
	DB	00H
	DB	0baH
	DB	00H
	DB	00H
	DB	00H
	DB	0baH
	DB	00H
	DB	00H
	DB	00H
	DB	0baH
	DB	00H
	DB	00H
	DB	00H
	DB	0baH
	DB	00H
	DB	00H
	DB	00H
	DB	0baH
	DB	00H
	DB	00H
	DB	00H
	DB	0baH
	DB	00H
	DB	00H
	DB	00H
	DB	0baH
	DB	00H
	DB	00H
	DB	00H
	DB	0baH
	DB	00H
	DB	00H
	DB	00H
	DB	0baH
	DB	00H
	DB	00H
	DB	00H
	DB	0baH
	DB	00H
	DB	00H
	DB	00H
	DB	0baH
	DB	00H
	DB	00H
	DB	00H
	DB	0baH
	DB	00H
	DB	00H
	DB	00H
	DB	0baH
	DB	00H
	DB	00H
	DB	00H
	DB	0baH
	DB	00H
	DB	00H
	DB	00H
	DB	0baH
	DB	00H
	DB	00H
	DB	00H
	DB	0baH
	DB	00H
	DB	00H
	DB	00H
	DB	0baH
	DB	00H
	DB	00H
	DB	00H
	DB	0baH
	DB	00H
	DB	00H
	DB	00H
	DB	0baH
	DB	00H
	DB	00H
	DB	00H
	DB	0baH
	DB	00H
	DB	00H
	DB	00H
	DB	0baH
	DB	00H
	DB	00H
	DB	00H
	DB	0baH
	DB	00H
	DB	00H
	DB	00H
	DB	0baH
	DB	00H
	DB	00H
	DB	00H
	DB	0baH
	DB	00H
	DB	00H
	DB	00H
	DB	0baH
	DB	00H
	DB	00H
	DB	00H
	DB	0baH
	DB	00H
	DB	00H
	DB	00H
	DB	0baH
	DB	00H
	DB	00H
	DB	00H
	DB	0baH
	DB	00H
	DB	00H
	DB	00H
	DB	0baH
	DB	00H
	DB	00H
	DB	00H
	DB	0baH
	DB	00H
	DB	00H
	DB	00H
	DB	0baH
	DB	00H
	DB	00H
	DB	00H
	DB	0baH
	DB	00H
	DB	00H
	DB	00H
	DB	0baH
	DB	00H
	DB	00H
	DB	00H
	DB	0baH
	DB	00H
	DB	00H
	DB	00H
	DB	0baH
	DB	00H
	DB	00H
	DB	00H
	DB	0baH
	DB	00H
	DB	00H
	DB	00H
	DB	0baH
	DB	00H
	DB	00H
	DB	00H
	DB	0baH
	DB	00H
	DB	00H
	DB	00H
	DB	0baH
	DB	00H
	DB	00H
	DB	00H
	DB	0baH
	DB	00H
	DB	00H
	DB	00H
	DB	0baH
	DB	00H
	DB	00H
	DB	00H
	DB	0baH
	DB	00H
	DB	00H
	DB	00H
	DB	0baH
	DB	00H
	DB	00H
	DB	00H
	DB	0baH
	DB	00H
	DB	00H
	DB	00H
	DB	0baH
	DB	00H
	DB	00H
	DB	00H
	DB	0baH
	DB	00H
	DB	00H
	DB	00H
	DB	0baH
	DB	00H
	DB	00H
	DB	00H
	DB	0baH
	DB	00H
	DB	00H
	DB	00H
	DB	0baH
	DB	00H
	DB	00H
	DB	00H
	DB	0baH
	DB	00H
	DB	00H
	DB	00H
	DB	0baH
	DB	00H
	DB	00H
	DB	00H
	DB	0baH
	DB	00H
	DB	00H
	DB	00H
	DB	0baH
	DB	00H
	DB	00H
	DB	00H
	DB	0baH
	DB	00H
	DB	00H
	DB	00H
	DB	0baH
	DB	00H
	DB	00H
	DB	00H
	DB	0baH
	DB	00H
	DB	00H
	DB	00H
	DB	0baH
	DB	00H
	DB	00H
	DB	00H
	DB	0baH
	DB	00H
	DB	00H
	DB	00H
	DB	0baH
	DB	00H
	DB	00H
	DB	00H
	DB	0baH
	DB	00H
	DB	00H
	DB	00H
	DB	0baH
	DB	00H
	DB	00H
	DB	00H
	DB	0baH
	DB	00H
	DB	00H
	DB	00H
	DB	0baH
	DB	00H
	DB	00H
	DB	00H
	DB	0baH
	DB	00H
	DB	00H
	DB	00H
	DB	0baH
	DB	00H
	DB	00H
	DB	00H
	DB	0baH
	DB	00H
	DB	00H
	DB	00H
	DB	0baH
	DB	00H
	DB	00H
	DB	00H
	DB	0baH
	DB	00H
	DB	00H
	DB	00H
	DB	0baH
	DB	00H
	DB	00H
	DB	00H
	DB	0baH
	DB	00H
	DB	00H
	DB	00H
	DB	0baH
	DB	00H
	DB	00H
	DB	00H
	DB	0baH
	DB	00H
	DB	00H
	DB	00H
	DB	0baH
	DB	00H
	DB	00H
	DB	00H
	DB	0baH
	DB	00H
	DB	00H
	DB	00H
	DB	0baH
	DB	00H
	DB	00H
	DB	00H
	DB	0baH
	DB	00H
	DB	00H
	DB	00H
	DB	0baH
	DB	00H
	DB	00H
	DB	00H
	DB	0baH
	DB	00H
	DB	00H
	DB	00H
	DB	0baH
	DB	00H
	DB	00H
	DB	00H
	DB	0baH
	DB	00H
	DB	00H
	DB	00H
	DB	0baH
	DB	00H
	DB	00H
	DB	00H
	DB	0baH
	DB	00H
	DB	00H
	DB	00H
	DB	0baH
	DB	00H
	DB	00H
	DB	00H
	DB	0baH
	DB	00H
	DB	00H
	DB	00H
	DB	0baH
	DB	00H
	DB	00H
	DB	00H
	DB	0baH
	DB	00H
	DB	00H
	DB	00H
	DB	0baH
	DB	00H
	DB	00H
	DB	00H
	DB	0baH
	DB	00H
	DB	00H
	DB	00H
	DB	0baH
	DB	00H
	DB	00H
	DB	00H
	DB	0baH
	DB	00H
	DB	00H
	DB	00H
	DB	0baH
	DB	00H
	DB	00H
	DB	00H
	DB	0baH
	DB	00H
	DB	00H
	DB	00H
	DB	0baH
	DB	00H
	DB	00H
	DB	00H
	DB	0baH
	DB	00H
	DB	00H
	DB	00H
	DB	0baH
	DB	00H
	DB	00H
	DB	00H
	DB	0baH
	DB	00H
	DB	00H
	DB	00H
	DB	0baH
	DB	00H
	DB	00H
	DB	00H
	DB	0baH
	DB	00H
	DB	00H
	DB	00H
	DB	0baH
	DB	00H
	DB	00H
	DB	00H
	DB	0baH
	DB	00H
	DB	00H
	DB	00H
	DB	0baH
	DB	00H
	DB	00H
	DB	00H
	DB	0baH
	DB	00H
	DB	00H
	DB	00H
	DB	0baH
	DB	00H
	DB	00H
	DB	00H
	DB	0baH
	DB	00H
	DB	00H
	DB	00H
	DB	0baH
	DB	00H
	DB	00H
	DB	00H
	DB	0baH
	DB	00H
	DB	00H
	DB	00H
	DB	0baH
	DB	00H
	DB	00H
	DB	00H
	DB	0baH
	DB	00H
	DB	00H
	DB	00H
	DB	0baH
	DB	00H
	DB	00H
	DB	00H
	DB	0baH
	DB	00H
	DB	00H
	DB	00H
	DB	0baH
	DB	00H
	DB	00H
	DB	00H
	DB	0baH
	DB	00H
	DB	00H
	DB	00H
	DB	0baH
	DB	00H
	DB	00H
	DB	00H
	DB	0baH
	DB	00H
	DB	00H
	DB	00H
	DB	0baH
	DB	00H
	DB	00H
	DB	00H
	DB	0baH
	DB	00H
	DB	00H
	DB	00H
	DB	0baH
	DB	00H
	DB	00H
	DB	00H
	DB	0baH
	DB	00H
	DB	00H
	DB	00H
	DB	0baH
	DB	00H
	DB	00H
	DB	00H
	DB	0baH
	DB	00H
	DB	00H
	DB	00H
	DB	0baH
	DB	00H
	DB	00H
	DB	00H
	DB	0baH
	DB	00H
	DB	00H
	DB	00H
	DB	0baH
	DB	00H
	DB	00H
	DB	00H
	DB	0baH
	DB	00H
	DB	00H
	DB	00H
	DB	0baH
	DB	00H
	DB	00H
	DB	00H
	DB	0baH
	DB	00H
	DB	00H
	DB	00H
	DB	0baH
	DB	00H
	DB	00H
	DB	00H
	DB	0baH
	DB	00H
	DB	00H
	DB	00H
	DB	0baH
	DB	00H
	DB	00H
	DB	00H
	DB	0baH
	DB	00H
	DB	00H
	DB	00H
	DB	0baH
	DB	00H
	DB	00H
	DB	00H
	DB	0baH
	DB	00H
	DB	00H
	DB	00H
	DB	0baH
	DB	00H
	DB	00H
	DB	00H
	DB	0baH
	DB	00H
	DB	00H
	DB	00H
	DB	0baH
	DB	00H
	DB	00H
	DB	00H
	DB	0baH
	DB	00H
	DB	00H
	DB	00H
	DB	0baH
	DB	00H
	DB	00H
	DB	00H
	DB	0baH
	DB	00H
	DB	00H
	DB	00H
	DB	0baH
	DB	00H
	DB	00H
	DB	00H
	DB	0baH
	DB	00H
	DB	00H
	DB	00H
	DB	0baH
	DB	00H
	DB	00H
	DB	00H
	DB	0baH
	DB	00H
	DB	00H
	DB	00H
	DB	0baH
	DB	00H
	DB	00H
	DB	00H
	DB	0baH
	DB	00H
	DB	00H
	DB	00H
	DB	0baH
	DB	00H
	DB	00H
	DB	00H
	DB	0baH
	DB	00H
	DB	00H
	DB	00H
	DB	0baH
	DB	00H
	DB	00H
	DB	00H
	DB	0baH
	DB	00H
	DB	00H
	DB	00H
	DB	0baH
	DB	00H
	DB	00H
	DB	00H
	DB	0baH
	DB	00H
	DB	00H
	DB	00H
	DB	0baH
	DB	00H
	DB	00H
	DB	00H
	DB	0baH
	DB	00H
	DB	00H
	DB	00H
	DB	0baH
	DB	00H
	DB	00H
	DB	00H
	DB	0baH
	DB	00H
	DB	00H
	DB	00H
	DB	0baH
	DB	00H
	DB	00H
	DB	00H
	DB	0baH
	DB	00H
	DB	00H
	DB	00H
	DB	0baH
	DB	00H
	DB	00H
	DB	00H
	DB	0baH
	DB	00H
	DB	00H
	DB	00H
	DB	0baH
	DB	00H
	DB	00H
	DB	00H
	DB	0baH
	DB	00H
	DB	00H
	DB	00H
	DB	0baH
	DB	00H
	DB	00H
	DB	00H
	DB	0baH
	DB	00H
	DB	00H
	DB	00H
	DB	0baH
	DB	00H
	DB	00H
	DB	00H
	DB	0baH
	DB	00H
	DB	00H
	DB	00H
	DB	0baH
	DB	00H
	DB	00H
	DB	00H
	DB	0baH
	DB	00H
	DB	00H
	DB	00H
	DB	0baH
	DB	00H
	DB	00H
	DB	00H
	DB	0baH
	DB	00H
	DB	00H
	DB	00H
	DB	0baH
	DB	00H
	DB	00H
	DB	00H
	DB	0baH
	DB	00H
	DB	00H
	DB	00H
	DB	0baH
	DB	00H
	DB	00H
	DB	00H
	DB	0baH
	DB	00H
	DB	00H
	DB	00H
	DB	0baH
	DB	00H
	DB	00H
	DB	00H
	DB	0baH
	DB	00H
	DB	00H
	DB	00H
	DB	0baH
	DB	00H
	DB	00H
	DB	00H
	DB	0baH
	DB	00H
	DB	00H
	DB	00H
	DB	0baH
	DB	00H
	DB	00H
	DB	00H
	DB	0baH
	DB	00H
	DB	00H
	DB	00H
	DB	0baH
	DB	00H
	DB	00H
	DB	00H
	DB	0baH
	DB	00H
	DB	00H
	DB	00H
	DB	0baH
	DB	00H
	DB	00H
	DB	00H
	DB	0baH
	DB	00H
	DB	00H
	DB	00H
	DB	0baH
	DB	00H
	DB	00H
	DB	00H
	DB	0baH
	DB	00H
	DB	00H
	DB	00H
	DB	0baH
	DB	00H
	DB	00H
	DB	00H
	DB	0baH
	DB	00H
	DB	00H
	DB	00H
	DB	0baH
	DB	00H
	DB	00H
	DB	00H
	DB	0baH
	DB	00H
	DB	00H
	DB	00H
	DB	0baH
	DB	00H
	DB	00H
	DB	00H
	DB	0baH
	DB	00H
	DB	00H
	DB	00H
	DB	0baH
	DB	00H
	DB	00H
	DB	00H
	DB	0baH
	DB	00H
	DB	00H
	DB	00H
	DB	0baH
	DB	00H
	DB	00H
	DB	00H
	DB	0baH
	DB	00H
	DB	00H
	DB	00H
	DB	0baH
	DB	00H
	DB	00H
	DB	00H
	DB	0baH
	DB	00H
	DB	00H
	DB	00H
	DB	0baH
	DB	00H
	DB	00H
	DB	00H
	DB	0baH
	DB	00H
	DB	00H
	DB	00H
	DB	0baH
	DB	00H
	DB	00H
	DB	00H
	DB	0baH
	DB	00H
	DB	00H
	DB	00H
	DB	0baH
	DB	00H
	DB	00H
	DB	00H
	DB	0baH
	DB	00H
	DB	00H
	DB	00H
	DB	0baH
	DB	00H
	DB	00H
	DB	00H
	DB	0baH
	DB	00H
	DB	00H
	DB	00H
	DB	0baH
	DB	00H
	DB	00H
	DB	00H
	DB	0baH
	DB	00H
	DB	00H
	DB	00H
	DB	0baH
	DB	00H
	DB	00H
	DB	00H
	DB	0baH
	DB	00H
	DB	00H
	DB	00H
	DB	0baH
	DB	00H
	DB	00H
	DB	00H
	DB	0baH
	DB	00H
	DB	00H
	DB	00H
	DB	0baH
	DB	00H
	DB	00H
	DB	00H
	DB	0baH
	DB	00H
	DB	00H
	DB	00H
	DB	0baH
	DB	00H
	DB	00H
	DB	00H
	DB	0baH
	DB	00H
	DB	00H
	DB	00H
	DB	0baH
	DB	00H
	DB	00H
	DB	00H
	DB	0baH
	DB	00H
	DB	00H
	DB	00H
	DB	0baH
	DB	00H
	DB	00H
	DB	00H
	DB	0baH
	DB	00H
	DB	00H
	DB	00H
	DB	0baH
	DB	00H
	DB	00H
	DB	00H
	DB	0baH
	DB	00H
	DB	00H
	DB	00H
	DB	0baH
	DB	00H
	DB	00H
	DB	00H
	DB	0baH
	DB	00H
	DB	00H
	DB	00H
	DB	0baH
	DB	00H
	DB	00H
	DB	00H
	DB	0baH
	DB	00H
	DB	00H
	DB	00H
	DB	0baH
	DB	00H
	DB	00H
	DB	00H
	DB	0baH
	DB	00H
	DB	00H
	DB	00H
	DB	0baH
	DB	00H
	DB	00H
	DB	00H
	DB	0baH
	DB	00H
	DB	00H
	DB	00H
	DB	0baH
	DB	00H
	DB	00H
	DB	00H
	DB	0baH
	DB	00H
	DB	00H
	DB	00H
	DB	0baH
	DB	00H
	DB	00H
	DB	00H
	DB	0baH
	DB	00H
	DB	00H
	DB	00H
	DB	0baH
	DB	00H
	DB	00H
	DB	00H
	DB	0baH
	DB	00H
	DB	00H
	DB	00H
	DB	0baH
	DB	00H
	DB	00H
	DB	00H
	DB	0baH
	DB	00H
	DB	00H
	DB	00H
	DB	0baH
	DB	00H
	DB	00H
	DB	00H
	DB	0baH
	DB	00H
	DB	00H
	DB	00H
	DB	0baH
	DB	00H
	DB	00H
	DB	00H
	DB	0baH
	DB	00H
	DB	00H
	DB	00H
	DB	0baH
	DB	00H
	DB	00H
	DB	00H
	DB	0baH
	DB	00H
	DB	00H
	DB	00H
	DB	0baH
	DB	00H
	DB	00H
	DB	00H
	DB	0baH
	DB	00H
	DB	00H
	DB	00H
	DB	0baH
	DB	00H
	DB	00H
	DB	00H
	DB	0baH
	DB	00H
	DB	00H
	DB	00H
	DB	0baH
	DB	00H
	DB	00H
	DB	00H
	DB	0baH
	DB	00H
	DB	00H
	DB	00H
	DB	0baH
	DB	00H
	DB	00H
	DB	00H
	DB	0baH
	DB	00H
	DB	00H
	DB	00H
	DB	0baH
	DB	00H
	DB	00H
	DB	00H
	DB	0baH
	DB	00H
	DB	00H
	DB	00H
	DB	0baH
	DB	00H
	DB	00H
	DB	00H
	DB	0baH
	DB	00H
	DB	00H
	DB	00H
	DB	0baH
	DB	00H
	DB	00H
	DB	00H
	DB	0baH
	DB	00H
	DB	00H
	DB	00H
	DB	0baH
	DB	00H
	DB	00H
	DB	00H
	DB	0baH
	DB	00H
	DB	00H
	DB	00H
	DB	0baH
	DB	00H
	DB	00H
	DB	00H
	DB	0baH
	DB	00H
	DB	00H
	DB	00H
	DB	0baH
	DB	00H
	DB	00H
	DB	00H
	DB	0baH
	DB	00H
	DB	00H
	DB	00H
	DB	0baH
	DB	00H
	DB	00H
	DB	00H
	DB	0baH
	DB	00H
	DB	00H
	DB	00H
	DB	0baH
	DB	00H
	DB	00H
	DB	00H
	DB	0baH
	DB	00H
	DB	00H
	DB	00H
	DB	0baH
	DB	00H
	DB	00H
	DB	00H
	DB	0baH
	DB	00H
	DB	00H
	DB	00H
	DB	0baH
	DB	00H
	DB	00H
	DB	00H
	DB	0baH
	DB	00H
	DB	00H
	DB	00H
	DB	0baH
	DB	00H
	DB	00H
	DB	00H
	DB	0baH
	DB	00H
	DB	00H
	DB	00H
	DB	0baH
	DB	00H
	DB	00H
	DB	00H
	DB	0baH
	DB	00H
	DB	00H
	DB	00H
	DB	0baH
	DB	00H
	DB	00H
	DB	00H
	DB	0baH
	DB	00H
	DB	00H
	DB	00H
	DB	0baH
	DB	00H
	DB	00H
	DB	00H
	DB	0baH
	DB	00H
	DB	00H
	DB	00H
	DB	0baH
	DB	00H
	DB	00H
	DB	00H
	DB	0baH
	DB	00H
	DB	00H
	DB	00H
	DB	0baH
	DB	00H
	DB	00H
	DB	00H
	DB	0baH
	DB	00H
	DB	00H
	DB	00H
	DB	0baH
	DB	00H
	DB	00H
	DB	00H
	DB	0baH
	DB	00H
	DB	00H
	DB	00H
	DB	0baH
	DB	00H
	DB	00H
	DB	00H
	DB	0baH
	DB	00H
	DB	00H
	DB	00H
	DB	0baH
	DB	00H
	DB	00H
	DB	00H
	DB	0baH
	DB	00H
	DB	00H
	DB	00H
	DB	0baH
	DB	00H
	DB	00H
	DB	00H
	DB	0baH
	DB	00H
	DB	00H
	DB	00H
	DB	0baH
	DB	00H
	DB	00H
	DB	00H
	DB	0baH
	DB	00H
	DB	00H
	DB	00H
	DB	0baH
	DB	00H
	DB	00H
	DB	00H
	DB	0baH
	DB	00H
	DB	00H
	DB	00H
	DB	0baH
	DB	00H
	DB	00H
	DB	00H
	DB	0baH
	DB	00H
	DB	00H
	DB	00H
	DB	0baH
	DB	00H
	DB	00H
	DB	00H
	DB	0baH
	DB	00H
	DB	00H
	DB	00H
	DB	0baH
	DB	00H
	DB	00H
	DB	00H
	DB	0baH
	DB	00H
	DB	00H
	DB	00H
	DB	0baH
	DB	00H
	DB	00H
	DB	00H
	DB	0baH
	DB	00H
	DB	00H
	DB	00H
	DB	0baH
	DB	00H
	DB	00H
	DB	00H
	DB	0baH
	DB	00H
	DB	00H
	DB	00H
	DB	0baH
	DB	00H
	DB	00H
	DB	00H
	DB	0baH
	DB	00H
	DB	00H
	DB	00H
	DB	0baH
	DB	00H
	DB	00H
	DB	00H
	DB	0baH
	DB	00H
	DB	00H
	DB	00H
	DB	0baH
	DB	00H
	DB	00H
	DB	00H
	DB	0baH
	DB	00H
	DB	00H
	DB	00H
	DB	0baH
	DB	00H
	DB	00H
	DB	00H
	DB	0baH
	DB	00H
	DB	00H
	DB	00H
	DB	0baH
	DB	00H
	DB	00H
	DB	00H
	DB	0baH
	DB	00H
	DB	00H
	DB	00H
	DB	0baH
	DB	00H
	DB	00H
	DB	00H
	DB	0baH
	DB	00H
	DB	00H
	DB	00H
	DB	0baH
	DB	00H
	DB	00H
	DB	00H
	DB	0baH
	DB	00H
	DB	00H
	DB	00H
	DB	0baH
	DB	00H
	DB	00H
	DB	00H
	DB	0baH
	DB	00H
	DB	00H
	DB	00H
	DB	0baH
	DB	00H
	DB	00H
	DB	00H
	DB	0baH
	DB	00H
	DB	00H
	DB	00H
	DB	0baH
	DB	00H
	DB	00H
	DB	00H
	DB	0baH
	DB	00H
	DB	00H
	DB	00H
	DB	0baH
	DB	00H
	DB	00H
	DB	00H
	DB	0baH
	DB	00H
	DB	00H
	DB	00H
	DB	0baH
	DB	00H
	DB	00H
	DB	00H
	DB	0baH
	DB	00H
	DB	00H
	DB	00H
	DB	0baH
	DB	00H
	DB	00H
	DB	00H
	DB	0baH
	DB	00H
	DB	00H
	DB	00H
	DB	0baH
	DB	00H
	DB	00H
	DB	00H
	DB	0baH
	DB	00H
	DB	00H
	DB	00H
	DB	0baH
	DB	00H
	DB	00H
	DB	00H
	DB	0baH
	DB	00H
	DB	00H
	DB	00H
	DB	0baH
	DB	00H
	DB	00H
	DB	00H
	DB	0baH
	DB	00H
	DB	00H
	DB	00H
	DB	0baH
	DB	00H
	DB	00H
	DB	00H
	DB	0baH
	DB	00H
	DB	00H
	DB	00H
	DB	0baH
	DB	00H
	DB	00H
	DB	00H
	DB	0baH
	DB	00H
	DB	00H
	DB	00H
	DB	0baH
	DB	00H
	DB	00H
	DB	00H
	DB	0baH
	DB	00H
	DB	00H
	DB	00H
	DB	0baH
	DB	00H
	DB	00H
	DB	00H
	DB	0baH
	DB	00H
	DB	00H
	DB	00H
	DB	0baH
	DB	00H
	DB	00H
	DB	00H
	DB	0baH
	DB	00H
	DB	00H
	DB	00H
	DB	0baH
	DB	00H
	DB	00H
	DB	00H
	DB	0baH
	DB	00H
	DB	00H
	DB	00H
	DB	0baH
	DB	00H
	DB	00H
	DB	00H
	DB	0baH
	DB	00H
	DB	00H
	DB	00H
	DB	0baH
	DB	00H
	DB	00H
	DB	00H
	DB	0baH
	DB	00H
	DB	00H
	DB	00H
	DB	0baH
	DB	00H
	DB	00H
	DB	00H
	DB	0baH
	DB	00H
	DB	00H
	DB	00H
	DB	0baH
	DB	00H
	DB	00H
	DB	00H
	DB	0baH
	DB	00H
	DB	00H
	DB	00H
	DB	0b6H
	DB	00H
	DB	00H
	DB	00H
	DB	0baH
	DB	00H
	DB	00H
	DB	00H
	DB	0baH
	DB	00H
	DB	00H
	DB	00H
	DB	0baH
	DB	00H
	DB	00H
	DB	00H
	DB	0baH
	DB	00H
	DB	00H
	DB	00H
	DB	0baH
	DB	00H
	DB	00H
	DB	00H
	DB	0baH
	DB	00H
	DB	00H
	DB	00H
	DB	0baH
	DB	00H
	DB	00H
	DB	00H
	DB	0baH
	DB	00H
	DB	00H
	DB	00H
	DB	0baH
	DB	00H
	DB	00H
	DB	00H
	DB	0baH
	DB	00H
	DB	00H
	DB	00H
	DB	0baH
	DB	00H
	DB	00H
	DB	00H
	DB	0baH
	DB	00H
	DB	00H
	DB	00H
	DB	0baH
	DB	00H
	DB	00H
	DB	00H
	DB	0baH
	DB	00H
	DB	00H
	DB	00H
	DB	0baH
	DB	00H
	DB	00H
	DB	00H
	DB	0baH
	DB	00H
	DB	00H
	DB	00H
	DB	0baH
	DB	00H
	DB	00H
	DB	00H
	DB	0baH
	DB	00H
	DB	00H
	DB	00H
	DB	0baH
	DB	00H
	DB	00H
	DB	00H
	DB	0baH
	DB	00H
	DB	00H
	DB	00H
	DB	0baH
	DB	00H
	DB	00H
	DB	00H
	DB	0baH
	DB	00H
	DB	00H
	DB	00H
	DB	0baH
	DB	00H
	DB	00H
	DB	00H
	DB	0baH
	DB	00H
	DB	00H
	DB	00H
	DB	0baH
	DB	00H
	DB	00H
	DB	00H
	DB	0baH
	DB	00H
	DB	00H
	DB	00H
	DB	0baH
	DB	00H
	DB	00H
	DB	00H
	DB	0baH
	DB	00H
	DB	00H
	DB	00H
	DB	0baH
	DB	00H
	DB	00H
	DB	00H
	DB	0baH
	DB	00H
	DB	00H
	DB	00H
	DB	0baH
	DB	00H
	DB	00H
	DB	00H
	DB	0baH
	DB	00H
	DB	00H
	DB	00H
	DB	0baH
	DB	00H
	DB	00H
	DB	00H
	DB	0baH
	DB	00H
	DB	00H
	DB	00H
	DB	0baH
	DB	00H
	DB	00H
	DB	00H
	DB	0baH
	DB	00H
	DB	00H
	DB	00H
	DB	0baH
	DB	00H
	DB	00H
	DB	00H
	DB	0baH
	DB	00H
	DB	00H
	DB	00H
	DB	0baH
	DB	00H
	DB	00H
	DB	00H
	DB	0baH
	DB	00H
	DB	00H
	DB	00H
	DB	0baH
	DB	00H
	DB	00H
	DB	00H
	DB	0baH
	DB	00H
	DB	00H
	DB	00H
	DB	0baH
	DB	00H
	DB	00H
	DB	00H
	DB	0baH
	DB	00H
	DB	00H
	DB	00H
	DB	0baH
	DB	00H
	DB	00H
	DB	00H
	DB	0baH
	DB	00H
	DB	00H
	DB	00H
	DB	0baH
	DB	00H
	DB	00H
	DB	00H
	DB	0baH
	DB	00H
	DB	00H
	DB	00H
	DB	0baH
	DB	00H
	DB	00H
	DB	00H
	DB	0baH
	DB	00H
	DB	00H
	DB	00H
	DB	0baH
	DB	00H
	DB	00H
	DB	00H
	DB	0baH
	DB	00H
	DB	00H
	DB	00H
	DB	0baH
	DB	00H
	DB	00H
	DB	00H
	DB	0baH
	DB	00H
	DB	00H
	DB	00H
	DB	0baH
	DB	00H
	DB	00H
	DB	00H
	DB	0baH
	DB	00H
	DB	00H
	DB	00H
	DB	0baH
	DB	00H
	DB	00H
	DB	00H
	DB	0baH
	DB	00H
	DB	00H
	DB	00H
	DB	0baH
	DB	00H
	DB	00H
	DB	00H
	DB	0baH
	DB	00H
	DB	00H
	DB	00H
	DB	0baH
	DB	00H
	DB	00H
	DB	00H
	DB	0baH
	DB	00H
	DB	00H
	DB	00H
	DB	0baH
	DB	00H
	DB	00H
	DB	00H
	DB	0baH
	DB	00H
	DB	00H
	DB	00H
	DB	0baH
	DB	00H
	DB	00H
	DB	00H
	DB	0baH
	DB	00H
	DB	00H
	DB	00H
	DB	0baH
	DB	00H
	DB	00H
	DB	00H
	DB	0baH
	DB	00H
	DB	00H
	DB	00H
	DB	0baH
	DB	00H
	DB	00H
	DB	00H
	DB	0baH
	DB	00H
	DB	00H
	DB	00H
	DB	0baH
	DB	00H
	DB	00H
	DB	00H
	DB	0baH
	DB	00H
	DB	00H
	DB	00H
	DB	0baH
	DB	00H
	DB	00H
	DB	00H
	DB	0baH
	DB	00H
	DB	00H
	DB	00H
	DB	0baH
	DB	00H
	DB	00H
	DB	00H
	DB	0baH
	DB	00H
	DB	00H
	DB	00H
	DB	0baH
	DB	00H
	DB	00H
	DB	00H
	DB	0baH
	DB	00H
	DB	00H
	DB	00H
	DB	0baH
	DB	00H
	DB	00H
	DB	00H
	DB	0baH
	DB	00H
	DB	00H
	DB	00H
	DB	0baH
	DB	00H
	DB	00H
	DB	00H
	DB	0baH
	DB	00H
	DB	00H
	DB	00H
	DB	0baH
	DB	00H
	DB	00H
	DB	00H
	DB	0baH
	DB	00H
	DB	00H
	DB	00H
	DB	0baH
	DB	00H
	DB	00H
	DB	00H
	DB	0baH
	DB	00H
	DB	00H
	DB	00H
	DB	0baH
	DB	00H
	DB	00H
	DB	00H
	DB	0baH
	DB	00H
	DB	00H
	DB	00H
	DB	0baH
	DB	00H
	DB	00H
	DB	00H
	DB	0baH
	DB	00H
	DB	00H
	DB	00H
	DB	0baH
	DB	00H
	DB	00H
	DB	00H
	DB	0baH
	DB	00H
	DB	00H
	DB	00H
	DB	0baH
	DB	00H
	DB	00H
	DB	00H
	DB	0baH
	DB	00H
	DB	00H
	DB	00H
	DB	0baH
	DB	00H
	DB	00H
	DB	00H
	DB	0baH
	DB	00H
	DB	00H
	DB	00H
	DB	0baH
	DB	00H
	DB	00H
	DB	00H
	DB	0baH
	DB	00H
	DB	00H
	DB	00H
	DB	0baH
	DB	00H
	DB	00H
	DB	00H
	DB	0baH
	DB	00H
	DB	00H
	DB	00H
	DB	0baH
	DB	00H
	DB	00H
	DB	00H
	DB	0baH
	DB	00H
	DB	00H
	DB	00H
	DB	0baH
	DB	00H
	DB	00H
	DB	00H
	DB	0baH
	DB	00H
	DB	00H
	DB	00H
	DB	0baH
	DB	00H
	DB	00H
	DB	00H
	DB	0baH
	DB	00H
	DB	00H
	DB	00H
	DB	0baH
	DB	00H
	DB	00H
	DB	00H
	DB	0baH
	DB	00H
	DB	00H
	DB	00H
	DB	0baH
	DB	00H
	DB	00H
	DB	00H
	DB	0baH
	DB	00H
	DB	00H
	DB	00H
	DB	0baH
	DB	00H
	DB	00H
	DB	00H
	DB	0baH
	DB	00H
	DB	00H
	DB	00H
	DB	0baH
	DB	00H
	DB	00H
	DB	00H
	DB	0baH
	DB	00H
	DB	00H
	DB	00H
	DB	0baH
	DB	00H
	DB	00H
	DB	00H
	DB	0baH
	DB	00H
	DB	00H
	DB	00H
	DB	0baH
	DB	00H
	DB	00H
	DB	00H
	DB	0baH
	DB	00H
	DB	00H
	DB	00H
	DB	0baH
	DB	00H
	DB	00H
	DB	00H
	DB	0baH
	DB	00H
	DB	00H
	DB	00H
	DB	0baH
	DB	00H
	DB	00H
	DB	00H
	DB	0baH
	DB	00H
	DB	00H
	DB	00H
	DB	0baH
	DB	00H
	DB	00H
	DB	00H
	DB	0baH
	DB	00H
	DB	00H
	DB	00H
	DB	0baH
	DB	00H
	DB	00H
	DB	00H
	DB	0baH
	DB	00H
	DB	00H
	DB	00H
	DB	0baH
	DB	00H
	DB	00H
	DB	00H
	DB	0baH
	DB	00H
	DB	00H
	DB	00H
	DB	0b1H
	DB	00H
	DB	00H
	DB	00H
	DB	091H
	DB	00H
	DB	00H
	DB	00H
	DB	0baH
	DB	00H
	DB	00H
	DB	00H
	DB	0baH
	DB	00H
	DB	00H
	DB	00H
	DB	0baH
	DB	00H
	DB	00H
	DB	00H
	DB	0baH
	DB	00H
	DB	00H
	DB	00H
	DB	0baH
	DB	00H
	DB	00H
	DB	00H
	DB	0baH
	DB	00H
	DB	00H
	DB	00H
	DB	0baH
	DB	00H
	DB	00H
	DB	00H
	DB	0baH
	DB	00H
	DB	00H
	DB	00H
	DB	0baH
	DB	00H
	DB	00H
	DB	00H
	DB	0baH
	DB	00H
	DB	00H
	DB	00H
	DB	0baH
	DB	00H
	DB	00H
	DB	00H
	DB	0baH
	DB	00H
	DB	00H
	DB	00H
	DB	0baH
	DB	00H
	DB	00H
	DB	00H
	DB	0baH
	DB	00H
	DB	00H
	DB	00H
	DB	0baH
	DB	00H
	DB	00H
	DB	00H
	DB	0baH
	DB	00H
	DB	00H
	DB	00H
	DB	0baH
	DB	00H
	DB	00H
	DB	00H
	DB	0baH
	DB	00H
	DB	00H
	DB	00H
	DB	0baH
	DB	00H
	DB	00H
	DB	00H
	DB	0baH
	DB	00H
	DB	00H
	DB	00H
	DB	0baH
	DB	00H
	DB	00H
	DB	00H
	DB	0baH
	DB	00H
	DB	00H
	DB	00H
	DB	0baH
	DB	00H
	DB	00H
	DB	00H
	DB	0baH
	DB	00H
	DB	00H
	DB	00H
	DB	0baH
	DB	00H
	DB	00H
	DB	00H
	DB	0baH
	DB	00H
	DB	00H
	DB	00H
	DB	0baH
	DB	00H
	DB	00H
	DB	00H
	DB	0baH
	DB	00H
	DB	00H
	DB	00H
	DB	0baH
	DB	00H
	DB	00H
	DB	00H
	DB	0baH
	DB	00H
	DB	00H
	DB	00H
	DB	0baH
	DB	00H
	DB	00H
	DB	00H
	DB	0baH
	DB	00H
	DB	00H
	DB	00H
	DB	0baH
	DB	00H
	DB	00H
	DB	00H
	DB	0baH
	DB	00H
	DB	00H
	DB	00H
	DB	0baH
	DB	00H
	DB	00H
	DB	00H
	DB	0baH
	DB	00H
	DB	00H
	DB	00H
	DB	0baH
	DB	00H
	DB	00H
	DB	00H
	DB	0baH
	DB	00H
	DB	00H
	DB	00H
	DB	0baH
	DB	00H
	DB	00H
	DB	00H
	DB	0baH
	DB	00H
	DB	00H
	DB	00H
	DB	0baH
	DB	00H
	DB	00H
	DB	00H
	DB	0baH
	DB	00H
	DB	00H
	DB	00H
	DB	0baH
	DB	00H
	DB	00H
	DB	00H
	DB	0baH
	DB	00H
	DB	00H
	DB	00H
	DB	0baH
	DB	00H
	DB	00H
	DB	00H
	DB	0baH
	DB	00H
	DB	00H
	DB	00H
	DB	0baH
	DB	00H
	DB	00H
	DB	00H
	DB	0baH
	DB	00H
	DB	00H
	DB	00H
	DB	0baH
	DB	00H
	DB	00H
	DB	00H
	DB	0baH
	DB	00H
	DB	00H
	DB	00H
	DB	0baH
	DB	00H
	DB	00H
	DB	00H
	DB	0baH
	DB	00H
	DB	00H
	DB	00H
	DB	0baH
	DB	00H
	DB	00H
	DB	00H
	DB	0baH
	DB	00H
	DB	00H
	DB	00H
	DB	0baH
	DB	00H
	DB	00H
	DB	00H
	DB	0baH
	DB	00H
	DB	00H
	DB	00H
	DB	0baH
	DB	00H
	DB	00H
	DB	00H
	DB	0baH
	DB	00H
	DB	00H
	DB	00H
	DB	0baH
	DB	00H
	DB	00H
	DB	00H
	DB	0baH
	DB	00H
	DB	00H
	DB	00H
	DB	0baH
	DB	00H
	DB	00H
	DB	00H
	DB	0baH
	DB	00H
	DB	00H
	DB	00H
	DB	0baH
	DB	00H
	DB	00H
	DB	00H
	DB	0baH
	DB	00H
	DB	00H
	DB	00H
	DB	0baH
	DB	00H
	DB	00H
	DB	00H
	DB	0baH
	DB	00H
	DB	00H
	DB	00H
	DB	0baH
	DB	00H
	DB	00H
	DB	00H
	DB	0baH
	DB	00H
	DB	00H
	DB	00H
	DB	0baH
	DB	00H
	DB	00H
	DB	00H
	DB	0baH
	DB	00H
	DB	00H
	DB	00H
	DB	0baH
	DB	00H
	DB	00H
	DB	00H
	DB	0baH
	DB	00H
	DB	00H
	DB	00H
	DB	0baH
	DB	00H
	DB	00H
	DB	00H
	DB	0baH
	DB	00H
	DB	00H
	DB	00H
	DB	0baH
	DB	00H
	DB	00H
	DB	00H
	DB	0baH
	DB	00H
	DB	00H
	DB	00H
	DB	0baH
	DB	00H
	DB	00H
	DB	00H
	DB	0baH
	DB	00H
	DB	00H
	DB	00H
	DB	0baH
	DB	00H
	DB	00H
	DB	00H
	DB	0baH
	DB	00H
	DB	00H
	DB	00H
	DB	0baH
	DB	00H
	DB	00H
	DB	00H
	DB	0baH
	DB	00H
	DB	00H
	DB	00H
	DB	0baH
	DB	00H
	DB	00H
	DB	00H
	DB	0baH
	DB	00H
	DB	00H
	DB	00H
	DB	0baH
	DB	00H
	DB	00H
	DB	00H
	DB	0baH
	DB	00H
	DB	00H
	DB	00H
	DB	0baH
	DB	00H
	DB	00H
	DB	00H
	DB	0baH
	DB	00H
	DB	00H
	DB	00H
	DB	0baH
	DB	00H
	DB	00H
	DB	00H
	DB	0baH
	DB	00H
	DB	00H
	DB	00H
	DB	0baH
	DB	00H
	DB	00H
	DB	00H
	DB	0baH
	DB	00H
	DB	00H
	DB	00H
	DB	0baH
	DB	00H
	DB	00H
	DB	00H
	DB	0baH
	DB	00H
	DB	00H
	DB	00H
	DB	0baH
	DB	00H
	DB	00H
	DB	00H
	DB	0baH
	DB	00H
	DB	00H
	DB	00H
	DB	0baH
	DB	00H
	DB	00H
	DB	00H
	DB	0baH
	DB	00H
	DB	00H
	DB	00H
	DB	0baH
	DB	00H
	DB	00H
	DB	00H
	DB	0baH
	DB	00H
	DB	00H
	DB	00H
	DB	0baH
	DB	00H
	DB	00H
	DB	00H
	DB	0baH
	DB	00H
	DB	00H
	DB	00H
	DB	0baH
	DB	00H
	DB	00H
	DB	00H
	DB	0baH
	DB	00H
	DB	00H
	DB	00H
	DB	0baH
	DB	00H
	DB	00H
	DB	00H
	DB	0baH
	DB	00H
	DB	00H
	DB	00H
	DB	0baH
	DB	00H
	DB	00H
	DB	00H
	DB	0baH
	DB	00H
	DB	00H
	DB	00H
	DB	0baH
	DB	00H
	DB	00H
	DB	00H
	DB	0baH
	DB	00H
	DB	00H
	DB	00H
	DB	0baH
	DB	00H
	DB	00H
	DB	00H
	DB	0baH
	DB	00H
	DB	00H
	DB	00H
	DB	0baH
	DB	00H
	DB	00H
	DB	00H
	DB	0baH
	DB	00H
	DB	00H
	DB	00H
	DB	0baH
	DB	00H
	DB	00H
	DB	00H
	DB	0baH
	DB	00H
	DB	00H
	DB	00H
	DB	0baH
	DB	00H
	DB	00H
	DB	00H
	DB	0baH
	DB	00H
	DB	00H
	DB	00H
	DB	0baH
	DB	00H
	DB	00H
	DB	00H
	DB	0baH
	DB	00H
	DB	00H
	DB	00H
	DB	0baH
	DB	00H
	DB	00H
	DB	00H
	DB	0baH
	DB	00H
	DB	00H
	DB	00H
	DB	0baH
	DB	00H
	DB	00H
	DB	00H
	DB	0baH
	DB	00H
	DB	00H
	DB	00H
	DB	0baH
	DB	00H
	DB	00H
	DB	00H
	DB	0baH
	DB	00H
	DB	00H
	DB	00H
	DB	0baH
	DB	00H
	DB	00H
	DB	00H
	DB	0baH
	DB	00H
	DB	00H
	DB	00H
	DB	091H
	DB	00H
	DB	00H
	DB	00H
	DB	050H
	DB	00H
	DB	00H
	DB	00H
	DB	0baH
	DB	00H
	DB	00H
	DB	00H
	DB	0baH
	DB	00H
	DB	00H
	DB	00H
	DB	0baH
	DB	00H
	DB	00H
	DB	00H
	DB	0baH
	DB	00H
	DB	00H
	DB	00H
	DB	0baH
	DB	00H
	DB	00H
	DB	00H
	DB	0baH
	DB	00H
	DB	00H
	DB	00H
	DB	0baH
	DB	00H
	DB	00H
	DB	00H
	DB	0baH
	DB	00H
	DB	00H
	DB	00H
	DB	0baH
	DB	00H
	DB	00H
	DB	00H
	DB	0baH
	DB	00H
	DB	00H
	DB	00H
	DB	0baH
	DB	00H
	DB	00H
	DB	00H
	DB	0baH
	DB	00H
	DB	00H
	DB	00H
	DB	0baH
	DB	00H
	DB	00H
	DB	00H
	DB	0baH
	DB	00H
	DB	00H
	DB	00H
	DB	0baH
	DB	00H
	DB	00H
	DB	00H
	DB	0baH
	DB	00H
	DB	00H
	DB	00H
	DB	0baH
	DB	00H
	DB	00H
	DB	00H
	DB	0baH
	DB	00H
	DB	00H
	DB	00H
	DB	0baH
	DB	00H
	DB	00H
	DB	00H
	DB	0baH
	DB	00H
	DB	00H
	DB	00H
	DB	0baH
	DB	00H
	DB	00H
	DB	00H
	DB	0baH
	DB	00H
	DB	00H
	DB	00H
	DB	0baH
	DB	00H
	DB	00H
	DB	00H
	DB	0baH
	DB	00H
	DB	00H
	DB	00H
	DB	0baH
	DB	00H
	DB	00H
	DB	00H
	DB	0baH
	DB	00H
	DB	00H
	DB	00H
	DB	0baH
	DB	00H
	DB	00H
	DB	00H
	DB	0baH
	DB	00H
	DB	00H
	DB	00H
	DB	0baH
	DB	00H
	DB	00H
	DB	00H
	DB	0baH
	DB	00H
	DB	00H
	DB	00H
	DB	0baH
	DB	00H
	DB	00H
	DB	00H
	DB	0baH
	DB	00H
	DB	00H
	DB	00H
	DB	0baH
	DB	00H
	DB	00H
	DB	00H
	DB	0baH
	DB	00H
	DB	00H
	DB	00H
	DB	0baH
	DB	00H
	DB	00H
	DB	00H
	DB	0baH
	DB	00H
	DB	00H
	DB	00H
	DB	0baH
	DB	00H
	DB	00H
	DB	00H
	DB	0baH
	DB	00H
	DB	00H
	DB	00H
	DB	0baH
	DB	00H
	DB	00H
	DB	00H
	DB	0baH
	DB	00H
	DB	00H
	DB	00H
	DB	0baH
	DB	00H
	DB	00H
	DB	00H
	DB	0baH
	DB	00H
	DB	00H
	DB	00H
	DB	0baH
	DB	00H
	DB	00H
	DB	00H
	DB	0baH
	DB	00H
	DB	00H
	DB	00H
	DB	0baH
	DB	00H
	DB	00H
	DB	00H
	DB	0baH
	DB	00H
	DB	00H
	DB	00H
	DB	0baH
	DB	00H
	DB	00H
	DB	00H
	DB	0baH
	DB	00H
	DB	00H
	DB	00H
	DB	0baH
	DB	00H
	DB	00H
	DB	00H
	DB	0baH
	DB	00H
	DB	00H
	DB	00H
	DB	0baH
	DB	00H
	DB	00H
	DB	00H
	DB	0baH
	DB	00H
	DB	00H
	DB	00H
	DB	0baH
	DB	00H
	DB	00H
	DB	00H
	DB	0baH
	DB	00H
	DB	00H
	DB	00H
	DB	0baH
	DB	00H
	DB	00H
	DB	00H
	DB	0baH
	DB	00H
	DB	00H
	DB	00H
	DB	0baH
	DB	00H
	DB	00H
	DB	00H
	DB	0baH
	DB	00H
	DB	00H
	DB	00H
	DB	0baH
	DB	00H
	DB	00H
	DB	00H
	DB	0baH
	DB	00H
	DB	00H
	DB	00H
	DB	0baH
	DB	00H
	DB	00H
	DB	00H
	DB	0baH
	DB	00H
	DB	00H
	DB	00H
	DB	0baH
	DB	00H
	DB	00H
	DB	00H
	DB	0baH
	DB	00H
	DB	00H
	DB	00H
	DB	0baH
	DB	00H
	DB	00H
	DB	00H
	DB	0baH
	DB	00H
	DB	00H
	DB	00H
	DB	0baH
	DB	00H
	DB	00H
	DB	00H
	DB	0baH
	DB	00H
	DB	00H
	DB	00H
	DB	0baH
	DB	00H
	DB	00H
	DB	00H
	DB	0baH
	DB	00H
	DB	00H
	DB	00H
	DB	0baH
	DB	00H
	DB	00H
	DB	00H
	DB	0baH
	DB	00H
	DB	00H
	DB	00H
	DB	0baH
	DB	00H
	DB	00H
	DB	00H
	DB	0baH
	DB	00H
	DB	00H
	DB	00H
	DB	0baH
	DB	00H
	DB	00H
	DB	00H
	DB	0baH
	DB	00H
	DB	00H
	DB	00H
	DB	0baH
	DB	00H
	DB	00H
	DB	00H
	DB	0baH
	DB	00H
	DB	00H
	DB	00H
	DB	0baH
	DB	00H
	DB	00H
	DB	00H
	DB	0baH
	DB	00H
	DB	00H
	DB	00H
	DB	0baH
	DB	00H
	DB	00H
	DB	00H
	DB	0baH
	DB	00H
	DB	00H
	DB	00H
	DB	0baH
	DB	00H
	DB	00H
	DB	00H
	DB	0baH
	DB	00H
	DB	00H
	DB	00H
	DB	0baH
	DB	00H
	DB	00H
	DB	00H
	DB	0baH
	DB	00H
	DB	00H
	DB	00H
	DB	0baH
	DB	00H
	DB	00H
	DB	00H
	DB	0baH
	DB	00H
	DB	00H
	DB	00H
	DB	0baH
	DB	00H
	DB	00H
	DB	00H
	DB	0baH
	DB	00H
	DB	00H
	DB	00H
	DB	0baH
	DB	00H
	DB	00H
	DB	00H
	DB	0baH
	DB	00H
	DB	00H
	DB	00H
	DB	0baH
	DB	00H
	DB	00H
	DB	00H
	DB	0baH
	DB	00H
	DB	00H
	DB	00H
	DB	0baH
	DB	00H
	DB	00H
	DB	00H
	DB	0baH
	DB	00H
	DB	00H
	DB	00H
	DB	0baH
	DB	00H
	DB	00H
	DB	00H
	DB	0baH
	DB	00H
	DB	00H
	DB	00H
	DB	0baH
	DB	00H
	DB	00H
	DB	00H
	DB	0baH
	DB	00H
	DB	00H
	DB	00H
	DB	0baH
	DB	00H
	DB	00H
	DB	00H
	DB	0baH
	DB	00H
	DB	00H
	DB	00H
	DB	0baH
	DB	00H
	DB	00H
	DB	00H
	DB	0baH
	DB	00H
	DB	00H
	DB	00H
	DB	0baH
	DB	00H
	DB	00H
	DB	00H
	DB	0baH
	DB	00H
	DB	00H
	DB	00H
	DB	0baH
	DB	00H
	DB	00H
	DB	00H
	DB	0baH
	DB	00H
	DB	00H
	DB	00H
	DB	0baH
	DB	00H
	DB	00H
	DB	00H
	DB	0baH
	DB	00H
	DB	00H
	DB	00H
	DB	0baH
	DB	00H
	DB	00H
	DB	00H
	DB	0baH
	DB	00H
	DB	00H
	DB	00H
	DB	0baH
	DB	00H
	DB	00H
	DB	00H
	DB	0baH
	DB	00H
	DB	00H
	DB	00H
	DB	0baH
	DB	00H
	DB	00H
	DB	00H
	DB	0baH
	DB	00H
	DB	00H
	DB	00H
	DB	0baH
	DB	00H
	DB	00H
	DB	00H
	DB	0baH
	DB	00H
	DB	00H
	DB	00H
	DB	0baH
	DB	00H
	DB	00H
	DB	00H
	DB	0baH
	DB	00H
	DB	00H
	DB	00H
	DB	0baH
	DB	00H
	DB	00H
	DB	00H
	DB	0baH
	DB	00H
	DB	00H
	DB	00H
	DB	0baH
	DB	00H
	DB	00H
	DB	00H
	DB	0baH
	DB	00H
	DB	00H
	DB	00H
	DB	0baH
	DB	00H
	DB	00H
	DB	00H
	DB	0baH
	DB	00H
	DB	00H
	DB	00H
	DB	0baH
	DB	00H
	DB	00H
	DB	00H
	DB	0baH
	DB	00H
	DB	00H
	DB	00H
	DB	050H
	DB	00H
	DB	00H
	DB	00H
	DB	05H
	DB	00H
	DB	00H
	DB	00H
	DB	098H
	DB	00H
	DB	00H
	DB	00H
	DB	0baH
	DB	00H
	DB	00H
	DB	00H
	DB	0baH
	DB	00H
	DB	00H
	DB	00H
	DB	0baH
	DB	00H
	DB	00H
	DB	00H
	DB	0baH
	DB	00H
	DB	00H
	DB	00H
	DB	0baH
	DB	00H
	DB	00H
	DB	00H
	DB	0baH
	DB	00H
	DB	00H
	DB	00H
	DB	0baH
	DB	00H
	DB	00H
	DB	00H
	DB	0baH
	DB	00H
	DB	00H
	DB	00H
	DB	0baH
	DB	00H
	DB	00H
	DB	00H
	DB	0baH
	DB	00H
	DB	00H
	DB	00H
	DB	0baH
	DB	00H
	DB	00H
	DB	00H
	DB	0baH
	DB	00H
	DB	00H
	DB	00H
	DB	0baH
	DB	00H
	DB	00H
	DB	00H
	DB	0baH
	DB	00H
	DB	00H
	DB	00H
	DB	0baH
	DB	00H
	DB	00H
	DB	00H
	DB	0baH
	DB	00H
	DB	00H
	DB	00H
	DB	0baH
	DB	00H
	DB	00H
	DB	00H
	DB	0baH
	DB	00H
	DB	00H
	DB	00H
	DB	0baH
	DB	00H
	DB	00H
	DB	00H
	DB	0baH
	DB	00H
	DB	00H
	DB	00H
	DB	0baH
	DB	00H
	DB	00H
	DB	00H
	DB	0baH
	DB	00H
	DB	00H
	DB	00H
	DB	0baH
	DB	00H
	DB	00H
	DB	00H
	DB	0baH
	DB	00H
	DB	00H
	DB	00H
	DB	0baH
	DB	00H
	DB	00H
	DB	00H
	DB	0baH
	DB	00H
	DB	00H
	DB	00H
	DB	0baH
	DB	00H
	DB	00H
	DB	00H
	DB	0baH
	DB	00H
	DB	00H
	DB	00H
	DB	0baH
	DB	00H
	DB	00H
	DB	00H
	DB	0baH
	DB	00H
	DB	00H
	DB	00H
	DB	0baH
	DB	00H
	DB	00H
	DB	00H
	DB	0baH
	DB	00H
	DB	00H
	DB	00H
	DB	0baH
	DB	00H
	DB	00H
	DB	00H
	DB	0baH
	DB	00H
	DB	00H
	DB	00H
	DB	0baH
	DB	00H
	DB	00H
	DB	00H
	DB	0baH
	DB	00H
	DB	00H
	DB	00H
	DB	0baH
	DB	00H
	DB	00H
	DB	00H
	DB	0baH
	DB	00H
	DB	00H
	DB	00H
	DB	0baH
	DB	00H
	DB	00H
	DB	00H
	DB	0baH
	DB	00H
	DB	00H
	DB	00H
	DB	0baH
	DB	00H
	DB	00H
	DB	00H
	DB	0baH
	DB	00H
	DB	00H
	DB	00H
	DB	0baH
	DB	00H
	DB	00H
	DB	00H
	DB	0baH
	DB	00H
	DB	00H
	DB	00H
	DB	0baH
	DB	00H
	DB	00H
	DB	00H
	DB	0baH
	DB	00H
	DB	00H
	DB	00H
	DB	0baH
	DB	00H
	DB	00H
	DB	00H
	DB	0baH
	DB	00H
	DB	00H
	DB	00H
	DB	0baH
	DB	00H
	DB	00H
	DB	00H
	DB	0baH
	DB	00H
	DB	00H
	DB	00H
	DB	0baH
	DB	00H
	DB	00H
	DB	00H
	DB	0baH
	DB	00H
	DB	00H
	DB	00H
	DB	0baH
	DB	00H
	DB	00H
	DB	00H
	DB	0baH
	DB	00H
	DB	00H
	DB	00H
	DB	0baH
	DB	00H
	DB	00H
	DB	00H
	DB	0baH
	DB	00H
	DB	00H
	DB	00H
	DB	0baH
	DB	00H
	DB	00H
	DB	00H
	DB	0baH
	DB	00H
	DB	00H
	DB	00H
	DB	0baH
	DB	00H
	DB	00H
	DB	00H
	DB	0baH
	DB	00H
	DB	00H
	DB	00H
	DB	0baH
	DB	00H
	DB	00H
	DB	00H
	DB	0baH
	DB	00H
	DB	00H
	DB	00H
	DB	0baH
	DB	00H
	DB	00H
	DB	00H
	DB	0baH
	DB	00H
	DB	00H
	DB	00H
	DB	0baH
	DB	00H
	DB	00H
	DB	00H
	DB	0baH
	DB	00H
	DB	00H
	DB	00H
	DB	0baH
	DB	00H
	DB	00H
	DB	00H
