; Listing generated by Microsoft (R) Optimizing Compiler Version 19.29.30037.0 

	TITLE	G:\Germany\Scanner\Firmware\Display_Board\TouchGFX\build\Debug\obj\image_wifi_level_1.obj
	.686P
	.XMM
	include listing.inc
	.model	flat

INCLUDELIB MSVCRTD
INCLUDELIB OLDNAMES

PUBLIC	?image_wifi_level_1@@3QBEB			; image_wifi_level_1
CONST	SEGMENT
?image_wifi_level_1@@3QBEB DB 00H			; image_wifi_level_1
	DB	00H
	DB	00H
	DB	00H
	DB	00H
	DB	00H
	DB	00H
	DB	00H
	DB	00H
	DB	00H
	DB	00H
	DB	00H
	DB	00H
	DB	00H
	DB	00H
	DB	00H
	DB	00H
	DB	00H
	DB	00H
	DB	00H
	DB	00H
	DB	00H
	DB	00H
	DB	00H
	DB	00H
	DB	00H
	DB	00H
	DB	00H
	DB	00H
	DB	00H
	DB	00H
	DB	00H
	DB	00H
	DB	00H
	DB	00H
	DB	00H
	DB	00H
	DB	00H
	DB	00H
	DB	00H
	DB	00H
	DB	00H
	DB	00H
	DB	00H
	DB	00H
	DB	00H
	DB	00H
	DB	00H
	DB	00H
	DB	00H
	DB	00H
	DB	00H
	DB	00H
	DB	00H
	DB	00H
	DB	00H
	DB	00H
	DB	00H
	DB	00H
	DB	00H
	DB	00H
	DB	00H
	DB	00H
	DB	00H
	DB	00H
	DB	00H
	DB	00H
	DB	00H
	DB	00H
	DB	00H
	DB	00H
	DB	00H
	DB	00H
	DB	00H
	DB	00H
	DB	00H
	DB	00H
	DB	00H
	DB	00H
	DB	00H
	DB	00H
	DB	00H
	DB	00H
	DB	00H
	DB	00H
	DB	00H
	DB	00H
	DB	00H
	DB	00H
	DB	00H
	DB	00H
	DB	00H
	DB	00H
	DB	00H
	DB	00H
	DB	00H
	DB	00H
	DB	00H
	DB	00H
	DB	00H
	DB	00H
	DB	00H
	DB	00H
	DB	00H
	DB	00H
	DB	00H
	DB	00H
	DB	00H
	DB	00H
	DB	00H
	DB	00H
	DB	00H
	DB	00H
	DB	00H
	DB	00H
	DB	00H
	DB	00H
	DB	00H
	DB	00H
	DB	00H
	DB	00H
	DB	00H
	DB	00H
	DB	00H
	DB	00H
	DB	00H
	DB	00H
	DB	00H
	DB	00H
	DB	00H
	DB	00H
	DB	00H
	DB	00H
	DB	00H
	DB	00H
	DB	00H
	DB	00H
	DB	00H
	DB	00H
	DB	00H
	DB	00H
	DB	00H
	DB	00H
	DB	00H
	DB	00H
	DB	00H
	DB	00H
	DB	00H
	DB	00H
	DB	00H
	DB	00H
	DB	00H
	DB	00H
	DB	00H
	DB	00H
	DB	00H
	DB	00H
	DB	00H
	DB	00H
	DB	00H
	DB	00H
	DB	00H
	DB	00H
	DB	00H
	DB	00H
	DB	00H
	DB	00H
	DB	00H
	DB	00H
	DB	00H
	DB	00H
	DB	00H
	DB	00H
	DB	00H
	DB	00H
	DB	00H
	DB	00H
	DB	00H
	DB	00H
	DB	00H
	DB	00H
	DB	00H
	DB	00H
	DB	00H
	DB	00H
	DB	00H
	DB	00H
	DB	00H
	DB	00H
	DB	00H
	DB	00H
	DB	00H
	DB	00H
	DB	00H
	DB	00H
	DB	00H
	DB	00H
	DB	00H
	DB	00H
	DB	00H
	DB	00H
	DB	00H
	DB	00H
	DB	00H
	DB	00H
	DB	00H
	DB	00H
	DB	00H
	DB	00H
	DB	00H
	DB	00H
	DB	00H
	DB	00H
	DB	00H
	DB	00H
	DB	00H
	DB	00H
	DB	00H
	DB	00H
	DB	00H
	DB	00H
	DB	00H
	DB	00H
	DB	00H
	DB	00H
	DB	00H
	DB	00H
	DB	00H
	DB	00H
	DB	00H
	DB	00H
	DB	00H
	DB	00H
	DB	00H
	DB	00H
	DB	00H
	DB	00H
	DB	00H
	DB	00H
	DB	00H
	DB	00H
	DB	00H
	DB	00H
	DB	00H
	DB	00H
	DB	00H
	DB	00H
	DB	00H
	DB	00H
	DB	00H
	DB	00H
	DB	00H
	DB	00H
	DB	00H
	DB	00H
	DB	00H
	DB	00H
	DB	00H
	DB	00H
	DB	00H
	DB	00H
	DB	00H
	DB	00H
	DB	00H
	DB	00H
	DB	00H
	DB	00H
	DB	00H
	DB	00H
	DB	00H
	DB	00H
	DB	00H
	DB	00H
	DB	00H
	DB	00H
	DB	00H
	DB	00H
	DB	00H
	DB	00H
	DB	00H
	DB	00H
	DB	00H
	DB	00H
	DB	00H
	DB	00H
	DB	00H
	DB	00H
	DB	00H
	DB	00H
	DB	00H
	DB	00H
	DB	00H
	DB	00H
	DB	00H
	DB	00H
	DB	00H
	DB	00H
	DB	00H
	DB	00H
	DB	00H
	DB	00H
	DB	00H
	DB	00H
	DB	00H
	DB	00H
	DB	00H
	DB	00H
	DB	00H
	DB	00H
	DB	00H
	DB	00H
	DB	00H
	DB	00H
	DB	00H
	DB	00H
	DB	00H
	DB	00H
	DB	00H
	DB	00H
	DB	00H
	DB	00H
	DB	00H
	DB	00H
	DB	00H
	DB	00H
	DB	00H
	DB	00H
	DB	00H
	DB	00H
	DB	00H
	DB	00H
	DB	00H
	DB	00H
	DB	00H
	DB	00H
	DB	00H
	DB	00H
	DB	00H
	DB	00H
	DB	00H
	DB	00H
	DB	00H
	DB	00H
	DB	00H
	DB	00H
	DB	00H
	DB	00H
	DB	00H
	DB	00H
	DB	00H
	DB	00H
	DB	00H
	DB	00H
	DB	00H
	DB	00H
	DB	00H
	DB	00H
	DB	00H
	DB	00H
	DB	00H
	DB	00H
	DB	00H
	DB	00H
	DB	00H
	DB	00H
	DB	00H
	DB	00H
	DB	00H
	DB	00H
	DB	00H
	DB	00H
	DB	00H
	DB	00H
	DB	00H
	DB	00H
	DB	00H
	DB	00H
	DB	00H
	DB	00H
	DB	00H
	DB	00H
	DB	00H
	DB	00H
	DB	00H
	DB	00H
	DB	00H
	DB	00H
	DB	00H
	DB	00H
	DB	00H
	DB	00H
	DB	00H
	DB	00H
	DB	00H
	DB	00H
	DB	00H
	DB	00H
	DB	00H
	DB	00H
	DB	00H
	DB	00H
	DB	00H
	DB	00H
	DB	00H
	DB	00H
	DB	00H
	DB	00H
	DB	00H
	DB	00H
	DB	00H
	DB	00H
	DB	00H
	DB	00H
	DB	00H
	DB	00H
	DB	00H
	DB	00H
	DB	00H
	DB	00H
	DB	00H
	DB	00H
	DB	00H
	DB	00H
	DB	00H
	DB	00H
	DB	00H
	DB	00H
	DB	00H
	DB	00H
	DB	00H
	DB	00H
	DB	00H
	DB	00H
	DB	00H
	DB	00H
	DB	00H
	DB	00H
	DB	00H
	DB	00H
	DB	00H
	DB	00H
	DB	00H
	DB	00H
	DB	00H
	DB	00H
	DB	00H
	DB	00H
	DB	00H
	DB	00H
	DB	00H
	DB	00H
	DB	00H
	DB	00H
	DB	00H
	DB	00H
	DB	00H
	DB	00H
	DB	00H
	DB	00H
	DB	00H
	DB	00H
	DB	00H
	DB	00H
	DB	00H
	DB	00H
	DB	00H
	DB	00H
	DB	00H
	DB	00H
	DB	00H
	DB	00H
	DB	00H
	DB	00H
	DB	00H
	DB	00H
	DB	00H
	DB	00H
	DB	00H
	DB	00H
	DB	00H
	DB	00H
	DB	00H
	DB	00H
	DB	00H
	DB	00H
	DB	00H
	DB	00H
	DB	00H
	DB	00H
	DB	00H
	DB	00H
	DB	00H
	DB	00H
	DB	00H
	DB	00H
	DB	00H
	DB	00H
	DB	00H
	DB	00H
	DB	00H
	DB	00H
	DB	00H
	DB	00H
	DB	00H
	DB	00H
	DB	00H
	DB	00H
	DB	00H
	DB	00H
	DB	00H
	DB	00H
	DB	00H
	DB	00H
	DB	00H
	DB	00H
	DB	00H
	DB	00H
	DB	00H
	DB	00H
	DB	00H
	DB	00H
	DB	00H
	DB	00H
	DB	00H
	DB	00H
	DB	00H
	DB	00H
	DB	00H
	DB	00H
	DB	00H
	DB	00H
	DB	00H
	DB	00H
	DB	00H
	DB	00H
	DB	00H
	DB	00H
	DB	00H
	DB	00H
	DB	00H
	DB	00H
	DB	00H
	DB	00H
	DB	00H
	DB	00H
	DB	00H
	DB	00H
	DB	00H
	DB	00H
	DB	00H
	DB	00H
	DB	00H
	DB	00H
	DB	00H
	DB	00H
	DB	00H
	DB	00H
	DB	00H
	DB	00H
	DB	00H
	DB	00H
	DB	00H
	DB	00H
	DB	00H
	DB	00H
	DB	00H
	DB	00H
	DB	00H
	DB	00H
	DB	00H
	DB	00H
	DB	00H
	DB	00H
	DB	00H
	DB	00H
	DB	00H
	DB	00H
	DB	00H
	DB	00H
	DB	00H
	DB	00H
	DB	00H
	DB	00H
	DB	00H
	DB	00H
	DB	00H
	DB	00H
	DB	00H
	DB	00H
	DB	00H
	DB	00H
	DB	00H
	DB	00H
	DB	00H
	DB	00H
	DB	00H
	DB	00H
	DB	00H
	DB	00H
	DB	00H
	DB	00H
	DB	00H
	DB	00H
	DB	00H
	DB	00H
	DB	00H
	DB	00H
	DB	00H
	DB	00H
	DB	00H
	DB	00H
	DB	00H
	DB	00H
	DB	00H
	DB	00H
	DB	00H
	DB	00H
	DB	00H
	DB	00H
	DB	00H
	DB	00H
	DB	00H
	DB	00H
	DB	00H
	DB	00H
	DB	00H
	DB	00H
	DB	00H
	DB	00H
	DB	00H
	DB	00H
	DB	00H
	DB	00H
	DB	00H
	DB	00H
	DB	00H
	DB	00H
	DB	00H
	DB	00H
	DB	00H
	DB	00H
	DB	00H
	DB	00H
	DB	00H
	DB	00H
	DB	00H
	DB	00H
	DB	00H
	DB	00H
	DB	00H
	DB	00H
	DB	00H
	DB	00H
	DB	00H
	DB	00H
	DB	00H
	DB	00H
	DB	00H
	DB	00H
	DB	00H
	DB	00H
	DB	00H
	DB	00H
	DB	00H
	DB	00H
	DB	00H
	DB	00H
	DB	00H
	DB	00H
	DB	00H
	DB	00H
	DB	00H
	DB	00H
	DB	00H
	DB	00H
	DB	00H
	DB	00H
	DB	00H
	DB	00H
	DB	00H
	DB	00H
	DB	00H
	DB	00H
	DB	00H
	DB	00H
	DB	00H
	DB	00H
	DB	00H
	DB	00H
	DB	00H
	DB	00H
	DB	00H
	DB	00H
	DB	00H
	DB	00H
	DB	00H
	DB	00H
	DB	00H
	DB	00H
	DB	00H
	DB	00H
	DB	00H
	DB	00H
	DB	00H
	DB	00H
	DB	00H
	DB	00H
	DB	00H
	DB	00H
	DB	00H
	DB	00H
	DB	00H
	DB	00H
	DB	00H
	DB	00H
	DB	00H
	DB	00H
	DB	00H
	DB	00H
	DB	00H
	DB	00H
	DB	00H
	DB	00H
	DB	00H
	DB	00H
	DB	00H
	DB	00H
	DB	00H
	DB	00H
	DB	00H
	DB	00H
	DB	00H
	DB	00H
	DB	00H
	DB	00H
	DB	00H
	DB	00H
	DB	00H
	DB	00H
	DB	00H
	DB	00H
	DB	00H
	DB	00H
	DB	00H
	DB	00H
	DB	00H
	DB	00H
	DB	00H
	DB	00H
	DB	00H
	DB	00H
	DB	00H
	DB	00H
	DB	00H
	DB	00H
	DB	00H
	DB	00H
	DB	00H
	DB	00H
	DB	00H
	DB	00H
	DB	00H
	DB	00H
	DB	00H
	DB	00H
	DB	00H
	DB	00H
	DB	00H
	DB	00H
	DB	00H
	DB	00H
	DB	00H
	DB	00H
	DB	00H
	DB	00H
	DB	00H
	DB	00H
	DB	00H
	DB	00H
	DB	00H
	DB	00H
	DB	00H
	DB	00H
	DB	00H
	DB	00H
	DB	00H
	DB	00H
	DB	00H
	DB	00H
	DB	00H
	DB	00H
	DB	00H
	DB	00H
	DB	00H
	DB	00H
	DB	00H
	DB	00H
	DB	00H
	DB	00H
	DB	00H
	DB	00H
	DB	00H
	DB	00H
	DB	00H
	DB	00H
	DB	00H
	DB	00H
	DB	00H
	DB	00H
	DB	00H
	DB	00H
	DB	00H
	DB	00H
	DB	00H
	DB	00H
	DB	00H
	DB	00H
	DB	00H
	DB	00H
	DB	00H
	DB	00H
	DB	00H
	DB	00H
	DB	00H
	DB	00H
	DB	00H
	DB	00H
	DB	00H
	DB	00H
	DB	00H
	DB	00H
	DB	00H
	DB	00H
	DB	00H
	DB	00H
	DB	00H
	DB	00H
	DB	00H
	DB	00H
	DB	00H
	DB	00H
	DB	00H
	DB	00H
	DB	00H
	DB	00H
	DB	00H
	DB	00H
	DB	00H
	DB	00H
	DB	00H
	DB	00H
	DB	00H
	DB	00H
	DB	00H
	DB	00H
	DB	00H
	DB	00H
	DB	00H
	DB	00H
	DB	00H
	DB	00H
	DB	00H
	DB	00H
	DB	00H
	DB	00H
	DB	00H
	DB	00H
	DB	00H
	DB	00H
	DB	00H
	DB	00H
	DB	00H
	DB	00H
	DB	00H
	DB	00H
	DB	00H
	DB	00H
	DB	00H
	DB	00H
	DB	00H
	DB	00H
	DB	00H
	DB	00H
	DB	00H
	DB	00H
	DB	00H
	DB	00H
	DB	00H
	DB	00H
	DB	00H
	DB	00H
	DB	00H
	DB	00H
	DB	00H
	DB	00H
	DB	00H
	DB	00H
	DB	00H
	DB	00H
	DB	00H
	DB	00H
	DB	00H
	DB	00H
	DB	00H
	DB	00H
	DB	00H
	DB	00H
	DB	00H
	DB	00H
	DB	00H
	DB	00H
	DB	00H
	DB	00H
	DB	00H
	DB	00H
	DB	00H
	DB	00H
	DB	00H
	DB	00H
	DB	00H
	DB	00H
	DB	00H
	DB	00H
	DB	00H
	DB	00H
	DB	00H
	DB	00H
	DB	00H
	DB	00H
	DB	00H
	DB	00H
	DB	00H
	DB	00H
	DB	00H
	DB	00H
	DB	00H
	DB	00H
	DB	00H
	DB	00H
	DB	00H
	DB	00H
	DB	00H
	DB	00H
	DB	00H
	DB	00H
	DB	00H
	DB	00H
	DB	00H
	DB	00H
	DB	00H
	DB	00H
	DB	00H
	DB	00H
	DB	00H
	DB	00H
	DB	00H
	DB	00H
	DB	00H
	DB	00H
	DB	00H
	DB	00H
	DB	00H
	DB	00H
	DB	00H
	DB	00H
	DB	00H
	DB	00H
	DB	00H
	DB	00H
	DB	00H
	DB	00H
	DB	00H
	DB	00H
	DB	00H
	DB	00H
	DB	00H
	DB	00H
	DB	00H
	DB	00H
	DB	00H
	DB	00H
	DB	00H
	DB	00H
	DB	00H
	DB	00H
	DB	00H
	DB	00H
	DB	00H
	DB	00H
	DB	00H
	DB	00H
	DB	00H
	DB	00H
	DB	00H
	DB	00H
	DB	00H
	DB	00H
	DB	00H
	DB	00H
	DB	00H
	DB	00H
	DB	00H
	DB	00H
	DB	00H
	DB	00H
	DB	00H
	DB	00H
	DB	00H
	DB	00H
	DB	00H
	DB	00H
	DB	00H
	DB	00H
	DB	00H
	DB	00H
	DB	00H
	DB	00H
	DB	00H
	DB	00H
	DB	00H
	DB	00H
	DB	00H
	DB	00H
	DB	00H
	DB	00H
	DB	00H
	DB	00H
	DB	00H
	DB	00H
	DB	00H
	DB	00H
	DB	00H
	DB	00H
	DB	00H
	DB	00H
	DB	00H
	DB	00H
	DB	00H
	DB	00H
	DB	00H
	DB	00H
	DB	00H
	DB	00H
	DB	00H
	DB	00H
	DB	00H
	DB	00H
	DB	00H
	DB	00H
	DB	00H
	DB	00H
	DB	00H
	DB	00H
	DB	00H
	DB	00H
	DB	00H
	DB	00H
	DB	00H
	DB	00H
	DB	00H
	DB	00H
	DB	00H
	DB	00H
	DB	00H
	DB	00H
	DB	00H
	DB	00H
	DB	00H
	DB	00H
	DB	00H
	DB	00H
	DB	00H
	DB	00H
	DB	00H
	DB	00H
	DB	00H
	DB	00H
	DB	00H
	DB	00H
	DB	00H
	DB	00H
	DB	00H
	DB	00H
	DB	00H
	DB	00H
	DB	00H
	DB	00H
	DB	00H
	DB	00H
	DB	00H
	DB	00H
	DB	00H
	DB	00H
	DB	00H
	DB	00H
	DB	00H
	DB	00H
	DB	00H
	DB	00H
	DB	00H
	DB	00H
	DB	00H
	DB	00H
	DB	00H
	DB	00H
	DB	00H
	DB	00H
	DB	00H
	DB	00H
	DB	00H
	DB	00H
	DB	00H
	DB	00H
	DB	00H
	DB	00H
	DB	00H
	DB	00H
	DB	00H
	DB	00H
	DB	00H
	DB	00H
	DB	00H
	DB	00H
	DB	00H
	DB	00H
	DB	00H
	DB	00H
	DB	00H
	DB	00H
	DB	00H
	DB	00H
	DB	00H
	DB	00H
	DB	00H
	DB	00H
	DB	00H
	DB	00H
	DB	00H
	DB	00H
	DB	00H
	DB	00H
	DB	00H
	DB	00H
	DB	00H
	DB	00H
	DB	00H
	DB	00H
	DB	00H
	DB	00H
	DB	00H
	DB	00H
	DB	00H
	DB	00H
	DB	00H
	DB	00H
	DB	00H
	DB	00H
	DB	00H
	DB	00H
	DB	00H
	DB	00H
	DB	00H
	DB	00H
	DB	00H
	DB	00H
	DB	00H
	DB	00H
	DB	00H
	DB	00H
	DB	00H
	DB	00H
	DB	00H
	DB	00H
	DB	00H
	DB	00H
	DB	00H
	DB	00H
	DB	00H
	DB	00H
	DB	00H
	DB	00H
	DB	00H
	DB	00H
	DB	00H
	DB	00H
	DB	00H
	DB	00H
	DB	00H
	DB	00H
	DB	00H
	DB	00H
	DB	00H
	DB	00H
	DB	00H
	DB	00H
	DB	00H
	DB	00H
	DB	00H
	DB	00H
	DB	00H
	DB	00H
	DB	00H
	DB	00H
	DB	00H
	DB	00H
	DB	00H
	DB	00H
	DB	00H
	DB	00H
	DB	00H
	DB	00H
	DB	00H
	DB	00H
	DB	00H
	DB	00H
	DB	00H
	DB	00H
	DB	00H
	DB	00H
	DB	00H
	DB	00H
	DB	00H
	DB	00H
	DB	00H
	DB	00H
	DB	00H
	DB	00H
	DB	00H
	DB	00H
	DB	00H
	DB	00H
	DB	00H
	DB	00H
	DB	00H
	DB	00H
	DB	00H
	DB	00H
	DB	00H
	DB	00H
	DB	00H
	DB	00H
	DB	00H
	DB	00H
	DB	00H
	DB	00H
	DB	00H
	DB	00H
	DB	00H
	DB	00H
	DB	00H
	DB	00H
	DB	00H
	DB	00H
	DB	00H
	DB	00H
	DB	00H
	DB	00H
	DB	00H
	DB	00H
	DB	00H
	DB	00H
	DB	00H
	DB	00H
	DB	00H
	DB	00H
	DB	00H
	DB	00H
	DB	00H
	DB	00H
	DB	00H
	DB	00H
	DB	00H
	DB	00H
	DB	00H
	DB	00H
	DB	00H
	DB	00H
	DB	00H
	DB	00H
	DB	00H
	DB	00H
	DB	00H
	DB	00H
	DB	00H
	DB	00H
	DB	00H
	DB	00H
	DB	00H
	DB	00H
	DB	00H
	DB	00H
	DB	00H
	DB	00H
	DB	00H
	DB	00H
	DB	00H
	DB	00H
	DB	00H
	DB	00H
	DB	00H
	DB	00H
	DB	00H
	DB	00H
	DB	00H
	DB	00H
	DB	00H
	DB	00H
	DB	00H
	DB	00H
	DB	00H
	DB	00H
	DB	00H
	DB	00H
	DB	00H
	DB	00H
	DB	00H
	DB	00H
	DB	00H
	DB	00H
	DB	00H
	DB	00H
	DB	00H
	DB	00H
	DB	00H
	DB	00H
	DB	00H
	DB	00H
	DB	00H
	DB	00H
	DB	00H
	DB	00H
	DB	00H
	DB	00H
	DB	00H
	DB	00H
	DB	00H
	DB	00H
	DB	00H
	DB	00H
	DB	00H
	DB	00H
	DB	00H
	DB	00H
	DB	00H
	DB	00H
	DB	00H
	DB	00H
	DB	00H
	DB	00H
	DB	00H
	DB	00H
	DB	00H
	DB	00H
	DB	00H
	DB	00H
	DB	00H
	DB	00H
	DB	00H
	DB	00H
	DB	00H
	DB	00H
	DB	00H
	DB	00H
	DB	00H
	DB	00H
	DB	00H
	DB	00H
	DB	00H
	DB	00H
	DB	00H
	DB	00H
	DB	00H
	DB	00H
	DB	00H
	DB	00H
	DB	00H
	DB	00H
	DB	00H
	DB	00H
	DB	00H
	DB	00H
	DB	00H
	DB	00H
	DB	00H
	DB	00H
	DB	00H
	DB	00H
	DB	00H
	DB	00H
	DB	00H
	DB	00H
	DB	00H
	DB	00H
	DB	00H
	DB	00H
	DB	00H
	DB	00H
	DB	00H
	DB	00H
	DB	00H
	DB	00H
	DB	00H
	DB	00H
	DB	00H
	DB	00H
	DB	00H
	DB	00H
	DB	00H
	DB	00H
	DB	00H
	DB	00H
	DB	00H
	DB	00H
	DB	00H
	DB	00H
	DB	00H
	DB	00H
	DB	00H
	DB	00H
	DB	00H
	DB	00H
	DB	00H
	DB	00H
	DB	00H
	DB	00H
	DB	00H
	DB	00H
	DB	00H
	DB	00H
	DB	00H
	DB	00H
	DB	00H
	DB	00H
	DB	00H
	DB	00H
	DB	00H
	DB	00H
	DB	00H
	DB	00H
	DB	00H
	DB	00H
	DB	00H
	DB	00H
	DB	00H
	DB	00H
	DB	00H
	DB	00H
	DB	00H
	DB	00H
	DB	00H
	DB	00H
	DB	00H
	DB	00H
	DB	00H
	DB	00H
	DB	00H
	DB	00H
	DB	00H
	DB	00H
	DB	00H
	DB	00H
	DB	00H
	DB	00H
	DB	00H
	DB	00H
	DB	00H
	DB	00H
	DB	00H
	DB	00H
	DB	00H
	DB	00H
	DB	00H
	DB	00H
	DB	00H
	DB	00H
	DB	00H
	DB	00H
	DB	00H
	DB	00H
	DB	00H
	DB	00H
	DB	00H
	DB	00H
	DB	00H
	DB	00H
	DB	00H
	DB	00H
	DB	00H
	DB	00H
	DB	00H
	DB	00H
	DB	00H
	DB	00H
	DB	00H
	DB	00H
	DB	00H
	DB	00H
	DB	00H
	DB	00H
	DB	00H
	DB	00H
	DB	00H
	DB	00H
	DB	00H
	DB	00H
	DB	00H
	DB	00H
	DB	00H
	DB	00H
	DB	00H
	DB	00H
	DB	00H
	DB	00H
	DB	00H
	DB	00H
	DB	00H
	DB	00H
	DB	00H
	DB	00H
	DB	00H
	DB	00H
	DB	00H
	DB	00H
	DB	00H
	DB	00H
	DB	00H
	DB	00H
	DB	00H
	DB	00H
	DB	00H
	DB	00H
	DB	00H
	DB	00H
	DB	00H
	DB	00H
	DB	00H
	DB	00H
	DB	00H
	DB	00H
	DB	00H
	DB	00H
	DB	00H
	DB	00H
	DB	00H
	DB	00H
	DB	00H
	DB	00H
	DB	00H
	DB	00H
	DB	00H
	DB	00H
	DB	00H
	DB	00H
	DB	00H
	DB	00H
	DB	00H
	DB	00H
	DB	00H
	DB	00H
	DB	00H
	DB	00H
	DB	00H
	DB	00H
	DB	00H
	DB	00H
	DB	00H
	DB	00H
	DB	00H
	DB	00H
	DB	00H
	DB	00H
	DB	00H
	DB	00H
	DB	00H
	DB	00H
	DB	00H
	DB	00H
	DB	00H
	DB	00H
	DB	00H
	DB	00H
	DB	00H
	DB	00H
	DB	00H
	DB	00H
	DB	00H
	DB	00H
	DB	00H
	DB	00H
	DB	00H
	DB	00H
	DB	00H
	DB	00H
	DB	00H
	DB	00H
	DB	00H
	DB	00H
	DB	00H
	DB	00H
	DB	00H
	DB	00H
	DB	00H
	DB	00H
	DB	00H
	DB	00H
	DB	00H
	DB	00H
	DB	00H
	DB	00H
	DB	00H
	DB	00H
	DB	00H
	DB	00H
	DB	00H
	DB	00H
	DB	00H
	DB	00H
	DB	00H
	DB	00H
	DB	00H
	DB	00H
	DB	00H
	DB	00H
	DB	00H
	DB	00H
	DB	00H
	DB	00H
	DB	00H
	DB	00H
	DB	00H
	DB	00H
	DB	00H
	DB	00H
	DB	00H
	DB	00H
	DB	00H
	DB	00H
	DB	00H
	DB	00H
	DB	00H
	DB	00H
	DB	00H
	DB	00H
	DB	00H
	DB	00H
	DB	00H
	DB	00H
	DB	00H
	DB	00H
	DB	00H
	DB	00H
	DB	00H
	DB	00H
	DB	00H
	DB	00H
	DB	00H
	DB	00H
	DB	00H
	DB	00H
	DB	00H
	DB	00H
	DB	00H
	DB	00H
	DB	00H
	DB	00H
	DB	00H
	DB	00H
	DB	00H
	DB	00H
	DB	00H
	DB	00H
	DB	00H
	DB	00H
	DB	00H
	DB	00H
	DB	00H
	DB	00H
	DB	00H
	DB	00H
	DB	00H
	DB	00H
	DB	00H
	DB	00H
	DB	00H
	DB	00H
	DB	00H
	DB	00H
	DB	00H
	DB	00H
	DB	00H
	DB	00H
	DB	00H
	DB	00H
	DB	00H
	DB	00H
	DB	00H
	DB	00H
	DB	00H
	DB	00H
	DB	00H
	DB	00H
	DB	00H
	DB	00H
	DB	00H
	DB	00H
	DB	00H
	DB	00H
	DB	00H
	DB	00H
	DB	00H
	DB	00H
	DB	00H
	DB	00H
	DB	00H
	DB	00H
	DB	00H
	DB	00H
	DB	00H
	DB	00H
	DB	00H
	DB	00H
	DB	00H
	DB	00H
	DB	00H
	DB	00H
	DB	00H
	DB	00H
	DB	00H
	DB	00H
	DB	00H
	DB	00H
	DB	00H
	DB	00H
	DB	00H
	DB	00H
	DB	00H
	DB	00H
	DB	00H
	DB	00H
	DB	00H
	DB	00H
	DB	00H
	DB	00H
	DB	00H
	DB	00H
	DB	00H
	DB	00H
	DB	00H
	DB	00H
	DB	00H
	DB	00H
	DB	00H
	DB	00H
	DB	00H
	DB	00H
	DB	00H
	DB	00H
	DB	00H
	DB	00H
	DB	00H
	DB	00H
	DB	00H
	DB	00H
	DB	00H
	DB	00H
	DB	00H
	DB	00H
	DB	00H
	DB	00H
	DB	00H
	DB	00H
	DB	00H
	DB	00H
	DB	00H
	DB	00H
	DB	00H
	DB	00H
	DB	00H
	DB	00H
	DB	00H
	DB	00H
	DB	00H
	DB	00H
	DB	00H
	DB	00H
	DB	00H
	DB	00H
	DB	00H
	DB	00H
	DB	00H
	DB	00H
	DB	00H
	DB	00H
	DB	00H
	DB	00H
	DB	00H
	DB	00H
	DB	00H
	DB	00H
	DB	00H
	DB	00H
	DB	00H
	DB	00H
	DB	00H
	DB	00H
	DB	00H
	DB	00H
	DB	00H
	DB	00H
	DB	00H
	DB	00H
	DB	00H
	DB	00H
	DB	00H
	DB	00H
	DB	00H
	DB	00H
	DB	00H
	DB	00H
	DB	00H
	DB	00H
	DB	00H
	DB	00H
	DB	00H
	DB	00H
	DB	00H
	DB	00H
	DB	00H
	DB	00H
	DB	00H
	DB	00H
	DB	00H
	DB	00H
	DB	00H
	DB	00H
	DB	00H
	DB	00H
	DB	00H
	DB	00H
	DB	00H
	DB	00H
	DB	00H
	DB	00H
	DB	00H
	DB	00H
	DB	00H
	DB	00H
	DB	00H
	DB	00H
	DB	00H
	DB	00H
	DB	00H
	DB	00H
	DB	00H
	DB	00H
	DB	00H
	DB	00H
	DB	00H
	DB	00H
	DB	00H
	DB	00H
	DB	00H
	DB	00H
	DB	00H
	DB	00H
	DB	00H
	DB	00H
	DB	00H
	DB	00H
	DB	00H
	DB	00H
	DB	00H
	DB	00H
	DB	00H
	DB	00H
	DB	00H
	DB	00H
	DB	00H
	DB	00H
	DB	00H
	DB	00H
	DB	00H
	DB	00H
	DB	00H
	DB	00H
	DB	00H
	DB	00H
	DB	00H
	DB	00H
	DB	00H
	DB	00H
	DB	00H
	DB	00H
	DB	00H
	DB	00H
	DB	00H
	DB	00H
	DB	00H
	DB	00H
	DB	00H
	DB	00H
	DB	00H
	DB	00H
	DB	00H
	DB	00H
	DB	00H
	DB	00H
	DB	00H
	DB	00H
	DB	00H
	DB	00H
	DB	00H
	DB	00H
	DB	00H
	DB	00H
	DB	00H
	DB	00H
	DB	00H
	DB	00H
	DB	00H
	DB	00H
	DB	00H
	DB	00H
	DB	00H
	DB	00H
	DB	00H
	DB	00H
	DB	00H
	DB	00H
	DB	00H
	DB	00H
	DB	00H
	DB	00H
	DB	00H
	DB	00H
	DB	00H
	DB	00H
	DB	00H
	DB	00H
	DB	00H
	DB	00H
	DB	00H
	DB	00H
	DB	00H
	DB	00H
	DB	00H
	DB	00H
	DB	00H
	DB	00H
	DB	00H
	DB	00H
	DB	00H
	DB	00H
	DB	00H
	DB	00H
	DB	00H
	DB	00H
	DB	00H
	DB	00H
	DB	00H
	DB	00H
	DB	00H
	DB	00H
	DB	00H
	DB	00H
	DB	00H
	DB	00H
	DB	00H
	DB	00H
	DB	00H
	DB	00H
	DB	00H
	DB	00H
	DB	00H
	DB	00H
	DB	00H
	DB	00H
	DB	00H
	DB	00H
	DB	00H
	DB	00H
	DB	00H
	DB	00H
	DB	00H
	DB	00H
	DB	00H
	DB	00H
	DB	00H
	DB	00H
	DB	00H
	DB	00H
	DB	00H
	DB	00H
	DB	00H
	DB	00H
	DB	00H
	DB	00H
	DB	00H
	DB	00H
	DB	00H
	DB	00H
	DB	00H
	DB	00H
	DB	00H
	DB	00H
	DB	00H
	DB	00H
	DB	00H
	DB	00H
	DB	00H
	DB	00H
	DB	00H
	DB	00H
	DB	00H
	DB	00H
	DB	00H
	DB	00H
	DB	00H
	DB	00H
	DB	00H
	DB	00H
	DB	00H
	DB	00H
	DB	00H
	DB	00H
	DB	00H
	DB	00H
	DB	00H
	DB	00H
	DB	00H
	DB	00H
	DB	00H
	DB	00H
	DB	00H
	DB	00H
	DB	00H
	DB	00H
	DB	00H
	DB	00H
	DB	00H
	DB	00H
	DB	00H
	DB	00H
	DB	00H
	DB	00H
	DB	00H
	DB	00H
	DB	00H
	DB	00H
	DB	00H
	DB	00H
	DB	00H
	DB	00H
	DB	00H
	DB	00H
	DB	00H
	DB	00H
	DB	00H
	DB	00H
	DB	00H
	DB	00H
	DB	00H
	DB	00H
	DB	00H
	DB	00H
	DB	00H
	DB	00H
	DB	00H
	DB	00H
	DB	00H
	DB	00H
	DB	00H
	DB	00H
	DB	00H
	DB	00H
	DB	00H
	DB	00H
	DB	00H
	DB	00H
	DB	00H
	DB	00H
	DB	00H
	DB	00H
	DB	00H
	DB	00H
	DB	00H
	DB	00H
	DB	00H
	DB	00H
	DB	00H
	DB	00H
	DB	00H
	DB	00H
	DB	00H
	DB	00H
	DB	00H
	DB	00H
	DB	00H
	DB	00H
	DB	00H
	DB	00H
	DB	00H
	DB	00H
	DB	00H
	DB	00H
	DB	00H
	DB	00H
	DB	00H
	DB	00H
	DB	00H
	DB	00H
	DB	00H
	DB	00H
	DB	00H
	DB	00H
	DB	00H
	DB	00H
	DB	00H
	DB	00H
	DB	00H
	DB	00H
	DB	00H
	DB	00H
	DB	00H
	DB	00H
	DB	00H
	DB	00H
	DB	00H
	DB	00H
	DB	00H
	DB	00H
	DB	00H
	DB	00H
	DB	00H
	DB	00H
	DB	00H
	DB	00H
	DB	00H
	DB	00H
	DB	00H
	DB	00H
	DB	00H
	DB	00H
	DB	00H
	DB	00H
	DB	00H
	DB	00H
	DB	00H
	DB	00H
	DB	00H
	DB	00H
	DB	00H
	DB	00H
	DB	00H
	DB	00H
	DB	00H
	DB	00H
	DB	00H
	DB	00H
	DB	00H
	DB	00H
	DB	00H
	DB	00H
	DB	00H
	DB	00H
	DB	00H
	DB	00H
	DB	00H
	DB	00H
	DB	00H
	DB	00H
	DB	00H
	DB	00H
	DB	00H
	DB	00H
	DB	00H
	DB	00H
	DB	00H
	DB	00H
	DB	00H
	DB	00H
	DB	00H
	DB	00H
	DB	00H
	DB	00H
	DB	00H
	DB	00H
	DB	00H
	DB	00H
	DB	00H
	DB	00H
	DB	00H
	DB	00H
	DB	00H
	DB	00H
	DB	00H
	DB	00H
	DB	00H
	DB	00H
	DB	00H
	DB	00H
	DB	00H
	DB	00H
	DB	00H
	DB	00H
	DB	00H
	DB	00H
	DB	00H
	DB	00H
	DB	00H
	DB	00H
	DB	00H
	DB	00H
	DB	00H
	DB	00H
	DB	00H
	DB	00H
	DB	00H
	DB	00H
	DB	00H
	DB	00H
	DB	00H
	DB	00H
	DB	00H
	DB	00H
	DB	00H
	DB	00H
	DB	00H
	DB	00H
	DB	00H
	DB	00H
	DB	00H
	DB	00H
	DB	00H
	DB	00H
	DB	00H
	DB	00H
	DB	00H
	DB	00H
	DB	00H
	DB	00H
	DB	00H
	DB	00H
	DB	00H
	DB	00H
	DB	00H
	DB	00H
	DB	00H
	DB	00H
	DB	00H
	DB	00H
	DB	00H
	DB	00H
	DB	00H
	DB	00H
	DB	00H
	DB	00H
	DB	00H
	DB	00H
	DB	00H
	DB	00H
	DB	00H
	DB	00H
	DB	00H
	DB	00H
	DB	00H
	DB	00H
	DB	00H
	DB	00H
	DB	00H
	DB	00H
	DB	00H
	DB	00H
	DB	00H
	DB	00H
	DB	00H
	DB	00H
	DB	00H
	DB	00H
	DB	00H
	DB	00H
	DB	00H
	DB	00H
	DB	00H
	DB	00H
	DB	00H
	DB	00H
	DB	00H
	DB	00H
	DB	00H
	DB	00H
	DB	00H
	DB	00H
	DB	00H
	DB	00H
	DB	00H
	DB	00H
	DB	00H
	DB	00H
	DB	00H
	DB	00H
	DB	00H
	DB	00H
	DB	00H
	DB	00H
	DB	00H
	DB	00H
	DB	00H
	DB	00H
	DB	00H
	DB	00H
	DB	00H
	DB	00H
	DB	00H
	DB	00H
	DB	00H
	DB	00H
	DB	00H
	DB	00H
	DB	00H
	DB	00H
	DB	00H
	DB	00H
	DB	00H
	DB	00H
	DB	00H
	DB	00H
	DB	00H
	DB	00H
	DB	00H
	DB	00H
	DB	00H
	DB	00H
	DB	00H
	DB	00H
	DB	00H
	DB	00H
	DB	00H
	DB	00H
	DB	00H
	DB	00H
	DB	00H
	DB	00H
	DB	00H
	DB	00H
	DB	00H
	DB	00H
	DB	00H
	DB	00H
	DB	00H
	DB	00H
	DB	00H
	DB	00H
	DB	00H
	DB	00H
	DB	00H
	DB	00H
	DB	00H
	DB	00H
	DB	00H
	DB	00H
	DB	00H
	DB	00H
	DB	00H
	DB	00H
	DB	00H
	DB	00H
	DB	00H
	DB	00H
	DB	00H
	DB	00H
	DB	00H
	DB	00H
	DB	00H
	DB	00H
	DB	00H
	DB	00H
	DB	00H
	DB	00H
	DB	00H
	DB	00H
	DB	00H
	DB	00H
	DB	00H
	DB	00H
	DB	00H
	DB	00H
	DB	00H
	DB	00H
	DB	00H
	DB	00H
	DB	00H
	DB	00H
	DB	00H
	DB	00H
	DB	00H
	DB	00H
	DB	00H
	DB	00H
	DB	00H
	DB	00H
	DB	00H
	DB	00H
	DB	00H
	DB	00H
	DB	00H
	DB	00H
	DB	00H
	DB	00H
	DB	00H
	DB	00H
	DB	00H
	DB	00H
	DB	00H
	DB	00H
	DB	00H
	DB	00H
	DB	00H
	DB	00H
	DB	00H
	DB	00H
	DB	00H
	DB	00H
	DB	00H
	DB	00H
	DB	00H
	DB	00H
	DB	00H
	DB	00H
	DB	00H
	DB	00H
	DB	00H
	DB	00H
	DB	00H
	DB	00H
	DB	00H
	DB	00H
	DB	00H
	DB	00H
	DB	00H
	DB	00H
	DB	00H
	DB	00H
	DB	00H
	DB	00H
	DB	00H
	DB	00H
	DB	00H
	DB	00H
	DB	00H
	DB	00H
	DB	00H
	DB	00H
	DB	00H
	DB	00H
	DB	00H
	DB	00H
	DB	00H
	DB	00H
	DB	00H
	DB	00H
	DB	00H
	DB	00H
	DB	00H
	DB	00H
	DB	00H
	DB	00H
	DB	00H
	DB	00H
	DB	00H
	DB	00H
	DB	00H
	DB	00H
	DB	00H
	DB	00H
	DB	00H
	DB	00H
	DB	00H
	DB	00H
	DB	00H
	DB	00H
	DB	00H
	DB	00H
	DB	00H
	DB	00H
	DB	00H
	DB	00H
	DB	00H
	DB	00H
	DB	00H
	DB	00H
	DB	00H
	DB	00H
	DB	00H
	DB	00H
	DB	00H
	DB	00H
	DB	00H
	DB	00H
	DB	00H
	DB	00H
	DB	00H
	DB	00H
	DB	00H
	DB	00H
	DB	00H
	DB	00H
	DB	00H
	DB	00H
	DB	00H
	DB	00H
	DB	00H
	DB	00H
	DB	00H
	DB	00H
	DB	00H
	DB	00H
	DB	00H
	DB	00H
	DB	00H
	DB	00H
	DB	00H
	DB	00H
	DB	00H
	DB	00H
	DB	00H
	DB	00H
	DB	00H
	DB	00H
	DB	00H
	DB	00H
	DB	00H
	DB	00H
	DB	00H
	DB	00H
	DB	00H
	DB	00H
	DB	00H
	DB	00H
	DB	00H
	DB	00H
	DB	00H
	DB	00H
	DB	00H
	DB	00H
	DB	00H
	DB	00H
	DB	00H
	DB	00H
	DB	00H
	DB	00H
	DB	00H
	DB	00H
	DB	00H
	DB	00H
	DB	00H
	DB	00H
	DB	00H
	DB	00H
	DB	00H
	DB	00H
	DB	00H
	DB	00H
	DB	00H
	DB	00H
	DB	00H
	DB	00H
	DB	00H
	DB	00H
	DB	00H
	DB	00H
	DB	00H
	DB	00H
	DB	00H
	DB	00H
	DB	00H
	DB	00H
	DB	00H
	DB	00H
	DB	00H
	DB	00H
	DB	00H
	DB	00H
	DB	00H
	DB	00H
	DB	00H
	DB	00H
	DB	00H
	DB	00H
	DB	00H
	DB	00H
	DB	00H
	DB	00H
	DB	00H
	DB	00H
	DB	00H
	DB	00H
	DB	00H
	DB	00H
	DB	00H
	DB	00H
	DB	00H
	DB	00H
	DB	00H
	DB	00H
	DB	00H
	DB	00H
	DB	00H
	DB	00H
	DB	00H
	DB	00H
	DB	00H
	DB	00H
	DB	00H
	DB	00H
	DB	00H
	DB	00H
	DB	00H
	DB	00H
	DB	00H
	DB	00H
	DB	00H
	DB	00H
	DB	00H
	DB	00H
	DB	00H
	DB	00H
	DB	00H
	DB	00H
	DB	00H
	DB	00H
	DB	00H
	DB	00H
	DB	00H
	DB	00H
	DB	00H
	DB	00H
	DB	00H
	DB	00H
	DB	00H
	DB	00H
	DB	00H
	DB	00H
	DB	00H
	DB	00H
	DB	00H
	DB	00H
	DB	00H
	DB	00H
	DB	00H
	DB	00H
	DB	00H
	DB	00H
	DB	00H
	DB	00H
	DB	00H
	DB	00H
	DB	00H
	DB	00H
	DB	00H
	DB	00H
	DB	00H
	DB	00H
	DB	00H
	DB	00H
	DB	00H
	DB	00H
	DB	00H
	DB	00H
	DB	00H
	DB	00H
	DB	00H
	DB	00H
	DB	00H
	DB	00H
	DB	00H
	DB	00H
	DB	00H
	DB	00H
	DB	00H
	DB	00H
	DB	00H
	DB	00H
	DB	00H
	DB	00H
	DB	00H
	DB	00H
	DB	00H
	DB	00H
	DB	00H
	DB	00H
	DB	00H
	DB	00H
	DB	00H
	DB	00H
	DB	00H
	DB	00H
	DB	00H
	DB	00H
	DB	00H
	DB	00H
	DB	00H
	DB	00H
	DB	00H
	DB	00H
	DB	00H
	DB	00H
	DB	00H
	DB	00H
	DB	00H
	DB	00H
	DB	00H
	DB	00H
	DB	00H
	DB	00H
	DB	00H
	DB	00H
	DB	00H
	DB	00H
	DB	00H
	DB	00H
	DB	00H
	DB	00H
	DB	00H
	DB	00H
	DB	00H
	DB	00H
	DB	00H
	DB	00H
	DB	00H
	DB	00H
	DB	00H
	DB	00H
	DB	00H
	DB	00H
	DB	00H
	DB	00H
	DB	00H
	DB	00H
	DB	00H
	DB	00H
	DB	00H
	DB	00H
	DB	00H
	DB	00H
	DB	00H
	DB	00H
	DB	00H
	DB	00H
	DB	00H
	DB	00H
	DB	00H
	DB	00H
	DB	00H
	DB	00H
	DB	00H
	DB	00H
	DB	00H
	DB	00H
	DB	00H
	DB	00H
	DB	00H
	DB	00H
	DB	00H
	DB	00H
	DB	00H
	DB	00H
	DB	00H
	DB	00H
	DB	00H
	DB	00H
	DB	00H
	DB	00H
	DB	00H
	DB	00H
	DB	00H
	DB	00H
	DB	00H
	DB	00H
	DB	00H
	DB	00H
	DB	00H
	DB	00H
	DB	00H
	DB	00H
	DB	00H
	DB	00H
	DB	00H
	DB	00H
	DB	00H
	DB	00H
	DB	00H
	DB	00H
	DB	00H
	DB	00H
	DB	00H
	DB	00H
	DB	00H
	DB	00H
	DB	00H
	DB	00H
	DB	00H
	DB	00H
	DB	00H
	DB	00H
	DB	00H
	DB	00H
	DB	00H
	DB	00H
	DB	00H
	DB	00H
	DB	00H
	DB	00H
	DB	00H
	DB	00H
	DB	00H
	DB	00H
	DB	00H
	DB	00H
	DB	00H
	DB	00H
	DB	00H
	DB	00H
	DB	00H
	DB	00H
	DB	00H
	DB	00H
	DB	00H
	DB	00H
	DB	00H
	DB	00H
	DB	00H
	DB	00H
	DB	00H
	DB	00H
	DB	00H
	DB	00H
	DB	00H
	DB	00H
	DB	00H
	DB	00H
	DB	00H
	DB	00H
	DB	00H
	DB	00H
	DB	00H
	DB	00H
	DB	00H
	DB	00H
	DB	00H
	DB	00H
	DB	00H
	DB	00H
	DB	00H
	DB	00H
	DB	00H
	DB	00H
	DB	00H
	DB	00H
	DB	00H
	DB	00H
	DB	00H
	DB	00H
	DB	00H
	DB	00H
	DB	00H
	DB	00H
	DB	00H
	DB	00H
	DB	00H
	DB	00H
	DB	00H
	DB	00H
	DB	00H
	DB	00H
	DB	00H
	DB	00H
	DB	00H
	DB	00H
	DB	00H
	DB	00H
	DB	00H
	DB	00H
	DB	00H
	DB	00H
	DB	00H
	DB	00H
	DB	00H
	DB	00H
	DB	00H
	DB	00H
	DB	00H
	DB	00H
	DB	00H
	DB	00H
	DB	00H
	DB	00H
	DB	00H
	DB	00H
	DB	00H
	DB	00H
	DB	00H
	DB	00H
	DB	00H
	DB	00H
	DB	00H
	DB	00H
	DB	00H
	DB	00H
	DB	00H
	DB	00H
	DB	00H
	DB	00H
	DB	00H
	DB	00H
	DB	00H
	DB	00H
	DB	00H
	DB	00H
	DB	00H
	DB	00H
	DB	00H
	DB	00H
	DB	00H
	DB	00H
	DB	00H
	DB	00H
	DB	00H
	DB	00H
	DB	00H
	DB	00H
	DB	00H
	DB	00H
	DB	00H
	DB	00H
	DB	00H
	DB	00H
	DB	00H
	DB	00H
	DB	00H
	DB	00H
	DB	00H
	DB	00H
	DB	00H
	DB	00H
	DB	00H
	DB	00H
	DB	00H
	DB	00H
	DB	00H
	DB	00H
	DB	00H
	DB	00H
	DB	00H
	DB	00H
	DB	00H
	DB	00H
	DB	00H
	DB	00H
	DB	00H
	DB	00H
	DB	00H
	DB	00H
	DB	00H
	DB	00H
	DB	00H
	DB	00H
	DB	00H
	DB	00H
	DB	00H
	DB	00H
	DB	00H
	DB	00H
	DB	00H
	DB	00H
	DB	00H
	DB	00H
	DB	00H
	DB	00H
	DB	00H
	DB	00H
	DB	00H
	DB	00H
	DB	00H
	DB	00H
	DB	00H
	DB	00H
	DB	00H
	DB	00H
	DB	00H
	DB	00H
	DB	00H
	DB	00H
	DB	00H
	DB	00H
	DB	00H
	DB	00H
	DB	00H
	DB	00H
	DB	00H
	DB	00H
	DB	00H
	DB	00H
	DB	00H
	DB	00H
	DB	00H
	DB	00H
	DB	00H
	DB	00H
	DB	00H
	DB	00H
	DB	00H
	DB	00H
	DB	00H
	DB	00H
	DB	00H
	DB	00H
	DB	00H
	DB	00H
	DB	00H
	DB	00H
	DB	00H
	DB	00H
	DB	00H
	DB	00H
	DB	00H
	DB	00H
	DB	00H
	DB	00H
	DB	00H
	DB	00H
	DB	00H
	DB	00H
	DB	00H
	DB	00H
	DB	00H
	DB	00H
	DB	00H
	DB	00H
	DB	00H
	DB	00H
	DB	00H
	DB	00H
	DB	00H
	DB	00H
	DB	00H
	DB	00H
	DB	00H
	DB	00H
	DB	00H
	DB	00H
	DB	00H
	DB	00H
	DB	00H
	DB	00H
	DB	00H
	DB	00H
	DB	00H
	DB	00H
	DB	00H
	DB	00H
	DB	00H
	DB	00H
	DB	00H
	DB	00H
	DB	00H
	DB	00H
	DB	00H
	DB	00H
	DB	00H
	DB	00H
	DB	00H
	DB	00H
	DB	00H
	DB	00H
	DB	00H
	DB	00H
	DB	00H
	DB	00H
	DB	00H
	DB	00H
	DB	00H
	DB	00H
	DB	00H
	DB	00H
	DB	00H
	DB	00H
	DB	00H
	DB	00H
	DB	00H
	DB	00H
	DB	00H
	DB	00H
	DB	00H
	DB	00H
	DB	00H
	DB	00H
	DB	00H
	DB	00H
	DB	00H
	DB	00H
	DB	00H
	DB	00H
	DB	00H
	DB	00H
	DB	00H
	DB	00H
	DB	00H
	DB	00H
	DB	00H
	DB	00H
	DB	00H
	DB	00H
	DB	00H
	DB	00H
	DB	00H
	DB	00H
	DB	00H
	DB	00H
	DB	00H
	DB	00H
	DB	00H
	DB	00H
	DB	00H
	DB	00H
	DB	00H
	DB	00H
	DB	00H
	DB	00H
	DB	00H
	DB	00H
	DB	00H
	DB	00H
	DB	00H
	DB	00H
	DB	00H
	DB	00H
	DB	00H
	DB	00H
	DB	00H
	DB	00H
	DB	00H
	DB	00H
	DB	00H
	DB	00H
	DB	00H
	DB	00H
	DB	00H
	DB	00H
	DB	00H
	DB	00H
	DB	00H
	DB	00H
	DB	00H
	DB	00H
	DB	00H
	DB	00H
	DB	00H
	DB	00H
	DB	00H
	DB	00H
	DB	00H
	DB	00H
	DB	00H
	DB	00H
	DB	00H
	DB	00H
	DB	00H
	DB	00H
	DB	00H
	DB	00H
	DB	00H
	DB	00H
	DB	00H
	DB	00H
	DB	00H
	DB	00H
	DB	00H
	DB	00H
	DB	00H
	DB	00H
	DB	00H
	DB	00H
	DB	00H
	DB	00H
	DB	00H
	DB	00H
	DB	00H
	DB	00H
	DB	00H
	DB	00H
	DB	00H
	DB	00H
	DB	00H
	DB	00H
	DB	00H
	DB	00H
	DB	00H
	DB	00H
	DB	00H
	DB	00H
	DB	00H
	DB	00H
	DB	00H
	DB	00H
	DB	00H
	DB	00H
	DB	00H
	DB	00H
	DB	00H
	DB	00H
	DB	00H
	DB	00H
	DB	00H
	DB	00H
	DB	00H
	DB	00H
	DB	00H
	DB	00H
	DB	00H
	DB	00H
	DB	00H
	DB	00H
	DB	00H
	DB	00H
	DB	00H
	DB	00H
	DB	00H
	DB	00H
	DB	00H
	DB	00H
	DB	00H
	DB	00H
	DB	00H
	DB	00H
	DB	00H
	DB	00H
	DB	00H
	DB	00H
	DB	00H
	DB	00H
	DB	00H
	DB	00H
	DB	00H
	DB	00H
	DB	00H
	DB	00H
	DB	00H
	DB	00H
	DB	00H
	DB	00H
	DB	00H
	DB	00H
	DB	00H
	DB	00H
	DB	00H
	DB	00H
	DB	00H
	DB	00H
	DB	00H
	DB	00H
	DB	00H
	DB	00H
	DB	00H
	DB	00H
	DB	00H
	DB	00H
	DB	00H
	DB	00H
	DB	00H
	DB	00H
	DB	00H
	DB	00H
	DB	00H
	DB	00H
	DB	00H
	DB	00H
	DB	00H
	DB	00H
	DB	00H
	DB	00H
	DB	00H
	DB	00H
	DB	00H
	DB	00H
	DB	00H
	DB	00H
	DB	00H
	DB	00H
	DB	00H
	DB	00H
	DB	00H
	DB	00H
	DB	00H
	DB	00H
	DB	00H
	DB	00H
	DB	00H
	DB	00H
	DB	00H
	DB	00H
	DB	00H
	DB	00H
	DB	00H
	DB	00H
	DB	00H
	DB	00H
	DB	00H
	DB	00H
	DB	00H
	DB	00H
	DB	00H
	DB	00H
	DB	00H
	DB	00H
	DB	00H
	DB	00H
	DB	00H
	DB	00H
	DB	00H
	DB	00H
	DB	00H
	DB	00H
	DB	00H
	DB	00H
	DB	00H
	DB	00H
	DB	00H
	DB	00H
	DB	00H
	DB	00H
	DB	00H
	DB	00H
	DB	00H
	DB	00H
	DB	00H
	DB	00H
	DB	00H
	DB	00H
	DB	00H
	DB	00H
	DB	00H
	DB	00H
	DB	00H
	DB	00H
	DB	00H
	DB	00H
	DB	00H
	DB	00H
	DB	00H
	DB	00H
	DB	00H
	DB	00H
	DB	00H
	DB	00H
	DB	00H
	DB	00H
	DB	00H
	DB	00H
	DB	00H
	DB	00H
	DB	00H
	DB	00H
	DB	00H
	DB	00H
	DB	00H
	DB	00H
	DB	00H
	DB	00H
	DB	00H
	DB	00H
	DB	00H
	DB	00H
	DB	00H
	DB	00H
	DB	00H
	DB	00H
	DB	00H
	DB	00H
	DB	00H
	DB	00H
	DB	00H
	DB	00H
	DB	00H
	DB	00H
	DB	00H
	DB	00H
	DB	00H
	DB	00H
	DB	00H
	DB	00H
	DB	00H
	DB	00H
	DB	00H
	DB	00H
	DB	00H
	DB	00H
	DB	00H
	DB	00H
	DB	00H
	DB	00H
	DB	00H
	DB	00H
	DB	00H
	DB	00H
	DB	00H
	DB	00H
	DB	00H
	DB	00H
	DB	00H
	DB	00H
	DB	00H
	DB	00H
	DB	00H
	DB	00H
	DB	00H
	DB	00H
	DB	00H
	DB	00H
	DB	00H
	DB	00H
	DB	00H
	DB	00H
	DB	00H
	DB	00H
	DB	00H
	DB	00H
	DB	00H
	DB	00H
	DB	00H
	DB	00H
	DB	00H
	DB	00H
	DB	00H
	DB	00H
	DB	00H
	DB	00H
	DB	00H
	DB	00H
	DB	00H
	DB	00H
	DB	00H
	DB	00H
	DB	00H
	DB	00H
	DB	00H
	DB	00H
	DB	00H
	DB	00H
	DB	00H
	DB	00H
	DB	00H
	DB	00H
	DB	00H
	DB	00H
	DB	00H
	DB	00H
	DB	00H
	DB	00H
	DB	00H
	DB	00H
	DB	00H
	DB	00H
	DB	00H
	DB	00H
	DB	00H
	DB	00H
	DB	00H
	DB	00H
	DB	00H
	DB	00H
	DB	00H
	DB	00H
	DB	00H
	DB	00H
	DB	00H
	DB	00H
	DB	00H
	DB	00H
	DB	00H
	DB	00H
	DB	00H
	DB	00H
	DB	00H
	DB	00H
	DB	00H
	DB	00H
	DB	00H
	DB	00H
	DB	00H
	DB	00H
	DB	00H
	DB	00H
	DB	00H
	DB	00H
	DB	00H
	DB	00H
	DB	00H
	DB	00H
	DB	00H
	DB	00H
	DB	00H
	DB	00H
	DB	00H
	DB	00H
	DB	00H
	DB	00H
	DB	00H
	DB	00H
	DB	00H
	DB	00H
	DB	00H
	DB	00H
	DB	00H
	DB	00H
	DB	00H
	DB	00H
	DB	00H
	DB	00H
	DB	00H
	DB	00H
	DB	00H
	DB	00H
	DB	00H
	DB	00H
	DB	00H
	DB	00H
	DB	00H
	DB	00H
	DB	00H
	DB	00H
	DB	00H
	DB	00H
	DB	00H
	DB	00H
	DB	00H
	DB	00H
	DB	00H
	DB	00H
	DB	00H
	DB	00H
	DB	00H
	DB	00H
	DB	00H
	DB	00H
	DB	00H
	DB	00H
	DB	00H
	DB	00H
	DB	00H
	DB	00H
	DB	00H
	DB	00H
	DB	00H
	DB	00H
	DB	00H
	DB	00H
	DB	00H
	DB	00H
	DB	00H
	DB	00H
	DB	00H
	DB	00H
	DB	00H
	DB	00H
	DB	00H
	DB	00H
	DB	00H
	DB	00H
	DB	00H
	DB	00H
	DB	00H
	DB	00H
	DB	00H
	DB	00H
	DB	00H
	DB	00H
	DB	00H
	DB	00H
	DB	00H
	DB	00H
	DB	00H
	DB	00H
	DB	00H
	DB	00H
	DB	00H
	DB	00H
	DB	00H
	DB	00H
	DB	00H
	DB	00H
	DB	00H
	DB	00H
	DB	00H
	DB	00H
	DB	00H
	DB	00H
	DB	00H
	DB	00H
	DB	00H
	DB	00H
	DB	00H
	DB	00H
	DB	00H
	DB	00H
	DB	00H
	DB	00H
	DB	00H
	DB	00H
	DB	00H
	DB	00H
	DB	00H
	DB	00H
	DB	00H
	DB	00H
	DB	00H
	DB	00H
	DB	00H
	DB	00H
	DB	00H
	DB	00H
	DB	00H
	DB	00H
	DB	00H
	DB	00H
	DB	00H
	DB	00H
	DB	00H
	DB	00H
	DB	00H
	DB	00H
	DB	00H
	DB	00H
	DB	00H
	DB	00H
	DB	00H
	DB	00H
	DB	00H
	DB	00H
	DB	00H
	DB	00H
	DB	00H
	DB	00H
	DB	00H
	DB	00H
	DB	00H
	DB	00H
	DB	00H
	DB	00H
	DB	00H
	DB	00H
	DB	00H
	DB	00H
	DB	00H
	DB	00H
	DB	00H
	DB	00H
	DB	00H
	DB	00H
	DB	00H
	DB	00H
	DB	00H
	DB	00H
	DB	00H
	DB	00H
	DB	00H
	DB	00H
	DB	00H
	DB	00H
	DB	00H
	DB	00H
	DB	00H
	DB	00H
	DB	00H
	DB	00H
	DB	00H
	DB	00H
	DB	00H
	DB	00H
	DB	00H
	DB	00H
	DB	00H
	DB	00H
	DB	00H
	DB	00H
	DB	00H
	DB	00H
	DB	00H
	DB	00H
	DB	00H
	DB	00H
	DB	00H
	DB	00H
	DB	00H
	DB	00H
	DB	00H
	DB	00H
	DB	00H
	DB	00H
	DB	00H
	DB	00H
	DB	00H
	DB	00H
	DB	00H
	DB	00H
	DB	00H
	DB	00H
	DB	00H
	DB	00H
	DB	00H
	DB	00H
	DB	00H
	DB	00H
	DB	00H
	DB	00H
	DB	00H
	DB	00H
	DB	00H
	DB	00H
	DB	00H
	DB	00H
	DB	00H
	DB	00H
	DB	00H
	DB	00H
	DB	00H
	DB	00H
	DB	00H
	DB	00H
	DB	00H
	DB	00H
	DB	00H
	DB	00H
	DB	00H
	DB	00H
	DB	00H
	DB	00H
	DB	00H
	DB	00H
	DB	00H
	DB	00H
	DB	00H
	DB	00H
	DB	00H
	DB	00H
	DB	00H
	DB	00H
	DB	00H
	DB	00H
	DB	00H
	DB	00H
	DB	00H
	DB	00H
	DB	00H
	DB	00H
	DB	00H
	DB	00H
	DB	00H
	DB	00H
	DB	00H
	DB	00H
	DB	00H
	DB	00H
	DB	00H
	DB	00H
	DB	00H
	DB	00H
	DB	00H
	DB	00H
	DB	00H
	DB	00H
	DB	00H
	DB	00H
	DB	00H
	DB	00H
	DB	00H
	DB	00H
	DB	00H
	DB	00H
	DB	00H
	DB	00H
	DB	00H
	DB	00H
	DB	00H
	DB	00H
	DB	00H
	DB	00H
	DB	00H
	DB	00H
	DB	00H
	DB	00H
	DB	00H
	DB	00H
	DB	00H
	DB	00H
	DB	00H
	DB	00H
	DB	00H
	DB	00H
	DB	00H
	DB	00H
	DB	00H
	DB	00H
	DB	00H
	DB	00H
	DB	00H
	DB	00H
	DB	00H
	DB	00H
	DB	00H
	DB	00H
	DB	00H
	DB	00H
	DB	00H
	DB	00H
	DB	00H
	DB	00H
	DB	00H
	DB	00H
	DB	00H
	DB	00H
	DB	00H
	DB	00H
	DB	00H
	DB	00H
	DB	00H
	DB	00H
	DB	00H
	DB	00H
	DB	00H
	DB	00H
	DB	00H
	DB	00H
	DB	00H
	DB	00H
	DB	00H
	DB	00H
	DB	00H
	DB	00H
	DB	00H
	DB	00H
	DB	00H
	DB	00H
	DB	00H
	DB	00H
	DB	00H
	DB	00H
	DB	00H
	DB	00H
	DB	00H
	DB	00H
	DB	00H
	DB	00H
	DB	00H
	DB	00H
	DB	00H
	DB	00H
	DB	00H
	DB	00H
	DB	00H
	DB	00H
	DB	00H
	DB	00H
	DB	00H
	DB	00H
	DB	00H
	DB	00H
	DB	00H
	DB	00H
	DB	00H
	DB	00H
	DB	00H
	DB	00H
	DB	00H
	DB	00H
	DB	00H
	DB	00H
	DB	00H
	DB	00H
	DB	00H
	DB	00H
	DB	00H
	DB	00H
	DB	00H
	DB	00H
	DB	00H
	DB	00H
	DB	00H
	DB	00H
	DB	00H
	DB	00H
	DB	00H
	DB	00H
	DB	00H
	DB	00H
	DB	00H
	DB	00H
	DB	00H
	DB	00H
	DB	00H
	DB	00H
	DB	00H
	DB	00H
	DB	00H
	DB	00H
	DB	00H
	DB	00H
	DB	00H
	DB	00H
	DB	00H
	DB	00H
	DB	00H
	DB	00H
	DB	00H
	DB	00H
	DB	00H
	DB	00H
	DB	00H
	DB	00H
	DB	00H
	DB	00H
	DB	00H
	DB	00H
	DB	00H
	DB	00H
	DB	00H
	DB	00H
	DB	00H
	DB	00H
	DB	00H
	DB	00H
	DB	00H
	DB	00H
	DB	00H
	DB	00H
	DB	00H
	DB	00H
	DB	00H
	DB	00H
	DB	00H
	DB	00H
	DB	00H
	DB	00H
	DB	00H
	DB	00H
	DB	00H
	DB	00H
	DB	00H
	DB	00H
	DB	00H
	DB	00H
	DB	00H
	DB	00H
	DB	00H
	DB	00H
	DB	00H
	DB	00H
	DB	00H
	DB	00H
	DB	00H
	DB	00H
	DB	00H
	DB	00H
	DB	00H
	DB	00H
	DB	00H
	DB	00H
	DB	00H
	DB	00H
	DB	00H
	DB	00H
	DB	00H
	DB	00H
	DB	00H
	DB	00H
	DB	00H
	DB	00H
	DB	00H
	DB	00H
	DB	00H
	DB	00H
	DB	00H
	DB	00H
	DB	00H
	DB	00H
	DB	00H
	DB	00H
	DB	00H
	DB	00H
	DB	00H
	DB	00H
	DB	00H
	DB	00H
	DB	00H
	DB	00H
	DB	00H
	DB	00H
	DB	00H
	DB	00H
	DB	00H
	DB	00H
	DB	00H
	DB	00H
	DB	00H
	DB	00H
	DB	00H
	DB	00H
	DB	00H
	DB	00H
	DB	00H
	DB	00H
	DB	00H
	DB	00H
	DB	00H
	DB	00H
	DB	00H
	DB	00H
	DB	00H
	DB	00H
	DB	00H
	DB	00H
	DB	00H
	DB	00H
	DB	00H
	DB	00H
	DB	00H
	DB	00H
	DB	00H
	DB	00H
	DB	00H
	DB	00H
	DB	00H
	DB	00H
	DB	00H
	DB	00H
	DB	00H
	DB	00H
	DB	00H
	DB	00H
	DB	00H
	DB	00H
	DB	00H
	DB	00H
	DB	00H
	DB	00H
	DB	00H
	DB	00H
	DB	00H
	DB	00H
	DB	00H
	DB	00H
	DB	00H
	DB	00H
	DB	00H
	DB	00H
	DB	00H
	DB	00H
	DB	00H
	DB	00H
	DB	00H
	DB	00H
	DB	00H
	DB	00H
	DB	00H
	DB	00H
	DB	00H
	DB	00H
	DB	00H
	DB	00H
	DB	00H
	DB	00H
	DB	00H
	DB	00H
	DB	00H
	DB	00H
	DB	00H
	DB	00H
	DB	00H
	DB	00H
	DB	00H
	DB	00H
	DB	00H
	DB	00H
	DB	00H
	DB	00H
	DB	00H
	DB	00H
	DB	00H
	DB	00H
	DB	00H
	DB	00H
	DB	00H
	DB	00H
	DB	00H
	DB	00H
	DB	00H
	DB	00H
	DB	00H
	DB	00H
	DB	00H
	DB	00H
	DB	00H
	DB	00H
	DB	00H
	DB	00H
	DB	00H
	DB	00H
	DB	00H
	DB	00H
	DB	00H
	DB	00H
	DB	00H
	DB	00H
	DB	00H
	DB	00H
	DB	00H
	DB	00H
	DB	00H
	DB	00H
	DB	00H
	DB	00H
	DB	00H
	DB	00H
	DB	00H
	DB	00H
	DB	00H
	DB	00H
	DB	00H
	DB	00H
	DB	00H
	DB	00H
	DB	00H
	DB	00H
	DB	00H
	DB	00H
	DB	00H
	DB	00H
	DB	00H
	DB	00H
	DB	00H
	DB	00H
	DB	00H
	DB	00H
	DB	00H
	DB	00H
	DB	00H
	DB	00H
	DB	00H
	DB	00H
	DB	00H
	DB	00H
	DB	00H
	DB	00H
	DB	00H
	DB	00H
	DB	00H
	DB	00H
	DB	00H
	DB	00H
	DB	00H
	DB	00H
	DB	00H
	DB	00H
	DB	00H
	DB	00H
	DB	00H
	DB	00H
	DB	00H
	DB	00H
	DB	00H
	DB	00H
	DB	00H
	DB	00H
	DB	00H
	DB	00H
	DB	00H
	DB	00H
	DB	00H
	DB	00H
	DB	00H
	DB	00H
	DB	00H
	DB	00H
	DB	00H
	DB	00H
	DB	00H
	DB	00H
	DB	00H
	DB	00H
	DB	00H
	DB	00H
	DB	00H
	DB	00H
	DB	00H
	DB	00H
	DB	00H
	DB	00H
	DB	00H
	DB	00H
	DB	00H
	DB	00H
	DB	00H
	DB	00H
	DB	00H
	DB	00H
	DB	00H
	DB	00H
	DB	00H
	DB	00H
	DB	00H
	DB	00H
	DB	00H
	DB	00H
	DB	00H
	DB	00H
	DB	00H
	DB	00H
	DB	00H
	DB	00H
	DB	00H
	DB	00H
	DB	00H
	DB	00H
	DB	00H
	DB	00H
	DB	00H
	DB	00H
	DB	00H
	DB	00H
	DB	00H
	DB	00H
	DB	00H
	DB	00H
	DB	00H
	DB	00H
	DB	00H
	DB	00H
	DB	00H
	DB	00H
	DB	00H
	DB	00H
	DB	00H
	DB	00H
	DB	00H
	DB	00H
	DB	00H
	DB	00H
	DB	00H
	DB	00H
	DB	00H
	DB	00H
	DB	00H
	DB	00H
	DB	00H
	DB	00H
	DB	00H
	DB	00H
	DB	00H
	DB	00H
	DB	00H
	DB	00H
	DB	00H
	DB	00H
	DB	00H
	DB	00H
	DB	00H
	DB	00H
	DB	00H
	DB	00H
	DB	00H
	DB	00H
	DB	00H
	DB	00H
	DB	00H
	DB	00H
	DB	00H
	DB	00H
	DB	00H
	DB	00H
	DB	00H
	DB	00H
	DB	00H
	DB	00H
	DB	00H
	DB	00H
	DB	00H
	DB	00H
	DB	00H
	DB	00H
	DB	00H
	DB	00H
	DB	00H
	DB	00H
	DB	00H
	DB	00H
	DB	00H
	DB	00H
	DB	00H
	DB	00H
	DB	00H
	DB	00H
	DB	00H
	DB	00H
	DB	00H
	DB	00H
	DB	00H
	DB	00H
	DB	00H
	DB	00H
	DB	00H
	DB	00H
	DB	00H
	DB	00H
	DB	00H
	DB	00H
	DB	00H
	DB	00H
	DB	00H
	DB	00H
	DB	00H
	DB	00H
	DB	00H
	DB	00H
	DB	00H
	DB	00H
	DB	00H
	DB	00H
	DB	00H
	DB	00H
	DB	00H
	DB	00H
	DB	00H
	DB	00H
	DB	00H
	DB	00H
	DB	00H
	DB	00H
	DB	00H
	DB	00H
	DB	00H
	DB	00H
	DB	00H
	DB	00H
	DB	00H
	DB	00H
	DB	00H
	DB	00H
	DB	00H
	DB	00H
	DB	00H
	DB	00H
	DB	00H
	DB	00H
	DB	00H
	DB	00H
	DB	00H
	DB	00H
	DB	00H
	DB	00H
	DB	00H
	DB	00H
	DB	00H
	DB	00H
	DB	00H
	DB	00H
	DB	00H
	DB	00H
	DB	00H
	DB	00H
	DB	00H
	DB	00H
	DB	00H
	DB	00H
	DB	00H
	DB	00H
	DB	00H
	DB	00H
	DB	00H
	DB	00H
	DB	00H
	DB	00H
	DB	00H
	DB	00H
	DB	00H
	DB	00H
	DB	00H
	DB	00H
	DB	00H
	DB	00H
	DB	00H
	DB	00H
	DB	00H
	DB	00H
	DB	00H
	DB	00H
	DB	00H
	DB	00H
	DB	00H
	DB	00H
	DB	00H
	DB	00H
	DB	00H
	DB	00H
	DB	00H
	DB	00H
	DB	00H
	DB	00H
	DB	00H
	DB	00H
	DB	00H
	DB	00H
	DB	00H
	DB	00H
	DB	00H
	DB	00H
	DB	00H
	DB	00H
	DB	00H
	DB	00H
	DB	00H
	DB	00H
	DB	00H
	DB	00H
	DB	00H
	DB	00H
	DB	00H
	DB	00H
	DB	00H
	DB	00H
	DB	00H
	DB	00H
	DB	00H
	DB	00H
	DB	00H
	DB	00H
	DB	00H
	DB	00H
	DB	00H
	DB	00H
	DB	00H
	DB	00H
	DB	00H
	DB	00H
	DB	00H
	DB	00H
	DB	00H
	DB	00H
	DB	00H
	DB	00H
	DB	00H
	DB	00H
	DB	00H
	DB	00H
	DB	00H
	DB	00H
	DB	00H
	DB	00H
	DB	00H
	DB	00H
	DB	00H
	DB	00H
	DB	00H
	DB	00H
	DB	00H
	DB	00H
	DB	00H
	DB	00H
	DB	00H
	DB	00H
	DB	00H
	DB	00H
	DB	00H
	DB	00H
	DB	00H
	DB	00H
	DB	00H
	DB	00H
	DB	00H
	DB	00H
	DB	00H
	DB	00H
	DB	00H
	DB	00H
	DB	00H
	DB	00H
	DB	00H
	DB	00H
	DB	00H
	DB	00H
	DB	00H
	DB	00H
	DB	00H
	DB	00H
	DB	00H
	DB	00H
	DB	00H
	DB	00H
	DB	00H
	DB	00H
	DB	00H
	DB	00H
	DB	00H
	DB	00H
	DB	00H
	DB	00H
	DB	00H
	DB	00H
	DB	00H
	DB	00H
	DB	00H
	DB	00H
	DB	00H
	DB	00H
	DB	00H
	DB	00H
	DB	00H
	DB	00H
	DB	00H
	DB	00H
	DB	00H
	DB	00H
	DB	00H
	DB	00H
	DB	00H
	DB	00H
	DB	00H
	DB	00H
	DB	00H
	DB	00H
	DB	00H
	DB	00H
	DB	00H
	DB	00H
	DB	00H
	DB	00H
	DB	00H
	DB	00H
	DB	00H
	DB	00H
	DB	00H
	DB	00H
	DB	00H
	DB	00H
	DB	00H
	DB	00H
	DB	00H
	DB	00H
	DB	00H
	DB	00H
	DB	00H
	DB	00H
	DB	00H
	DB	00H
	DB	00H
	DB	00H
	DB	00H
	DB	00H
	DB	00H
	DB	00H
	DB	00H
	DB	00H
	DB	00H
	DB	00H
	DB	00H
	DB	00H
	DB	00H
	DB	00H
	DB	00H
	DB	00H
	DB	00H
	DB	00H
	DB	00H
	DB	00H
	DB	00H
	DB	00H
	DB	00H
	DB	00H
	DB	00H
	DB	00H
	DB	00H
	DB	00H
	DB	00H
	DB	00H
	DB	00H
	DB	00H
	DB	00H
	DB	00H
	DB	00H
	DB	00H
	DB	00H
	DB	00H
	DB	00H
	DB	00H
	DB	00H
	DB	00H
	DB	00H
	DB	00H
	DB	00H
	DB	00H
	DB	00H
	DB	00H
	DB	00H
	DB	00H
	DB	00H
	DB	00H
	DB	00H
	DB	00H
	DB	00H
	DB	00H
	DB	00H
	DB	00H
	DB	00H
	DB	00H
	DB	00H
	DB	00H
	DB	00H
	DB	00H
	DB	00H
	DB	00H
	DB	00H
	DB	00H
	DB	00H
	DB	00H
	DB	00H
	DB	00H
	DB	00H
	DB	00H
	DB	00H
	DB	00H
	DB	00H
	DB	00H
	DB	00H
	DB	00H
	DB	00H
	DB	00H
	DB	00H
	DB	00H
	DB	00H
	DB	00H
	DB	00H
	DB	00H
	DB	00H
	DB	00H
	DB	00H
	DB	00H
	DB	00H
	DB	00H
	DB	00H
	DB	00H
	DB	00H
	DB	00H
	DB	00H
	DB	00H
	DB	00H
	DB	00H
	DB	00H
	DB	00H
	DB	00H
	DB	00H
	DB	00H
	DB	00H
	DB	00H
	DB	00H
	DB	00H
	DB	00H
	DB	00H
	DB	00H
	DB	00H
	DB	00H
	DB	00H
	DB	00H
	DB	00H
	DB	00H
	DB	00H
	DB	00H
	DB	00H
	DB	00H
	DB	00H
	DB	00H
	DB	00H
	DB	00H
	DB	00H
	DB	00H
	DB	00H
	DB	00H
	DB	00H
	DB	00H
	DB	00H
	DB	00H
	DB	00H
	DB	00H
	DB	00H
	DB	00H
	DB	00H
	DB	00H
	DB	00H
	DB	00H
	DB	00H
	DB	00H
	DB	00H
	DB	00H
	DB	00H
	DB	00H
	DB	00H
	DB	00H
	DB	00H
	DB	00H
	DB	00H
	DB	00H
	DB	00H
	DB	00H
	DB	00H
	DB	00H
	DB	00H
	DB	00H
	DB	00H
	DB	00H
	DB	00H
	DB	00H
	DB	00H
	DB	00H
	DB	00H
	DB	00H
	DB	00H
	DB	00H
	DB	00H
	DB	00H
	DB	00H
	DB	00H
	DB	00H
	DB	00H
	DB	00H
	DB	00H
	DB	00H
	DB	00H
	DB	00H
	DB	00H
	DB	00H
	DB	00H
	DB	00H
	DB	00H
	DB	00H
	DB	00H
	DB	00H
	DB	00H
	DB	00H
	DB	00H
	DB	00H
	DB	00H
	DB	00H
	DB	00H
	DB	00H
	DB	00H
	DB	00H
	DB	00H
	DB	00H
	DB	00H
	DB	00H
	DB	00H
	DB	00H
	DB	00H
	DB	00H
	DB	00H
	DB	00H
	DB	00H
	DB	00H
	DB	00H
	DB	00H
	DB	00H
	DB	00H
	DB	00H
	DB	00H
	DB	00H
	DB	00H
	DB	00H
	DB	00H
	DB	00H
	DB	00H
	DB	00H
	DB	00H
	DB	00H
	DB	00H
	DB	00H
	DB	00H
	DB	00H
	DB	00H
	DB	00H
	DB	00H
	DB	00H
	DB	00H
	DB	00H
	DB	00H
	DB	00H
	DB	00H
	DB	00H
	DB	00H
	DB	00H
	DB	00H
	DB	00H
	DB	00H
	DB	00H
	DB	00H
	DB	00H
	DB	00H
	DB	00H
	DB	00H
	DB	00H
	DB	00H
	DB	00H
	DB	00H
	DB	00H
	DB	00H
	DB	00H
	DB	00H
	DB	00H
	DB	00H
	DB	00H
	DB	00H
	DB	00H
	DB	00H
	DB	00H
	DB	00H
	DB	00H
	DB	00H
	DB	00H
	DB	00H
	DB	00H
	DB	00H
	DB	00H
	DB	00H
	DB	00H
	DB	00H
	DB	00H
	DB	00H
	DB	00H
	DB	00H
	DB	00H
	DB	00H
	DB	00H
	DB	00H
	DB	00H
	DB	00H
	DB	00H
	DB	00H
	DB	00H
	DB	00H
	DB	00H
	DB	00H
	DB	00H
	DB	00H
	DB	00H
	DB	00H
	DB	00H
	DB	00H
	DB	00H
	DB	00H
	DB	00H
	DB	00H
	DB	00H
	DB	00H
	DB	00H
	DB	00H
	DB	00H
	DB	00H
	DB	00H
	DB	00H
	DB	00H
	DB	00H
	DB	00H
	DB	00H
	DB	00H
	DB	00H
	DB	00H
	DB	00H
	DB	00H
	DB	00H
	DB	00H
	DB	00H
	DB	00H
	DB	00H
	DB	00H
	DB	00H
	DB	00H
	DB	00H
	DB	00H
	DB	00H
	DB	00H
	DB	00H
	DB	00H
	DB	00H
	DB	00H
	DB	00H
	DB	00H
	DB	00H
	DB	00H
	DB	00H
	DB	00H
	DB	00H
	DB	00H
	DB	00H
	DB	00H
	DB	00H
	DB	00H
	DB	00H
	DB	00H
	DB	00H
	DB	00H
	DB	00H
	DB	00H
	DB	00H
	DB	00H
	DB	00H
	DB	00H
	DB	00H
	DB	00H
	DB	00H
	DB	00H
	DB	00H
	DB	00H
	DB	00H
	DB	00H
	DB	00H
	DB	00H
	DB	00H
	DB	00H
	DB	00H
	DB	00H
	DB	00H
	DB	00H
	DB	00H
	DB	00H
	DB	00H
	DB	00H
	DB	00H
	DB	00H
	DB	00H
	DB	00H
	DB	00H
	DB	00H
	DB	00H
	DB	00H
	DB	00H
	DB	00H
	DB	00H
	DB	00H
	DB	00H
	DB	00H
	DB	00H
	DB	00H
	DB	00H
	DB	00H
	DB	00H
	DB	00H
	DB	00H
	DB	00H
	DB	00H
	DB	00H
	DB	00H
	DB	00H
	DB	00H
	DB	00H
	DB	00H
	DB	00H
	DB	00H
	DB	00H
	DB	00H
	DB	00H
	DB	00H
	DB	00H
	DB	00H
	DB	00H
	DB	00H
	DB	00H
	DB	00H
	DB	00H
	DB	00H
	DB	00H
	DB	00H
	DB	00H
	DB	00H
	DB	00H
	DB	00H
	DB	00H
	DB	00H
	DB	00H
	DB	00H
	DB	00H
	DB	00H
	DB	00H
	DB	00H
	DB	00H
	DB	00H
	DB	00H
	DB	00H
	DB	00H
	DB	00H
	DB	00H
	DB	00H
	DB	00H
	DB	00H
	DB	00H
	DB	00H
	DB	00H
	DB	00H
	DB	00H
	DB	00H
	DB	00H
	DB	00H
	DB	00H
	DB	00H
	DB	00H
	DB	00H
	DB	00H
	DB	00H
	DB	00H
	DB	00H
	DB	00H
	DB	00H
	DB	00H
	DB	00H
	DB	00H
	DB	00H
	DB	00H
	DB	00H
	DB	00H
	DB	00H
	DB	00H
	DB	00H
	DB	00H
	DB	00H
	DB	00H
	DB	00H
	DB	00H
	DB	00H
	DB	00H
	DB	00H
	DB	00H
	DB	00H
	DB	00H
	DB	00H
	DB	00H
	DB	00H
	DB	00H
	DB	00H
	DB	00H
	DB	00H
	DB	00H
	DB	00H
	DB	00H
	DB	00H
	DB	00H
	DB	00H
	DB	00H
	DB	00H
	DB	00H
	DB	00H
	DB	00H
	DB	00H
	DB	00H
	DB	00H
	DB	00H
	DB	00H
	DB	00H
	DB	00H
	DB	00H
	DB	00H
	DB	00H
	DB	00H
	DB	00H
	DB	00H
	DB	00H
	DB	00H
	DB	00H
	DB	00H
	DB	00H
	DB	00H
	DB	00H
	DB	00H
	DB	00H
	DB	00H
	DB	00H
	DB	00H
	DB	00H
	DB	00H
	DB	00H
	DB	00H
	DB	00H
	DB	00H
	DB	00H
	DB	00H
	DB	00H
	DB	00H
	DB	00H
	DB	00H
	DB	00H
	DB	00H
	DB	00H
	DB	00H
	DB	00H
	DB	00H
	DB	00H
	DB	00H
	DB	00H
	DB	00H
	DB	00H
	DB	00H
	DB	00H
	DB	00H
	DB	00H
	DB	00H
	DB	00H
	DB	00H
	DB	00H
	DB	00H
	DB	00H
	DB	00H
	DB	00H
	DB	00H
	DB	00H
	DB	00H
	DB	00H
	DB	00H
	DB	00H
	DB	00H
	DB	00H
	DB	00H
	DB	00H
	DB	00H
	DB	00H
	DB	00H
	DB	00H
	DB	00H
	DB	00H
	DB	00H
	DB	00H
	DB	00H
	DB	00H
	DB	00H
	DB	00H
	DB	00H
	DB	00H
	DB	00H
	DB	00H
	DB	00H
	DB	00H
	DB	00H
	DB	00H
	DB	00H
	DB	00H
	DB	00H
	DB	00H
	DB	00H
	DB	00H
	DB	00H
	DB	00H
	DB	00H
	DB	00H
	DB	00H
	DB	00H
	DB	00H
	DB	00H
	DB	00H
	DB	00H
	DB	00H
	DB	00H
	DB	00H
	DB	00H
	DB	00H
	DB	00H
	DB	00H
	DB	00H
	DB	00H
	DB	00H
	DB	00H
	DB	00H
	DB	00H
	DB	00H
	DB	00H
	DB	00H
	DB	00H
	DB	00H
	DB	00H
	DB	00H
	DB	00H
	DB	00H
	DB	00H
	DB	00H
	DB	00H
	DB	00H
	DB	00H
	DB	00H
	DB	00H
	DB	00H
	DB	00H
	DB	00H
	DB	00H
	DB	00H
	DB	00H
	DB	00H
	DB	00H
	DB	00H
	DB	00H
	DB	00H
	DB	00H
	DB	00H
	DB	00H
	DB	00H
	DB	00H
	DB	00H
	DB	00H
	DB	00H
	DB	00H
	DB	00H
	DB	00H
	DB	00H
	DB	00H
	DB	00H
	DB	00H
	DB	00H
	DB	00H
	DB	00H
	DB	00H
	DB	00H
	DB	00H
	DB	00H
	DB	00H
	DB	00H
	DB	00H
	DB	00H
	DB	00H
	DB	00H
	DB	00H
	DB	00H
	DB	00H
	DB	00H
	DB	00H
	DB	00H
	DB	00H
	DB	00H
	DB	00H
	DB	00H
	DB	00H
	DB	00H
	DB	00H
	DB	00H
	DB	00H
	DB	00H
	DB	00H
	DB	00H
	DB	00H
	DB	00H
	DB	00H
	DB	00H
	DB	00H
	DB	00H
	DB	00H
	DB	00H
	DB	00H
	DB	00H
	DB	00H
	DB	00H
	DB	00H
	DB	00H
	DB	00H
	DB	00H
	DB	00H
	DB	00H
	DB	00H
	DB	00H
	DB	00H
	DB	00H
	DB	00H
	DB	00H
	DB	00H
	DB	00H
	DB	00H
	DB	00H
	DB	00H
	DB	00H
	DB	00H
	DB	00H
	DB	00H
	DB	00H
	DB	00H
	DB	00H
	DB	00H
	DB	00H
	DB	00H
	DB	00H
	DB	00H
	DB	00H
	DB	00H
	DB	00H
	DB	00H
	DB	00H
	DB	00H
	DB	00H
	DB	00H
	DB	00H
	DB	00H
	DB	00H
	DB	00H
	DB	00H
	DB	00H
	DB	00H
	DB	00H
	DB	00H
	DB	00H
	DB	00H
	DB	00H
	DB	00H
	DB	00H
	DB	00H
	DB	00H
	DB	00H
	DB	00H
	DB	00H
	DB	00H
	DB	00H
	DB	00H
	DB	00H
	DB	00H
	DB	00H
	DB	00H
	DB	00H
	DB	00H
	DB	00H
	DB	00H
	DB	00H
	DB	00H
	DB	00H
	DB	00H
	DB	00H
	DB	00H
	DB	00H
	DB	00H
	DB	00H
	DB	00H
	DB	00H
	DB	00H
	DB	00H
	DB	00H
	DB	00H
	DB	00H
	DB	00H
	DB	00H
	DB	00H
	DB	00H
	DB	00H
	DB	00H
	DB	00H
	DB	00H
	DB	00H
	DB	00H
	DB	00H
	DB	00H
	DB	00H
	DB	00H
	DB	00H
	DB	00H
	DB	00H
	DB	00H
	DB	00H
	DB	00H
	DB	00H
	DB	00H
	DB	00H
	DB	00H
	DB	00H
	DB	00H
	DB	00H
	DB	00H
	DB	00H
	DB	00H
	DB	00H
	DB	00H
	DB	00H
	DB	00H
	DB	00H
	DB	00H
	DB	00H
	DB	00H
	DB	00H
	DB	00H
	DB	00H
	DB	00H
	DB	00H
	DB	00H
	DB	00H
	DB	00H
	DB	00H
	DB	00H
	DB	00H
	DB	00H
	DB	00H
	DB	00H
	DB	00H
	DB	00H
	DB	00H
	DB	00H
	DB	00H
	DB	00H
	DB	00H
	DB	00H
	DB	00H
	DB	00H
	DB	00H
	DB	00H
	DB	00H
	DB	00H
	DB	00H
	DB	00H
	DB	00H
	DB	00H
	DB	00H
	DB	00H
	DB	00H
	DB	00H
	DB	00H
	DB	00H
	DB	00H
	DB	00H
	DB	00H
	DB	00H
	DB	00H
	DB	00H
	DB	00H
	DB	00H
	DB	00H
	DB	00H
	DB	00H
	DB	00H
	DB	00H
	DB	00H
	DB	00H
	DB	00H
	DB	00H
	DB	00H
	DB	00H
	DB	00H
	DB	00H
	DB	00H
	DB	00H
	DB	00H
	DB	00H
	DB	00H
	DB	00H
	DB	00H
	DB	00H
	DB	00H
	DB	00H
	DB	00H
	DB	00H
	DB	00H
	DB	00H
	DB	00H
	DB	00H
	DB	00H
	DB	00H
	DB	00H
	DB	00H
	DB	00H
	DB	00H
	DB	00H
	DB	00H
	DB	00H
	DB	00H
	DB	00H
	DB	00H
	DB	00H
	DB	00H
	DB	00H
	DB	00H
	DB	00H
	DB	00H
	DB	00H
	DB	00H
	DB	00H
	DB	00H
	DB	00H
	DB	00H
	DB	00H
	DB	00H
	DB	00H
	DB	00H
	DB	00H
	DB	00H
	DB	00H
	DB	00H
	DB	00H
	DB	00H
	DB	00H
	DB	00H
	DB	00H
	DB	00H
	DB	00H
	DB	00H
	DB	00H
	DB	00H
	DB	00H
	DB	00H
	DB	00H
	DB	00H
	DB	00H
	DB	00H
	DB	00H
	DB	00H
	DB	00H
	DB	00H
	DB	00H
	DB	00H
	DB	00H
	DB	00H
	DB	00H
	DB	00H
	DB	00H
	DB	00H
	DB	00H
	DB	00H
	DB	00H
	DB	00H
	DB	00H
	DB	00H
	DB	00H
	DB	00H
	DB	00H
	DB	00H
	DB	00H
	DB	00H
	DB	00H
	DB	00H
	DB	00H
	DB	00H
	DB	00H
	DB	00H
	DB	00H
	DB	00H
	DB	00H
	DB	00H
	DB	00H
	DB	00H
	DB	00H
	DB	00H
	DB	00H
	DB	00H
	DB	00H
	DB	00H
	DB	00H
	DB	00H
	DB	00H
	DB	00H
	DB	00H
	DB	00H
	DB	00H
	DB	00H
	DB	00H
	DB	00H
	DB	00H
	DB	00H
	DB	00H
	DB	00H
	DB	00H
	DB	00H
	DB	00H
	DB	00H
	DB	00H
	DB	00H
	DB	00H
	DB	00H
	DB	00H
	DB	00H
	DB	00H
	DB	00H
	DB	00H
	DB	00H
	DB	00H
	DB	00H
	DB	00H
	DB	00H
	DB	00H
	DB	00H
	DB	00H
	DB	00H
	DB	00H
	DB	00H
	DB	00H
	DB	00H
	DB	00H
	DB	00H
	DB	00H
	DB	00H
	DB	00H
	DB	00H
	DB	00H
	DB	00H
	DB	00H
	DB	00H
	DB	00H
	DB	00H
	DB	00H
	DB	00H
	DB	00H
	DB	00H
	DB	00H
	DB	00H
	DB	00H
	DB	00H
	DB	00H
	DB	00H
	DB	00H
	DB	00H
	DB	00H
	DB	00H
	DB	00H
	DB	00H
	DB	00H
	DB	00H
	DB	00H
	DB	00H
	DB	00H
	DB	00H
	DB	00H
	DB	00H
	DB	00H
	DB	00H
	DB	00H
	DB	00H
	DB	00H
	DB	00H
	DB	00H
	DB	00H
	DB	00H
	DB	00H
	DB	00H
	DB	00H
	DB	00H
	DB	00H
	DB	00H
	DB	00H
	DB	00H
	DB	00H
	DB	00H
	DB	00H
	DB	00H
	DB	00H
	DB	00H
	DB	00H
	DB	00H
	DB	00H
	DB	00H
	DB	00H
	DB	00H
	DB	00H
	DB	00H
	DB	00H
	DB	00H
	DB	00H
	DB	00H
	DB	00H
	DB	00H
	DB	00H
	DB	00H
	DB	00H
	DB	00H
	DB	00H
	DB	00H
	DB	00H
	DB	00H
	DB	00H
	DB	00H
	DB	00H
	DB	00H
	DB	00H
	DB	00H
	DB	00H
	DB	00H
	DB	00H
	DB	00H
	DB	00H
	DB	00H
	DB	00H
	DB	00H
	DB	00H
	DB	00H
	DB	00H
	DB	00H
	DB	00H
	DB	00H
	DB	00H
	DB	00H
	DB	00H
	DB	00H
	DB	00H
	DB	00H
	DB	00H
	DB	00H
	DB	00H
	DB	00H
	DB	00H
	DB	00H
	DB	00H
	DB	00H
	DB	00H
	DB	00H
	DB	00H
	DB	00H
	DB	00H
	DB	00H
	DB	00H
	DB	00H
	DB	00H
	DB	00H
	DB	00H
	DB	00H
	DB	00H
	DB	00H
	DB	00H
	DB	00H
	DB	00H
	DB	00H
	DB	00H
	DB	00H
	DB	00H
	DB	00H
	DB	00H
	DB	00H
	DB	00H
	DB	00H
	DB	00H
	DB	00H
	DB	00H
	DB	00H
	DB	00H
	DB	00H
	DB	00H
	DB	00H
	DB	00H
	DB	00H
	DB	00H
	DB	00H
	DB	00H
	DB	00H
	DB	00H
	DB	00H
	DB	00H
	DB	00H
	DB	00H
	DB	00H
	DB	00H
	DB	00H
	DB	00H
	DB	00H
	DB	00H
	DB	00H
	DB	00H
	DB	00H
	DB	00H
	DB	00H
	DB	00H
	DB	00H
	DB	00H
	DB	00H
	DB	00H
	DB	00H
	DB	00H
	DB	00H
	DB	00H
	DB	00H
	DB	00H
	DB	00H
	DB	00H
	DB	00H
	DB	00H
	DB	00H
	DB	00H
	DB	00H
	DB	00H
	DB	00H
	DB	00H
	DB	00H
	DB	00H
	DB	00H
	DB	00H
	DB	00H
	DB	00H
	DB	00H
	DB	00H
	DB	00H
	DB	00H
	DB	00H
	DB	00H
	DB	00H
	DB	00H
	DB	00H
	DB	00H
	DB	00H
	DB	00H
	DB	00H
	DB	00H
	DB	00H
	DB	00H
	DB	00H
	DB	00H
	DB	00H
	DB	00H
	DB	00H
	DB	00H
	DB	00H
	DB	00H
	DB	00H
	DB	00H
	DB	00H
	DB	00H
	DB	00H
	DB	00H
	DB	00H
	DB	00H
	DB	00H
	DB	00H
	DB	00H
	DB	00H
	DB	00H
	DB	00H
	DB	00H
	DB	00H
	DB	00H
	DB	00H
	DB	00H
	DB	00H
	DB	00H
	DB	00H
	DB	00H
	DB	00H
	DB	00H
	DB	00H
	DB	00H
	DB	00H
	DB	00H
	DB	00H
	DB	00H
	DB	00H
	DB	00H
	DB	00H
	DB	00H
	DB	00H
	DB	00H
	DB	00H
	DB	00H
	DB	00H
	DB	00H
	DB	00H
	DB	00H
	DB	00H
	DB	00H
	DB	00H
	DB	00H
	DB	00H
	DB	00H
	DB	00H
	DB	00H
	DB	00H
	DB	00H
	DB	00H
	DB	00H
	DB	00H
	DB	00H
	DB	00H
	DB	00H
	DB	00H
	DB	00H
	DB	00H
	DB	00H
	DB	00H
	DB	00H
	DB	00H
	DB	00H
	DB	00H
	DB	00H
	DB	00H
	DB	00H
	DB	00H
	DB	00H
	DB	00H
	DB	00H
	DB	00H
	DB	00H
	DB	00H
	DB	00H
	DB	00H
	DB	00H
	DB	00H
	DB	00H
	DB	00H
	DB	00H
	DB	00H
	DB	00H
	DB	00H
	DB	00H
	DB	00H
	DB	00H
	DB	00H
	DB	00H
	DB	00H
	DB	00H
	DB	00H
	DB	00H
	DB	00H
	DB	00H
	DB	00H
	DB	00H
	DB	00H
	DB	00H
	DB	00H
	DB	00H
	DB	00H
	DB	00H
	DB	00H
	DB	00H
	DB	00H
	DB	00H
	DB	00H
	DB	00H
	DB	00H
	DB	00H
	DB	00H
	DB	00H
	DB	00H
	DB	00H
	DB	00H
	DB	00H
	DB	00H
	DB	00H
	DB	00H
	DB	00H
	DB	00H
	DB	00H
	DB	00H
	DB	00H
	DB	00H
	DB	00H
	DB	00H
	DB	00H
	DB	00H
	DB	00H
	DB	00H
	DB	00H
	DB	00H
	DB	00H
	DB	00H
	DB	00H
	DB	00H
	DB	00H
	DB	00H
	DB	00H
	DB	00H
	DB	00H
	DB	00H
	DB	00H
	DB	00H
	DB	00H
	DB	00H
	DB	00H
	DB	00H
	DB	00H
	DB	00H
	DB	00H
	DB	00H
	DB	00H
	DB	00H
	DB	00H
	DB	00H
	DB	00H
	DB	00H
	DB	00H
	DB	00H
	DB	00H
	DB	00H
	DB	00H
	DB	00H
	DB	00H
	DB	00H
	DB	00H
	DB	00H
	DB	00H
	DB	00H
	DB	00H
	DB	00H
	DB	00H
	DB	00H
	DB	00H
	DB	00H
	DB	00H
	DB	00H
	DB	00H
	DB	00H
	DB	00H
	DB	00H
	DB	00H
	DB	00H
	DB	00H
	DB	00H
	DB	00H
	DB	00H
	DB	00H
	DB	00H
	DB	00H
	DB	00H
	DB	00H
	DB	00H
	DB	00H
	DB	00H
	DB	00H
	DB	00H
	DB	00H
	DB	00H
	DB	00H
	DB	00H
	DB	00H
	DB	00H
	DB	00H
	DB	00H
	DB	00H
	DB	00H
	DB	00H
	DB	00H
	DB	00H
	DB	00H
	DB	00H
	DB	00H
	DB	00H
	DB	00H
	DB	00H
	DB	00H
	DB	00H
	DB	00H
	DB	00H
	DB	00H
	DB	00H
	DB	00H
	DB	00H
	DB	00H
	DB	00H
	DB	00H
	DB	00H
	DB	00H
	DB	00H
	DB	00H
	DB	00H
	DB	00H
	DB	00H
	DB	00H
	DB	00H
	DB	00H
	DB	00H
	DB	00H
	DB	00H
	DB	00H
	DB	00H
	DB	00H
	DB	00H
	DB	00H
	DB	00H
	DB	00H
	DB	00H
	DB	00H
	DB	00H
	DB	00H
	DB	00H
	DB	00H
	DB	00H
	DB	00H
	DB	00H
	DB	00H
	DB	00H
	DB	00H
	DB	00H
	DB	00H
	DB	00H
	DB	00H
	DB	00H
	DB	00H
	DB	00H
	DB	00H
	DB	00H
	DB	00H
	DB	00H
	DB	00H
	DB	00H
	DB	00H
	DB	00H
	DB	00H
	DB	00H
	DB	00H
	DB	00H
	DB	00H
	DB	00H
	DB	00H
	DB	00H
	DB	00H
	DB	00H
	DB	00H
	DB	00H
	DB	00H
	DB	00H
	DB	00H
	DB	00H
	DB	00H
	DB	00H
	DB	00H
	DB	00H
	DB	00H
	DB	00H
	DB	00H
	DB	00H
	DB	00H
	DB	00H
	DB	00H
	DB	00H
	DB	00H
	DB	00H
	DB	00H
	DB	00H
	DB	00H
	DB	00H
	DB	00H
	DB	00H
	DB	00H
	DB	00H
	DB	00H
	DB	00H
	DB	00H
	DB	00H
	DB	00H
	DB	00H
	DB	00H
	DB	00H
	DB	00H
	DB	00H
	DB	00H
	DB	00H
	DB	00H
	DB	00H
	DB	00H
	DB	00H
	DB	00H
	DB	00H
	DB	00H
	DB	00H
	DB	00H
	DB	00H
	DB	00H
	DB	00H
	DB	00H
	DB	00H
	DB	00H
	DB	00H
	DB	00H
	DB	00H
	DB	00H
	DB	00H
	DB	00H
	DB	00H
	DB	00H
	DB	00H
	DB	00H
	DB	00H
	DB	00H
	DB	00H
	DB	00H
	DB	00H
	DB	00H
	DB	00H
	DB	00H
	DB	00H
	DB	00H
	DB	00H
	DB	00H
	DB	00H
	DB	00H
	DB	00H
	DB	00H
	DB	00H
	DB	00H
	DB	00H
	DB	00H
	DB	00H
	DB	00H
	DB	00H
	DB	00H
	DB	00H
	DB	00H
	DB	00H
	DB	00H
	DB	00H
	DB	00H
	DB	00H
	DB	00H
	DB	00H
	DB	00H
	DB	00H
	DB	00H
	DB	00H
	DB	00H
	DB	00H
	DB	00H
	DB	00H
	DB	00H
	DB	00H
	DB	00H
	DB	00H
	DB	00H
	DB	00H
	DB	00H
	DB	00H
	DB	00H
	DB	00H
	DB	00H
	DB	00H
	DB	00H
	DB	00H
	DB	00H
	DB	00H
	DB	00H
	DB	00H
	DB	00H
	DB	00H
	DB	00H
	DB	00H
	DB	00H
	DB	00H
	DB	00H
	DB	00H
	DB	00H
	DB	00H
	DB	00H
	DB	00H
	DB	00H
	DB	00H
	DB	00H
	DB	00H
	DB	00H
	DB	00H
	DB	00H
	DB	00H
	DB	00H
	DB	00H
	DB	00H
	DB	00H
	DB	00H
	DB	00H
	DB	00H
	DB	00H
	DB	00H
	DB	00H
	DB	00H
	DB	00H
	DB	00H
	DB	00H
	DB	00H
	DB	00H
	DB	00H
	DB	00H
	DB	00H
	DB	00H
	DB	00H
	DB	00H
	DB	00H
	DB	00H
	DB	00H
	DB	00H
	DB	00H
	DB	00H
	DB	00H
	DB	00H
	DB	00H
	DB	00H
	DB	00H
	DB	00H
	DB	00H
	DB	00H
	DB	00H
	DB	00H
	DB	00H
	DB	00H
	DB	00H
	DB	00H
	DB	00H
	DB	00H
	DB	00H
	DB	00H
	DB	00H
	DB	00H
	DB	00H
	DB	00H
	DB	00H
	DB	00H
	DB	00H
	DB	00H
	DB	00H
	DB	00H
	DB	00H
	DB	00H
	DB	00H
	DB	00H
	DB	00H
	DB	00H
	DB	00H
	DB	00H
	DB	00H
	DB	00H
	DB	00H
	DB	00H
	DB	00H
	DB	00H
	DB	00H
	DB	00H
	DB	00H
	DB	00H
	DB	00H
	DB	00H
	DB	00H
	DB	00H
	DB	00H
	DB	00H
	DB	00H
	DB	00H
	DB	00H
	DB	00H
	DB	00H
	DB	00H
	DB	00H
	DB	00H
	DB	00H
	DB	00H
	DB	00H
	DB	00H
	DB	00H
	DB	00H
	DB	00H
	DB	00H
	DB	00H
	DB	00H
	DB	00H
	DB	00H
	DB	00H
	DB	00H
	DB	00H
	DB	00H
	DB	00H
	DB	00H
	DB	00H
	DB	00H
	DB	00H
	DB	00H
	DB	00H
	DB	00H
	DB	00H
	DB	00H
	DB	00H
	DB	00H
	DB	00H
	DB	00H
	DB	00H
	DB	00H
	DB	00H
	DB	00H
	DB	00H
	DB	00H
	DB	00H
	DB	00H
	DB	00H
	DB	00H
	DB	00H
	DB	00H
	DB	00H
	DB	00H
	DB	00H
	DB	00H
	DB	00H
	DB	00H
	DB	00H
	DB	00H
	DB	00H
	DB	00H
	DB	00H
	DB	00H
	DB	00H
	DB	00H
	DB	00H
	DB	00H
	DB	00H
	DB	00H
	DB	00H
	DB	00H
	DB	00H
	DB	00H
	DB	00H
	DB	00H
	DB	00H
	DB	00H
	DB	00H
	DB	00H
	DB	00H
	DB	00H
	DB	00H
	DB	00H
	DB	00H
	DB	00H
	DB	00H
	DB	00H
	DB	00H
	DB	00H
	DB	00H
	DB	00H
	DB	00H
	DB	00H
	DB	00H
	DB	00H
	DB	00H
	DB	00H
	DB	00H
	DB	00H
	DB	00H
	DB	00H
	DB	00H
	DB	00H
	DB	00H
	DB	00H
	DB	00H
	DB	00H
	DB	00H
	DB	00H
	DB	00H
	DB	00H
	DB	00H
	DB	00H
	DB	00H
	DB	00H
	DB	00H
	DB	00H
	DB	00H
	DB	00H
	DB	00H
	DB	00H
	DB	00H
	DB	00H
	DB	00H
	DB	00H
	DB	00H
	DB	00H
	DB	00H
	DB	00H
	DB	00H
	DB	00H
	DB	00H
	DB	00H
	DB	00H
	DB	00H
	DB	00H
	DB	00H
	DB	00H
	DB	00H
	DB	00H
	DB	00H
	DB	00H
	DB	00H
	DB	00H
	DB	00H
	DB	00H
	DB	00H
	DB	00H
	DB	00H
	DB	00H
	DB	00H
	DB	00H
	DB	00H
	DB	00H
	DB	00H
	DB	00H
	DB	00H
	DB	00H
	DB	00H
	DB	00H
	DB	00H
	DB	00H
	DB	00H
	DB	00H
	DB	00H
	DB	00H
	DB	00H
	DB	00H
	DB	00H
	DB	00H
	DB	00H
	DB	00H
	DB	00H
	DB	00H
	DB	00H
	DB	00H
	DB	00H
	DB	00H
	DB	00H
	DB	00H
	DB	00H
	DB	00H
	DB	00H
	DB	00H
	DB	00H
	DB	00H
	DB	00H
	DB	00H
	DB	00H
	DB	00H
	DB	00H
	DB	00H
	DB	00H
	DB	00H
	DB	00H
	DB	00H
	DB	00H
	DB	00H
	DB	00H
	DB	00H
	DB	00H
	DB	00H
	DB	00H
	DB	00H
	DB	00H
	DB	00H
	DB	00H
	DB	00H
	DB	00H
	DB	00H
	DB	00H
	DB	00H
	DB	00H
	DB	00H
	DB	00H
	DB	00H
	DB	00H
	DB	00H
	DB	00H
	DB	00H
	DB	00H
	DB	00H
	DB	00H
	DB	00H
	DB	00H
	DB	00H
	DB	00H
	DB	00H
	DB	00H
	DB	00H
	DB	00H
	DB	00H
	DB	00H
	DB	00H
	DB	00H
	DB	00H
	DB	00H
	DB	00H
	DB	00H
	DB	00H
	DB	00H
	DB	00H
	DB	00H
	DB	00H
	DB	00H
	DB	00H
	DB	00H
	DB	00H
	DB	00H
	DB	00H
	DB	00H
	DB	00H
	DB	00H
	DB	00H
	DB	00H
	DB	00H
	DB	00H
	DB	00H
	DB	00H
	DB	00H
	DB	00H
	DB	00H
	DB	00H
	DB	00H
	DB	00H
	DB	00H
	DB	00H
	DB	00H
	DB	00H
	DB	00H
	DB	00H
	DB	00H
	DB	00H
	DB	00H
	DB	00H
	DB	00H
	DB	00H
	DB	00H
	DB	00H
	DB	00H
	DB	00H
	DB	00H
	DB	00H
	DB	00H
	DB	00H
	DB	00H
	DB	00H
	DB	00H
	DB	00H
	DB	00H
	DB	00H
	DB	00H
	DB	00H
	DB	00H
	DB	00H
	DB	00H
	DB	00H
	DB	00H
	DB	00H
	DB	00H
	DB	00H
	DB	00H
	DB	00H
	DB	00H
	DB	00H
	DB	00H
	DB	00H
	DB	00H
	DB	00H
	DB	00H
	DB	00H
	DB	00H
	DB	00H
	DB	00H
	DB	00H
	DB	00H
	DB	00H
	DB	00H
	DB	00H
	DB	00H
	DB	00H
	DB	00H
	DB	00H
	DB	00H
	DB	00H
	DB	00H
	DB	00H
	DB	00H
	DB	00H
	DB	00H
	DB	00H
	DB	00H
	DB	00H
	DB	00H
	DB	00H
	DB	00H
	DB	00H
	DB	00H
	DB	00H
	DB	00H
	DB	00H
	DB	00H
	DB	00H
	DB	00H
	DB	00H
	DB	00H
	DB	00H
	DB	00H
	DB	00H
	DB	00H
	DB	00H
	DB	00H
	DB	00H
	DB	00H
	DB	00H
	DB	00H
	DB	00H
	DB	00H
	DB	00H
	DB	00H
	DB	00H
	DB	00H
	DB	00H
	DB	00H
	DB	00H
	DB	00H
	DB	00H
	DB	00H
	DB	00H
	DB	00H
	DB	00H
	DB	00H
	DB	00H
	DB	00H
	DB	00H
	DB	00H
	DB	00H
	DB	00H
	DB	00H
	DB	00H
	DB	00H
	DB	00H
	DB	00H
	DB	00H
	DB	00H
	DB	00H
	DB	00H
	DB	00H
	DB	00H
	DB	00H
	DB	00H
	DB	00H
	DB	00H
	DB	00H
	DB	00H
	DB	00H
	DB	00H
	DB	00H
	DB	00H
	DB	00H
	DB	00H
	DB	00H
	DB	00H
	DB	00H
	DB	00H
	DB	00H
	DB	00H
	DB	00H
	DB	00H
	DB	00H
	DB	00H
	DB	00H
	DB	00H
	DB	00H
	DB	00H
	DB	00H
	DB	00H
	DB	00H
	DB	00H
	DB	00H
	DB	00H
	DB	00H
	DB	00H
	DB	00H
	DB	00H
	DB	00H
	DB	00H
	DB	00H
	DB	00H
	DB	00H
	DB	00H
	DB	00H
	DB	00H
	DB	00H
	DB	00H
	DB	00H
	DB	00H
	DB	00H
	DB	00H
	DB	00H
	DB	00H
	DB	00H
	DB	00H
	DB	00H
	DB	00H
	DB	00H
	DB	00H
	DB	00H
	DB	00H
	DB	00H
	DB	00H
	DB	00H
	DB	00H
	DB	00H
	DB	00H
	DB	00H
	DB	00H
	DB	00H
	DB	00H
	DB	00H
	DB	00H
	DB	00H
	DB	00H
	DB	00H
	DB	00H
	DB	00H
	DB	00H
	DB	00H
	DB	00H
	DB	00H
	DB	00H
	DB	00H
	DB	00H
	DB	00H
	DB	00H
	DB	00H
	DB	00H
	DB	00H
	DB	00H
	DB	00H
	DB	00H
	DB	00H
	DB	00H
	DB	00H
	DB	00H
	DB	00H
	DB	00H
	DB	00H
	DB	00H
	DB	00H
	DB	00H
	DB	00H
	DB	00H
	DB	00H
	DB	00H
	DB	00H
	DB	00H
	DB	00H
	DB	00H
	DB	00H
	DB	00H
	DB	00H
	DB	00H
	DB	00H
	DB	00H
	DB	00H
	DB	00H
	DB	00H
	DB	00H
	DB	00H
	DB	00H
	DB	00H
	DB	00H
	DB	00H
	DB	00H
	DB	00H
	DB	00H
	DB	00H
	DB	00H
	DB	00H
	DB	00H
	DB	00H
	DB	00H
	DB	00H
	DB	00H
	DB	00H
	DB	00H
	DB	00H
	DB	00H
	DB	00H
	DB	00H
	DB	00H
	DB	00H
	DB	00H
	DB	00H
	DB	00H
	DB	00H
	DB	00H
	DB	00H
	DB	00H
	DB	00H
	DB	00H
	DB	00H
	DB	00H
	DB	00H
	DB	00H
	DB	00H
	DB	00H
	DB	00H
	DB	00H
	DB	00H
	DB	00H
	DB	00H
	DB	00H
	DB	00H
	DB	00H
	DB	00H
	DB	00H
	DB	00H
	DB	00H
	DB	00H
	DB	00H
	DB	00H
	DB	00H
	DB	00H
	DB	00H
	DB	00H
	DB	00H
	DB	00H
	DB	00H
	DB	00H
	DB	00H
	DB	00H
	DB	00H
	DB	00H
	DB	00H
	DB	00H
	DB	00H
	DB	00H
	DB	00H
	DB	00H
	DB	00H
	DB	00H
	DB	00H
	DB	00H
	DB	00H
	DB	00H
	DB	00H
	DB	00H
	DB	00H
	DB	00H
	DB	00H
	DB	00H
	DB	00H
	DB	00H
	DB	00H
	DB	00H
	DB	00H
	DB	00H
	DB	00H
	DB	00H
	DB	00H
	DB	00H
	DB	00H
	DB	00H
	DB	00H
	DB	00H
	DB	00H
	DB	00H
	DB	00H
	DB	00H
	DB	00H
	DB	00H
	DB	00H
	DB	00H
	DB	00H
	DB	00H
	DB	00H
	DB	00H
	DB	00H
	DB	00H
	DB	00H
	DB	00H
	DB	00H
	DB	00H
	DB	00H
	DB	00H
	DB	00H
	DB	00H
	DB	00H
	DB	00H
	DB	00H
	DB	00H
	DB	00H
	DB	00H
	DB	00H
	DB	00H
	DB	00H
	DB	00H
	DB	00H
	DB	00H
	DB	00H
	DB	00H
	DB	00H
	DB	00H
	DB	00H
	DB	00H
	DB	00H
	DB	00H
	DB	00H
	DB	00H
	DB	00H
	DB	00H
	DB	00H
	DB	00H
	DB	00H
	DB	00H
	DB	00H
	DB	00H
	DB	00H
	DB	00H
	DB	00H
	DB	00H
	DB	00H
	DB	00H
	DB	00H
	DB	00H
	DB	00H
	DB	00H
	DB	00H
	DB	00H
	DB	00H
	DB	00H
	DB	00H
	DB	00H
	DB	00H
	DB	00H
	DB	00H
	DB	00H
	DB	00H
	DB	00H
	DB	00H
	DB	00H
	DB	00H
	DB	00H
	DB	00H
	DB	00H
	DB	00H
	DB	00H
	DB	00H
	DB	00H
	DB	00H
	DB	00H
	DB	00H
	DB	00H
	DB	00H
	DB	00H
	DB	00H
	DB	00H
	DB	00H
	DB	00H
	DB	00H
	DB	00H
	DB	00H
	DB	00H
	DB	00H
	DB	00H
	DB	00H
	DB	00H
	DB	00H
	DB	00H
	DB	00H
	DB	00H
	DB	00H
	DB	00H
	DB	00H
	DB	00H
	DB	00H
	DB	00H
	DB	00H
	DB	00H
	DB	00H
	DB	00H
	DB	00H
	DB	00H
	DB	00H
	DB	00H
	DB	00H
	DB	00H
	DB	00H
	DB	00H
	DB	00H
	DB	00H
	DB	00H
	DB	00H
	DB	00H
	DB	00H
	DB	00H
	DB	00H
	DB	00H
	DB	00H
	DB	00H
	DB	00H
	DB	00H
	DB	00H
	DB	00H
	DB	00H
	DB	00H
	DB	00H
	DB	00H
	DB	00H
	DB	00H
	DB	00H
	DB	00H
	DB	00H
	DB	00H
	DB	00H
	DB	00H
	DB	00H
	DB	00H
	DB	00H
	DB	00H
	DB	00H
	DB	00H
	DB	00H
	DB	00H
	DB	00H
	DB	00H
	DB	00H
	DB	00H
	DB	00H
	DB	00H
	DB	00H
	DB	00H
	DB	00H
	DB	00H
	DB	00H
	DB	00H
	DB	00H
	DB	00H
	DB	00H
	DB	00H
	DB	00H
	DB	00H
	DB	00H
	DB	00H
	DB	00H
	DB	00H
	DB	00H
	DB	00H
	DB	00H
	DB	00H
	DB	00H
	DB	00H
	DB	00H
	DB	00H
	DB	00H
	DB	00H
	DB	00H
	DB	00H
	DB	00H
	DB	00H
	DB	00H
	DB	00H
	DB	00H
	DB	00H
	DB	00H
	DB	00H
	DB	00H
	DB	00H
	DB	00H
	DB	00H
	DB	00H
	DB	00H
	DB	00H
	DB	00H
	DB	00H
	DB	00H
	DB	00H
	DB	00H
	DB	00H
	DB	00H
	DB	00H
	DB	00H
	DB	00H
	DB	00H
	DB	00H
	DB	00H
	DB	00H
	DB	00H
	DB	00H
	DB	00H
	DB	00H
	DB	00H
	DB	00H
	DB	00H
	DB	00H
	DB	00H
	DB	00H
	DB	00H
	DB	00H
	DB	00H
	DB	00H
	DB	00H
	DB	00H
	DB	00H
	DB	00H
	DB	00H
	DB	00H
	DB	00H
	DB	00H
	DB	00H
	DB	00H
	DB	00H
	DB	00H
	DB	00H
	DB	00H
	DB	00H
	DB	00H
	DB	00H
	DB	00H
	DB	00H
	DB	00H
	DB	00H
	DB	00H
	DB	00H
	DB	00H
	DB	00H
	DB	00H
	DB	00H
	DB	00H
	DB	00H
	DB	00H
	DB	00H
	DB	00H
	DB	00H
	DB	00H
	DB	00H
	DB	00H
	DB	00H
	DB	00H
	DB	00H
	DB	00H
	DB	00H
	DB	00H
	DB	00H
	DB	00H
	DB	00H
	DB	00H
	DB	00H
	DB	00H
	DB	00H
	DB	00H
	DB	00H
	DB	00H
	DB	00H
	DB	00H
	DB	00H
	DB	00H
	DB	00H
	DB	00H
	DB	00H
	DB	00H
	DB	00H
	DB	00H
	DB	00H
	DB	00H
	DB	00H
	DB	00H
	DB	00H
	DB	00H
	DB	00H
	DB	00H
	DB	00H
	DB	00H
	DB	00H
	DB	00H
	DB	00H
	DB	00H
	DB	00H
	DB	00H
	DB	00H
	DB	00H
	DB	00H
	DB	00H
	DB	00H
	DB	00H
	DB	00H
	DB	00H
	DB	00H
	DB	00H
	DB	00H
	DB	00H
	DB	00H
	DB	00H
	DB	00H
	DB	00H
	DB	00H
	DB	00H
	DB	00H
	DB	00H
	DB	00H
	DB	00H
	DB	00H
	DB	00H
	DB	00H
	DB	00H
	DB	00H
	DB	00H
	DB	00H
	DB	00H
	DB	00H
	DB	00H
	DB	00H
	DB	00H
	DB	00H
	DB	00H
	DB	00H
	DB	00H
	DB	00H
	DB	00H
	DB	00H
	DB	00H
	DB	00H
	DB	00H
	DB	00H
	DB	00H
	DB	00H
	DB	00H
	DB	00H
	DB	00H
	DB	00H
	DB	00H
	DB	00H
	DB	00H
	DB	00H
	DB	00H
	DB	00H
	DB	00H
	DB	00H
	DB	00H
	DB	00H
	DB	00H
	DB	00H
	DB	00H
	DB	00H
	DB	00H
	DB	00H
	DB	00H
	DB	00H
	DB	00H
	DB	00H
	DB	00H
	DB	00H
	DB	00H
	DB	00H
	DB	00H
	DB	00H
	DB	00H
	DB	00H
	DB	00H
	DB	00H
	DB	00H
	DB	00H
	DB	00H
	DB	00H
	DB	00H
	DB	00H
	DB	00H
	DB	00H
	DB	00H
	DB	00H
	DB	00H
	DB	00H
	DB	00H
	DB	00H
	DB	00H
	DB	00H
	DB	00H
	DB	00H
	DB	00H
	DB	00H
	DB	00H
	DB	00H
	DB	00H
	DB	00H
	DB	00H
	DB	00H
	DB	00H
	DB	00H
	DB	00H
	DB	00H
	DB	00H
	DB	00H
	DB	00H
	DB	00H
	DB	00H
	DB	00H
	DB	00H
	DB	00H
	DB	00H
	DB	00H
	DB	00H
	DB	00H
	DB	00H
	DB	00H
	DB	00H
	DB	00H
	DB	00H
	DB	00H
	DB	00H
	DB	00H
	DB	00H
	DB	00H
	DB	00H
	DB	00H
	DB	00H
	DB	00H
	DB	00H
	DB	00H
	DB	00H
	DB	00H
	DB	00H
	DB	00H
	DB	00H
	DB	00H
	DB	00H
	DB	00H
	DB	00H
	DB	00H
	DB	00H
	DB	00H
	DB	00H
	DB	00H
	DB	00H
	DB	00H
	DB	00H
	DB	00H
	DB	00H
	DB	00H
	DB	00H
	DB	00H
	DB	00H
	DB	00H
	DB	00H
	DB	00H
	DB	00H
	DB	00H
	DB	00H
	DB	00H
	DB	00H
	DB	00H
	DB	00H
	DB	00H
	DB	00H
	DB	00H
	DB	00H
	DB	00H
	DB	00H
	DB	00H
	DB	00H
	DB	00H
	DB	00H
	DB	00H
	DB	00H
	DB	00H
	DB	00H
	DB	00H
	DB	00H
	DB	00H
	DB	00H
	DB	00H
	DB	00H
	DB	00H
	DB	00H
	DB	00H
	DB	00H
	DB	00H
	DB	00H
	DB	00H
	DB	00H
	DB	00H
	DB	00H
	DB	00H
	DB	00H
	DB	00H
	DB	00H
	DB	00H
	DB	00H
	DB	00H
	DB	00H
	DB	00H
	DB	00H
	DB	00H
	DB	00H
	DB	00H
	DB	00H
	DB	00H
	DB	00H
	DB	00H
	DB	00H
	DB	00H
	DB	00H
	DB	00H
	DB	00H
	DB	00H
	DB	00H
	DB	00H
	DB	00H
	DB	00H
	DB	00H
	DB	00H
	DB	00H
	DB	00H
	DB	00H
	DB	00H
	DB	00H
	DB	00H
	DB	00H
	DB	00H
	DB	00H
	DB	00H
	DB	00H
	DB	00H
	DB	00H
	DB	00H
	DB	00H
	DB	00H
	DB	00H
	DB	00H
	DB	00H
	DB	00H
	DB	00H
	DB	00H
	DB	00H
	DB	00H
	DB	00H
	DB	00H
	DB	00H
	DB	00H
	DB	00H
	DB	00H
	DB	00H
	DB	00H
	DB	00H
	DB	00H
	DB	00H
	DB	00H
	DB	00H
	DB	00H
	DB	00H
	DB	00H
	DB	00H
	DB	00H
	DB	00H
	DB	00H
	DB	00H
	DB	00H
	DB	00H
	DB	00H
	DB	00H
	DB	00H
	DB	00H
	DB	00H
	DB	00H
	DB	00H
	DB	00H
	DB	00H
	DB	00H
	DB	00H
	DB	00H
	DB	00H
	DB	00H
	DB	00H
	DB	00H
	DB	00H
	DB	00H
	DB	00H
	DB	00H
	DB	00H
	DB	00H
	DB	00H
	DB	00H
	DB	00H
	DB	00H
	DB	00H
	DB	00H
	DB	00H
	DB	00H
	DB	00H
	DB	00H
	DB	00H
	DB	00H
	DB	00H
	DB	00H
	DB	00H
	DB	00H
	DB	00H
	DB	00H
	DB	00H
	DB	00H
	DB	00H
	DB	00H
	DB	00H
	DB	00H
	DB	00H
	DB	00H
	DB	00H
	DB	00H
	DB	00H
	DB	00H
	DB	00H
	DB	00H
	DB	00H
	DB	00H
	DB	00H
	DB	00H
	DB	00H
	DB	00H
	DB	00H
	DB	00H
	DB	00H
	DB	00H
	DB	00H
	DB	00H
	DB	00H
	DB	00H
	DB	00H
	DB	00H
	DB	00H
	DB	00H
	DB	00H
	DB	00H
	DB	00H
	DB	00H
	DB	00H
	DB	00H
	DB	00H
	DB	00H
	DB	00H
	DB	00H
	DB	00H
	DB	00H
	DB	00H
	DB	00H
	DB	00H
	DB	00H
	DB	00H
	DB	00H
	DB	00H
	DB	00H
	DB	00H
	DB	00H
	DB	00H
	DB	00H
	DB	00H
	DB	00H
	DB	00H
	DB	00H
	DB	00H
	DB	00H
	DB	00H
	DB	00H
	DB	00H
	DB	00H
	DB	00H
	DB	00H
	DB	00H
	DB	00H
	DB	00H
	DB	00H
	DB	00H
	DB	00H
	DB	00H
	DB	00H
	DB	00H
	DB	00H
	DB	00H
	DB	00H
	DB	00H
	DB	00H
	DB	00H
	DB	00H
	DB	00H
	DB	00H
	DB	00H
	DB	00H
	DB	00H
	DB	00H
	DB	00H
	DB	00H
	DB	00H
	DB	00H
	DB	00H
	DB	00H
	DB	00H
	DB	00H
	DB	00H
	DB	00H
	DB	00H
	DB	00H
	DB	00H
	DB	00H
	DB	00H
	DB	00H
	DB	00H
	DB	00H
	DB	00H
	DB	00H
	DB	00H
	DB	00H
	DB	00H
	DB	00H
	DB	00H
	DB	00H
	DB	00H
	DB	00H
	DB	00H
	DB	00H
	DB	00H
	DB	00H
	DB	00H
	DB	00H
	DB	00H
	DB	00H
	DB	00H
	DB	00H
	DB	00H
	DB	00H
	DB	00H
	DB	00H
	DB	00H
	DB	00H
	DB	00H
	DB	00H
	DB	00H
	DB	00H
	DB	00H
	DB	00H
	DB	00H
	DB	00H
	DB	00H
	DB	00H
	DB	00H
	DB	00H
	DB	00H
	DB	00H
	DB	00H
	DB	00H
	DB	00H
	DB	00H
	DB	00H
	DB	00H
	DB	00H
	DB	00H
	DB	00H
	DB	00H
	DB	00H
	DB	00H
	DB	00H
	DB	00H
	DB	00H
	DB	00H
	DB	00H
	DB	00H
	DB	00H
	DB	00H
	DB	00H
	DB	00H
	DB	00H
	DB	00H
	DB	00H
	DB	00H
	DB	00H
	DB	00H
	DB	00H
	DB	00H
	DB	00H
	DB	00H
	DB	00H
	DB	00H
	DB	00H
	DB	00H
	DB	00H
	DB	00H
	DB	00H
	DB	00H
	DB	00H
	DB	00H
	DB	00H
	DB	00H
	DB	00H
	DB	00H
	DB	00H
	DB	00H
	DB	00H
	DB	00H
	DB	00H
	DB	00H
	DB	00H
	DB	00H
	DB	00H
	DB	00H
	DB	00H
	DB	00H
	DB	00H
	DB	00H
	DB	00H
	DB	00H
	DB	00H
	DB	00H
	DB	00H
	DB	00H
	DB	00H
	DB	00H
	DB	00H
	DB	00H
	DB	00H
	DB	00H
	DB	00H
	DB	00H
	DB	00H
	DB	00H
	DB	00H
	DB	00H
	DB	00H
	DB	00H
	DB	00H
	DB	00H
	DB	00H
	DB	00H
	DB	00H
	DB	00H
	DB	00H
	DB	00H
	DB	00H
	DB	00H
	DB	00H
	DB	00H
	DB	00H
	DB	00H
	DB	00H
	DB	00H
	DB	00H
	DB	00H
	DB	00H
	DB	00H
	DB	00H
	DB	00H
	DB	00H
	DB	00H
	DB	00H
	DB	00H
	DB	00H
	DB	00H
	DB	00H
	DB	00H
	DB	00H
	DB	00H
	DB	00H
	DB	00H
	DB	00H
	DB	00H
	DB	00H
	DB	00H
	DB	00H
	DB	00H
	DB	00H
	DB	00H
	DB	00H
	DB	00H
	DB	00H
	DB	00H
	DB	00H
	DB	00H
	DB	00H
	DB	00H
	DB	00H
	DB	00H
	DB	00H
	DB	00H
	DB	00H
	DB	00H
	DB	00H
	DB	00H
	DB	00H
	DB	00H
	DB	00H
	DB	00H
	DB	00H
	DB	00H
	DB	00H
	DB	00H
	DB	00H
	DB	00H
	DB	00H
	DB	00H
	DB	00H
	DB	00H
	DB	00H
	DB	00H
	DB	00H
	DB	00H
	DB	00H
	DB	00H
	DB	00H
	DB	00H
	DB	00H
	DB	00H
	DB	00H
	DB	00H
	DB	00H
	DB	00H
	DB	00H
	DB	00H
	DB	00H
	DB	00H
	DB	00H
	DB	00H
	DB	00H
	DB	00H
	DB	00H
	DB	00H
	DB	00H
	DB	00H
	DB	00H
	DB	00H
	DB	00H
	DB	00H
	DB	00H
	DB	00H
	DB	00H
	DB	00H
	DB	00H
	DB	00H
	DB	00H
	DB	00H
	DB	00H
	DB	00H
	DB	00H
	DB	00H
	DB	00H
	DB	00H
	DB	00H
	DB	00H
	DB	00H
	DB	00H
	DB	00H
	DB	00H
	DB	00H
	DB	00H
	DB	00H
	DB	00H
	DB	00H
	DB	00H
	DB	00H
	DB	00H
	DB	00H
	DB	00H
	DB	00H
	DB	00H
	DB	00H
	DB	00H
	DB	00H
	DB	00H
	DB	00H
	DB	00H
	DB	00H
	DB	00H
	DB	00H
	DB	00H
	DB	00H
	DB	00H
	DB	00H
	DB	00H
	DB	00H
	DB	00H
	DB	00H
	DB	00H
	DB	00H
	DB	00H
	DB	00H
	DB	00H
	DB	00H
	DB	00H
	DB	00H
	DB	00H
	DB	00H
	DB	00H
	DB	00H
	DB	00H
	DB	00H
	DB	00H
	DB	00H
	DB	00H
	DB	00H
	DB	00H
	DB	00H
	DB	00H
	DB	00H
	DB	00H
	DB	00H
	DB	00H
	DB	00H
	DB	00H
	DB	00H
	DB	00H
	DB	00H
	DB	00H
	DB	00H
	DB	00H
	DB	00H
	DB	00H
	DB	00H
	DB	00H
	DB	00H
	DB	00H
	DB	00H
	DB	00H
	DB	00H
	DB	00H
	DB	00H
	DB	00H
	DB	00H
	DB	00H
	DB	00H
	DB	00H
	DB	00H
	DB	00H
	DB	00H
	DB	00H
	DB	00H
	DB	00H
	DB	00H
	DB	00H
	DB	00H
	DB	00H
	DB	00H
	DB	00H
	DB	00H
	DB	00H
	DB	00H
	DB	00H
	DB	00H
	DB	00H
	DB	00H
	DB	00H
	DB	00H
	DB	00H
	DB	00H
	DB	00H
	DB	00H
	DB	00H
	DB	00H
	DB	00H
	DB	00H
	DB	00H
	DB	00H
	DB	00H
	DB	00H
	DB	00H
	DB	00H
	DB	00H
	DB	00H
	DB	00H
	DB	00H
	DB	00H
	DB	00H
	DB	00H
	DB	00H
	DB	00H
	DB	00H
	DB	00H
	DB	00H
	DB	00H
	DB	00H
	DB	00H
	DB	00H
	DB	00H
	DB	00H
	DB	00H
	DB	00H
	DB	00H
	DB	00H
	DB	00H
	DB	00H
	DB	00H
	DB	00H
	DB	00H
	DB	00H
	DB	00H
	DB	00H
	DB	00H
	DB	00H
	DB	00H
	DB	00H
	DB	00H
	DB	00H
	DB	00H
	DB	00H
	DB	00H
	DB	00H
	DB	00H
	DB	00H
	DB	00H
	DB	00H
	DB	00H
	DB	00H
	DB	00H
	DB	00H
	DB	00H
	DB	00H
	DB	00H
	DB	00H
	DB	00H
	DB	00H
	DB	00H
	DB	00H
	DB	00H
	DB	00H
	DB	00H
	DB	00H
	DB	00H
	DB	00H
	DB	00H
	DB	00H
	DB	00H
	DB	00H
	DB	00H
	DB	00H
	DB	00H
	DB	00H
	DB	00H
	DB	00H
	DB	00H
	DB	00H
	DB	00H
	DB	00H
	DB	00H
	DB	00H
	DB	00H
	DB	00H
	DB	00H
	DB	00H
	DB	00H
	DB	00H
	DB	00H
	DB	00H
	DB	00H
	DB	00H
	DB	00H
	DB	00H
	DB	00H
	DB	00H
	DB	00H
	DB	00H
	DB	00H
	DB	00H
	DB	00H
	DB	00H
	DB	00H
	DB	00H
	DB	00H
	DB	00H
	DB	00H
	DB	00H
	DB	00H
	DB	00H
	DB	00H
	DB	00H
	DB	00H
	DB	00H
	DB	00H
	DB	00H
	DB	00H
	DB	00H
	DB	00H
	DB	00H
	DB	00H
	DB	00H
	DB	00H
	DB	00H
	DB	00H
	DB	00H
	DB	00H
	DB	00H
	DB	00H
	DB	00H
	DB	00H
	DB	00H
	DB	00H
	DB	00H
	DB	00H
	DB	00H
	DB	00H
	DB	00H
	DB	00H
	DB	00H
	DB	00H
	DB	00H
	DB	00H
	DB	00H
	DB	00H
	DB	00H
	DB	00H
	DB	00H
	DB	00H
	DB	00H
	DB	00H
	DB	00H
	DB	00H
	DB	00H
	DB	00H
	DB	00H
	DB	00H
	DB	00H
	DB	00H
	DB	00H
	DB	00H
	DB	00H
	DB	00H
	DB	00H
	DB	00H
	DB	00H
	DB	00H
	DB	00H
	DB	00H
	DB	00H
	DB	00H
	DB	00H
	DB	00H
	DB	00H
	DB	00H
	DB	00H
	DB	00H
	DB	00H
	DB	00H
	DB	00H
	DB	00H
	DB	00H
	DB	00H
	DB	00H
	DB	00H
	DB	00H
	DB	00H
	DB	00H
	DB	00H
	DB	00H
	DB	00H
	DB	00H
	DB	00H
	DB	00H
	DB	00H
	DB	00H
	DB	00H
	DB	00H
	DB	00H
	DB	00H
	DB	00H
	DB	00H
	DB	00H
	DB	00H
	DB	00H
	DB	00H
	DB	00H
	DB	00H
	DB	00H
	DB	00H
	DB	00H
	DB	00H
	DB	00H
	DB	00H
	DB	00H
	DB	00H
	DB	00H
	DB	00H
	DB	00H
	DB	00H
	DB	00H
	DB	00H
	DB	00H
	DB	00H
	DB	00H
	DB	00H
	DB	00H
	DB	00H
	DB	00H
	DB	00H
	DB	00H
	DB	00H
	DB	00H
	DB	00H
	DB	00H
	DB	00H
	DB	00H
	DB	00H
	DB	00H
	DB	00H
	DB	00H
	DB	00H
	DB	00H
	DB	00H
	DB	00H
	DB	00H
	DB	00H
	DB	00H
	DB	00H
	DB	00H
	DB	00H
	DB	00H
	DB	00H
	DB	00H
	DB	00H
	DB	00H
	DB	00H
	DB	00H
	DB	00H
	DB	00H
	DB	00H
	DB	00H
	DB	00H
	DB	00H
	DB	00H
	DB	00H
	DB	00H
	DB	00H
	DB	00H
	DB	00H
	DB	00H
	DB	00H
	DB	00H
	DB	00H
	DB	00H
	DB	00H
	DB	00H
	DB	00H
	DB	00H
	DB	00H
	DB	00H
	DB	00H
	DB	00H
	DB	00H
	DB	00H
	DB	00H
	DB	00H
	DB	00H
	DB	00H
	DB	00H
	DB	00H
	DB	00H
	DB	00H
	DB	00H
	DB	00H
	DB	00H
	DB	00H
	DB	00H
	DB	00H
	DB	00H
	DB	00H
	DB	00H
	DB	00H
	DB	00H
	DB	00H
	DB	00H
	DB	00H
	DB	00H
	DB	00H
	DB	00H
	DB	00H
	DB	00H
	DB	00H
	DB	00H
	DB	00H
	DB	00H
	DB	00H
	DB	00H
	DB	00H
	DB	00H
	DB	00H
	DB	00H
	DB	00H
	DB	00H
	DB	00H
	DB	00H
	DB	00H
	DB	00H
	DB	00H
	DB	00H
	DB	00H
	DB	00H
	DB	00H
	DB	00H
	DB	00H
	DB	00H
	DB	00H
	DB	00H
	DB	00H
	DB	00H
	DB	00H
	DB	00H
	DB	00H
	DB	00H
	DB	00H
	DB	00H
	DB	00H
	DB	00H
	DB	00H
	DB	00H
	DB	00H
	DB	00H
	DB	00H
	DB	00H
	DB	00H
	DB	00H
	DB	00H
	DB	00H
	DB	00H
	DB	00H
	DB	00H
	DB	00H
	DB	00H
	DB	00H
	DB	00H
	DB	00H
	DB	00H
	DB	00H
	DB	00H
	DB	00H
	DB	00H
	DB	00H
	DB	00H
	DB	00H
	DB	00H
	DB	00H
	DB	00H
	DB	00H
	DB	00H
	DB	00H
	DB	00H
	DB	00H
	DB	00H
	DB	00H
	DB	00H
	DB	00H
	DB	00H
	DB	00H
	DB	00H
	DB	00H
	DB	00H
	DB	00H
	DB	00H
	DB	00H
	DB	00H
	DB	00H
	DB	00H
	DB	00H
	DB	00H
	DB	00H
	DB	00H
	DB	00H
	DB	00H
	DB	00H
	DB	00H
	DB	00H
	DB	00H
	DB	00H
	DB	00H
	DB	00H
	DB	00H
	DB	00H
	DB	00H
	DB	00H
	DB	00H
	DB	00H
	DB	00H
	DB	00H
	DB	00H
	DB	00H
	DB	00H
	DB	00H
	DB	00H
	DB	00H
	DB	00H
	DB	00H
	DB	00H
	DB	00H
	DB	00H
	DB	00H
	DB	00H
	DB	00H
	DB	00H
	DB	00H
	DB	00H
	DB	00H
	DB	00H
	DB	00H
	DB	00H
	DB	00H
	DB	00H
	DB	00H
	DB	00H
	DB	00H
	DB	00H
	DB	00H
	DB	00H
	DB	00H
	DB	00H
	DB	00H
	DB	00H
	DB	00H
	DB	00H
	DB	00H
	DB	00H
	DB	00H
	DB	00H
	DB	00H
	DB	00H
	DB	00H
	DB	00H
	DB	00H
	DB	00H
	DB	00H
	DB	00H
	DB	00H
	DB	00H
	DB	00H
	DB	00H
	DB	00H
	DB	00H
	DB	00H
	DB	00H
	DB	00H
	DB	00H
	DB	00H
	DB	00H
	DB	00H
	DB	00H
	DB	00H
	DB	00H
	DB	00H
	DB	00H
	DB	00H
	DB	00H
	DB	00H
	DB	00H
	DB	00H
	DB	00H
	DB	00H
	DB	00H
	DB	00H
	DB	00H
	DB	00H
	DB	00H
	DB	00H
	DB	00H
	DB	00H
	DB	00H
	DB	00H
	DB	00H
	DB	00H
	DB	00H
	DB	00H
	DB	00H
	DB	00H
	DB	00H
	DB	00H
	DB	00H
	DB	00H
	DB	00H
	DB	00H
	DB	00H
	DB	00H
	DB	00H
	DB	00H
	DB	00H
	DB	00H
	DB	00H
	DB	00H
	DB	00H
	DB	00H
	DB	00H
	DB	00H
	DB	00H
	DB	00H
	DB	00H
	DB	00H
	DB	00H
	DB	00H
	DB	00H
	DB	00H
	DB	00H
	DB	00H
	DB	00H
	DB	00H
	DB	00H
	DB	00H
	DB	00H
	DB	00H
	DB	00H
	DB	00H
	DB	00H
	DB	00H
	DB	00H
	DB	00H
	DB	00H
	DB	00H
	DB	00H
	DB	00H
	DB	00H
	DB	00H
	DB	00H
	DB	00H
	DB	00H
	DB	00H
	DB	00H
	DB	00H
	DB	00H
	DB	00H
	DB	00H
	DB	00H
	DB	00H
	DB	00H
	DB	00H
	DB	00H
	DB	00H
	DB	00H
	DB	00H
	DB	00H
	DB	00H
	DB	00H
	DB	00H
	DB	00H
	DB	00H
	DB	00H
	DB	00H
	DB	00H
	DB	00H
	DB	00H
	DB	00H
	DB	00H
	DB	00H
	DB	00H
	DB	00H
	DB	00H
	DB	00H
	DB	00H
	DB	00H
	DB	00H
	DB	00H
	DB	00H
	DB	00H
	DB	00H
	DB	00H
	DB	00H
	DB	00H
	DB	00H
	DB	00H
	DB	00H
	DB	00H
	DB	00H
	DB	00H
	DB	00H
	DB	00H
	DB	00H
	DB	00H
	DB	00H
	DB	00H
	DB	00H
	DB	00H
	DB	00H
	DB	00H
	DB	00H
	DB	00H
	DB	00H
	DB	00H
	DB	00H
	DB	00H
	DB	00H
	DB	00H
	DB	00H
	DB	00H
	DB	00H
	DB	00H
	DB	00H
	DB	00H
	DB	00H
	DB	00H
	DB	00H
	DB	00H
	DB	00H
	DB	00H
	DB	00H
	DB	00H
	DB	00H
	DB	00H
	DB	00H
	DB	00H
	DB	00H
	DB	00H
	DB	00H
	DB	00H
	DB	00H
	DB	00H
	DB	00H
	DB	00H
	DB	00H
	DB	00H
	DB	00H
	DB	00H
	DB	00H
	DB	00H
	DB	00H
	DB	00H
	DB	00H
	DB	00H
	DB	00H
	DB	00H
	DB	00H
	DB	00H
	DB	00H
	DB	00H
	DB	00H
	DB	00H
	DB	00H
	DB	00H
	DB	00H
	DB	00H
	DB	00H
	DB	00H
	DB	00H
	DB	00H
	DB	00H
	DB	00H
	DB	00H
	DB	00H
	DB	00H
	DB	00H
	DB	00H
	DB	00H
	DB	00H
	DB	00H
	DB	00H
	DB	00H
	DB	00H
	DB	00H
	DB	00H
	DB	00H
	DB	00H
	DB	00H
	DB	00H
	DB	00H
	DB	00H
	DB	00H
	DB	00H
	DB	00H
	DB	00H
	DB	00H
	DB	00H
	DB	00H
	DB	00H
	DB	00H
	DB	00H
	DB	00H
	DB	00H
	DB	00H
	DB	00H
	DB	00H
	DB	00H
	DB	00H
	DB	00H
	DB	00H
	DB	00H
	DB	00H
	DB	00H
	DB	00H
	DB	00H
	DB	00H
	DB	00H
	DB	00H
	DB	00H
	DB	00H
	DB	00H
	DB	00H
	DB	00H
	DB	00H
	DB	00H
	DB	00H
	DB	00H
	DB	00H
	DB	00H
	DB	00H
	DB	00H
	DB	00H
	DB	00H
	DB	00H
	DB	00H
	DB	00H
	DB	00H
	DB	00H
	DB	00H
	DB	00H
	DB	00H
	DB	00H
	DB	00H
	DB	00H
	DB	00H
	DB	00H
	DB	00H
	DB	00H
	DB	00H
	DB	00H
	DB	00H
	DB	00H
	DB	00H
	DB	00H
	DB	00H
	DB	00H
	DB	00H
	DB	00H
	DB	00H
	DB	00H
	DB	00H
	DB	00H
	DB	00H
	DB	00H
	DB	00H
	DB	00H
	DB	00H
	DB	00H
	DB	00H
	DB	00H
	DB	00H
	DB	00H
	DB	00H
	DB	00H
	DB	00H
	DB	00H
	DB	00H
	DB	00H
	DB	00H
	DB	00H
	DB	00H
	DB	00H
	DB	00H
	DB	00H
	DB	00H
	DB	00H
	DB	00H
	DB	00H
	DB	00H
	DB	00H
	DB	00H
	DB	00H
	DB	00H
	DB	00H
	DB	00H
	DB	00H
	DB	00H
	DB	00H
	DB	00H
	DB	00H
	DB	00H
	DB	00H
	DB	00H
	DB	00H
	DB	00H
	DB	00H
	DB	00H
	DB	00H
	DB	00H
	DB	00H
	DB	00H
	DB	00H
	DB	00H
	DB	00H
	DB	00H
	DB	00H
	DB	00H
	DB	00H
	DB	00H
	DB	00H
	DB	00H
	DB	00H
	DB	00H
	DB	00H
	DB	00H
	DB	00H
	DB	00H
	DB	00H
	DB	00H
	DB	00H
	DB	00H
	DB	00H
	DB	00H
	DB	00H
	DB	00H
	DB	00H
	DB	00H
	DB	00H
	DB	00H
	DB	00H
	DB	00H
	DB	00H
	DB	00H
	DB	00H
	DB	00H
	DB	00H
	DB	00H
	DB	00H
	DB	00H
	DB	00H
	DB	00H
	DB	00H
	DB	00H
	DB	00H
	DB	00H
	DB	00H
	DB	00H
	DB	00H
	DB	00H
	DB	00H
	DB	00H
	DB	00H
	DB	00H
	DB	00H
	DB	00H
	DB	00H
	DB	00H
	DB	00H
	DB	00H
	DB	00H
	DB	00H
	DB	00H
	DB	00H
	DB	00H
	DB	00H
	DB	00H
	DB	00H
	DB	00H
	DB	00H
	DB	00H
	DB	00H
	DB	00H
	DB	00H
	DB	00H
	DB	00H
	DB	00H
	DB	00H
	DB	00H
	DB	00H
	DB	00H
	DB	00H
	DB	00H
	DB	00H
	DB	00H
	DB	00H
	DB	00H
	DB	00H
	DB	00H
	DB	00H
	DB	00H
	DB	00H
	DB	00H
	DB	00H
	DB	00H
	DB	00H
	DB	00H
	DB	00H
	DB	00H
	DB	00H
	DB	00H
	DB	00H
	DB	00H
	DB	00H
	DB	00H
	DB	00H
	DB	00H
	DB	00H
	DB	00H
	DB	00H
	DB	00H
	DB	00H
	DB	00H
	DB	00H
	DB	00H
	DB	00H
	DB	00H
	DB	00H
	DB	00H
	DB	00H
	DB	00H
	DB	00H
	DB	00H
	DB	00H
	DB	00H
	DB	00H
	DB	00H
	DB	00H
	DB	00H
	DB	00H
	DB	00H
	DB	00H
	DB	00H
	DB	00H
	DB	00H
	DB	00H
	DB	00H
	DB	00H
	DB	00H
	DB	00H
	DB	00H
	DB	00H
	DB	00H
	DB	00H
	DB	00H
	DB	00H
	DB	00H
	DB	00H
	DB	00H
	DB	00H
	DB	00H
	DB	00H
	DB	00H
	DB	00H
	DB	00H
	DB	00H
	DB	00H
	DB	00H
	DB	00H
	DB	00H
	DB	00H
	DB	00H
	DB	00H
	DB	00H
	DB	00H
	DB	00H
	DB	00H
	DB	00H
	DB	00H
	DB	00H
	DB	00H
	DB	00H
	DB	00H
	DB	00H
	DB	00H
	DB	00H
	DB	00H
	DB	00H
	DB	00H
	DB	00H
	DB	00H
	DB	00H
	DB	00H
	DB	00H
	DB	00H
	DB	00H
	DB	00H
	DB	00H
	DB	00H
	DB	00H
	DB	00H
	DB	00H
	DB	00H
	DB	00H
	DB	00H
	DB	00H
	DB	00H
	DB	00H
	DB	00H
	DB	00H
	DB	00H
	DB	00H
	DB	00H
	DB	00H
	DB	00H
	DB	00H
	DB	00H
	DB	00H
	DB	00H
	DB	00H
	DB	00H
	DB	00H
	DB	00H
	DB	00H
	DB	00H
	DB	00H
	DB	00H
	DB	00H
	DB	00H
	DB	00H
	DB	00H
	DB	00H
	DB	00H
	DB	00H
	DB	00H
	DB	00H
	DB	00H
	DB	00H
	DB	00H
	DB	00H
	DB	00H
	DB	00H
	DB	00H
	DB	00H
	DB	00H
	DB	00H
	DB	00H
	DB	00H
	DB	00H
	DB	00H
	DB	00H
	DB	00H
	DB	00H
	DB	00H
	DB	00H
	DB	00H
	DB	00H
	DB	00H
	DB	00H
	DB	00H
	DB	00H
	DB	00H
	DB	00H
	DB	00H
	DB	00H
	DB	00H
	DB	00H
	DB	00H
	DB	00H
	DB	00H
	DB	00H
	DB	00H
	DB	00H
	DB	00H
	DB	00H
	DB	00H
	DB	00H
	DB	00H
	DB	00H
	DB	00H
	DB	00H
	DB	00H
	DB	00H
	DB	00H
	DB	00H
	DB	00H
	DB	00H
	DB	00H
	DB	00H
	DB	00H
	DB	00H
	DB	00H
	DB	00H
	DB	00H
	DB	00H
	DB	00H
	DB	00H
	DB	00H
	DB	00H
	DB	00H
	DB	00H
	DB	00H
	DB	00H
	DB	00H
	DB	00H
	DB	00H
	DB	00H
	DB	00H
	DB	00H
	DB	00H
	DB	00H
	DB	00H
	DB	00H
	DB	00H
	DB	00H
	DB	00H
	DB	00H
	DB	00H
	DB	00H
	DB	00H
	DB	00H
	DB	00H
	DB	00H
	DB	00H
	DB	00H
	DB	00H
	DB	00H
	DB	00H
	DB	00H
	DB	00H
	DB	00H
	DB	00H
	DB	00H
	DB	00H
	DB	00H
	DB	00H
	DB	00H
	DB	00H
	DB	00H
	DB	00H
	DB	00H
	DB	00H
	DB	00H
	DB	00H
	DB	00H
	DB	00H
	DB	00H
	DB	00H
	DB	00H
	DB	00H
	DB	00H
	DB	00H
	DB	00H
	DB	00H
	DB	00H
	DB	00H
	DB	00H
	DB	00H
	DB	00H
	DB	00H
	DB	00H
	DB	00H
	DB	00H
	DB	00H
	DB	00H
	DB	00H
	DB	00H
	DB	00H
	DB	00H
	DB	00H
	DB	00H
	DB	00H
	DB	00H
	DB	00H
	DB	00H
	DB	00H
	DB	00H
	DB	00H
	DB	00H
	DB	00H
	DB	00H
	DB	00H
	DB	00H
	DB	00H
	DB	00H
	DB	00H
	DB	00H
	DB	00H
	DB	00H
	DB	00H
	DB	00H
	DB	00H
	DB	00H
	DB	00H
	DB	00H
	DB	00H
	DB	00H
	DB	00H
	DB	00H
	DB	00H
	DB	00H
	DB	00H
	DB	00H
	DB	00H
	DB	00H
	DB	00H
	DB	00H
	DB	00H
	DB	00H
	DB	00H
	DB	00H
	DB	00H
	DB	00H
	DB	00H
	DB	00H
	DB	00H
	DB	00H
	DB	00H
	DB	00H
	DB	00H
	DB	00H
	DB	00H
	DB	00H
	DB	00H
	DB	00H
	DB	00H
	DB	00H
	DB	00H
	DB	00H
	DB	00H
	DB	00H
	DB	00H
	DB	00H
	DB	00H
	DB	00H
	DB	00H
	DB	00H
	DB	00H
	DB	00H
	DB	00H
	DB	00H
	DB	00H
	DB	00H
	DB	00H
	DB	00H
	DB	00H
	DB	00H
	DB	00H
	DB	00H
	DB	00H
	DB	00H
	DB	00H
	DB	00H
	DB	00H
	DB	00H
	DB	00H
	DB	00H
	DB	00H
	DB	00H
	DB	00H
	DB	00H
	DB	00H
	DB	00H
	DB	00H
	DB	00H
	DB	00H
	DB	00H
	DB	00H
	DB	00H
	DB	00H
	DB	00H
	DB	00H
	DB	00H
	DB	00H
	DB	00H
	DB	00H
	DB	00H
	DB	00H
	DB	00H
	DB	00H
	DB	00H
	DB	00H
	DB	00H
	DB	00H
	DB	00H
	DB	00H
	DB	00H
	DB	00H
	DB	00H
	DB	00H
	DB	00H
	DB	00H
	DB	00H
	DB	00H
	DB	00H
	DB	00H
	DB	00H
	DB	00H
	DB	00H
	DB	00H
	DB	00H
	DB	00H
	DB	00H
	DB	00H
	DB	00H
	DB	00H
	DB	00H
	DB	00H
	DB	00H
	DB	00H
	DB	00H
	DB	00H
	DB	00H
	DB	00H
	DB	00H
	DB	00H
	DB	00H
	DB	00H
	DB	00H
	DB	00H
	DB	00H
	DB	00H
	DB	00H
	DB	00H
	DB	00H
	DB	00H
	DB	00H
	DB	00H
	DB	00H
	DB	00H
	DB	00H
	DB	00H
	DB	00H
	DB	00H
	DB	00H
	DB	00H
	DB	00H
	DB	00H
	DB	00H
	DB	00H
	DB	00H
	DB	00H
	DB	00H
	DB	00H
	DB	00H
	DB	00H
	DB	00H
	DB	00H
	DB	00H
	DB	00H
	DB	00H
	DB	00H
	DB	00H
	DB	00H
	DB	00H
	DB	00H
	DB	00H
	DB	00H
	DB	00H
	DB	00H
	DB	00H
	DB	00H
	DB	00H
	DB	00H
	DB	00H
	DB	00H
	DB	00H
	DB	00H
	DB	00H
	DB	00H
	DB	00H
	DB	00H
	DB	00H
	DB	00H
	DB	00H
	DB	00H
	DB	00H
	DB	00H
	DB	00H
	DB	00H
	DB	00H
	DB	00H
	DB	00H
	DB	00H
	DB	00H
	DB	00H
	DB	00H
	DB	00H
	DB	00H
	DB	00H
	DB	00H
	DB	00H
	DB	00H
	DB	00H
	DB	00H
	DB	00H
	DB	00H
	DB	00H
	DB	00H
	DB	00H
	DB	00H
	DB	00H
	DB	00H
	DB	00H
	DB	00H
	DB	00H
	DB	00H
	DB	00H
	DB	00H
	DB	00H
	DB	00H
	DB	00H
	DB	00H
	DB	00H
	DB	00H
	DB	00H
	DB	00H
	DB	00H
	DB	00H
	DB	00H
	DB	00H
	DB	00H
	DB	00H
	DB	00H
	DB	00H
	DB	00H
	DB	00H
	DB	00H
	DB	00H
	DB	00H
	DB	00H
	DB	00H
	DB	00H
	DB	00H
	DB	00H
	DB	00H
	DB	00H
	DB	00H
	DB	00H
	DB	00H
	DB	00H
	DB	00H
	DB	00H
	DB	00H
	DB	00H
	DB	00H
	DB	00H
	DB	00H
	DB	00H
	DB	00H
	DB	00H
	DB	00H
	DB	00H
	DB	00H
	DB	00H
	DB	00H
	DB	00H
	DB	00H
	DB	00H
	DB	00H
	DB	00H
	DB	00H
	DB	00H
	DB	00H
	DB	00H
	DB	00H
	DB	00H
	DB	00H
	DB	00H
	DB	00H
	DB	00H
	DB	00H
	DB	00H
	DB	00H
	DB	00H
	DB	00H
	DB	00H
	DB	00H
	DB	00H
	DB	00H
	DB	00H
	DB	00H
	DB	00H
	DB	00H
	DB	00H
	DB	00H
	DB	00H
	DB	00H
	DB	00H
	DB	00H
	DB	00H
	DB	00H
	DB	00H
	DB	00H
	DB	00H
	DB	00H
	DB	00H
	DB	00H
	DB	00H
	DB	00H
	DB	00H
	DB	00H
	DB	00H
	DB	00H
	DB	00H
	DB	00H
	DB	00H
	DB	00H
	DB	00H
	DB	00H
	DB	00H
	DB	00H
	DB	00H
	DB	00H
	DB	00H
	DB	00H
	DB	00H
	DB	00H
	DB	00H
	DB	00H
	DB	00H
	DB	00H
	DB	00H
	DB	00H
	DB	00H
	DB	00H
	DB	00H
	DB	00H
	DB	00H
	DB	00H
	DB	00H
	DB	00H
	DB	00H
	DB	00H
	DB	00H
	DB	00H
	DB	00H
	DB	00H
	DB	00H
	DB	00H
	DB	00H
	DB	00H
	DB	00H
	DB	00H
	DB	00H
	DB	00H
	DB	00H
	DB	00H
	DB	00H
	DB	00H
	DB	00H
	DB	00H
	DB	00H
	DB	00H
	DB	00H
	DB	00H
	DB	00H
	DB	00H
	DB	00H
	DB	00H
	DB	00H
	DB	00H
	DB	00H
	DB	00H
	DB	00H
	DB	00H
	DB	00H
	DB	00H
	DB	00H
	DB	00H
	DB	00H
	DB	00H
	DB	00H
	DB	00H
	DB	00H
	DB	00H
	DB	00H
	DB	00H
	DB	00H
	DB	00H
	DB	00H
	DB	00H
	DB	00H
	DB	00H
	DB	00H
	DB	00H
	DB	00H
	DB	00H
	DB	00H
	DB	00H
	DB	00H
	DB	00H
	DB	00H
	DB	00H
	DB	00H
	DB	00H
	DB	00H
	DB	00H
	DB	00H
	DB	00H
	DB	00H
	DB	00H
	DB	00H
	DB	00H
	DB	00H
	DB	00H
	DB	00H
	DB	00H
	DB	00H
	DB	00H
	DB	00H
	DB	00H
	DB	00H
	DB	00H
	DB	00H
	DB	00H
	DB	00H
	DB	00H
	DB	00H
	DB	00H
	DB	00H
	DB	00H
	DB	00H
	DB	00H
	DB	00H
	DB	00H
	DB	00H
	DB	00H
	DB	00H
	DB	00H
	DB	00H
	DB	00H
	DB	00H
	DB	00H
	DB	00H
	DB	00H
	DB	00H
	DB	00H
	DB	00H
	DB	00H
	DB	00H
	DB	00H
	DB	00H
	DB	00H
	DB	00H
	DB	00H
	DB	00H
	DB	00H
	DB	00H
	DB	00H
	DB	00H
	DB	00H
	DB	00H
	DB	00H
	DB	00H
	DB	00H
	DB	00H
	DB	00H
	DB	00H
	DB	00H
	DB	00H
	DB	00H
	DB	00H
	DB	00H
	DB	00H
	DB	00H
	DB	00H
	DB	00H
	DB	00H
	DB	00H
	DB	00H
	DB	00H
	DB	00H
	DB	00H
	DB	00H
	DB	00H
	DB	00H
	DB	00H
	DB	00H
	DB	00H
	DB	00H
	DB	00H
	DB	00H
	DB	00H
	DB	00H
	DB	00H
	DB	00H
	DB	00H
	DB	00H
	DB	00H
	DB	00H
	DB	00H
	DB	00H
	DB	00H
	DB	00H
	DB	00H
	DB	00H
	DB	00H
	DB	00H
	DB	00H
	DB	00H
	DB	00H
	DB	00H
	DB	00H
	DB	00H
	DB	00H
	DB	00H
	DB	00H
	DB	00H
	DB	00H
	DB	00H
	DB	00H
	DB	00H
	DB	00H
	DB	00H
	DB	00H
	DB	00H
	DB	00H
	DB	00H
	DB	00H
	DB	00H
	DB	00H
	DB	00H
	DB	00H
	DB	00H
	DB	00H
	DB	00H
	DB	00H
	DB	00H
	DB	00H
	DB	00H
	DB	00H
	DB	00H
	DB	00H
	DB	00H
	DB	00H
	DB	00H
	DB	00H
	DB	00H
	DB	00H
	DB	00H
	DB	00H
	DB	00H
	DB	00H
	DB	00H
	DB	00H
	DB	00H
	DB	00H
	DB	00H
	DB	00H
	DB	00H
	DB	00H
	DB	00H
	DB	00H
	DB	00H
	DB	00H
	DB	00H
	DB	00H
	DB	00H
	DB	00H
	DB	00H
	DB	00H
	DB	00H
	DB	00H
	DB	00H
	DB	00H
	DB	00H
	DB	00H
	DB	00H
	DB	00H
	DB	00H
	DB	00H
	DB	00H
	DB	00H
	DB	00H
	DB	00H
	DB	00H
	DB	00H
	DB	00H
	DB	00H
	DB	00H
	DB	00H
	DB	00H
	DB	00H
	DB	00H
	DB	00H
	DB	00H
	DB	00H
	DB	00H
	DB	00H
	DB	00H
	DB	00H
	DB	00H
	DB	00H
	DB	00H
	DB	00H
	DB	00H
	DB	00H
	DB	00H
	DB	00H
	DB	00H
	DB	00H
	DB	00H
	DB	00H
	DB	00H
	DB	00H
	DB	00H
	DB	00H
	DB	00H
	DB	00H
	DB	00H
	DB	00H
	DB	00H
	DB	00H
	DB	00H
	DB	00H
	DB	00H
	DB	00H
	DB	00H
	DB	00H
	DB	00H
	DB	00H
	DB	00H
	DB	00H
	DB	00H
	DB	00H
	DB	00H
	DB	00H
	DB	00H
	DB	00H
	DB	00H
	DB	00H
	DB	00H
	DB	00H
	DB	00H
	DB	00H
	DB	00H
	DB	00H
	DB	00H
	DB	00H
	DB	00H
	DB	00H
	DB	00H
	DB	00H
	DB	00H
	DB	00H
	DB	00H
	DB	00H
	DB	00H
	DB	00H
	DB	00H
	DB	00H
	DB	00H
	DB	00H
	DB	00H
	DB	00H
	DB	00H
	DB	00H
	DB	00H
	DB	00H
	DB	00H
	DB	00H
	DB	00H
	DB	00H
	DB	00H
	DB	00H
	DB	00H
	DB	00H
	DB	00H
	DB	00H
	DB	00H
	DB	00H
	DB	00H
	DB	00H
	DB	00H
	DB	00H
	DB	00H
	DB	00H
	DB	00H
	DB	00H
	DB	00H
	DB	00H
	DB	00H
	DB	00H
	DB	00H
	DB	00H
	DB	00H
	DB	00H
	DB	00H
	DB	00H
	DB	00H
	DB	00H
	DB	00H
	DB	00H
	DB	00H
	DB	00H
	DB	00H
	DB	00H
	DB	00H
	DB	00H
	DB	00H
	DB	00H
	DB	00H
	DB	00H
	DB	00H
	DB	00H
	DB	00H
	DB	00H
	DB	00H
	DB	00H
	DB	00H
	DB	00H
	DB	00H
	DB	00H
	DB	00H
	DB	00H
	DB	00H
	DB	00H
	DB	00H
	DB	00H
	DB	00H
	DB	00H
	DB	00H
	DB	00H
	DB	00H
	DB	00H
	DB	00H
	DB	00H
	DB	00H
	DB	00H
	DB	00H
	DB	00H
	DB	00H
	DB	00H
	DB	00H
	DB	00H
	DB	00H
	DB	00H
	DB	00H
	DB	00H
	DB	00H
	DB	00H
	DB	00H
	DB	00H
	DB	00H
	DB	00H
	DB	00H
	DB	00H
	DB	00H
	DB	00H
	DB	00H
	DB	00H
	DB	00H
	DB	00H
	DB	00H
	DB	00H
	DB	00H
	DB	00H
	DB	00H
	DB	00H
	DB	00H
	DB	00H
	DB	00H
	DB	00H
	DB	00H
	DB	00H
	DB	00H
	DB	00H
	DB	00H
	DB	00H
	DB	00H
	DB	00H
	DB	00H
	DB	00H
	DB	00H
	DB	00H
	DB	00H
	DB	00H
	DB	00H
	DB	00H
	DB	00H
	DB	00H
	DB	00H
	DB	00H
	DB	00H
	DB	00H
	DB	00H
	DB	00H
	DB	00H
	DB	00H
	DB	00H
	DB	00H
	DB	00H
	DB	00H
	DB	00H
	DB	00H
	DB	00H
	DB	00H
	DB	00H
	DB	00H
	DB	00H
	DB	00H
	DB	00H
	DB	00H
	DB	00H
	DB	00H
	DB	00H
	DB	00H
	DB	00H
	DB	00H
	DB	00H
	DB	00H
	DB	00H
	DB	00H
	DB	00H
	DB	00H
	DB	00H
	DB	00H
	DB	00H
	DB	00H
	DB	00H
	DB	00H
	DB	00H
	DB	00H
	DB	00H
	DB	00H
	DB	00H
	DB	00H
	DB	00H
	DB	00H
	DB	00H
	DB	00H
	DB	00H
	DB	00H
	DB	00H
	DB	00H
	DB	00H
	DB	00H
	DB	00H
	DB	00H
	DB	00H
	DB	00H
	DB	00H
	DB	00H
	DB	00H
	DB	00H
	DB	00H
	DB	00H
	DB	00H
	DB	00H
	DB	00H
	DB	00H
	DB	00H
	DB	00H
	DB	00H
	DB	00H
	DB	00H
	DB	00H
	DB	00H
	DB	00H
	DB	00H
	DB	00H
	DB	00H
	DB	00H
	DB	00H
	DB	00H
	DB	00H
	DB	00H
	DB	00H
	DB	00H
	DB	00H
	DB	00H
	DB	00H
	DB	00H
	DB	00H
	DB	00H
	DB	00H
	DB	00H
	DB	00H
	DB	00H
	DB	00H
	DB	00H
	DB	00H
	DB	00H
	DB	00H
	DB	00H
	DB	00H
	DB	00H
	DB	00H
	DB	00H
	DB	00H
	DB	00H
	DB	00H
	DB	00H
	DB	00H
	DB	00H
	DB	00H
	DB	00H
	DB	00H
	DB	00H
	DB	00H
	DB	00H
	DB	00H
	DB	00H
	DB	00H
	DB	00H
	DB	00H
	DB	00H
	DB	00H
	DB	00H
	DB	00H
	DB	00H
	DB	00H
	DB	00H
	DB	00H
	DB	00H
	DB	00H
	DB	00H
	DB	00H
	DB	00H
	DB	00H
	DB	00H
	DB	00H
	DB	00H
	DB	00H
	DB	00H
	DB	00H
	DB	00H
	DB	00H
	DB	00H
	DB	00H
	DB	00H
	DB	00H
	DB	00H
	DB	00H
	DB	00H
	DB	00H
	DB	00H
	DB	00H
	DB	00H
	DB	00H
	DB	00H
	DB	00H
	DB	00H
	DB	00H
	DB	00H
	DB	00H
	DB	00H
	DB	00H
	DB	00H
	DB	00H
	DB	00H
	DB	00H
	DB	00H
	DB	00H
	DB	00H
	DB	00H
	DB	00H
	DB	00H
	DB	00H
	DB	00H
	DB	00H
	DB	00H
	DB	00H
	DB	00H
	DB	00H
	DB	00H
	DB	00H
	DB	00H
	DB	00H
	DB	00H
	DB	00H
	DB	00H
	DB	00H
	DB	00H
	DB	00H
	DB	00H
	DB	00H
	DB	00H
	DB	00H
	DB	00H
	DB	00H
	DB	00H
	DB	00H
	DB	00H
	DB	00H
	DB	00H
	DB	00H
	DB	00H
	DB	00H
	DB	00H
	DB	00H
	DB	00H
	DB	00H
	DB	00H
	DB	00H
	DB	00H
	DB	00H
	DB	00H
	DB	00H
	DB	00H
	DB	00H
	DB	00H
	DB	00H
	DB	00H
	DB	00H
	DB	00H
	DB	00H
	DB	00H
	DB	00H
	DB	00H
	DB	00H
	DB	00H
	DB	00H
	DB	00H
	DB	00H
	DB	00H
	DB	00H
	DB	00H
	DB	00H
	DB	00H
	DB	00H
	DB	00H
	DB	00H
	DB	00H
	DB	00H
	DB	00H
	DB	00H
	DB	00H
	DB	00H
	DB	00H
	DB	00H
	DB	00H
	DB	00H
	DB	00H
	DB	00H
	DB	00H
	DB	00H
	DB	00H
	DB	00H
	DB	00H
	DB	00H
	DB	00H
	DB	00H
	DB	00H
	DB	00H
	DB	00H
	DB	00H
	DB	00H
	DB	00H
	DB	00H
	DB	00H
	DB	00H
	DB	00H
	DB	00H
	DB	00H
	DB	00H
	DB	00H
	DB	00H
	DB	00H
	DB	00H
	DB	00H
	DB	00H
	DB	00H
	DB	00H
	DB	00H
	DB	00H
	DB	00H
	DB	00H
	DB	00H
	DB	00H
	DB	00H
	DB	00H
	DB	00H
	DB	00H
	DB	00H
	DB	00H
	DB	00H
	DB	00H
	DB	00H
	DB	00H
	DB	00H
	DB	00H
	DB	00H
	DB	00H
	DB	00H
	DB	00H
	DB	00H
	DB	00H
	DB	00H
	DB	00H
	DB	00H
	DB	00H
	DB	00H
	DB	00H
	DB	00H
	DB	00H
	DB	00H
	DB	00H
	DB	00H
	DB	00H
	DB	00H
	DB	00H
	DB	00H
	DB	00H
	DB	00H
	DB	00H
	DB	00H
	DB	00H
	DB	00H
	DB	00H
	DB	00H
	DB	00H
	DB	00H
	DB	00H
	DB	00H
	DB	00H
	DB	00H
	DB	00H
	DB	00H
	DB	00H
	DB	00H
	DB	00H
	DB	00H
	DB	00H
	DB	00H
	DB	00H
	DB	00H
	DB	00H
	DB	00H
	DB	00H
	DB	00H
	DB	00H
	DB	00H
	DB	00H
	DB	00H
	DB	00H
	DB	00H
	DB	00H
	DB	00H
	DB	00H
	DB	00H
	DB	00H
	DB	00H
	DB	00H
	DB	00H
	DB	00H
	DB	00H
	DB	00H
	DB	00H
	DB	00H
	DB	00H
	DB	00H
	DB	00H
	DB	00H
	DB	00H
	DB	00H
	DB	00H
	DB	00H
	DB	00H
	DB	00H
	DB	00H
	DB	00H
	DB	00H
	DB	00H
	DB	00H
	DB	00H
	DB	00H
	DB	00H
	DB	00H
	DB	00H
	DB	00H
	DB	00H
	DB	00H
	DB	00H
	DB	00H
	DB	00H
	DB	00H
	DB	00H
	DB	00H
	DB	00H
	DB	00H
	DB	00H
	DB	00H
	DB	00H
	DB	00H
	DB	00H
	DB	00H
	DB	00H
	DB	00H
	DB	00H
	DB	00H
	DB	00H
	DB	00H
	DB	00H
	DB	00H
	DB	00H
	DB	00H
	DB	00H
	DB	00H
	DB	00H
	DB	00H
	DB	00H
	DB	00H
	DB	00H
	DB	00H
	DB	00H
	DB	00H
	DB	00H
	DB	00H
	DB	00H
	DB	00H
	DB	00H
	DB	00H
	DB	00H
	DB	00H
	DB	00H
	DB	00H
	DB	00H
	DB	00H
	DB	00H
	DB	00H
	DB	00H
	DB	00H
	DB	00H
	DB	00H
	DB	00H
	DB	00H
	DB	00H
	DB	00H
	DB	00H
	DB	00H
	DB	00H
	DB	00H
	DB	00H
	DB	00H
	DB	00H
	DB	00H
	DB	00H
	DB	00H
	DB	00H
	DB	00H
	DB	00H
	DB	00H
	DB	00H
	DB	00H
	DB	00H
	DB	00H
	DB	00H
	DB	00H
	DB	00H
	DB	00H
	DB	00H
	DB	00H
	DB	00H
	DB	00H
	DB	00H
	DB	00H
	DB	00H
	DB	00H
	DB	00H
	DB	00H
	DB	00H
	DB	00H
	DB	00H
	DB	00H
	DB	00H
	DB	00H
	DB	00H
	DB	00H
	DB	00H
	DB	00H
	DB	00H
	DB	00H
	DB	00H
	DB	00H
	DB	00H
	DB	00H
	DB	00H
	DB	00H
	DB	00H
	DB	00H
	DB	00H
	DB	00H
	DB	00H
	DB	00H
	DB	00H
	DB	00H
	DB	00H
	DB	00H
	DB	00H
	DB	00H
	DB	00H
	DB	00H
	DB	00H
	DB	00H
	DB	00H
	DB	00H
	DB	00H
	DB	00H
	DB	00H
	DB	00H
	DB	00H
	DB	00H
	DB	00H
	DB	00H
	DB	00H
	DB	00H
	DB	00H
	DB	00H
	DB	00H
	DB	00H
	DB	00H
	DB	00H
	DB	00H
	DB	00H
	DB	00H
	DB	00H
	DB	00H
	DB	00H
	DB	00H
	DB	00H
	DB	00H
	DB	00H
	DB	00H
	DB	00H
	DB	00H
	DB	00H
	DB	00H
	DB	00H
	DB	00H
	DB	00H
	DB	00H
	DB	00H
	DB	00H
	DB	00H
	DB	00H
	DB	00H
	DB	00H
	DB	00H
	DB	00H
	DB	00H
	DB	00H
	DB	00H
	DB	00H
	DB	00H
	DB	00H
	DB	00H
	DB	00H
	DB	00H
	DB	00H
	DB	00H
	DB	00H
	DB	00H
	DB	00H
	DB	00H
	DB	00H
	DB	00H
	DB	00H
	DB	00H
	DB	00H
	DB	00H
	DB	00H
	DB	00H
	DB	00H
	DB	00H
	DB	00H
	DB	00H
	DB	00H
	DB	00H
	DB	00H
	DB	00H
	DB	00H
	DB	00H
	DB	00H
	DB	00H
	DB	00H
	DB	00H
	DB	00H
	DB	00H
	DB	00H
	DB	00H
	DB	00H
	DB	00H
	DB	00H
	DB	00H
	DB	00H
	DB	00H
	DB	00H
	DB	00H
	DB	00H
	DB	00H
	DB	00H
	DB	00H
	DB	00H
	DB	00H
	DB	00H
	DB	00H
	DB	00H
	DB	00H
	DB	00H
	DB	00H
	DB	00H
	DB	00H
	DB	00H
	DB	00H
	DB	00H
	DB	00H
	DB	00H
	DB	00H
	DB	00H
	DB	00H
	DB	00H
	DB	00H
	DB	00H
	DB	00H
	DB	00H
	DB	00H
	DB	00H
	DB	00H
	DB	00H
	DB	00H
	DB	00H
	DB	00H
	DB	00H
	DB	00H
	DB	00H
	DB	00H
	DB	00H
	DB	00H
	DB	00H
	DB	00H
	DB	00H
	DB	00H
	DB	00H
	DB	00H
	DB	00H
	DB	00H
	DB	00H
	DB	00H
	DB	00H
	DB	00H
	DB	00H
	DB	00H
	DB	00H
	DB	00H
	DB	00H
	DB	00H
	DB	00H
	DB	00H
	DB	00H
	DB	00H
	DB	00H
	DB	00H
	DB	00H
	DB	00H
	DB	00H
	DB	00H
	DB	00H
	DB	00H
	DB	00H
	DB	00H
	DB	00H
	DB	00H
	DB	00H
	DB	00H
	DB	00H
	DB	00H
	DB	00H
	DB	00H
	DB	00H
	DB	00H
	DB	00H
	DB	00H
	DB	00H
	DB	00H
	DB	00H
	DB	00H
	DB	00H
	DB	00H
	DB	00H
	DB	00H
	DB	00H
	DB	00H
	DB	00H
	DB	00H
	DB	00H
	DB	00H
	DB	00H
	DB	00H
	DB	00H
	DB	00H
	DB	00H
	DB	00H
	DB	00H
	DB	00H
	DB	00H
	DB	00H
	DB	00H
	DB	00H
	DB	00H
	DB	00H
	DB	00H
	DB	00H
	DB	00H
	DB	00H
	DB	00H
	DB	00H
	DB	00H
	DB	00H
	DB	00H
	DB	00H
	DB	00H
	DB	00H
	DB	00H
	DB	00H
	DB	00H
	DB	00H
	DB	00H
	DB	00H
	DB	00H
	DB	00H
	DB	00H
	DB	00H
	DB	00H
	DB	00H
	DB	00H
	DB	00H
	DB	00H
	DB	00H
	DB	00H
	DB	00H
	DB	00H
	DB	00H
	DB	00H
	DB	00H
	DB	00H
	DB	00H
	DB	00H
	DB	00H
	DB	00H
	DB	00H
	DB	00H
	DB	00H
	DB	00H
	DB	00H
	DB	00H
	DB	00H
	DB	00H
	DB	00H
	DB	00H
	DB	00H
	DB	00H
	DB	00H
	DB	00H
	DB	00H
	DB	00H
	DB	00H
	DB	00H
	DB	00H
	DB	00H
	DB	0ffH
	DB	0ffH
	DB	0ffH
	DB	00H
	DB	0ffH
	DB	0ffH
	DB	0ffH
	DB	00H
	DB	0ffH
	DB	0ffH
	DB	0ffH
	DB	00H
	DB	0ffH
	DB	0ffH
	DB	0ffH
	DB	00H
	DB	0ffH
	DB	0ffH
	DB	0ffH
	DB	00H
	DB	0ffH
	DB	0ffH
	DB	0ffH
	DB	00H
	DB	0ffH
	DB	0ffH
	DB	0ffH
	DB	00H
	DB	0ffH
	DB	0ffH
	DB	0ffH
	DB	00H
	DB	0ffH
	DB	0ffH
	DB	0ffH
	DB	00H
	DB	0ffH
	DB	0ffH
	DB	0ffH
	DB	00H
	DB	0ffH
	DB	0ffH
	DB	0ffH
	DB	00H
	DB	0ffH
	DB	0ffH
	DB	0ffH
	DB	00H
	DB	0ffH
	DB	0ffH
	DB	0ffH
	DB	00H
	DB	0ffH
	DB	0ffH
	DB	0ffH
	DB	00H
	DB	0ffH
	DB	0ffH
	DB	0ffH
	DB	00H
	DB	0ffH
	DB	0ffH
	DB	0ffH
	DB	00H
	DB	0ffH
	DB	0ffH
	DB	0ffH
	DB	00H
	DB	0ffH
	DB	0ffH
	DB	0ffH
	DB	00H
	DB	0ffH
	DB	0ffH
	DB	0ffH
	DB	00H
	DB	0ffH
	DB	0ffH
	DB	0ffH
	DB	00H
	DB	0ffH
	DB	0ffH
	DB	0ffH
	DB	00H
	DB	0ffH
	DB	0ffH
	DB	0ffH
	DB	00H
	DB	0ffH
	DB	0ffH
	DB	0ffH
	DB	00H
	DB	0ffH
	DB	0ffH
	DB	0ffH
	DB	00H
	DB	0ffH
	DB	0ffH
	DB	0ffH
	DB	00H
	DB	0ffH
	DB	0ffH
	DB	0ffH
	DB	00H
	DB	0ffH
	DB	0ffH
	DB	0ffH
	DB	00H
	DB	0ffH
	DB	0ffH
	DB	0ffH
	DB	00H
	DB	0ffH
	DB	0ffH
	DB	0ffH
	DB	00H
	DB	0ffH
	DB	0ffH
	DB	0ffH
	DB	00H
	DB	0ffH
	DB	0ffH
	DB	0ffH
	DB	00H
	DB	0ffH
	DB	0ffH
	DB	0ffH
	DB	00H
	DB	0ffH
	DB	0ffH
	DB	0ffH
	DB	00H
	DB	0ffH
	DB	0ffH
	DB	0ffH
	DB	00H
	DB	0ffH
	DB	0ffH
	DB	0ffH
	DB	00H
	DB	0ffH
	DB	0ffH
	DB	0ffH
	DB	00H
	DB	0ffH
	DB	0ffH
	DB	0ffH
	DB	00H
	DB	0ffH
	DB	0ffH
	DB	0ffH
	DB	00H
	DB	0ffH
	DB	0ffH
	DB	0ffH
	DB	00H
	DB	0ffH
	DB	0ffH
	DB	0ffH
	DB	00H
	DB	0ffH
	DB	0ffH
	DB	0ffH
	DB	00H
	DB	0ffH
	DB	0ffH
	DB	0ffH
	DB	00H
	DB	0ffH
	DB	0ffH
	DB	0ffH
	DB	00H
	DB	0ffH
	DB	0ffH
	DB	0ffH
	DB	00H
	DB	0ffH
	DB	0ffH
	DB	0ffH
	DB	00H
	DB	0ffH
	DB	0ffH
	DB	0ffH
	DB	00H
	DB	0ffH
	DB	0ffH
	DB	0ffH
	DB	00H
	DB	0ffH
	DB	0ffH
	DB	0ffH
	DB	00H
	DB	0ffH
	DB	0ffH
	DB	0ffH
	DB	00H
	DB	0ffH
	DB	0ffH
	DB	0ffH
	DB	00H
	DB	0ffH
	DB	0ffH
	DB	0ffH
	DB	00H
	DB	0ffH
	DB	0ffH
	DB	0ffH
	DB	00H
	DB	0ffH
	DB	0ffH
	DB	0ffH
	DB	00H
	DB	0ffH
	DB	0ffH
	DB	0ffH
	DB	00H
	DB	0ffH
	DB	0ffH
	DB	0ffH
	DB	01H
	DB	0ffH
	DB	0ffH
	DB	0ffH
	DB	05H
	DB	0ffH
	DB	0ffH
	DB	0ffH
	DB	05H
	DB	0ffH
	DB	0ffH
	DB	0ffH
	DB	01H
	DB	0ffH
	DB	0ffH
	DB	0ffH
	DB	00H
	DB	0ffH
	DB	0ffH
	DB	0ffH
	DB	00H
	DB	0ffH
	DB	0ffH
	DB	0ffH
	DB	00H
	DB	0ffH
	DB	0ffH
	DB	0ffH
	DB	00H
	DB	0ffH
	DB	0ffH
	DB	0ffH
	DB	00H
	DB	0ffH
	DB	0ffH
	DB	0ffH
	DB	00H
	DB	0ffH
	DB	0ffH
	DB	0ffH
	DB	00H
	DB	0ffH
	DB	0ffH
	DB	0ffH
	DB	00H
	DB	0ffH
	DB	0ffH
	DB	0ffH
	DB	00H
	DB	0ffH
	DB	0ffH
	DB	0ffH
	DB	00H
	DB	0ffH
	DB	0ffH
	DB	0ffH
	DB	00H
	DB	0ffH
	DB	0ffH
	DB	0ffH
	DB	00H
	DB	0ffH
	DB	0ffH
	DB	0ffH
	DB	00H
	DB	0ffH
	DB	0ffH
	DB	0ffH
	DB	00H
	DB	0ffH
	DB	0ffH
	DB	0ffH
	DB	00H
	DB	0ffH
	DB	0ffH
	DB	0ffH
	DB	00H
	DB	0ffH
	DB	0ffH
	DB	0ffH
	DB	00H
	DB	0ffH
	DB	0ffH
	DB	0ffH
	DB	00H
	DB	0ffH
	DB	0ffH
	DB	0ffH
	DB	00H
	DB	0ffH
	DB	0ffH
	DB	0ffH
	DB	00H
	DB	0ffH
	DB	0ffH
	DB	0ffH
	DB	00H
	DB	0ffH
	DB	0ffH
	DB	0ffH
	DB	00H
	DB	0ffH
	DB	0ffH
	DB	0ffH
	DB	00H
	DB	0ffH
	DB	0ffH
	DB	0ffH
	DB	00H
	DB	0ffH
	DB	0ffH
	DB	0ffH
	DB	00H
	DB	0ffH
	DB	0ffH
	DB	0ffH
	DB	00H
	DB	0ffH
	DB	0ffH
	DB	0ffH
	DB	00H
	DB	0ffH
	DB	0ffH
	DB	0ffH
	DB	00H
	DB	0ffH
	DB	0ffH
	DB	0ffH
	DB	00H
	DB	0ffH
	DB	0ffH
	DB	0ffH
	DB	00H
	DB	0ffH
	DB	0ffH
	DB	0ffH
	DB	00H
	DB	0ffH
	DB	0ffH
	DB	0ffH
	DB	00H
	DB	0ffH
	DB	0ffH
	DB	0ffH
	DB	00H
	DB	0ffH
	DB	0ffH
	DB	0ffH
	DB	00H
	DB	0ffH
	DB	0ffH
	DB	0ffH
	DB	00H
	DB	0ffH
	DB	0ffH
	DB	0ffH
	DB	00H
	DB	0ffH
	DB	0ffH
	DB	0ffH
	DB	00H
	DB	0ffH
	DB	0ffH
	DB	0ffH
	DB	00H
	DB	0ffH
	DB	0ffH
	DB	0ffH
	DB	00H
	DB	0ffH
	DB	0ffH
	DB	0ffH
	DB	00H
	DB	0ffH
	DB	0ffH
	DB	0ffH
	DB	00H
	DB	0ffH
	DB	0ffH
	DB	0ffH
	DB	00H
	DB	0ffH
	DB	0ffH
	DB	0ffH
	DB	00H
	DB	0ffH
	DB	0ffH
	DB	0ffH
	DB	00H
	DB	0ffH
	DB	0ffH
	DB	0ffH
	DB	00H
	DB	0ffH
	DB	0ffH
	DB	0ffH
	DB	00H
	DB	0ffH
	DB	0ffH
	DB	0ffH
	DB	00H
	DB	0ffH
	DB	0ffH
	DB	0ffH
	DB	00H
	DB	0ffH
	DB	0ffH
	DB	0ffH
	DB	00H
	DB	0ffH
	DB	0ffH
	DB	0ffH
	DB	00H
	DB	0ffH
	DB	0ffH
	DB	0ffH
	DB	00H
	DB	0ffH
	DB	0ffH
	DB	0ffH
	DB	00H
	DB	0ffH
	DB	0ffH
	DB	0ffH
	DB	00H
	DB	0ffH
	DB	0ffH
	DB	0ffH
	DB	00H
	DB	00H
	DB	00H
	DB	00H
	DB	00H
	DB	00H
	DB	00H
	DB	00H
	DB	00H
	DB	00H
	DB	00H
	DB	00H
	DB	00H
	DB	00H
	DB	00H
	DB	00H
	DB	00H
	DB	00H
	DB	00H
	DB	00H
	DB	00H
	DB	00H
	DB	00H
	DB	00H
	DB	00H
	DB	00H
	DB	00H
	DB	00H
	DB	00H
	DB	00H
	DB	00H
	DB	00H
	DB	00H
	DB	00H
	DB	00H
	DB	00H
	DB	00H
	DB	00H
	DB	00H
	DB	00H
	DB	00H
	DB	00H
	DB	00H
	DB	00H
	DB	00H
	DB	00H
	DB	00H
	DB	00H
	DB	00H
	DB	00H
	DB	00H
	DB	00H
	DB	00H
	DB	00H
	DB	00H
	DB	00H
	DB	00H
	DB	00H
	DB	00H
	DB	00H
	DB	00H
	DB	00H
	DB	00H
	DB	00H
	DB	00H
	DB	0ffH
	DB	0ffH
	DB	0ffH
	DB	00H
	DB	0ffH
	DB	0ffH
	DB	0ffH
	DB	00H
	DB	0ffH
	DB	0ffH
	DB	0ffH
	DB	00H
	DB	0ffH
	DB	0ffH
	DB	0ffH
	DB	00H
	DB	0ffH
	DB	0ffH
	DB	0ffH
	DB	00H
	DB	0ffH
	DB	0ffH
	DB	0ffH
	DB	00H
	DB	0ffH
	DB	0ffH
	DB	0ffH
	DB	00H
	DB	0ffH
	DB	0ffH
	DB	0ffH
	DB	00H
	DB	0ffH
	DB	0ffH
	DB	0ffH
	DB	00H
	DB	0ffH
	DB	0ffH
	DB	0ffH
	DB	00H
	DB	0ffH
	DB	0ffH
	DB	0ffH
	DB	00H
	DB	0ffH
	DB	0ffH
	DB	0ffH
	DB	00H
	DB	0ffH
	DB	0ffH
	DB	0ffH
	DB	00H
	DB	0ffH
	DB	0ffH
	DB	0ffH
	DB	00H
	DB	0ffH
	DB	0ffH
	DB	0ffH
	DB	00H
	DB	0ffH
	DB	0ffH
	DB	0ffH
	DB	00H
	DB	0ffH
	DB	0ffH
	DB	0ffH
	DB	00H
	DB	0ffH
	DB	0ffH
	DB	0ffH
	DB	00H
	DB	0ffH
	DB	0ffH
	DB	0ffH
	DB	00H
	DB	0ffH
	DB	0ffH
	DB	0ffH
	DB	00H
	DB	0ffH
	DB	0ffH
	DB	0ffH
	DB	00H
	DB	0ffH
	DB	0ffH
	DB	0ffH
	DB	00H
	DB	0ffH
	DB	0ffH
	DB	0ffH
	DB	00H
	DB	0ffH
	DB	0ffH
	DB	0ffH
	DB	00H
	DB	0ffH
	DB	0ffH
	DB	0ffH
	DB	00H
	DB	0ffH
	DB	0ffH
	DB	0ffH
	DB	00H
	DB	0ffH
	DB	0ffH
	DB	0ffH
	DB	00H
	DB	0ffH
	DB	0ffH
	DB	0ffH
	DB	00H
	DB	0ffH
	DB	0ffH
	DB	0ffH
	DB	00H
	DB	0ffH
	DB	0ffH
	DB	0ffH
	DB	00H
	DB	0ffH
	DB	0ffH
	DB	0ffH
	DB	00H
	DB	0ffH
	DB	0ffH
	DB	0ffH
	DB	00H
	DB	0ffH
	DB	0ffH
	DB	0ffH
	DB	00H
	DB	0ffH
	DB	0ffH
	DB	0ffH
	DB	00H
	DB	0ffH
	DB	0ffH
	DB	0ffH
	DB	00H
	DB	0ffH
	DB	0ffH
	DB	0ffH
	DB	00H
	DB	0ffH
	DB	0ffH
	DB	0ffH
	DB	00H
	DB	0ffH
	DB	0ffH
	DB	0ffH
	DB	00H
	DB	0ffH
	DB	0ffH
	DB	0ffH
	DB	00H
	DB	0ffH
	DB	0ffH
	DB	0ffH
	DB	00H
	DB	0ffH
	DB	0ffH
	DB	0ffH
	DB	00H
	DB	0ffH
	DB	0ffH
	DB	0ffH
	DB	00H
	DB	0ffH
	DB	0ffH
	DB	0ffH
	DB	00H
	DB	0ffH
	DB	0ffH
	DB	0ffH
	DB	05H
	DB	0ffH
	DB	0ffH
	DB	0ffH
	DB	011H
	DB	0ffH
	DB	0ffH
	DB	0ffH
	DB	01cH
	DB	0ffH
	DB	0ffH
	DB	0ffH
	DB	025H
	DB	0ffH
	DB	0ffH
	DB	0ffH
	DB	02dH
	DB	0ffH
	DB	0ffH
	DB	0ffH
	DB	036H
	DB	0ffH
	DB	0ffH
	DB	0ffH
	DB	03cH
	DB	0ffH
	DB	0ffH
	DB	0ffH
	DB	042H
	DB	0ffH
	DB	0ffH
	DB	0ffH
	DB	047H
	DB	0ffH
	DB	0ffH
	DB	0ffH
	DB	04cH
	DB	0ffH
	DB	0ffH
	DB	0ffH
	DB	04dH
	DB	0ffH
	DB	0ffH
	DB	0ffH
	DB	04dH
	DB	0ffH
	DB	0ffH
	DB	0ffH
	DB	04dH
	DB	0ffH
	DB	0ffH
	DB	0ffH
	DB	04dH
	DB	0ffH
	DB	0ffH
	DB	0ffH
	DB	04dH
	DB	0ffH
	DB	0ffH
	DB	0ffH
	DB	04dH
	DB	0ffH
	DB	0ffH
	DB	0ffH
	DB	04cH
	DB	0ffH
	DB	0ffH
	DB	0ffH
	DB	047H
	DB	0ffH
	DB	0ffH
	DB	0ffH
	DB	041H
	DB	0ffH
	DB	0ffH
	DB	0ffH
	DB	03cH
	DB	0ffH
	DB	0ffH
	DB	0ffH
	DB	036H
	DB	0ffH
	DB	0ffH
	DB	0ffH
	DB	02dH
	DB	0ffH
	DB	0ffH
	DB	0ffH
	DB	024H
	DB	0ffH
	DB	0ffH
	DB	0ffH
	DB	01cH
	DB	0ffH
	DB	0ffH
	DB	0ffH
	DB	011H
	DB	0ffH
	DB	0ffH
	DB	0ffH
	DB	05H
	DB	0ffH
	DB	0ffH
	DB	0ffH
	DB	00H
	DB	0ffH
	DB	0ffH
	DB	0ffH
	DB	00H
	DB	0ffH
	DB	0ffH
	DB	0ffH
	DB	00H
	DB	0ffH
	DB	0ffH
	DB	0ffH
	DB	00H
	DB	0ffH
	DB	0ffH
	DB	0ffH
	DB	00H
	DB	0ffH
	DB	0ffH
	DB	0ffH
	DB	00H
	DB	0ffH
	DB	0ffH
	DB	0ffH
	DB	00H
	DB	0ffH
	DB	0ffH
	DB	0ffH
	DB	00H
	DB	0ffH
	DB	0ffH
	DB	0ffH
	DB	00H
	DB	0ffH
	DB	0ffH
	DB	0ffH
	DB	00H
	DB	0ffH
	DB	0ffH
	DB	0ffH
	DB	00H
	DB	0ffH
	DB	0ffH
	DB	0ffH
	DB	00H
	DB	0ffH
	DB	0ffH
	DB	0ffH
	DB	00H
	DB	0ffH
	DB	0ffH
	DB	0ffH
	DB	00H
	DB	0ffH
	DB	0ffH
	DB	0ffH
	DB	00H
	DB	0ffH
	DB	0ffH
	DB	0ffH
	DB	00H
	DB	0ffH
	DB	0ffH
	DB	0ffH
	DB	00H
	DB	0ffH
	DB	0ffH
	DB	0ffH
	DB	00H
	DB	0ffH
	DB	0ffH
	DB	0ffH
	DB	00H
	DB	0ffH
	DB	0ffH
	DB	0ffH
	DB	00H
	DB	0ffH
	DB	0ffH
	DB	0ffH
	DB	00H
	DB	0ffH
	DB	0ffH
	DB	0ffH
	DB	00H
	DB	0ffH
	DB	0ffH
	DB	0ffH
	DB	00H
	DB	0ffH
	DB	0ffH
	DB	0ffH
	DB	00H
	DB	0ffH
	DB	0ffH
	DB	0ffH
	DB	00H
	DB	0ffH
	DB	0ffH
	DB	0ffH
	DB	00H
	DB	0ffH
	DB	0ffH
	DB	0ffH
	DB	00H
	DB	0ffH
	DB	0ffH
	DB	0ffH
	DB	00H
	DB	0ffH
	DB	0ffH
	DB	0ffH
	DB	00H
	DB	0ffH
	DB	0ffH
	DB	0ffH
	DB	00H
	DB	0ffH
	DB	0ffH
	DB	0ffH
	DB	00H
	DB	0ffH
	DB	0ffH
	DB	0ffH
	DB	00H
	DB	0ffH
	DB	0ffH
	DB	0ffH
	DB	00H
	DB	0ffH
	DB	0ffH
	DB	0ffH
	DB	00H
	DB	0ffH
	DB	0ffH
	DB	0ffH
	DB	00H
	DB	0ffH
	DB	0ffH
	DB	0ffH
	DB	00H
	DB	0ffH
	DB	0ffH
	DB	0ffH
	DB	00H
	DB	0ffH
	DB	0ffH
	DB	0ffH
	DB	00H
	DB	0ffH
	DB	0ffH
	DB	0ffH
	DB	00H
	DB	0ffH
	DB	0ffH
	DB	0ffH
	DB	00H
	DB	0ffH
	DB	0ffH
	DB	0ffH
	DB	00H
	DB	0ffH
	DB	0ffH
	DB	0ffH
	DB	00H
	DB	0ffH
	DB	0ffH
	DB	0ffH
	DB	00H
	DB	00H
	DB	00H
	DB	00H
	DB	00H
	DB	00H
	DB	00H
	DB	00H
	DB	00H
	DB	00H
	DB	00H
	DB	00H
	DB	00H
	DB	00H
	DB	00H
	DB	00H
	DB	00H
	DB	00H
	DB	00H
	DB	00H
	DB	00H
	DB	00H
	DB	00H
	DB	00H
	DB	00H
	DB	00H
	DB	00H
	DB	00H
	DB	00H
	DB	00H
	DB	00H
	DB	00H
	DB	00H
	DB	00H
	DB	00H
	DB	00H
	DB	00H
	DB	00H
	DB	00H
	DB	00H
	DB	00H
	DB	00H
	DB	00H
	DB	00H
	DB	00H
	DB	00H
	DB	00H
	DB	00H
	DB	00H
	DB	00H
	DB	00H
	DB	00H
	DB	00H
	DB	00H
	DB	00H
	DB	00H
	DB	00H
	DB	00H
	DB	00H
	DB	00H
	DB	00H
	DB	00H
	DB	00H
	DB	00H
	DB	00H
	DB	0ffH
	DB	0ffH
	DB	0ffH
	DB	00H
	DB	0ffH
	DB	0ffH
	DB	0ffH
	DB	00H
	DB	0ffH
	DB	0ffH
	DB	0ffH
	DB	00H
	DB	0ffH
	DB	0ffH
	DB	0ffH
	DB	00H
	DB	0ffH
	DB	0ffH
	DB	0ffH
	DB	00H
	DB	0ffH
	DB	0ffH
	DB	0ffH
	DB	00H
	DB	0ffH
	DB	0ffH
	DB	0ffH
	DB	00H
	DB	0ffH
	DB	0ffH
	DB	0ffH
	DB	00H
	DB	0ffH
	DB	0ffH
	DB	0ffH
	DB	00H
	DB	0ffH
	DB	0ffH
	DB	0ffH
	DB	00H
	DB	0ffH
	DB	0ffH
	DB	0ffH
	DB	00H
	DB	0ffH
	DB	0ffH
	DB	0ffH
	DB	00H
	DB	0ffH
	DB	0ffH
	DB	0ffH
	DB	00H
	DB	0ffH
	DB	0ffH
	DB	0ffH
	DB	00H
	DB	0ffH
	DB	0ffH
	DB	0ffH
	DB	00H
	DB	0ffH
	DB	0ffH
	DB	0ffH
	DB	00H
	DB	0ffH
	DB	0ffH
	DB	0ffH
	DB	00H
	DB	0ffH
	DB	0ffH
	DB	0ffH
	DB	00H
	DB	0ffH
	DB	0ffH
	DB	0ffH
	DB	00H
	DB	0ffH
	DB	0ffH
	DB	0ffH
	DB	00H
	DB	0ffH
	DB	0ffH
	DB	0ffH
	DB	00H
	DB	0ffH
	DB	0ffH
	DB	0ffH
	DB	00H
	DB	0ffH
	DB	0ffH
	DB	0ffH
	DB	00H
	DB	0ffH
	DB	0ffH
	DB	0ffH
	DB	00H
	DB	0ffH
	DB	0ffH
	DB	0ffH
	DB	00H
	DB	0ffH
	DB	0ffH
	DB	0ffH
	DB	00H
	DB	0ffH
	DB	0ffH
	DB	0ffH
	DB	00H
	DB	0ffH
	DB	0ffH
	DB	0ffH
	DB	00H
	DB	0ffH
	DB	0ffH
	DB	0ffH
	DB	00H
	DB	0ffH
	DB	0ffH
	DB	0ffH
	DB	00H
	DB	0ffH
	DB	0ffH
	DB	0ffH
	DB	00H
	DB	0ffH
	DB	0ffH
	DB	0ffH
	DB	00H
	DB	0ffH
	DB	0ffH
	DB	0ffH
	DB	00H
	DB	0ffH
	DB	0ffH
	DB	0ffH
	DB	00H
	DB	0ffH
	DB	0ffH
	DB	0ffH
	DB	00H
	DB	0ffH
	DB	0ffH
	DB	0ffH
	DB	00H
	DB	0ffH
	DB	0ffH
	DB	0ffH
	DB	00H
	DB	0ffH
	DB	0ffH
	DB	0ffH
	DB	00H
	DB	0ffH
	DB	0ffH
	DB	0ffH
	DB	09H
	DB	0ffH
	DB	0ffH
	DB	0ffH
	DB	01aH
	DB	0ffH
	DB	0ffH
	DB	0ffH
	DB	029H
	DB	0ffH
	DB	0ffH
	DB	0ffH
	DB	038H
	DB	0ffH
	DB	0ffH
	DB	0ffH
	DB	045H
	DB	0ffH
	DB	0ffH
	DB	0ffH
	DB	04dH
	DB	0ffH
	DB	0ffH
	DB	0ffH
	DB	04dH
	DB	0ffH
	DB	0ffH
	DB	0ffH
	DB	04dH
	DB	0ffH
	DB	0ffH
	DB	0ffH
	DB	04dH
	DB	0ffH
	DB	0ffH
	DB	0ffH
	DB	04dH
	DB	0ffH
	DB	0ffH
	DB	0ffH
	DB	04dH
	DB	0ffH
	DB	0ffH
	DB	0ffH
	DB	04dH
	DB	0ffH
	DB	0ffH
	DB	0ffH
	DB	04dH
	DB	0ffH
	DB	0ffH
	DB	0ffH
	DB	04dH
	DB	0ffH
	DB	0ffH
	DB	0ffH
	DB	04dH
	DB	0ffH
	DB	0ffH
	DB	0ffH
	DB	04dH
	DB	0ffH
	DB	0ffH
	DB	0ffH
	DB	04dH
	DB	0ffH
	DB	0ffH
	DB	0ffH
	DB	04dH
	DB	0ffH
	DB	0ffH
	DB	0ffH
	DB	04dH
	DB	0ffH
	DB	0ffH
	DB	0ffH
	DB	04dH
	DB	0ffH
	DB	0ffH
	DB	0ffH
	DB	04dH
	DB	0ffH
	DB	0ffH
	DB	0ffH
	DB	04dH
	DB	0ffH
	DB	0ffH
	DB	0ffH
	DB	04dH
	DB	0ffH
	DB	0ffH
	DB	0ffH
	DB	04dH
	DB	0ffH
	DB	0ffH
	DB	0ffH
	DB	04dH
	DB	0ffH
	DB	0ffH
	DB	0ffH
	DB	04dH
	DB	0ffH
	DB	0ffH
	DB	0ffH
	DB	04dH
	DB	0ffH
	DB	0ffH
	DB	0ffH
	DB	04dH
	DB	0ffH
	DB	0ffH
	DB	0ffH
	DB	04dH
	DB	0ffH
	DB	0ffH
	DB	0ffH
	DB	04dH
	DB	0ffH
	DB	0ffH
	DB	0ffH
	DB	04dH
	DB	0ffH
	DB	0ffH
	DB	0ffH
	DB	045H
	DB	0ffH
	DB	0ffH
	DB	0ffH
	DB	038H
	DB	0ffH
	DB	0ffH
	DB	0ffH
	DB	028H
	DB	0ffH
	DB	0ffH
	DB	0ffH
	DB	018H
	DB	0ffH
	DB	0ffH
	DB	0ffH
	DB	08H
	DB	0ffH
	DB	0ffH
	DB	0ffH
	DB	00H
	DB	0ffH
	DB	0ffH
	DB	0ffH
	DB	00H
	DB	0ffH
	DB	0ffH
	DB	0ffH
	DB	00H
	DB	0ffH
	DB	0ffH
	DB	0ffH
	DB	00H
	DB	0ffH
	DB	0ffH
	DB	0ffH
	DB	00H
	DB	0ffH
	DB	0ffH
	DB	0ffH
	DB	00H
	DB	0ffH
	DB	0ffH
	DB	0ffH
	DB	00H
	DB	0ffH
	DB	0ffH
	DB	0ffH
	DB	00H
	DB	0ffH
	DB	0ffH
	DB	0ffH
	DB	00H
	DB	0ffH
	DB	0ffH
	DB	0ffH
	DB	00H
	DB	0ffH
	DB	0ffH
	DB	0ffH
	DB	00H
	DB	0ffH
	DB	0ffH
	DB	0ffH
	DB	00H
	DB	0ffH
	DB	0ffH
	DB	0ffH
	DB	00H
	DB	0ffH
	DB	0ffH
	DB	0ffH
	DB	00H
	DB	0ffH
	DB	0ffH
	DB	0ffH
	DB	00H
	DB	0ffH
	DB	0ffH
	DB	0ffH
	DB	00H
	DB	0ffH
	DB	0ffH
	DB	0ffH
	DB	00H
	DB	0ffH
	DB	0ffH
	DB	0ffH
	DB	00H
	DB	0ffH
	DB	0ffH
	DB	0ffH
	DB	00H
	DB	0ffH
	DB	0ffH
	DB	0ffH
	DB	00H
	DB	0ffH
	DB	0ffH
	DB	0ffH
	DB	00H
	DB	0ffH
	DB	0ffH
	DB	0ffH
	DB	00H
	DB	0ffH
	DB	0ffH
	DB	0ffH
	DB	00H
	DB	0ffH
	DB	0ffH
	DB	0ffH
	DB	00H
	DB	0ffH
	DB	0ffH
	DB	0ffH
	DB	00H
	DB	0ffH
	DB	0ffH
	DB	0ffH
	DB	00H
	DB	0ffH
	DB	0ffH
	DB	0ffH
	DB	00H
	DB	0ffH
	DB	0ffH
	DB	0ffH
	DB	00H
	DB	0ffH
	DB	0ffH
	DB	0ffH
	DB	00H
	DB	0ffH
	DB	0ffH
	DB	0ffH
	DB	00H
	DB	0ffH
	DB	0ffH
	DB	0ffH
	DB	00H
	DB	0ffH
	DB	0ffH
	DB	0ffH
	DB	00H
	DB	0ffH
	DB	0ffH
	DB	0ffH
	DB	00H
	DB	0ffH
	DB	0ffH
	DB	0ffH
	DB	00H
	DB	0ffH
	DB	0ffH
	DB	0ffH
	DB	00H
	DB	0ffH
	DB	0ffH
	DB	0ffH
	DB	00H
	DB	0ffH
	DB	0ffH
	DB	0ffH
	DB	00H
	DB	0ffH
	DB	0ffH
	DB	0ffH
	DB	00H
	DB	00H
	DB	00H
	DB	00H
	DB	00H
	DB	00H
	DB	00H
	DB	00H
	DB	00H
	DB	00H
	DB	00H
	DB	00H
	DB	00H
	DB	00H
	DB	00H
	DB	00H
	DB	00H
	DB	00H
	DB	00H
	DB	00H
	DB	00H
	DB	00H
	DB	00H
	DB	00H
	DB	00H
	DB	00H
	DB	00H
	DB	00H
	DB	00H
	DB	00H
	DB	00H
	DB	00H
	DB	00H
	DB	00H
	DB	00H
	DB	00H
	DB	00H
	DB	00H
	DB	00H
	DB	00H
	DB	00H
	DB	00H
	DB	00H
	DB	00H
	DB	00H
	DB	00H
	DB	00H
	DB	00H
	DB	00H
	DB	00H
	DB	00H
	DB	00H
	DB	00H
	DB	00H
	DB	00H
	DB	00H
	DB	00H
	DB	00H
	DB	00H
	DB	00H
	DB	00H
	DB	00H
	DB	00H
	DB	00H
	DB	00H
	DB	0ffH
	DB	0ffH
	DB	0ffH
	DB	00H
	DB	0ffH
	DB	0ffH
	DB	0ffH
	DB	00H
	DB	0ffH
	DB	0ffH
	DB	0ffH
	DB	00H
	DB	0ffH
	DB	0ffH
	DB	0ffH
	DB	00H
	DB	0ffH
	DB	0ffH
	DB	0ffH
	DB	00H
	DB	0ffH
	DB	0ffH
	DB	0ffH
	DB	00H
	DB	0ffH
	DB	0ffH
	DB	0ffH
	DB	00H
	DB	0ffH
	DB	0ffH
	DB	0ffH
	DB	00H
	DB	0ffH
	DB	0ffH
	DB	0ffH
	DB	00H
	DB	0ffH
	DB	0ffH
	DB	0ffH
	DB	00H
	DB	0ffH
	DB	0ffH
	DB	0ffH
	DB	00H
	DB	0ffH
	DB	0ffH
	DB	0ffH
	DB	00H
	DB	0ffH
	DB	0ffH
	DB	0ffH
	DB	00H
	DB	0ffH
	DB	0ffH
	DB	0ffH
	DB	00H
	DB	0ffH
	DB	0ffH
	DB	0ffH
	DB	00H
	DB	0ffH
	DB	0ffH
	DB	0ffH
	DB	00H
	DB	0ffH
	DB	0ffH
	DB	0ffH
	DB	00H
	DB	0ffH
	DB	0ffH
	DB	0ffH
	DB	00H
	DB	0ffH
	DB	0ffH
	DB	0ffH
	DB	00H
	DB	0ffH
	DB	0ffH
	DB	0ffH
	DB	00H
	DB	0ffH
	DB	0ffH
	DB	0ffH
	DB	00H
	DB	0ffH
	DB	0ffH
	DB	0ffH
	DB	00H
	DB	0ffH
	DB	0ffH
	DB	0ffH
	DB	00H
	DB	0ffH
	DB	0ffH
	DB	0ffH
	DB	00H
	DB	0ffH
	DB	0ffH
	DB	0ffH
	DB	00H
	DB	0ffH
	DB	0ffH
	DB	0ffH
	DB	00H
	DB	0ffH
	DB	0ffH
	DB	0ffH
	DB	00H
	DB	0ffH
	DB	0ffH
	DB	0ffH
	DB	00H
	DB	0ffH
	DB	0ffH
	DB	0ffH
	DB	00H
	DB	0ffH
	DB	0ffH
	DB	0ffH
	DB	00H
	DB	0ffH
	DB	0ffH
	DB	0ffH
	DB	00H
	DB	0ffH
	DB	0ffH
	DB	0ffH
	DB	00H
	DB	0ffH
	DB	0ffH
	DB	0ffH
	DB	00H
	DB	0ffH
	DB	0ffH
	DB	0ffH
	DB	00H
	DB	0ffH
	DB	0ffH
	DB	0ffH
	DB	08H
	DB	0ffH
	DB	0ffH
	DB	0ffH
	DB	01cH
	DB	0ffH
	DB	0ffH
	DB	0ffH
	DB	030H
	DB	0ffH
	DB	0ffH
	DB	0ffH
	DB	044H
	DB	0ffH
	DB	0ffH
	DB	0ffH
	DB	04dH
	DB	0ffH
	DB	0ffH
	DB	0ffH
	DB	04dH
	DB	0ffH
	DB	0ffH
	DB	0ffH
	DB	04dH
	DB	0ffH
	DB	0ffH
	DB	0ffH
	DB	04dH
	DB	0ffH
	DB	0ffH
	DB	0ffH
	DB	04dH
	DB	0ffH
	DB	0ffH
	DB	0ffH
	DB	04dH
	DB	0ffH
	DB	0ffH
	DB	0ffH
	DB	04dH
	DB	0ffH
	DB	0ffH
	DB	0ffH
	DB	04dH
	DB	0ffH
	DB	0ffH
	DB	0ffH
	DB	04dH
	DB	0ffH
	DB	0ffH
	DB	0ffH
	DB	04dH
	DB	0ffH
	DB	0ffH
	DB	0ffH
	DB	04dH
	DB	0ffH
	DB	0ffH
	DB	0ffH
	DB	04dH
	DB	0ffH
	DB	0ffH
	DB	0ffH
	DB	04dH
	DB	0ffH
	DB	0ffH
	DB	0ffH
	DB	04dH
	DB	0ffH
	DB	0ffH
	DB	0ffH
	DB	04dH
	DB	0ffH
	DB	0ffH
	DB	0ffH
	DB	04dH
	DB	0ffH
	DB	0ffH
	DB	0ffH
	DB	04dH
	DB	0ffH
	DB	0ffH
	DB	0ffH
	DB	04dH
	DB	0ffH
	DB	0ffH
	DB	0ffH
	DB	04dH
	DB	0ffH
	DB	0ffH
	DB	0ffH
	DB	04dH
	DB	0ffH
	DB	0ffH
	DB	0ffH
	DB	04dH
	DB	0ffH
	DB	0ffH
	DB	0ffH
	DB	04dH
	DB	0ffH
	DB	0ffH
	DB	0ffH
	DB	04dH
	DB	0ffH
	DB	0ffH
	DB	0ffH
	DB	04dH
	DB	0ffH
	DB	0ffH
	DB	0ffH
	DB	04dH
	DB	0ffH
	DB	0ffH
	DB	0ffH
	DB	04dH
	DB	0ffH
	DB	0ffH
	DB	0ffH
	DB	04dH
	DB	0ffH
	DB	0ffH
	DB	0ffH
	DB	04dH
	DB	0ffH
	DB	0ffH
	DB	0ffH
	DB	04dH
	DB	0ffH
	DB	0ffH
	DB	0ffH
	DB	04dH
	DB	0ffH
	DB	0ffH
	DB	0ffH
	DB	04dH
	DB	0ffH
	DB	0ffH
	DB	0ffH
	DB	04dH
	DB	0ffH
	DB	0ffH
	DB	0ffH
	DB	04dH
	DB	0ffH
	DB	0ffH
	DB	0ffH
	DB	04dH
	DB	0ffH
	DB	0ffH
	DB	0ffH
	DB	04dH
	DB	0ffH
	DB	0ffH
	DB	0ffH
	DB	04dH
	DB	0ffH
	DB	0ffH
	DB	0ffH
	DB	043H
	DB	0ffH
	DB	0ffH
	DB	0ffH
	DB	02fH
	DB	0ffH
	DB	0ffH
	DB	0ffH
	DB	01bH
	DB	0ffH
	DB	0ffH
	DB	0ffH
	DB	07H
	DB	0ffH
	DB	0ffH
	DB	0ffH
	DB	00H
	DB	0ffH
	DB	0ffH
	DB	0ffH
	DB	00H
	DB	0ffH
	DB	0ffH
	DB	0ffH
	DB	00H
	DB	0ffH
	DB	0ffH
	DB	0ffH
	DB	00H
	DB	0ffH
	DB	0ffH
	DB	0ffH
	DB	00H
	DB	0ffH
	DB	0ffH
	DB	0ffH
	DB	00H
	DB	0ffH
	DB	0ffH
	DB	0ffH
	DB	00H
	DB	0ffH
	DB	0ffH
	DB	0ffH
	DB	00H
	DB	0ffH
	DB	0ffH
	DB	0ffH
	DB	00H
	DB	0ffH
	DB	0ffH
	DB	0ffH
	DB	00H
	DB	0ffH
	DB	0ffH
	DB	0ffH
	DB	00H
	DB	0ffH
	DB	0ffH
	DB	0ffH
	DB	00H
	DB	0ffH
	DB	0ffH
	DB	0ffH
	DB	00H
	DB	0ffH
	DB	0ffH
	DB	0ffH
	DB	00H
	DB	0ffH
	DB	0ffH
	DB	0ffH
	DB	00H
	DB	0ffH
	DB	0ffH
	DB	0ffH
	DB	00H
	DB	0ffH
	DB	0ffH
	DB	0ffH
	DB	00H
	DB	0ffH
	DB	0ffH
	DB	0ffH
	DB	00H
	DB	0ffH
	DB	0ffH
	DB	0ffH
	DB	00H
	DB	0ffH
	DB	0ffH
	DB	0ffH
	DB	00H
	DB	0ffH
	DB	0ffH
	DB	0ffH
	DB	00H
	DB	0ffH
	DB	0ffH
	DB	0ffH
	DB	00H
	DB	0ffH
	DB	0ffH
	DB	0ffH
	DB	00H
	DB	0ffH
	DB	0ffH
	DB	0ffH
	DB	00H
	DB	0ffH
	DB	0ffH
	DB	0ffH
	DB	00H
	DB	0ffH
	DB	0ffH
	DB	0ffH
	DB	00H
	DB	0ffH
	DB	0ffH
	DB	0ffH
	DB	00H
	DB	0ffH
	DB	0ffH
	DB	0ffH
	DB	00H
	DB	0ffH
	DB	0ffH
	DB	0ffH
	DB	00H
	DB	0ffH
	DB	0ffH
	DB	0ffH
	DB	00H
	DB	0ffH
	DB	0ffH
	DB	0ffH
	DB	00H
	DB	0ffH
	DB	0ffH
	DB	0ffH
	DB	00H
	DB	0ffH
	DB	0ffH
	DB	0ffH
	DB	00H
	DB	0ffH
	DB	0ffH
	DB	0ffH
	DB	00H
	DB	00H
	DB	00H
	DB	00H
	DB	00H
	DB	00H
	DB	00H
	DB	00H
	DB	00H
	DB	00H
	DB	00H
	DB	00H
	DB	00H
	DB	00H
	DB	00H
	DB	00H
	DB	00H
	DB	00H
	DB	00H
	DB	00H
	DB	00H
	DB	00H
	DB	00H
	DB	00H
	DB	00H
	DB	00H
	DB	00H
	DB	00H
	DB	00H
	DB	00H
	DB	00H
	DB	00H
	DB	00H
	DB	00H
	DB	00H
	DB	00H
	DB	00H
	DB	00H
	DB	00H
	DB	00H
	DB	00H
	DB	00H
	DB	00H
	DB	00H
	DB	00H
	DB	00H
	DB	00H
	DB	00H
	DB	00H
	DB	00H
	DB	00H
	DB	00H
	DB	00H
	DB	00H
	DB	00H
	DB	00H
	DB	00H
	DB	00H
	DB	00H
	DB	00H
	DB	00H
	DB	00H
	DB	00H
	DB	00H
	DB	00H
	DB	0ffH
	DB	0ffH
	DB	0ffH
	DB	00H
	DB	0ffH
	DB	0ffH
	DB	0ffH
	DB	00H
	DB	0ffH
	DB	0ffH
	DB	0ffH
	DB	00H
	DB	0ffH
	DB	0ffH
	DB	0ffH
	DB	00H
	DB	0ffH
	DB	0ffH
	DB	0ffH
	DB	00H
	DB	0ffH
	DB	0ffH
	DB	0ffH
	DB	00H
	DB	0ffH
	DB	0ffH
	DB	0ffH
	DB	00H
	DB	0ffH
	DB	0ffH
	DB	0ffH
	DB	00H
	DB	0ffH
	DB	0ffH
	DB	0ffH
	DB	00H
	DB	0ffH
	DB	0ffH
	DB	0ffH
	DB	00H
	DB	0ffH
	DB	0ffH
	DB	0ffH
	DB	00H
	DB	0ffH
	DB	0ffH
	DB	0ffH
	DB	00H
	DB	0ffH
	DB	0ffH
	DB	0ffH
	DB	00H
	DB	0ffH
	DB	0ffH
	DB	0ffH
	DB	00H
	DB	0ffH
	DB	0ffH
	DB	0ffH
	DB	00H
	DB	0ffH
	DB	0ffH
	DB	0ffH
	DB	00H
	DB	0ffH
	DB	0ffH
	DB	0ffH
	DB	00H
	DB	0ffH
	DB	0ffH
	DB	0ffH
	DB	00H
	DB	0ffH
	DB	0ffH
	DB	0ffH
	DB	00H
	DB	0ffH
	DB	0ffH
	DB	0ffH
	DB	00H
	DB	0ffH
	DB	0ffH
	DB	0ffH
	DB	00H
	DB	0ffH
	DB	0ffH
	DB	0ffH
	DB	00H
	DB	0ffH
	DB	0ffH
	DB	0ffH
	DB	00H
	DB	0ffH
	DB	0ffH
	DB	0ffH
	DB	00H
	DB	0ffH
	DB	0ffH
	DB	0ffH
	DB	00H
	DB	0ffH
	DB	0ffH
	DB	0ffH
	DB	00H
	DB	0ffH
	DB	0ffH
	DB	0ffH
	DB	00H
	DB	0ffH
	DB	0ffH
	DB	0ffH
	DB	00H
	DB	0ffH
	DB	0ffH
	DB	0ffH
	DB	00H
	DB	0ffH
	DB	0ffH
	DB	0ffH
	DB	00H
	DB	0ffH
	DB	0ffH
	DB	0ffH
	DB	00H
	DB	0ffH
	DB	0ffH
	DB	0ffH
	DB	0eH
	DB	0ffH
	DB	0ffH
	DB	0ffH
	DB	026H
	DB	0ffH
	DB	0ffH
	DB	0ffH
	DB	03eH
	DB	0ffH
	DB	0ffH
	DB	0ffH
	DB	04dH
	DB	0ffH
	DB	0ffH
	DB	0ffH
	DB	04dH
	DB	0ffH
	DB	0ffH
	DB	0ffH
	DB	04dH
	DB	0ffH
	DB	0ffH
	DB	0ffH
	DB	04dH
	DB	0ffH
	DB	0ffH
	DB	0ffH
	DB	04dH
	DB	0ffH
	DB	0ffH
	DB	0ffH
	DB	04dH
	DB	0ffH
	DB	0ffH
	DB	0ffH
	DB	04dH
	DB	0ffH
	DB	0ffH
	DB	0ffH
	DB	04dH
	DB	0ffH
	DB	0ffH
	DB	0ffH
	DB	04dH
	DB	0ffH
	DB	0ffH
	DB	0ffH
	DB	04dH
	DB	0ffH
	DB	0ffH
	DB	0ffH
	DB	04dH
	DB	0ffH
	DB	0ffH
	DB	0ffH
	DB	04dH
	DB	0ffH
	DB	0ffH
	DB	0ffH
	DB	04dH
	DB	0ffH
	DB	0ffH
	DB	0ffH
	DB	04dH
	DB	0ffH
	DB	0ffH
	DB	0ffH
	DB	04dH
	DB	0ffH
	DB	0ffH
	DB	0ffH
	DB	04dH
	DB	0ffH
	DB	0ffH
	DB	0ffH
	DB	04dH
	DB	0ffH
	DB	0ffH
	DB	0ffH
	DB	04dH
	DB	0ffH
	DB	0ffH
	DB	0ffH
	DB	04dH
	DB	0ffH
	DB	0ffH
	DB	0ffH
	DB	04dH
	DB	0ffH
	DB	0ffH
	DB	0ffH
	DB	04dH
	DB	0ffH
	DB	0ffH
	DB	0ffH
	DB	04dH
	DB	0ffH
	DB	0ffH
	DB	0ffH
	DB	04dH
	DB	0ffH
	DB	0ffH
	DB	0ffH
	DB	04dH
	DB	0ffH
	DB	0ffH
	DB	0ffH
	DB	04dH
	DB	0ffH
	DB	0ffH
	DB	0ffH
	DB	04dH
	DB	0ffH
	DB	0ffH
	DB	0ffH
	DB	04dH
	DB	0ffH
	DB	0ffH
	DB	0ffH
	DB	04dH
	DB	0ffH
	DB	0ffH
	DB	0ffH
	DB	04dH
	DB	0ffH
	DB	0ffH
	DB	0ffH
	DB	04dH
	DB	0ffH
	DB	0ffH
	DB	0ffH
	DB	04dH
	DB	0ffH
	DB	0ffH
	DB	0ffH
	DB	04dH
	DB	0ffH
	DB	0ffH
	DB	0ffH
	DB	04dH
	DB	0ffH
	DB	0ffH
	DB	0ffH
	DB	04dH
	DB	0ffH
	DB	0ffH
	DB	0ffH
	DB	04dH
	DB	0ffH
	DB	0ffH
	DB	0ffH
	DB	04dH
	DB	0ffH
	DB	0ffH
	DB	0ffH
	DB	04dH
	DB	0ffH
	DB	0ffH
	DB	0ffH
	DB	04dH
	DB	0ffH
	DB	0ffH
	DB	0ffH
	DB	04dH
	DB	0ffH
	DB	0ffH
	DB	0ffH
	DB	04dH
	DB	0ffH
	DB	0ffH
	DB	0ffH
	DB	04dH
	DB	0ffH
	DB	0ffH
	DB	0ffH
	DB	04dH
	DB	0ffH
	DB	0ffH
	DB	0ffH
	DB	04dH
	DB	0ffH
	DB	0ffH
	DB	0ffH
	DB	04dH
	DB	0ffH
	DB	0ffH
	DB	0ffH
	DB	03eH
	DB	0ffH
	DB	0ffH
	DB	0ffH
	DB	026H
	DB	0ffH
	DB	0ffH
	DB	0ffH
	DB	0eH
	DB	0ffH
	DB	0ffH
	DB	0ffH
	DB	00H
	DB	0ffH
	DB	0ffH
	DB	0ffH
	DB	00H
	DB	0ffH
	DB	0ffH
	DB	0ffH
	DB	00H
	DB	0ffH
	DB	0ffH
	DB	0ffH
	DB	00H
	DB	0ffH
	DB	0ffH
	DB	0ffH
	DB	00H
	DB	0ffH
	DB	0ffH
	DB	0ffH
	DB	00H
	DB	0ffH
	DB	0ffH
	DB	0ffH
	DB	00H
	DB	0ffH
	DB	0ffH
	DB	0ffH
	DB	00H
	DB	0ffH
	DB	0ffH
	DB	0ffH
	DB	00H
	DB	0ffH
	DB	0ffH
	DB	0ffH
	DB	00H
	DB	0ffH
	DB	0ffH
	DB	0ffH
	DB	00H
	DB	0ffH
	DB	0ffH
	DB	0ffH
	DB	00H
	DB	0ffH
	DB	0ffH
	DB	0ffH
	DB	00H
	DB	0ffH
	DB	0ffH
	DB	0ffH
	DB	00H
	DB	0ffH
	DB	0ffH
	DB	0ffH
	DB	00H
	DB	0ffH
	DB	0ffH
	DB	0ffH
	DB	00H
	DB	0ffH
	DB	0ffH
	DB	0ffH
	DB	00H
	DB	0ffH
	DB	0ffH
	DB	0ffH
	DB	00H
	DB	0ffH
	DB	0ffH
	DB	0ffH
	DB	00H
	DB	0ffH
	DB	0ffH
	DB	0ffH
	DB	00H
	DB	0ffH
	DB	0ffH
	DB	0ffH
	DB	00H
	DB	0ffH
	DB	0ffH
	DB	0ffH
	DB	00H
	DB	0ffH
	DB	0ffH
	DB	0ffH
	DB	00H
	DB	0ffH
	DB	0ffH
	DB	0ffH
	DB	00H
	DB	0ffH
	DB	0ffH
	DB	0ffH
	DB	00H
	DB	0ffH
	DB	0ffH
	DB	0ffH
	DB	00H
	DB	0ffH
	DB	0ffH
	DB	0ffH
	DB	00H
	DB	0ffH
	DB	0ffH
	DB	0ffH
	DB	00H
	DB	0ffH
	DB	0ffH
	DB	0ffH
	DB	00H
	DB	0ffH
	DB	0ffH
	DB	0ffH
	DB	00H
	DB	0ffH
	DB	0ffH
	DB	0ffH
	DB	00H
	DB	00H
	DB	00H
	DB	00H
	DB	00H
	DB	00H
	DB	00H
	DB	00H
	DB	00H
	DB	00H
	DB	00H
	DB	00H
	DB	00H
	DB	00H
	DB	00H
	DB	00H
	DB	00H
	DB	00H
	DB	00H
	DB	00H
	DB	00H
	DB	00H
	DB	00H
	DB	00H
	DB	00H
	DB	00H
	DB	00H
	DB	00H
	DB	00H
	DB	00H
	DB	00H
	DB	00H
	DB	00H
	DB	00H
	DB	00H
	DB	00H
	DB	00H
	DB	00H
	DB	00H
	DB	00H
	DB	00H
	DB	00H
	DB	00H
	DB	00H
	DB	00H
	DB	00H
	DB	00H
	DB	00H
	DB	00H
	DB	00H
	DB	00H
	DB	00H
	DB	00H
	DB	00H
	DB	00H
	DB	00H
	DB	00H
	DB	00H
	DB	00H
	DB	00H
	DB	00H
	DB	00H
	DB	00H
	DB	00H
	DB	00H
	DB	0ffH
	DB	0ffH
	DB	0ffH
	DB	00H
	DB	0ffH
	DB	0ffH
	DB	0ffH
	DB	00H
	DB	0ffH
	DB	0ffH
	DB	0ffH
	DB	00H
	DB	0ffH
	DB	0ffH
	DB	0ffH
	DB	00H
	DB	0ffH
	DB	0ffH
	DB	0ffH
	DB	00H
	DB	0ffH
	DB	0ffH
	DB	0ffH
	DB	00H
	DB	0ffH
	DB	0ffH
	DB	0ffH
	DB	00H
	DB	0ffH
	DB	0ffH
	DB	0ffH
	DB	00H
	DB	0ffH
	DB	0ffH
	DB	0ffH
	DB	00H
	DB	0ffH
	DB	0ffH
	DB	0ffH
	DB	00H
	DB	0ffH
	DB	0ffH
	DB	0ffH
	DB	00H
	DB	0ffH
	DB	0ffH
	DB	0ffH
	DB	00H
	DB	0ffH
	DB	0ffH
	DB	0ffH
	DB	00H
	DB	0ffH
	DB	0ffH
	DB	0ffH
	DB	00H
	DB	0ffH
	DB	0ffH
	DB	0ffH
	DB	00H
	DB	0ffH
	DB	0ffH
	DB	0ffH
	DB	00H
	DB	0ffH
	DB	0ffH
	DB	0ffH
	DB	00H
	DB	0ffH
	DB	0ffH
	DB	0ffH
	DB	00H
	DB	0ffH
	DB	0ffH
	DB	0ffH
	DB	00H
	DB	0ffH
	DB	0ffH
	DB	0ffH
	DB	00H
	DB	0ffH
	DB	0ffH
	DB	0ffH
	DB	00H
	DB	0ffH
	DB	0ffH
	DB	0ffH
	DB	00H
	DB	0ffH
	DB	0ffH
	DB	0ffH
	DB	00H
	DB	0ffH
	DB	0ffH
	DB	0ffH
	DB	00H
	DB	0ffH
	DB	0ffH
	DB	0ffH
	DB	00H
	DB	0ffH
	DB	0ffH
	DB	0ffH
	DB	00H
	DB	0ffH
	DB	0ffH
	DB	0ffH
	DB	00H
	DB	0ffH
	DB	0ffH
	DB	0ffH
	DB	00H
	DB	0ffH
	DB	0ffH
	DB	0ffH
	DB	0bH
	DB	0ffH
	DB	0ffH
	DB	0ffH
	DB	027H
	DB	0ffH
	DB	0ffH
	DB	0ffH
	DB	042H
	DB	0ffH
	DB	0ffH
	DB	0ffH
	DB	04dH
	DB	0ffH
	DB	0ffH
	DB	0ffH
	DB	04dH
	DB	0ffH
	DB	0ffH
	DB	0ffH
	DB	04dH
	DB	0ffH
	DB	0ffH
	DB	0ffH
	DB	04dH
	DB	0ffH
	DB	0ffH
	DB	0ffH
	DB	04dH
	DB	0ffH
	DB	0ffH
	DB	0ffH
	DB	04dH
	DB	0ffH
	DB	0ffH
	DB	0ffH
	DB	04dH
	DB	0ffH
	DB	0ffH
	DB	0ffH
	DB	04dH
	DB	0ffH
	DB	0ffH
	DB	0ffH
	DB	04dH
	DB	0ffH
	DB	0ffH
	DB	0ffH
	DB	04dH
	DB	0ffH
	DB	0ffH
	DB	0ffH
	DB	04dH
	DB	0ffH
	DB	0ffH
	DB	0ffH
	DB	04dH
	DB	0ffH
	DB	0ffH
	DB	0ffH
	DB	04dH
	DB	0ffH
	DB	0ffH
	DB	0ffH
	DB	04dH
	DB	0ffH
	DB	0ffH
	DB	0ffH
	DB	04dH
	DB	0ffH
	DB	0ffH
	DB	0ffH
	DB	04dH
	DB	0ffH
	DB	0ffH
	DB	0ffH
	DB	04dH
	DB	0ffH
	DB	0ffH
	DB	0ffH
	DB	04dH
	DB	0ffH
	DB	0ffH
	DB	0ffH
	DB	04dH
	DB	0ffH
	DB	0ffH
	DB	0ffH
	DB	04dH
	DB	0ffH
	DB	0ffH
	DB	0ffH
	DB	04dH
	DB	0ffH
	DB	0ffH
	DB	0ffH
	DB	04dH
	DB	0ffH
	DB	0ffH
	DB	0ffH
	DB	04dH
	DB	0ffH
	DB	0ffH
	DB	0ffH
	DB	04dH
	DB	0ffH
	DB	0ffH
	DB	0ffH
	DB	04dH
	DB	0ffH
	DB	0ffH
	DB	0ffH
	DB	04dH
	DB	0ffH
	DB	0ffH
	DB	0ffH
	DB	04dH
	DB	0ffH
	DB	0ffH
	DB	0ffH
	DB	04dH
	DB	0ffH
	DB	0ffH
	DB	0ffH
	DB	04dH
	DB	0ffH
	DB	0ffH
	DB	0ffH
	DB	04dH
	DB	0ffH
	DB	0ffH
	DB	0ffH
	DB	04dH
	DB	0ffH
	DB	0ffH
	DB	0ffH
	DB	04dH
	DB	0ffH
	DB	0ffH
	DB	0ffH
	DB	04dH
	DB	0ffH
	DB	0ffH
	DB	0ffH
	DB	04dH
	DB	0ffH
	DB	0ffH
	DB	0ffH
	DB	04dH
	DB	0ffH
	DB	0ffH
	DB	0ffH
	DB	04dH
	DB	0ffH
	DB	0ffH
	DB	0ffH
	DB	04dH
	DB	0ffH
	DB	0ffH
	DB	0ffH
	DB	04dH
	DB	0ffH
	DB	0ffH
	DB	0ffH
	DB	04dH
	DB	0ffH
	DB	0ffH
	DB	0ffH
	DB	04dH
	DB	0ffH
	DB	0ffH
	DB	0ffH
	DB	04dH
	DB	0ffH
	DB	0ffH
	DB	0ffH
	DB	04dH
	DB	0ffH
	DB	0ffH
	DB	0ffH
	DB	04dH
	DB	0ffH
	DB	0ffH
	DB	0ffH
	DB	04dH
	DB	0ffH
	DB	0ffH
	DB	0ffH
	DB	04dH
	DB	0ffH
	DB	0ffH
	DB	0ffH
	DB	04dH
	DB	0ffH
	DB	0ffH
	DB	0ffH
	DB	04dH
	DB	0ffH
	DB	0ffH
	DB	0ffH
	DB	04dH
	DB	0ffH
	DB	0ffH
	DB	0ffH
	DB	04dH
	DB	0ffH
	DB	0ffH
	DB	0ffH
	DB	04dH
	DB	0ffH
	DB	0ffH
	DB	0ffH
	DB	042H
	DB	0ffH
	DB	0ffH
	DB	0ffH
	DB	026H
	DB	0ffH
	DB	0ffH
	DB	0ffH
	DB	0bH
	DB	0ffH
	DB	0ffH
	DB	0ffH
	DB	00H
	DB	0ffH
	DB	0ffH
	DB	0ffH
	DB	00H
	DB	0ffH
	DB	0ffH
	DB	0ffH
	DB	00H
	DB	0ffH
	DB	0ffH
	DB	0ffH
	DB	00H
	DB	0ffH
	DB	0ffH
	DB	0ffH
	DB	00H
	DB	0ffH
	DB	0ffH
	DB	0ffH
	DB	00H
	DB	0ffH
	DB	0ffH
	DB	0ffH
	DB	00H
	DB	0ffH
	DB	0ffH
	DB	0ffH
	DB	00H
	DB	0ffH
	DB	0ffH
	DB	0ffH
	DB	00H
	DB	0ffH
	DB	0ffH
	DB	0ffH
	DB	00H
	DB	0ffH
	DB	0ffH
	DB	0ffH
	DB	00H
	DB	0ffH
	DB	0ffH
	DB	0ffH
	DB	00H
	DB	0ffH
	DB	0ffH
	DB	0ffH
	DB	00H
	DB	0ffH
	DB	0ffH
	DB	0ffH
	DB	00H
	DB	0ffH
	DB	0ffH
	DB	0ffH
	DB	00H
	DB	0ffH
	DB	0ffH
	DB	0ffH
	DB	00H
	DB	0ffH
	DB	0ffH
	DB	0ffH
	DB	00H
	DB	0ffH
	DB	0ffH
	DB	0ffH
	DB	00H
	DB	0ffH
	DB	0ffH
	DB	0ffH
	DB	00H
	DB	0ffH
	DB	0ffH
	DB	0ffH
	DB	00H
	DB	0ffH
	DB	0ffH
	DB	0ffH
	DB	00H
	DB	0ffH
	DB	0ffH
	DB	0ffH
	DB	00H
	DB	0ffH
	DB	0ffH
	DB	0ffH
	DB	00H
	DB	0ffH
	DB	0ffH
	DB	0ffH
	DB	00H
	DB	0ffH
	DB	0ffH
	DB	0ffH
	DB	00H
	DB	0ffH
	DB	0ffH
	DB	0ffH
	DB	00H
	DB	0ffH
	DB	0ffH
	DB	0ffH
	DB	00H
	DB	0ffH
	DB	0ffH
	DB	0ffH
	DB	00H
	DB	00H
	DB	00H
	DB	00H
	DB	00H
	DB	00H
	DB	00H
	DB	00H
	DB	00H
	DB	00H
	DB	00H
	DB	00H
	DB	00H
	DB	00H
	DB	00H
	DB	00H
	DB	00H
	DB	00H
	DB	00H
	DB	00H
	DB	00H
	DB	00H
	DB	00H
	DB	00H
	DB	00H
	DB	00H
	DB	00H
	DB	00H
	DB	00H
	DB	00H
	DB	00H
	DB	00H
	DB	00H
	DB	00H
	DB	00H
	DB	00H
	DB	00H
	DB	00H
	DB	00H
	DB	00H
	DB	00H
	DB	00H
	DB	00H
	DB	00H
	DB	00H
	DB	00H
	DB	00H
	DB	00H
	DB	00H
	DB	00H
	DB	00H
	DB	00H
	DB	00H
	DB	00H
	DB	00H
	DB	00H
	DB	00H
	DB	00H
	DB	00H
	DB	00H
	DB	00H
	DB	00H
	DB	00H
	DB	00H
	DB	00H
	DB	0ffH
	DB	0ffH
	DB	0ffH
	DB	00H
	DB	0ffH
	DB	0ffH
	DB	0ffH
	DB	00H
	DB	0ffH
	DB	0ffH
	DB	0ffH
	DB	00H
	DB	0ffH
	DB	0ffH
	DB	0ffH
	DB	00H
	DB	0ffH
	DB	0ffH
	DB	0ffH
	DB	00H
	DB	0ffH
	DB	0ffH
	DB	0ffH
	DB	00H
	DB	0ffH
	DB	0ffH
	DB	0ffH
	DB	00H
	DB	0ffH
	DB	0ffH
	DB	0ffH
	DB	00H
	DB	0ffH
	DB	0ffH
	DB	0ffH
	DB	00H
	DB	0ffH
	DB	0ffH
	DB	0ffH
	DB	00H
	DB	0ffH
	DB	0ffH
	DB	0ffH
	DB	00H
	DB	0ffH
	DB	0ffH
	DB	0ffH
	DB	00H
	DB	0ffH
	DB	0ffH
	DB	0ffH
	DB	00H
	DB	0ffH
	DB	0ffH
	DB	0ffH
	DB	00H
	DB	0ffH
	DB	0ffH
	DB	0ffH
	DB	00H
	DB	0ffH
	DB	0ffH
	DB	0ffH
	DB	00H
	DB	0ffH
	DB	0ffH
	DB	0ffH
	DB	00H
	DB	0ffH
	DB	0ffH
	DB	0ffH
	DB	00H
	DB	0ffH
	DB	0ffH
	DB	0ffH
	DB	00H
	DB	0ffH
	DB	0ffH
	DB	0ffH
	DB	00H
	DB	0ffH
	DB	0ffH
	DB	0ffH
	DB	00H
	DB	0ffH
	DB	0ffH
	DB	0ffH
	DB	00H
	DB	0ffH
	DB	0ffH
	DB	0ffH
	DB	00H
	DB	0ffH
	DB	0ffH
	DB	0ffH
	DB	00H
	DB	0ffH
	DB	0ffH
	DB	0ffH
	DB	00H
	DB	0ffH
	DB	0ffH
	DB	0ffH
	DB	02H
	DB	0ffH
	DB	0ffH
	DB	0ffH
	DB	01dH
	DB	0ffH
	DB	0ffH
	DB	0ffH
	DB	03cH
	DB	0ffH
	DB	0ffH
	DB	0ffH
	DB	04dH
	DB	0ffH
	DB	0ffH
	DB	0ffH
	DB	04dH
	DB	0ffH
	DB	0ffH
	DB	0ffH
	DB	04dH
	DB	0ffH
	DB	0ffH
	DB	0ffH
	DB	04dH
	DB	0ffH
	DB	0ffH
	DB	0ffH
	DB	04dH
	DB	0ffH
	DB	0ffH
	DB	0ffH
	DB	04dH
	DB	0ffH
	DB	0ffH
	DB	0ffH
	DB	04dH
	DB	0ffH
	DB	0ffH
	DB	0ffH
	DB	04dH
	DB	0ffH
	DB	0ffH
	DB	0ffH
	DB	04dH
	DB	0ffH
	DB	0ffH
	DB	0ffH
	DB	04dH
	DB	0ffH
	DB	0ffH
	DB	0ffH
	DB	04dH
	DB	0ffH
	DB	0ffH
	DB	0ffH
	DB	04dH
	DB	0ffH
	DB	0ffH
	DB	0ffH
	DB	04dH
	DB	0ffH
	DB	0ffH
	DB	0ffH
	DB	04dH
	DB	0ffH
	DB	0ffH
	DB	0ffH
	DB	04dH
	DB	0ffH
	DB	0ffH
	DB	0ffH
	DB	04dH
	DB	0ffH
	DB	0ffH
	DB	0ffH
	DB	04dH
	DB	0ffH
	DB	0ffH
	DB	0ffH
	DB	04dH
	DB	0ffH
	DB	0ffH
	DB	0ffH
	DB	04dH
	DB	0ffH
	DB	0ffH
	DB	0ffH
	DB	04dH
	DB	0ffH
	DB	0ffH
	DB	0ffH
	DB	04dH
	DB	0ffH
	DB	0ffH
	DB	0ffH
	DB	04dH
	DB	0ffH
	DB	0ffH
	DB	0ffH
	DB	04dH
	DB	0ffH
	DB	0ffH
	DB	0ffH
	DB	04dH
	DB	0ffH
	DB	0ffH
	DB	0ffH
	DB	04dH
	DB	0ffH
	DB	0ffH
	DB	0ffH
	DB	04dH
	DB	0ffH
	DB	0ffH
	DB	0ffH
	DB	04dH
	DB	0ffH
	DB	0ffH
	DB	0ffH
	DB	04dH
	DB	0ffH
	DB	0ffH
	DB	0ffH
	DB	04dH
	DB	0ffH
	DB	0ffH
	DB	0ffH
	DB	04dH
	DB	0ffH
	DB	0ffH
	DB	0ffH
	DB	04dH
	DB	0ffH
	DB	0ffH
	DB	0ffH
	DB	04dH
	DB	0ffH
	DB	0ffH
	DB	0ffH
	DB	04dH
	DB	0ffH
	DB	0ffH
	DB	0ffH
	DB	04dH
	DB	0ffH
	DB	0ffH
	DB	0ffH
	DB	04dH
	DB	0ffH
	DB	0ffH
	DB	0ffH
	DB	04dH
	DB	0ffH
	DB	0ffH
	DB	0ffH
	DB	04dH
	DB	0ffH
	DB	0ffH
	DB	0ffH
	DB	04dH
	DB	0ffH
	DB	0ffH
	DB	0ffH
	DB	04dH
	DB	0ffH
	DB	0ffH
	DB	0ffH
	DB	04dH
	DB	0ffH
	DB	0ffH
	DB	0ffH
	DB	04dH
	DB	0ffH
	DB	0ffH
	DB	0ffH
	DB	04dH
	DB	0ffH
	DB	0ffH
	DB	0ffH
	DB	04dH
	DB	0ffH
	DB	0ffH
	DB	0ffH
	DB	04dH
	DB	0ffH
	DB	0ffH
	DB	0ffH
	DB	04dH
	DB	0ffH
	DB	0ffH
	DB	0ffH
	DB	04dH
	DB	0ffH
	DB	0ffH
	DB	0ffH
	DB	04dH
	DB	0ffH
	DB	0ffH
	DB	0ffH
	DB	04dH
	DB	0ffH
	DB	0ffH
	DB	0ffH
	DB	04dH
	DB	0ffH
	DB	0ffH
	DB	0ffH
	DB	04dH
	DB	0ffH
	DB	0ffH
	DB	0ffH
	DB	04dH
	DB	0ffH
	DB	0ffH
	DB	0ffH
	DB	04dH
	DB	0ffH
	DB	0ffH
	DB	0ffH
	DB	04dH
	DB	0ffH
	DB	0ffH
	DB	0ffH
	DB	04dH
	DB	0ffH
	DB	0ffH
	DB	0ffH
	DB	04dH
	DB	0ffH
	DB	0ffH
	DB	0ffH
	DB	04dH
	DB	0ffH
	DB	0ffH
	DB	0ffH
	DB	03bH
	DB	0ffH
	DB	0ffH
	DB	0ffH
	DB	01cH
	DB	0ffH
	DB	0ffH
	DB	0ffH
	DB	02H
	DB	0ffH
	DB	0ffH
	DB	0ffH
	DB	00H
	DB	0ffH
	DB	0ffH
	DB	0ffH
	DB	00H
	DB	0ffH
	DB	0ffH
	DB	0ffH
	DB	00H
	DB	0ffH
	DB	0ffH
	DB	0ffH
	DB	00H
	DB	0ffH
	DB	0ffH
	DB	0ffH
	DB	00H
	DB	0ffH
	DB	0ffH
	DB	0ffH
	DB	00H
	DB	0ffH
	DB	0ffH
	DB	0ffH
	DB	00H
	DB	0ffH
	DB	0ffH
	DB	0ffH
	DB	00H
	DB	0ffH
	DB	0ffH
	DB	0ffH
	DB	00H
	DB	0ffH
	DB	0ffH
	DB	0ffH
	DB	00H
	DB	0ffH
	DB	0ffH
	DB	0ffH
	DB	00H
	DB	0ffH
	DB	0ffH
	DB	0ffH
	DB	00H
	DB	0ffH
	DB	0ffH
	DB	0ffH
	DB	00H
	DB	0ffH
	DB	0ffH
	DB	0ffH
	DB	00H
	DB	0ffH
	DB	0ffH
	DB	0ffH
	DB	00H
	DB	0ffH
	DB	0ffH
	DB	0ffH
	DB	00H
	DB	0ffH
	DB	0ffH
	DB	0ffH
	DB	00H
	DB	0ffH
	DB	0ffH
	DB	0ffH
	DB	00H
	DB	0ffH
	DB	0ffH
	DB	0ffH
	DB	00H
	DB	0ffH
	DB	0ffH
	DB	0ffH
	DB	00H
	DB	0ffH
	DB	0ffH
	DB	0ffH
	DB	00H
	DB	0ffH
	DB	0ffH
	DB	0ffH
	DB	00H
	DB	0ffH
	DB	0ffH
	DB	0ffH
	DB	00H
	DB	0ffH
	DB	0ffH
	DB	0ffH
	DB	00H
	DB	0ffH
	DB	0ffH
	DB	0ffH
	DB	00H
	DB	00H
	DB	00H
	DB	00H
	DB	00H
	DB	00H
	DB	00H
	DB	00H
	DB	00H
	DB	00H
	DB	00H
	DB	00H
	DB	00H
	DB	00H
	DB	00H
	DB	00H
	DB	00H
	DB	00H
	DB	00H
	DB	00H
	DB	00H
	DB	00H
	DB	00H
	DB	00H
	DB	00H
	DB	00H
	DB	00H
	DB	00H
	DB	00H
	DB	00H
	DB	00H
	DB	00H
	DB	00H
	DB	00H
	DB	00H
	DB	00H
	DB	00H
	DB	00H
	DB	00H
	DB	00H
	DB	00H
	DB	00H
	DB	00H
	DB	00H
	DB	00H
	DB	00H
	DB	00H
	DB	00H
	DB	00H
	DB	00H
	DB	00H
	DB	00H
	DB	00H
	DB	00H
	DB	00H
	DB	00H
	DB	00H
	DB	00H
	DB	00H
	DB	00H
	DB	00H
	DB	00H
	DB	00H
	DB	00H
	DB	00H
	DB	0ffH
	DB	0ffH
	DB	0ffH
	DB	00H
	DB	0ffH
	DB	0ffH
	DB	0ffH
	DB	00H
	DB	0ffH
	DB	0ffH
	DB	0ffH
	DB	00H
	DB	0ffH
	DB	0ffH
	DB	0ffH
	DB	00H
	DB	0ffH
	DB	0ffH
	DB	0ffH
	DB	00H
	DB	0ffH
	DB	0ffH
	DB	0ffH
	DB	00H
	DB	0ffH
	DB	0ffH
	DB	0ffH
	DB	00H
	DB	0ffH
	DB	0ffH
	DB	0ffH
	DB	00H
	DB	0ffH
	DB	0ffH
	DB	0ffH
	DB	00H
	DB	0ffH
	DB	0ffH
	DB	0ffH
	DB	00H
	DB	0ffH
	DB	0ffH
	DB	0ffH
	DB	00H
	DB	0ffH
	DB	0ffH
	DB	0ffH
	DB	00H
	DB	0ffH
	DB	0ffH
	DB	0ffH
	DB	00H
	DB	0ffH
	DB	0ffH
	DB	0ffH
	DB	00H
	DB	0ffH
	DB	0ffH
	DB	0ffH
	DB	00H
	DB	0ffH
	DB	0ffH
	DB	0ffH
	DB	00H
	DB	0ffH
	DB	0ffH
	DB	0ffH
	DB	00H
	DB	0ffH
	DB	0ffH
	DB	0ffH
	DB	00H
	DB	0ffH
	DB	0ffH
	DB	0ffH
	DB	00H
	DB	0ffH
	DB	0ffH
	DB	0ffH
	DB	00H
	DB	0ffH
	DB	0ffH
	DB	0ffH
	DB	00H
	DB	0ffH
	DB	0ffH
	DB	0ffH
	DB	00H
	DB	0ffH
	DB	0ffH
	DB	0ffH
	DB	00H
	DB	0ffH
	DB	0ffH
	DB	0ffH
	DB	09H
	DB	0ffH
	DB	0ffH
	DB	0ffH
	DB	029H
	DB	0ffH
	DB	0ffH
	DB	0ffH
	DB	047H
	DB	0ffH
	DB	0ffH
	DB	0ffH
	DB	04dH
	DB	0ffH
	DB	0ffH
	DB	0ffH
	DB	04dH
	DB	0ffH
	DB	0ffH
	DB	0ffH
	DB	04dH
	DB	0ffH
	DB	0ffH
	DB	0ffH
	DB	04dH
	DB	0ffH
	DB	0ffH
	DB	0ffH
	DB	04dH
	DB	0ffH
	DB	0ffH
	DB	0ffH
	DB	04dH
	DB	0ffH
	DB	0ffH
	DB	0ffH
	DB	04dH
	DB	0ffH
	DB	0ffH
	DB	0ffH
	DB	04dH
	DB	0ffH
	DB	0ffH
	DB	0ffH
	DB	04dH
	DB	0ffH
	DB	0ffH
	DB	0ffH
	DB	04dH
	DB	0ffH
	DB	0ffH
	DB	0ffH
	DB	04dH
	DB	0ffH
	DB	0ffH
	DB	0ffH
	DB	04dH
	DB	0ffH
	DB	0ffH
	DB	0ffH
	DB	04dH
	DB	0ffH
	DB	0ffH
	DB	0ffH
	DB	04dH
	DB	0ffH
	DB	0ffH
	DB	0ffH
	DB	04dH
	DB	0ffH
	DB	0ffH
	DB	0ffH
	DB	04dH
	DB	0ffH
	DB	0ffH
	DB	0ffH
	DB	04dH
	DB	0ffH
	DB	0ffH
	DB	0ffH
	DB	04dH
	DB	0ffH
	DB	0ffH
	DB	0ffH
	DB	04dH
	DB	0ffH
	DB	0ffH
	DB	0ffH
	DB	04dH
	DB	0ffH
	DB	0ffH
	DB	0ffH
	DB	04dH
	DB	0ffH
	DB	0ffH
	DB	0ffH
	DB	04dH
	DB	0ffH
	DB	0ffH
	DB	0ffH
	DB	04dH
	DB	0ffH
	DB	0ffH
	DB	0ffH
	DB	04dH
	DB	0ffH
	DB	0ffH
	DB	0ffH
	DB	04dH
	DB	0ffH
	DB	0ffH
	DB	0ffH
	DB	04dH
	DB	0ffH
	DB	0ffH
	DB	0ffH
	DB	04dH
	DB	0ffH
	DB	0ffH
	DB	0ffH
	DB	04dH
	DB	0ffH
	DB	0ffH
	DB	0ffH
	DB	04dH
	DB	0ffH
	DB	0ffH
	DB	0ffH
	DB	04dH
	DB	0ffH
	DB	0ffH
	DB	0ffH
	DB	04dH
	DB	0ffH
	DB	0ffH
	DB	0ffH
	DB	04dH
	DB	0ffH
	DB	0ffH
	DB	0ffH
	DB	04dH
	DB	0ffH
	DB	0ffH
	DB	0ffH
	DB	04dH
	DB	0ffH
	DB	0ffH
	DB	0ffH
	DB	04dH
	DB	0ffH
	DB	0ffH
	DB	0ffH
	DB	04dH
	DB	0ffH
	DB	0ffH
	DB	0ffH
	DB	04dH
	DB	0ffH
	DB	0ffH
	DB	0ffH
	DB	04dH
	DB	0ffH
	DB	0ffH
	DB	0ffH
	DB	04dH
	DB	0ffH
	DB	0ffH
	DB	0ffH
	DB	04dH
	DB	0ffH
	DB	0ffH
	DB	0ffH
	DB	04dH
	DB	0ffH
	DB	0ffH
	DB	0ffH
	DB	04dH
	DB	0ffH
	DB	0ffH
	DB	0ffH
	DB	04dH
	DB	0ffH
	DB	0ffH
	DB	0ffH
	DB	04dH
	DB	0ffH
	DB	0ffH
	DB	0ffH
	DB	04dH
	DB	0ffH
	DB	0ffH
	DB	0ffH
	DB	04dH
	DB	0ffH
	DB	0ffH
	DB	0ffH
	DB	04dH
	DB	0ffH
	DB	0ffH
	DB	0ffH
	DB	04dH
	DB	0ffH
	DB	0ffH
	DB	0ffH
	DB	04dH
	DB	0ffH
	DB	0ffH
	DB	0ffH
	DB	04dH
	DB	0ffH
	DB	0ffH
	DB	0ffH
	DB	04dH
	DB	0ffH
	DB	0ffH
	DB	0ffH
	DB	04dH
	DB	0ffH
	DB	0ffH
	DB	0ffH
	DB	04dH
	DB	0ffH
	DB	0ffH
	DB	0ffH
	DB	04dH
	DB	0ffH
	DB	0ffH
	DB	0ffH
	DB	04dH
	DB	0ffH
	DB	0ffH
	DB	0ffH
	DB	04dH
	DB	0ffH
	DB	0ffH
	DB	0ffH
	DB	04dH
	DB	0ffH
	DB	0ffH
	DB	0ffH
	DB	04dH
	DB	0ffH
	DB	0ffH
	DB	0ffH
	DB	04dH
	DB	0ffH
	DB	0ffH
	DB	0ffH
	DB	04dH
	DB	0ffH
	DB	0ffH
	DB	0ffH
	DB	047H
	DB	0ffH
	DB	0ffH
	DB	0ffH
	DB	028H
	DB	0ffH
	DB	0ffH
	DB	0ffH
	DB	09H
	DB	0ffH
	DB	0ffH
	DB	0ffH
	DB	00H
	DB	0ffH
	DB	0ffH
	DB	0ffH
	DB	00H
	DB	0ffH
	DB	0ffH
	DB	0ffH
	DB	00H
	DB	0ffH
	DB	0ffH
	DB	0ffH
	DB	00H
	DB	0ffH
	DB	0ffH
	DB	0ffH
	DB	00H
	DB	0ffH
	DB	0ffH
	DB	0ffH
	DB	00H
	DB	0ffH
	DB	0ffH
	DB	0ffH
	DB	00H
	DB	0ffH
	DB	0ffH
	DB	0ffH
	DB	00H
	DB	0ffH
	DB	0ffH
	DB	0ffH
	DB	00H
	DB	0ffH
	DB	0ffH
	DB	0ffH
	DB	00H
	DB	0ffH
	DB	0ffH
	DB	0ffH
	DB	00H
	DB	0ffH
	DB	0ffH
	DB	0ffH
	DB	00H
	DB	0ffH
	DB	0ffH
	DB	0ffH
	DB	00H
	DB	0ffH
	DB	0ffH
	DB	0ffH
	DB	00H
	DB	0ffH
	DB	0ffH
	DB	0ffH
	DB	00H
	DB	0ffH
	DB	0ffH
	DB	0ffH
	DB	00H
	DB	0ffH
	DB	0ffH
	DB	0ffH
	DB	00H
	DB	0ffH
	DB	0ffH
	DB	0ffH
	DB	00H
	DB	0ffH
	DB	0ffH
	DB	0ffH
	DB	00H
	DB	0ffH
	DB	0ffH
	DB	0ffH
	DB	00H
	DB	0ffH
	DB	0ffH
	DB	0ffH
	DB	00H
	DB	0ffH
	DB	0ffH
	DB	0ffH
	DB	00H
	DB	0ffH
	DB	0ffH
	DB	0ffH
	DB	00H
	DB	00H
	DB	00H
	DB	00H
	DB	00H
	DB	00H
	DB	00H
	DB	00H
	DB	00H
	DB	00H
	DB	00H
	DB	00H
	DB	00H
	DB	00H
	DB	00H
	DB	00H
	DB	00H
	DB	00H
	DB	00H
	DB	00H
	DB	00H
	DB	00H
	DB	00H
	DB	00H
	DB	00H
	DB	00H
	DB	00H
	DB	00H
	DB	00H
	DB	00H
	DB	00H
	DB	00H
	DB	00H
	DB	00H
	DB	00H
	DB	00H
	DB	00H
	DB	00H
	DB	00H
	DB	00H
	DB	00H
	DB	00H
	DB	00H
	DB	00H
	DB	00H
	DB	00H
	DB	00H
	DB	00H
	DB	00H
	DB	00H
	DB	00H
	DB	00H
	DB	00H
	DB	00H
	DB	00H
	DB	00H
	DB	00H
	DB	00H
	DB	00H
	DB	00H
	DB	00H
	DB	00H
	DB	00H
	DB	00H
	DB	00H
	DB	0ffH
	DB	0ffH
	DB	0ffH
	DB	00H
	DB	0ffH
	DB	0ffH
	DB	0ffH
	DB	00H
	DB	0ffH
	DB	0ffH
	DB	0ffH
	DB	00H
	DB	0ffH
	DB	0ffH
	DB	0ffH
	DB	00H
	DB	0ffH
	DB	0ffH
	DB	0ffH
	DB	00H
	DB	0ffH
	DB	0ffH
	DB	0ffH
	DB	00H
	DB	0ffH
	DB	0ffH
	DB	0ffH
	DB	00H
	DB	0ffH
	DB	0ffH
	DB	0ffH
	DB	00H
	DB	0ffH
	DB	0ffH
	DB	0ffH
	DB	00H
	DB	0ffH
	DB	0ffH
	DB	0ffH
	DB	00H
	DB	0ffH
	DB	0ffH
	DB	0ffH
	DB	00H
	DB	0ffH
	DB	0ffH
	DB	0ffH
	DB	00H
	DB	0ffH
	DB	0ffH
	DB	0ffH
	DB	00H
	DB	0ffH
	DB	0ffH
	DB	0ffH
	DB	00H
	DB	0ffH
	DB	0ffH
	DB	0ffH
	DB	00H
	DB	0ffH
	DB	0ffH
	DB	0ffH
	DB	00H
	DB	0ffH
	DB	0ffH
	DB	0ffH
	DB	00H
	DB	0ffH
	DB	0ffH
	DB	0ffH
	DB	00H
	DB	0ffH
	DB	0ffH
	DB	0ffH
	DB	00H
	DB	0ffH
	DB	0ffH
	DB	0ffH
	DB	00H
	DB	0ffH
	DB	0ffH
	DB	0ffH
	DB	00H
	DB	0ffH
	DB	0ffH
	DB	0ffH
	DB	0cH
	DB	0ffH
	DB	0ffH
	DB	0ffH
	DB	030H
	DB	0ffH
	DB	0ffH
	DB	0ffH
	DB	04bH
	DB	0ffH
	DB	0ffH
	DB	0ffH
	DB	04dH
	DB	0ffH
	DB	0ffH
	DB	0ffH
	DB	04dH
	DB	0ffH
	DB	0ffH
	DB	0ffH
	DB	04dH
	DB	0ffH
	DB	0ffH
	DB	0ffH
	DB	04dH
	DB	0ffH
	DB	0ffH
	DB	0ffH
	DB	04dH
	DB	0ffH
	DB	0ffH
	DB	0ffH
	DB	04dH
	DB	0ffH
	DB	0ffH
	DB	0ffH
	DB	04dH
	DB	0ffH
	DB	0ffH
	DB	0ffH
	DB	04dH
	DB	0ffH
	DB	0ffH
	DB	0ffH
	DB	04dH
	DB	0ffH
	DB	0ffH
	DB	0ffH
	DB	04dH
	DB	0ffH
	DB	0ffH
	DB	0ffH
	DB	04dH
	DB	0ffH
	DB	0ffH
	DB	0ffH
	DB	04dH
	DB	0ffH
	DB	0ffH
	DB	0ffH
	DB	04dH
	DB	0ffH
	DB	0ffH
	DB	0ffH
	DB	04dH
	DB	0ffH
	DB	0ffH
	DB	0ffH
	DB	04dH
	DB	0ffH
	DB	0ffH
	DB	0ffH
	DB	04dH
	DB	0ffH
	DB	0ffH
	DB	0ffH
	DB	04dH
	DB	0ffH
	DB	0ffH
	DB	0ffH
	DB	04dH
	DB	0ffH
	DB	0ffH
	DB	0ffH
	DB	04dH
	DB	0ffH
	DB	0ffH
	DB	0ffH
	DB	04dH
	DB	0ffH
	DB	0ffH
	DB	0ffH
	DB	04dH
	DB	0ffH
	DB	0ffH
	DB	0ffH
	DB	04dH
	DB	0ffH
	DB	0ffH
	DB	0ffH
	DB	04dH
	DB	0ffH
	DB	0ffH
	DB	0ffH
	DB	04dH
	DB	0ffH
	DB	0ffH
	DB	0ffH
	DB	04dH
	DB	0ffH
	DB	0ffH
	DB	0ffH
	DB	04dH
	DB	0ffH
	DB	0ffH
	DB	0ffH
	DB	04dH
	DB	0ffH
	DB	0ffH
	DB	0ffH
	DB	04dH
	DB	0ffH
	DB	0ffH
	DB	0ffH
	DB	04dH
	DB	0ffH
	DB	0ffH
	DB	0ffH
	DB	04dH
	DB	0ffH
	DB	0ffH
	DB	0ffH
	DB	04dH
	DB	0ffH
	DB	0ffH
	DB	0ffH
	DB	04dH
	DB	0ffH
	DB	0ffH
	DB	0ffH
	DB	04dH
	DB	0ffH
	DB	0ffH
	DB	0ffH
	DB	04dH
	DB	0ffH
	DB	0ffH
	DB	0ffH
	DB	04dH
	DB	0ffH
	DB	0ffH
	DB	0ffH
	DB	04dH
	DB	0ffH
	DB	0ffH
	DB	0ffH
	DB	04dH
	DB	0ffH
	DB	0ffH
	DB	0ffH
	DB	04dH
	DB	0ffH
	DB	0ffH
	DB	0ffH
	DB	04dH
	DB	0ffH
	DB	0ffH
	DB	0ffH
	DB	04dH
	DB	0ffH
	DB	0ffH
	DB	0ffH
	DB	04dH
	DB	0ffH
	DB	0ffH
	DB	0ffH
	DB	04dH
	DB	0ffH
	DB	0ffH
	DB	0ffH
	DB	04dH
	DB	0ffH
	DB	0ffH
	DB	0ffH
	DB	04dH
	DB	0ffH
	DB	0ffH
	DB	0ffH
	DB	04dH
	DB	0ffH
	DB	0ffH
	DB	0ffH
	DB	04dH
	DB	0ffH
	DB	0ffH
	DB	0ffH
	DB	04dH
	DB	0ffH
	DB	0ffH
	DB	0ffH
	DB	04dH
	DB	0ffH
	DB	0ffH
	DB	0ffH
	DB	04dH
	DB	0ffH
	DB	0ffH
	DB	0ffH
	DB	04dH
	DB	0ffH
	DB	0ffH
	DB	0ffH
	DB	04dH
	DB	0ffH
	DB	0ffH
	DB	0ffH
	DB	04dH
	DB	0ffH
	DB	0ffH
	DB	0ffH
	DB	04dH
	DB	0ffH
	DB	0ffH
	DB	0ffH
	DB	04dH
	DB	0ffH
	DB	0ffH
	DB	0ffH
	DB	04dH
	DB	0ffH
	DB	0ffH
	DB	0ffH
	DB	04dH
	DB	0ffH
	DB	0ffH
	DB	0ffH
	DB	04dH
	DB	0ffH
	DB	0ffH
	DB	0ffH
	DB	04dH
	DB	0ffH
	DB	0ffH
	DB	0ffH
	DB	04dH
	DB	0ffH
	DB	0ffH
	DB	0ffH
	DB	04dH
	DB	0ffH
	DB	0ffH
	DB	0ffH
	DB	04dH
	DB	0ffH
	DB	0ffH
	DB	0ffH
	DB	04dH
	DB	0ffH
	DB	0ffH
	DB	0ffH
	DB	04dH
	DB	0ffH
	DB	0ffH
	DB	0ffH
	DB	04dH
	DB	0ffH
	DB	0ffH
	DB	0ffH
	DB	04bH
	DB	0ffH
	DB	0ffH
	DB	0ffH
	DB	030H
	DB	0ffH
	DB	0ffH
	DB	0ffH
	DB	0bH
	DB	0ffH
	DB	0ffH
	DB	0ffH
	DB	00H
	DB	0ffH
	DB	0ffH
	DB	0ffH
	DB	00H
	DB	0ffH
	DB	0ffH
	DB	0ffH
	DB	00H
	DB	0ffH
	DB	0ffH
	DB	0ffH
	DB	00H
	DB	0ffH
	DB	0ffH
	DB	0ffH
	DB	00H
	DB	0ffH
	DB	0ffH
	DB	0ffH
	DB	00H
	DB	0ffH
	DB	0ffH
	DB	0ffH
	DB	00H
	DB	0ffH
	DB	0ffH
	DB	0ffH
	DB	00H
	DB	0ffH
	DB	0ffH
	DB	0ffH
	DB	00H
	DB	0ffH
	DB	0ffH
	DB	0ffH
	DB	00H
	DB	0ffH
	DB	0ffH
	DB	0ffH
	DB	00H
	DB	0ffH
	DB	0ffH
	DB	0ffH
	DB	00H
	DB	0ffH
	DB	0ffH
	DB	0ffH
	DB	00H
	DB	0ffH
	DB	0ffH
	DB	0ffH
	DB	00H
	DB	0ffH
	DB	0ffH
	DB	0ffH
	DB	00H
	DB	0ffH
	DB	0ffH
	DB	0ffH
	DB	00H
	DB	0ffH
	DB	0ffH
	DB	0ffH
	DB	00H
	DB	0ffH
	DB	0ffH
	DB	0ffH
	DB	00H
	DB	0ffH
	DB	0ffH
	DB	0ffH
	DB	00H
	DB	0ffH
	DB	0ffH
	DB	0ffH
	DB	00H
	DB	0ffH
	DB	0ffH
	DB	0ffH
	DB	00H
	DB	00H
	DB	00H
	DB	00H
	DB	00H
	DB	00H
	DB	00H
	DB	00H
	DB	00H
	DB	00H
	DB	00H
	DB	00H
	DB	00H
	DB	00H
	DB	00H
	DB	00H
	DB	00H
	DB	00H
	DB	00H
	DB	00H
	DB	00H
	DB	00H
	DB	00H
	DB	00H
	DB	00H
	DB	00H
	DB	00H
	DB	00H
	DB	00H
	DB	00H
	DB	00H
	DB	00H
	DB	00H
	DB	00H
	DB	00H
	DB	00H
	DB	00H
	DB	00H
	DB	00H
	DB	00H
	DB	00H
	DB	00H
	DB	00H
	DB	00H
	DB	00H
	DB	00H
	DB	00H
	DB	00H
	DB	00H
	DB	00H
	DB	00H
	DB	00H
	DB	00H
	DB	00H
	DB	00H
	DB	00H
	DB	00H
	DB	00H
	DB	00H
	DB	00H
	DB	00H
	DB	00H
	DB	00H
	DB	00H
	DB	00H
	DB	0ffH
	DB	0ffH
	DB	0ffH
	DB	00H
	DB	0ffH
	DB	0ffH
	DB	0ffH
	DB	00H
	DB	0ffH
	DB	0ffH
	DB	0ffH
	DB	00H
	DB	0ffH
	DB	0ffH
	DB	0ffH
	DB	00H
	DB	0ffH
	DB	0ffH
	DB	0ffH
	DB	00H
	DB	0ffH
	DB	0ffH
	DB	0ffH
	DB	00H
	DB	0ffH
	DB	0ffH
	DB	0ffH
	DB	00H
	DB	0ffH
	DB	0ffH
	DB	0ffH
	DB	00H
	DB	0ffH
	DB	0ffH
	DB	0ffH
	DB	00H
	DB	0ffH
	DB	0ffH
	DB	0ffH
	DB	00H
	DB	0ffH
	DB	0ffH
	DB	0ffH
	DB	00H
	DB	0ffH
	DB	0ffH
	DB	0ffH
	DB	00H
	DB	0ffH
	DB	0ffH
	DB	0ffH
	DB	00H
	DB	0ffH
	DB	0ffH
	DB	0ffH
	DB	00H
	DB	0ffH
	DB	0ffH
	DB	0ffH
	DB	00H
	DB	0ffH
	DB	0ffH
	DB	0ffH
	DB	00H
	DB	0ffH
	DB	0ffH
	DB	0ffH
	DB	00H
	DB	0ffH
	DB	0ffH
	DB	0ffH
	DB	00H
	DB	0ffH
	DB	0ffH
	DB	0ffH
	DB	00H
	DB	0ffH
	DB	0ffH
	DB	0ffH
	DB	0dH
	DB	0ffH
	DB	0ffH
	DB	0ffH
	DB	033H
	DB	0ffH
	DB	0ffH
	DB	0ffH
	DB	04cH
	DB	0ffH
	DB	0ffH
	DB	0ffH
	DB	04dH
	DB	0ffH
	DB	0ffH
	DB	0ffH
	DB	04dH
	DB	0ffH
	DB	0ffH
	DB	0ffH
	DB	04dH
	DB	0ffH
	DB	0ffH
	DB	0ffH
	DB	04dH
	DB	0ffH
	DB	0ffH
	DB	0ffH
	DB	04dH
	DB	0ffH
	DB	0ffH
	DB	0ffH
	DB	04dH
	DB	0ffH
	DB	0ffH
	DB	0ffH
	DB	04dH
	DB	0ffH
	DB	0ffH
	DB	0ffH
	DB	04dH
	DB	0ffH
	DB	0ffH
	DB	0ffH
	DB	04dH
	DB	0ffH
	DB	0ffH
	DB	0ffH
	DB	04dH
	DB	0ffH
	DB	0ffH
	DB	0ffH
	DB	04dH
	DB	0ffH
	DB	0ffH
	DB	0ffH
	DB	04dH
	DB	0ffH
	DB	0ffH
	DB	0ffH
	DB	04dH
	DB	0ffH
	DB	0ffH
	DB	0ffH
	DB	04dH
	DB	0ffH
	DB	0ffH
	DB	0ffH
	DB	04dH
	DB	0ffH
	DB	0ffH
	DB	0ffH
	DB	04dH
	DB	0ffH
	DB	0ffH
	DB	0ffH
	DB	04dH
	DB	0ffH
	DB	0ffH
	DB	0ffH
	DB	04dH
	DB	0ffH
	DB	0ffH
	DB	0ffH
	DB	04dH
	DB	0ffH
	DB	0ffH
	DB	0ffH
	DB	04dH
	DB	0ffH
	DB	0ffH
	DB	0ffH
	DB	04dH
	DB	0ffH
	DB	0ffH
	DB	0ffH
	DB	04dH
	DB	0ffH
	DB	0ffH
	DB	0ffH
	DB	04dH
	DB	0ffH
	DB	0ffH
	DB	0ffH
	DB	04dH
	DB	0ffH
	DB	0ffH
	DB	0ffH
	DB	04dH
	DB	0ffH
	DB	0ffH
	DB	0ffH
	DB	04dH
	DB	0ffH
	DB	0ffH
	DB	0ffH
	DB	04dH
	DB	0ffH
	DB	0ffH
	DB	0ffH
	DB	04dH
	DB	0ffH
	DB	0ffH
	DB	0ffH
	DB	04dH
	DB	0ffH
	DB	0ffH
	DB	0ffH
	DB	04dH
	DB	0ffH
	DB	0ffH
	DB	0ffH
	DB	04dH
	DB	0ffH
	DB	0ffH
	DB	0ffH
	DB	04dH
	DB	0ffH
	DB	0ffH
	DB	0ffH
	DB	04dH
	DB	0ffH
	DB	0ffH
	DB	0ffH
	DB	04dH
	DB	0ffH
	DB	0ffH
	DB	0ffH
	DB	04dH
	DB	0ffH
	DB	0ffH
	DB	0ffH
	DB	04dH
	DB	0ffH
	DB	0ffH
	DB	0ffH
	DB	04dH
	DB	0ffH
	DB	0ffH
	DB	0ffH
	DB	04dH
	DB	0ffH
	DB	0ffH
	DB	0ffH
	DB	04dH
	DB	0ffH
	DB	0ffH
	DB	0ffH
	DB	04dH
	DB	0ffH
	DB	0ffH
	DB	0ffH
	DB	04dH
	DB	0ffH
	DB	0ffH
	DB	0ffH
	DB	04dH
	DB	0ffH
	DB	0ffH
	DB	0ffH
	DB	04dH
	DB	0ffH
	DB	0ffH
	DB	0ffH
	DB	04dH
	DB	0ffH
	DB	0ffH
	DB	0ffH
	DB	04dH
	DB	0ffH
	DB	0ffH
	DB	0ffH
	DB	04dH
	DB	0ffH
	DB	0ffH
	DB	0ffH
	DB	04dH
	DB	0ffH
	DB	0ffH
	DB	0ffH
	DB	04dH
	DB	0ffH
	DB	0ffH
	DB	0ffH
	DB	04dH
	DB	0ffH
	DB	0ffH
	DB	0ffH
	DB	04dH
	DB	0ffH
	DB	0ffH
	DB	0ffH
	DB	04dH
	DB	0ffH
	DB	0ffH
	DB	0ffH
	DB	04dH
	DB	0ffH
	DB	0ffH
	DB	0ffH
	DB	04dH
	DB	0ffH
	DB	0ffH
	DB	0ffH
	DB	04dH
	DB	0ffH
	DB	0ffH
	DB	0ffH
	DB	04dH
	DB	0ffH
	DB	0ffH
	DB	0ffH
	DB	04dH
	DB	0ffH
	DB	0ffH
	DB	0ffH
	DB	04dH
	DB	0ffH
	DB	0ffH
	DB	0ffH
	DB	04dH
	DB	0ffH
	DB	0ffH
	DB	0ffH
	DB	04dH
	DB	0ffH
	DB	0ffH
	DB	0ffH
	DB	04dH
	DB	0ffH
	DB	0ffH
	DB	0ffH
	DB	04dH
	DB	0ffH
	DB	0ffH
	DB	0ffH
	DB	04dH
	DB	0ffH
	DB	0ffH
	DB	0ffH
	DB	04dH
	DB	0ffH
	DB	0ffH
	DB	0ffH
	DB	04dH
	DB	0ffH
	DB	0ffH
	DB	0ffH
	DB	04dH
	DB	0ffH
	DB	0ffH
	DB	0ffH
	DB	04dH
	DB	0ffH
	DB	0ffH
	DB	0ffH
	DB	04dH
	DB	0ffH
	DB	0ffH
	DB	0ffH
	DB	04dH
	DB	0ffH
	DB	0ffH
	DB	0ffH
	DB	04cH
	DB	0ffH
	DB	0ffH
	DB	0ffH
	DB	032H
	DB	0ffH
	DB	0ffH
	DB	0ffH
	DB	0cH
	DB	0ffH
	DB	0ffH
	DB	0ffH
	DB	00H
	DB	0ffH
	DB	0ffH
	DB	0ffH
	DB	00H
	DB	0ffH
	DB	0ffH
	DB	0ffH
	DB	00H
	DB	0ffH
	DB	0ffH
	DB	0ffH
	DB	00H
	DB	0ffH
	DB	0ffH
	DB	0ffH
	DB	00H
	DB	0ffH
	DB	0ffH
	DB	0ffH
	DB	00H
	DB	0ffH
	DB	0ffH
	DB	0ffH
	DB	00H
	DB	0ffH
	DB	0ffH
	DB	0ffH
	DB	00H
	DB	0ffH
	DB	0ffH
	DB	0ffH
	DB	00H
	DB	0ffH
	DB	0ffH
	DB	0ffH
	DB	00H
	DB	0ffH
	DB	0ffH
	DB	0ffH
	DB	00H
	DB	0ffH
	DB	0ffH
	DB	0ffH
	DB	00H
	DB	0ffH
	DB	0ffH
	DB	0ffH
	DB	00H
	DB	0ffH
	DB	0ffH
	DB	0ffH
	DB	00H
	DB	0ffH
	DB	0ffH
	DB	0ffH
	DB	00H
	DB	0ffH
	DB	0ffH
	DB	0ffH
	DB	00H
	DB	0ffH
	DB	0ffH
	DB	0ffH
	DB	00H
	DB	0ffH
	DB	0ffH
	DB	0ffH
	DB	00H
	DB	0ffH
	DB	0ffH
	DB	0ffH
	DB	00H
	DB	00H
	DB	00H
	DB	00H
	DB	00H
	DB	00H
	DB	00H
	DB	00H
	DB	00H
	DB	00H
	DB	00H
	DB	00H
	DB	00H
	DB	00H
	DB	00H
	DB	00H
	DB	00H
	DB	00H
	DB	00H
	DB	00H
	DB	00H
	DB	00H
	DB	00H
	DB	00H
	DB	00H
	DB	00H
	DB	00H
	DB	00H
	DB	00H
	DB	00H
	DB	00H
	DB	00H
	DB	00H
	DB	00H
	DB	00H
	DB	00H
	DB	00H
	DB	00H
	DB	00H
	DB	00H
	DB	00H
	DB	00H
	DB	00H
	DB	00H
	DB	00H
	DB	00H
	DB	00H
	DB	00H
	DB	00H
	DB	00H
	DB	00H
	DB	00H
	DB	00H
	DB	00H
	DB	00H
	DB	00H
	DB	00H
	DB	00H
	DB	00H
	DB	00H
	DB	00H
	DB	00H
	DB	00H
	DB	00H
	DB	00H
	DB	0ffH
	DB	0ffH
	DB	0ffH
	DB	00H
	DB	0ffH
	DB	0ffH
	DB	0ffH
	DB	00H
	DB	0ffH
	DB	0ffH
	DB	0ffH
	DB	00H
	DB	0ffH
	DB	0ffH
	DB	0ffH
	DB	00H
	DB	0ffH
	DB	0ffH
	DB	0ffH
	DB	00H
	DB	0ffH
	DB	0ffH
	DB	0ffH
	DB	00H
	DB	0ffH
	DB	0ffH
	DB	0ffH
	DB	00H
	DB	0ffH
	DB	0ffH
	DB	0ffH
	DB	00H
	DB	0ffH
	DB	0ffH
	DB	0ffH
	DB	00H
	DB	0ffH
	DB	0ffH
	DB	0ffH
	DB	00H
	DB	0ffH
	DB	0ffH
	DB	0ffH
	DB	00H
	DB	0ffH
	DB	0ffH
	DB	0ffH
	DB	00H
	DB	0ffH
	DB	0ffH
	DB	0ffH
	DB	00H
	DB	0ffH
	DB	0ffH
	DB	0ffH
	DB	00H
	DB	0ffH
	DB	0ffH
	DB	0ffH
	DB	00H
	DB	0ffH
	DB	0ffH
	DB	0ffH
	DB	00H
	DB	0ffH
	DB	0ffH
	DB	0ffH
	DB	00H
	DB	0ffH
	DB	0ffH
	DB	0ffH
	DB	08H
	DB	0ffH
	DB	0ffH
	DB	0ffH
	DB	02fH
	DB	0ffH
	DB	0ffH
	DB	0ffH
	DB	04cH
	DB	0ffH
	DB	0ffH
	DB	0ffH
	DB	04dH
	DB	0ffH
	DB	0ffH
	DB	0ffH
	DB	04dH
	DB	0ffH
	DB	0ffH
	DB	0ffH
	DB	04dH
	DB	0ffH
	DB	0ffH
	DB	0ffH
	DB	04dH
	DB	0ffH
	DB	0ffH
	DB	0ffH
	DB	04dH
	DB	0ffH
	DB	0ffH
	DB	0ffH
	DB	04dH
	DB	0ffH
	DB	0ffH
	DB	0ffH
	DB	04dH
	DB	0ffH
	DB	0ffH
	DB	0ffH
	DB	04dH
	DB	0ffH
	DB	0ffH
	DB	0ffH
	DB	04dH
	DB	0ffH
	DB	0ffH
	DB	0ffH
	DB	04dH
	DB	0ffH
	DB	0ffH
	DB	0ffH
	DB	04dH
	DB	0ffH
	DB	0ffH
	DB	0ffH
	DB	04dH
	DB	0ffH
	DB	0ffH
	DB	0ffH
	DB	04dH
	DB	0ffH
	DB	0ffH
	DB	0ffH
	DB	04dH
	DB	0ffH
	DB	0ffH
	DB	0ffH
	DB	04dH
	DB	0ffH
	DB	0ffH
	DB	0ffH
	DB	04dH
	DB	0ffH
	DB	0ffH
	DB	0ffH
	DB	04dH
	DB	0ffH
	DB	0ffH
	DB	0ffH
	DB	04dH
	DB	0ffH
	DB	0ffH
	DB	0ffH
	DB	04dH
	DB	0ffH
	DB	0ffH
	DB	0ffH
	DB	04dH
	DB	0ffH
	DB	0ffH
	DB	0ffH
	DB	04dH
	DB	0ffH
	DB	0ffH
	DB	0ffH
	DB	04dH
	DB	0ffH
	DB	0ffH
	DB	0ffH
	DB	04dH
	DB	0ffH
	DB	0ffH
	DB	0ffH
	DB	04dH
	DB	0ffH
	DB	0ffH
	DB	0ffH
	DB	04dH
	DB	0ffH
	DB	0ffH
	DB	0ffH
	DB	04dH
	DB	0ffH
	DB	0ffH
	DB	0ffH
	DB	04dH
	DB	0ffH
	DB	0ffH
	DB	0ffH
	DB	04dH
	DB	0ffH
	DB	0ffH
	DB	0ffH
	DB	04dH
	DB	0ffH
	DB	0ffH
	DB	0ffH
	DB	04dH
	DB	0ffH
	DB	0ffH
	DB	0ffH
	DB	04dH
	DB	0ffH
	DB	0ffH
	DB	0ffH
	DB	04dH
	DB	0ffH
	DB	0ffH
	DB	0ffH
	DB	04dH
	DB	0ffH
	DB	0ffH
	DB	0ffH
	DB	04dH
	DB	0ffH
	DB	0ffH
	DB	0ffH
	DB	04dH
	DB	0ffH
	DB	0ffH
	DB	0ffH
	DB	04dH
	DB	0ffH
	DB	0ffH
	DB	0ffH
	DB	04dH
	DB	0ffH
	DB	0ffH
	DB	0ffH
	DB	04dH
	DB	0ffH
	DB	0ffH
	DB	0ffH
	DB	04dH
	DB	0ffH
	DB	0ffH
	DB	0ffH
	DB	04dH
	DB	0ffH
	DB	0ffH
	DB	0ffH
	DB	04dH
	DB	0ffH
	DB	0ffH
	DB	0ffH
	DB	04dH
	DB	0ffH
	DB	0ffH
	DB	0ffH
	DB	04dH
	DB	0ffH
	DB	0ffH
	DB	0ffH
	DB	04dH
	DB	0ffH
	DB	0ffH
	DB	0ffH
	DB	04dH
	DB	0ffH
	DB	0ffH
	DB	0ffH
	DB	04dH
	DB	0ffH
	DB	0ffH
	DB	0ffH
	DB	04dH
	DB	0ffH
	DB	0ffH
	DB	0ffH
	DB	04dH
	DB	0ffH
	DB	0ffH
	DB	0ffH
	DB	04dH
	DB	0ffH
	DB	0ffH
	DB	0ffH
	DB	04dH
	DB	0ffH
	DB	0ffH
	DB	0ffH
	DB	04dH
	DB	0ffH
	DB	0ffH
	DB	0ffH
	DB	04dH
	DB	0ffH
	DB	0ffH
	DB	0ffH
	DB	04dH
	DB	0ffH
	DB	0ffH
	DB	0ffH
	DB	04dH
	DB	0ffH
	DB	0ffH
	DB	0ffH
	DB	04dH
	DB	0ffH
	DB	0ffH
	DB	0ffH
	DB	04dH
	DB	0ffH
	DB	0ffH
	DB	0ffH
	DB	04dH
	DB	0ffH
	DB	0ffH
	DB	0ffH
	DB	04dH
	DB	0ffH
	DB	0ffH
	DB	0ffH
	DB	04dH
	DB	0ffH
	DB	0ffH
	DB	0ffH
	DB	04dH
	DB	0ffH
	DB	0ffH
	DB	0ffH
	DB	04dH
	DB	0ffH
	DB	0ffH
	DB	0ffH
	DB	04dH
	DB	0ffH
	DB	0ffH
	DB	0ffH
	DB	04dH
	DB	0ffH
	DB	0ffH
	DB	0ffH
	DB	04dH
	DB	0ffH
	DB	0ffH
	DB	0ffH
	DB	04dH
	DB	0ffH
	DB	0ffH
	DB	0ffH
	DB	04dH
	DB	0ffH
	DB	0ffH
	DB	0ffH
	DB	04dH
	DB	0ffH
	DB	0ffH
	DB	0ffH
	DB	04dH
	DB	0ffH
	DB	0ffH
	DB	0ffH
	DB	04dH
	DB	0ffH
	DB	0ffH
	DB	0ffH
	DB	04dH
	DB	0ffH
	DB	0ffH
	DB	0ffH
	DB	04dH
	DB	0ffH
	DB	0ffH
	DB	0ffH
	DB	04dH
	DB	0ffH
	DB	0ffH
	DB	0ffH
	DB	04cH
	DB	0ffH
	DB	0ffH
	DB	0ffH
	DB	02eH
	DB	0ffH
	DB	0ffH
	DB	0ffH
	DB	08H
	DB	0ffH
	DB	0ffH
	DB	0ffH
	DB	00H
	DB	0ffH
	DB	0ffH
	DB	0ffH
	DB	00H
	DB	0ffH
	DB	0ffH
	DB	0ffH
	DB	00H
	DB	0ffH
	DB	0ffH
	DB	0ffH
	DB	00H
	DB	0ffH
	DB	0ffH
	DB	0ffH
	DB	00H
	DB	0ffH
	DB	0ffH
	DB	0ffH
	DB	00H
	DB	0ffH
	DB	0ffH
	DB	0ffH
	DB	00H
	DB	0ffH
	DB	0ffH
	DB	0ffH
	DB	00H
	DB	0ffH
	DB	0ffH
	DB	0ffH
	DB	00H
	DB	0ffH
	DB	0ffH
	DB	0ffH
	DB	00H
	DB	0ffH
	DB	0ffH
	DB	0ffH
	DB	00H
	DB	0ffH
	DB	0ffH
	DB	0ffH
	DB	00H
	DB	0ffH
	DB	0ffH
	DB	0ffH
	DB	00H
	DB	0ffH
	DB	0ffH
	DB	0ffH
	DB	00H
	DB	0ffH
	DB	0ffH
	DB	0ffH
	DB	00H
	DB	0ffH
	DB	0ffH
	DB	0ffH
	DB	00H
	DB	0ffH
	DB	0ffH
	DB	0ffH
	DB	00H
	DB	00H
	DB	00H
	DB	00H
	DB	00H
	DB	00H
	DB	00H
	DB	00H
	DB	00H
	DB	00H
	DB	00H
	DB	00H
	DB	00H
	DB	00H
	DB	00H
	DB	00H
	DB	00H
	DB	00H
	DB	00H
	DB	00H
	DB	00H
	DB	00H
	DB	00H
	DB	00H
	DB	00H
	DB	00H
	DB	00H
	DB	00H
	DB	00H
	DB	00H
	DB	00H
	DB	00H
	DB	00H
	DB	00H
	DB	00H
	DB	00H
	DB	00H
	DB	00H
	DB	00H
	DB	00H
	DB	00H
	DB	00H
	DB	00H
	DB	00H
	DB	00H
	DB	00H
	DB	00H
	DB	00H
	DB	00H
	DB	00H
	DB	00H
	DB	00H
	DB	00H
	DB	00H
	DB	00H
	DB	00H
	DB	00H
	DB	00H
	DB	00H
	DB	00H
	DB	00H
	DB	00H
	DB	00H
	DB	00H
	DB	00H
	DB	0ffH
	DB	0ffH
	DB	0ffH
	DB	00H
	DB	0ffH
	DB	0ffH
	DB	0ffH
	DB	00H
	DB	0ffH
	DB	0ffH
	DB	0ffH
	DB	00H
	DB	0ffH
	DB	0ffH
	DB	0ffH
	DB	00H
	DB	0ffH
	DB	0ffH
	DB	0ffH
	DB	00H
	DB	0ffH
	DB	0ffH
	DB	0ffH
	DB	00H
	DB	0ffH
	DB	0ffH
	DB	0ffH
	DB	00H
	DB	0ffH
	DB	0ffH
	DB	0ffH
	DB	00H
	DB	0ffH
	DB	0ffH
	DB	0ffH
	DB	00H
	DB	0ffH
	DB	0ffH
	DB	0ffH
	DB	00H
	DB	0ffH
	DB	0ffH
	DB	0ffH
	DB	00H
	DB	0ffH
	DB	0ffH
	DB	0ffH
	DB	00H
	DB	0ffH
	DB	0ffH
	DB	0ffH
	DB	00H
	DB	0ffH
	DB	0ffH
	DB	0ffH
	DB	00H
	DB	0ffH
	DB	0ffH
	DB	0ffH
	DB	00H
	DB	0ffH
	DB	0ffH
	DB	0ffH
	DB	03H
	DB	0ffH
	DB	0ffH
	DB	0ffH
	DB	026H
	DB	0ffH
	DB	0ffH
	DB	0ffH
	DB	04aH
	DB	0ffH
	DB	0ffH
	DB	0ffH
	DB	04dH
	DB	0ffH
	DB	0ffH
	DB	0ffH
	DB	04dH
	DB	0ffH
	DB	0ffH
	DB	0ffH
	DB	04dH
	DB	0ffH
	DB	0ffH
	DB	0ffH
	DB	04dH
	DB	0ffH
	DB	0ffH
	DB	0ffH
	DB	04dH
	DB	0ffH
	DB	0ffH
	DB	0ffH
	DB	04dH
	DB	0ffH
	DB	0ffH
	DB	0ffH
	DB	04dH
	DB	0ffH
	DB	0ffH
	DB	0ffH
	DB	04dH
	DB	0ffH
	DB	0ffH
	DB	0ffH
	DB	04dH
	DB	0ffH
	DB	0ffH
	DB	0ffH
	DB	04dH
	DB	0ffH
	DB	0ffH
	DB	0ffH
	DB	04dH
	DB	0ffH
	DB	0ffH
	DB	0ffH
	DB	04dH
	DB	0ffH
	DB	0ffH
	DB	0ffH
	DB	04dH
	DB	0ffH
	DB	0ffH
	DB	0ffH
	DB	04dH
	DB	0ffH
	DB	0ffH
	DB	0ffH
	DB	04dH
	DB	0ffH
	DB	0ffH
	DB	0ffH
	DB	04dH
	DB	0ffH
	DB	0ffH
	DB	0ffH
	DB	04dH
	DB	0ffH
	DB	0ffH
	DB	0ffH
	DB	04dH
	DB	0ffH
	DB	0ffH
	DB	0ffH
	DB	04dH
	DB	0ffH
	DB	0ffH
	DB	0ffH
	DB	04dH
	DB	0ffH
	DB	0ffH
	DB	0ffH
	DB	04dH
	DB	0ffH
	DB	0ffH
	DB	0ffH
	DB	04dH
	DB	0ffH
	DB	0ffH
	DB	0ffH
	DB	04dH
	DB	0ffH
	DB	0ffH
	DB	0ffH
	DB	04dH
	DB	0ffH
	DB	0ffH
	DB	0ffH
	DB	04dH
	DB	0ffH
	DB	0ffH
	DB	0ffH
	DB	04dH
	DB	0ffH
	DB	0ffH
	DB	0ffH
	DB	04dH
	DB	0ffH
	DB	0ffH
	DB	0ffH
	DB	04dH
	DB	0ffH
	DB	0ffH
	DB	0ffH
	DB	04dH
	DB	0ffH
	DB	0ffH
	DB	0ffH
	DB	04dH
	DB	0ffH
	DB	0ffH
	DB	0ffH
	DB	04dH
	DB	0ffH
	DB	0ffH
	DB	0ffH
	DB	046H
	DB	0ffH
	DB	0ffH
	DB	0ffH
	DB	041H
	DB	0ffH
	DB	0ffH
	DB	0ffH
	DB	03bH
	DB	0ffH
	DB	0ffH
	DB	0ffH
	DB	036H
	DB	0ffH
	DB	0ffH
	DB	0ffH
	DB	033H
	DB	0ffH
	DB	0ffH
	DB	0ffH
	DB	032H
	DB	0ffH
	DB	0ffH
	DB	0ffH
	DB	02eH
	DB	0ffH
	DB	0ffH
	DB	0ffH
	DB	02eH
	DB	0ffH
	DB	0ffH
	DB	0ffH
	DB	032H
	DB	0ffH
	DB	0ffH
	DB	0ffH
	DB	033H
	DB	0ffH
	DB	0ffH
	DB	0ffH
	DB	036H
	DB	0ffH
	DB	0ffH
	DB	0ffH
	DB	03bH
	DB	0ffH
	DB	0ffH
	DB	0ffH
	DB	041H
	DB	0ffH
	DB	0ffH
	DB	0ffH
	DB	047H
	DB	0ffH
	DB	0ffH
	DB	0ffH
	DB	04dH
	DB	0ffH
	DB	0ffH
	DB	0ffH
	DB	04dH
	DB	0ffH
	DB	0ffH
	DB	0ffH
	DB	04dH
	DB	0ffH
	DB	0ffH
	DB	0ffH
	DB	04dH
	DB	0ffH
	DB	0ffH
	DB	0ffH
	DB	04dH
	DB	0ffH
	DB	0ffH
	DB	0ffH
	DB	04dH
	DB	0ffH
	DB	0ffH
	DB	0ffH
	DB	04dH
	DB	0ffH
	DB	0ffH
	DB	0ffH
	DB	04dH
	DB	0ffH
	DB	0ffH
	DB	0ffH
	DB	04dH
	DB	0ffH
	DB	0ffH
	DB	0ffH
	DB	04dH
	DB	0ffH
	DB	0ffH
	DB	0ffH
	DB	04dH
	DB	0ffH
	DB	0ffH
	DB	0ffH
	DB	04dH
	DB	0ffH
	DB	0ffH
	DB	0ffH
	DB	04dH
	DB	0ffH
	DB	0ffH
	DB	0ffH
	DB	04dH
	DB	0ffH
	DB	0ffH
	DB	0ffH
	DB	04dH
	DB	0ffH
	DB	0ffH
	DB	0ffH
	DB	04dH
	DB	0ffH
	DB	0ffH
	DB	0ffH
	DB	04dH
	DB	0ffH
	DB	0ffH
	DB	0ffH
	DB	04dH
	DB	0ffH
	DB	0ffH
	DB	0ffH
	DB	04dH
	DB	0ffH
	DB	0ffH
	DB	0ffH
	DB	04dH
	DB	0ffH
	DB	0ffH
	DB	0ffH
	DB	04dH
	DB	0ffH
	DB	0ffH
	DB	0ffH
	DB	04dH
	DB	0ffH
	DB	0ffH
	DB	0ffH
	DB	04dH
	DB	0ffH
	DB	0ffH
	DB	0ffH
	DB	04dH
	DB	0ffH
	DB	0ffH
	DB	0ffH
	DB	04dH
	DB	0ffH
	DB	0ffH
	DB	0ffH
	DB	04dH
	DB	0ffH
	DB	0ffH
	DB	0ffH
	DB	04dH
	DB	0ffH
	DB	0ffH
	DB	0ffH
	DB	04dH
	DB	0ffH
	DB	0ffH
	DB	0ffH
	DB	04dH
	DB	0ffH
	DB	0ffH
	DB	0ffH
	DB	04dH
	DB	0ffH
	DB	0ffH
	DB	0ffH
	DB	04dH
	DB	0ffH
	DB	0ffH
	DB	0ffH
	DB	049H
	DB	0ffH
	DB	0ffH
	DB	0ffH
	DB	025H
	DB	0ffH
	DB	0ffH
	DB	0ffH
	DB	02H
	DB	0ffH
	DB	0ffH
	DB	0ffH
	DB	00H
	DB	0ffH
	DB	0ffH
	DB	0ffH
	DB	00H
	DB	0ffH
	DB	0ffH
	DB	0ffH
	DB	00H
	DB	0ffH
	DB	0ffH
	DB	0ffH
	DB	00H
	DB	0ffH
	DB	0ffH
	DB	0ffH
	DB	00H
	DB	0ffH
	DB	0ffH
	DB	0ffH
	DB	00H
	DB	0ffH
	DB	0ffH
	DB	0ffH
	DB	00H
	DB	0ffH
	DB	0ffH
	DB	0ffH
	DB	00H
	DB	0ffH
	DB	0ffH
	DB	0ffH
	DB	00H
	DB	0ffH
	DB	0ffH
	DB	0ffH
	DB	00H
	DB	0ffH
	DB	0ffH
	DB	0ffH
	DB	00H
	DB	0ffH
	DB	0ffH
	DB	0ffH
	DB	00H
	DB	0ffH
	DB	0ffH
	DB	0ffH
	DB	00H
	DB	0ffH
	DB	0ffH
	DB	0ffH
	DB	00H
	DB	0ffH
	DB	0ffH
	DB	0ffH
	DB	00H
	DB	00H
	DB	00H
	DB	00H
	DB	00H
	DB	00H
	DB	00H
	DB	00H
	DB	00H
	DB	00H
	DB	00H
	DB	00H
	DB	00H
	DB	00H
	DB	00H
	DB	00H
	DB	00H
	DB	00H
	DB	00H
	DB	00H
	DB	00H
	DB	00H
	DB	00H
	DB	00H
	DB	00H
	DB	00H
	DB	00H
	DB	00H
	DB	00H
	DB	00H
	DB	00H
	DB	00H
	DB	00H
	DB	00H
	DB	00H
	DB	00H
	DB	00H
	DB	00H
	DB	00H
	DB	00H
	DB	00H
	DB	00H
	DB	00H
	DB	00H
	DB	00H
	DB	00H
	DB	00H
	DB	00H
	DB	00H
	DB	00H
	DB	00H
	DB	00H
	DB	00H
	DB	00H
	DB	00H
	DB	00H
	DB	00H
	DB	00H
	DB	00H
	DB	00H
	DB	00H
	DB	00H
	DB	00H
	DB	00H
	DB	00H
	DB	0ffH
	DB	0ffH
	DB	0ffH
	DB	00H
	DB	0ffH
	DB	0ffH
	DB	0ffH
	DB	00H
	DB	0ffH
	DB	0ffH
	DB	0ffH
	DB	00H
	DB	0ffH
	DB	0ffH
	DB	0ffH
	DB	00H
	DB	0ffH
	DB	0ffH
	DB	0ffH
	DB	00H
	DB	0ffH
	DB	0ffH
	DB	0ffH
	DB	00H
	DB	0ffH
	DB	0ffH
	DB	0ffH
	DB	00H
	DB	0ffH
	DB	0ffH
	DB	0ffH
	DB	00H
	DB	0ffH
	DB	0ffH
	DB	0ffH
	DB	00H
	DB	0ffH
	DB	0ffH
	DB	0ffH
	DB	00H
	DB	0ffH
	DB	0ffH
	DB	0ffH
	DB	00H
	DB	0ffH
	DB	0ffH
	DB	0ffH
	DB	00H
	DB	0ffH
	DB	0ffH
	DB	0ffH
	DB	00H
	DB	0ffH
	DB	0ffH
	DB	0ffH
	DB	00H
	DB	0ffH
	DB	0ffH
	DB	0ffH
	DB	016H
	DB	0ffH
	DB	0ffH
	DB	0ffH
	DB	042H
	DB	0ffH
	DB	0ffH
	DB	0ffH
	DB	04dH
	DB	0ffH
	DB	0ffH
	DB	0ffH
	DB	04dH
	DB	0ffH
	DB	0ffH
	DB	0ffH
	DB	04dH
	DB	0ffH
	DB	0ffH
	DB	0ffH
	DB	04dH
	DB	0ffH
	DB	0ffH
	DB	0ffH
	DB	04dH
	DB	0ffH
	DB	0ffH
	DB	0ffH
	DB	04dH
	DB	0ffH
	DB	0ffH
	DB	0ffH
	DB	04dH
	DB	0ffH
	DB	0ffH
	DB	0ffH
	DB	04dH
	DB	0ffH
	DB	0ffH
	DB	0ffH
	DB	04dH
	DB	0ffH
	DB	0ffH
	DB	0ffH
	DB	04dH
	DB	0ffH
	DB	0ffH
	DB	0ffH
	DB	04dH
	DB	0ffH
	DB	0ffH
	DB	0ffH
	DB	04dH
	DB	0ffH
	DB	0ffH
	DB	0ffH
	DB	04dH
	DB	0ffH
	DB	0ffH
	DB	0ffH
	DB	04dH
	DB	0ffH
	DB	0ffH
	DB	0ffH
	DB	04dH
	DB	0ffH
	DB	0ffH
	DB	0ffH
	DB	04dH
	DB	0ffH
	DB	0ffH
	DB	0ffH
	DB	04dH
	DB	0ffH
	DB	0ffH
	DB	0ffH
	DB	04dH
	DB	0ffH
	DB	0ffH
	DB	0ffH
	DB	04dH
	DB	0ffH
	DB	0ffH
	DB	0ffH
	DB	04dH
	DB	0ffH
	DB	0ffH
	DB	0ffH
	DB	04dH
	DB	0ffH
	DB	0ffH
	DB	0ffH
	DB	04dH
	DB	0ffH
	DB	0ffH
	DB	0ffH
	DB	04dH
	DB	0ffH
	DB	0ffH
	DB	0ffH
	DB	04dH
	DB	0ffH
	DB	0ffH
	DB	0ffH
	DB	04dH
	DB	0ffH
	DB	0ffH
	DB	0ffH
	DB	04dH
	DB	0ffH
	DB	0ffH
	DB	0ffH
	DB	049H
	DB	0ffH
	DB	0ffH
	DB	0ffH
	DB	03aH
	DB	0ffH
	DB	0ffH
	DB	0ffH
	DB	02eH
	DB	0ffH
	DB	0ffH
	DB	0ffH
	DB	021H
	DB	0ffH
	DB	0ffH
	DB	0ffH
	DB	015H
	DB	0ffH
	DB	0ffH
	DB	0ffH
	DB	0cH
	DB	0ffH
	DB	0ffH
	DB	0ffH
	DB	03H
	DB	0ffH
	DB	0ffH
	DB	0ffH
	DB	00H
	DB	0ffH
	DB	0ffH
	DB	0ffH
	DB	00H
	DB	0ffH
	DB	0ffH
	DB	0ffH
	DB	00H
	DB	0ffH
	DB	0ffH
	DB	0ffH
	DB	00H
	DB	0ffH
	DB	0ffH
	DB	0ffH
	DB	00H
	DB	0ffH
	DB	0ffH
	DB	0ffH
	DB	00H
	DB	0ffH
	DB	0ffH
	DB	0ffH
	DB	00H
	DB	0ffH
	DB	0ffH
	DB	0ffH
	DB	00H
	DB	0ffH
	DB	0ffH
	DB	0ffH
	DB	00H
	DB	0ffH
	DB	0ffH
	DB	0ffH
	DB	00H
	DB	0ffH
	DB	0ffH
	DB	0ffH
	DB	00H
	DB	0ffH
	DB	0ffH
	DB	0ffH
	DB	00H
	DB	0ffH
	DB	0ffH
	DB	0ffH
	DB	00H
	DB	0ffH
	DB	0ffH
	DB	0ffH
	DB	00H
	DB	0ffH
	DB	0ffH
	DB	0ffH
	DB	03H
	DB	0ffH
	DB	0ffH
	DB	0ffH
	DB	0cH
	DB	0ffH
	DB	0ffH
	DB	0ffH
	DB	015H
	DB	0ffH
	DB	0ffH
	DB	0ffH
	DB	022H
	DB	0ffH
	DB	0ffH
	DB	0ffH
	DB	02eH
	DB	0ffH
	DB	0ffH
	DB	0ffH
	DB	03bH
	DB	0ffH
	DB	0ffH
	DB	0ffH
	DB	049H
	DB	0ffH
	DB	0ffH
	DB	0ffH
	DB	04dH
	DB	0ffH
	DB	0ffH
	DB	0ffH
	DB	04dH
	DB	0ffH
	DB	0ffH
	DB	0ffH
	DB	04dH
	DB	0ffH
	DB	0ffH
	DB	0ffH
	DB	04dH
	DB	0ffH
	DB	0ffH
	DB	0ffH
	DB	04dH
	DB	0ffH
	DB	0ffH
	DB	0ffH
	DB	04dH
	DB	0ffH
	DB	0ffH
	DB	0ffH
	DB	04dH
	DB	0ffH
	DB	0ffH
	DB	0ffH
	DB	04dH
	DB	0ffH
	DB	0ffH
	DB	0ffH
	DB	04dH
	DB	0ffH
	DB	0ffH
	DB	0ffH
	DB	04dH
	DB	0ffH
	DB	0ffH
	DB	0ffH
	DB	04dH
	DB	0ffH
	DB	0ffH
	DB	0ffH
	DB	04dH
	DB	0ffH
	DB	0ffH
	DB	0ffH
	DB	04dH
	DB	0ffH
	DB	0ffH
	DB	0ffH
	DB	04dH
	DB	0ffH
	DB	0ffH
	DB	0ffH
	DB	04dH
	DB	0ffH
	DB	0ffH
	DB	0ffH
	DB	04dH
	DB	0ffH
	DB	0ffH
	DB	0ffH
	DB	04dH
	DB	0ffH
	DB	0ffH
	DB	0ffH
	DB	04dH
	DB	0ffH
	DB	0ffH
	DB	0ffH
	DB	04dH
	DB	0ffH
	DB	0ffH
	DB	0ffH
	DB	04dH
	DB	0ffH
	DB	0ffH
	DB	0ffH
	DB	04dH
	DB	0ffH
	DB	0ffH
	DB	0ffH
	DB	04dH
	DB	0ffH
	DB	0ffH
	DB	0ffH
	DB	04dH
	DB	0ffH
	DB	0ffH
	DB	0ffH
	DB	04dH
	DB	0ffH
	DB	0ffH
	DB	0ffH
	DB	04dH
	DB	0ffH
	DB	0ffH
	DB	0ffH
	DB	04dH
	DB	0ffH
	DB	0ffH
	DB	0ffH
	DB	042H
	DB	0ffH
	DB	0ffH
	DB	0ffH
	DB	015H
	DB	0ffH
	DB	0ffH
	DB	0ffH
	DB	00H
	DB	0ffH
	DB	0ffH
	DB	0ffH
	DB	00H
	DB	0ffH
	DB	0ffH
	DB	0ffH
	DB	00H
	DB	0ffH
	DB	0ffH
	DB	0ffH
	DB	00H
	DB	0ffH
	DB	0ffH
	DB	0ffH
	DB	00H
	DB	0ffH
	DB	0ffH
	DB	0ffH
	DB	00H
	DB	0ffH
	DB	0ffH
	DB	0ffH
	DB	00H
	DB	0ffH
	DB	0ffH
	DB	0ffH
	DB	00H
	DB	0ffH
	DB	0ffH
	DB	0ffH
	DB	00H
	DB	0ffH
	DB	0ffH
	DB	0ffH
	DB	00H
	DB	0ffH
	DB	0ffH
	DB	0ffH
	DB	00H
	DB	0ffH
	DB	0ffH
	DB	0ffH
	DB	00H
	DB	0ffH
	DB	0ffH
	DB	0ffH
	DB	00H
	DB	0ffH
	DB	0ffH
	DB	0ffH
	DB	00H
	DB	00H
	DB	00H
	DB	00H
	DB	00H
	DB	00H
	DB	00H
	DB	00H
	DB	00H
	DB	00H
	DB	00H
	DB	00H
	DB	00H
	DB	00H
	DB	00H
	DB	00H
	DB	00H
	DB	00H
	DB	00H
	DB	00H
	DB	00H
	DB	00H
	DB	00H
	DB	00H
	DB	00H
	DB	00H
	DB	00H
	DB	00H
	DB	00H
	DB	00H
	DB	00H
	DB	00H
	DB	00H
	DB	00H
	DB	00H
	DB	00H
	DB	00H
	DB	00H
	DB	00H
	DB	00H
	DB	00H
	DB	00H
	DB	00H
	DB	00H
	DB	00H
	DB	00H
	DB	00H
	DB	00H
	DB	00H
	DB	00H
	DB	00H
	DB	00H
	DB	00H
	DB	00H
	DB	00H
	DB	00H
	DB	00H
	DB	00H
	DB	00H
	DB	00H
	DB	00H
	DB	00H
	DB	00H
	DB	00H
	DB	00H
	DB	0ffH
	DB	0ffH
	DB	0ffH
	DB	00H
	DB	0ffH
	DB	0ffH
	DB	0ffH
	DB	00H
	DB	0ffH
	DB	0ffH
	DB	0ffH
	DB	00H
	DB	0ffH
	DB	0ffH
	DB	0ffH
	DB	00H
	DB	0ffH
	DB	0ffH
	DB	0ffH
	DB	00H
	DB	0ffH
	DB	0ffH
	DB	0ffH
	DB	00H
	DB	0ffH
	DB	0ffH
	DB	0ffH
	DB	00H
	DB	0ffH
	DB	0ffH
	DB	0ffH
	DB	00H
	DB	0ffH
	DB	0ffH
	DB	0ffH
	DB	00H
	DB	0ffH
	DB	0ffH
	DB	0ffH
	DB	00H
	DB	0ffH
	DB	0ffH
	DB	0ffH
	DB	00H
	DB	0ffH
	DB	0ffH
	DB	0ffH
	DB	00H
	DB	0ffH
	DB	0ffH
	DB	0ffH
	DB	06H
	DB	0ffH
	DB	0ffH
	DB	0ffH
	DB	033H
	DB	0ffH
	DB	0ffH
	DB	0ffH
	DB	04dH
	DB	0ffH
	DB	0ffH
	DB	0ffH
	DB	04dH
	DB	0ffH
	DB	0ffH
	DB	0ffH
	DB	04dH
	DB	0ffH
	DB	0ffH
	DB	0ffH
	DB	04dH
	DB	0ffH
	DB	0ffH
	DB	0ffH
	DB	04dH
	DB	0ffH
	DB	0ffH
	DB	0ffH
	DB	04dH
	DB	0ffH
	DB	0ffH
	DB	0ffH
	DB	04dH
	DB	0ffH
	DB	0ffH
	DB	0ffH
	DB	04dH
	DB	0ffH
	DB	0ffH
	DB	0ffH
	DB	04dH
	DB	0ffH
	DB	0ffH
	DB	0ffH
	DB	04dH
	DB	0ffH
	DB	0ffH
	DB	0ffH
	DB	04dH
	DB	0ffH
	DB	0ffH
	DB	0ffH
	DB	04dH
	DB	0ffH
	DB	0ffH
	DB	0ffH
	DB	04dH
	DB	0ffH
	DB	0ffH
	DB	0ffH
	DB	04dH
	DB	0ffH
	DB	0ffH
	DB	0ffH
	DB	04dH
	DB	0ffH
	DB	0ffH
	DB	0ffH
	DB	04dH
	DB	0ffH
	DB	0ffH
	DB	0ffH
	DB	04dH
	DB	0ffH
	DB	0ffH
	DB	0ffH
	DB	04dH
	DB	0ffH
	DB	0ffH
	DB	0ffH
	DB	04dH
	DB	0ffH
	DB	0ffH
	DB	0ffH
	DB	04dH
	DB	0ffH
	DB	0ffH
	DB	0ffH
	DB	04dH
	DB	0ffH
	DB	0ffH
	DB	0ffH
	DB	04dH
	DB	0ffH
	DB	0ffH
	DB	0ffH
	DB	04dH
	DB	0ffH
	DB	0ffH
	DB	0ffH
	DB	04dH
	DB	0ffH
	DB	0ffH
	DB	0ffH
	DB	045H
	DB	0ffH
	DB	0ffH
	DB	0ffH
	DB	031H
	DB	0ffH
	DB	0ffH
	DB	0ffH
	DB	01eH
	DB	0ffH
	DB	0ffH
	DB	0ffH
	DB	0dH
	DB	0ffH
	DB	0ffH
	DB	0ffH
	DB	01H
	DB	0ffH
	DB	0ffH
	DB	0ffH
	DB	00H
	DB	0ffH
	DB	0ffH
	DB	0ffH
	DB	00H
	DB	0ffH
	DB	0ffH
	DB	0ffH
	DB	00H
	DB	0ffH
	DB	0ffH
	DB	0ffH
	DB	00H
	DB	0ffH
	DB	0ffH
	DB	0ffH
	DB	00H
	DB	0ffH
	DB	0ffH
	DB	0ffH
	DB	00H
	DB	0ffH
	DB	0ffH
	DB	0ffH
	DB	00H
	DB	0ffH
	DB	0ffH
	DB	0ffH
	DB	00H
	DB	0ffH
	DB	0ffH
	DB	0ffH
	DB	00H
	DB	0ffH
	DB	0ffH
	DB	0ffH
	DB	00H
	DB	0ffH
	DB	0ffH
	DB	0ffH
	DB	00H
	DB	0ffH
	DB	0ffH
	DB	0ffH
	DB	00H
	DB	0ffH
	DB	0ffH
	DB	0ffH
	DB	00H
	DB	0ffH
	DB	0ffH
	DB	0ffH
	DB	00H
	DB	0ffH
	DB	0ffH
	DB	0ffH
	DB	00H
	DB	0ffH
	DB	0ffH
	DB	0ffH
	DB	00H
	DB	0ffH
	DB	0ffH
	DB	0ffH
	DB	00H
	DB	0ffH
	DB	0ffH
	DB	0ffH
	DB	00H
	DB	0ffH
	DB	0ffH
	DB	0ffH
	DB	00H
	DB	0ffH
	DB	0ffH
	DB	0ffH
	DB	00H
	DB	0ffH
	DB	0ffH
	DB	0ffH
	DB	00H
	DB	0ffH
	DB	0ffH
	DB	0ffH
	DB	00H
	DB	0ffH
	DB	0ffH
	DB	0ffH
	DB	00H
	DB	0ffH
	DB	0ffH
	DB	0ffH
	DB	00H
	DB	0ffH
	DB	0ffH
	DB	0ffH
	DB	00H
	DB	0ffH
	DB	0ffH
	DB	0ffH
	DB	00H
	DB	0ffH
	DB	0ffH
	DB	0ffH
	DB	01H
	DB	0ffH
	DB	0ffH
	DB	0ffH
	DB	0eH
	DB	0ffH
	DB	0ffH
	DB	0ffH
	DB	01eH
	DB	0ffH
	DB	0ffH
	DB	0ffH
	DB	031H
	DB	0ffH
	DB	0ffH
	DB	0ffH
	DB	045H
	DB	0ffH
	DB	0ffH
	DB	0ffH
	DB	04dH
	DB	0ffH
	DB	0ffH
	DB	0ffH
	DB	04dH
	DB	0ffH
	DB	0ffH
	DB	0ffH
	DB	04dH
	DB	0ffH
	DB	0ffH
	DB	0ffH
	DB	04dH
	DB	0ffH
	DB	0ffH
	DB	0ffH
	DB	04dH
	DB	0ffH
	DB	0ffH
	DB	0ffH
	DB	04dH
	DB	0ffH
	DB	0ffH
	DB	0ffH
	DB	04dH
	DB	0ffH
	DB	0ffH
	DB	0ffH
	DB	04dH
	DB	0ffH
	DB	0ffH
	DB	0ffH
	DB	04dH
	DB	0ffH
	DB	0ffH
	DB	0ffH
	DB	04dH
	DB	0ffH
	DB	0ffH
	DB	0ffH
	DB	04dH
	DB	0ffH
	DB	0ffH
	DB	0ffH
	DB	04dH
	DB	0ffH
	DB	0ffH
	DB	0ffH
	DB	04dH
	DB	0ffH
	DB	0ffH
	DB	0ffH
	DB	04dH
	DB	0ffH
	DB	0ffH
	DB	0ffH
	DB	04dH
	DB	0ffH
	DB	0ffH
	DB	0ffH
	DB	04dH
	DB	0ffH
	DB	0ffH
	DB	0ffH
	DB	04dH
	DB	0ffH
	DB	0ffH
	DB	0ffH
	DB	04dH
	DB	0ffH
	DB	0ffH
	DB	0ffH
	DB	04dH
	DB	0ffH
	DB	0ffH
	DB	0ffH
	DB	04dH
	DB	0ffH
	DB	0ffH
	DB	0ffH
	DB	04dH
	DB	0ffH
	DB	0ffH
	DB	0ffH
	DB	04dH
	DB	0ffH
	DB	0ffH
	DB	0ffH
	DB	04dH
	DB	0ffH
	DB	0ffH
	DB	0ffH
	DB	04dH
	DB	0ffH
	DB	0ffH
	DB	0ffH
	DB	032H
	DB	0ffH
	DB	0ffH
	DB	0ffH
	DB	06H
	DB	0ffH
	DB	0ffH
	DB	0ffH
	DB	00H
	DB	0ffH
	DB	0ffH
	DB	0ffH
	DB	00H
	DB	0ffH
	DB	0ffH
	DB	0ffH
	DB	00H
	DB	0ffH
	DB	0ffH
	DB	0ffH
	DB	00H
	DB	0ffH
	DB	0ffH
	DB	0ffH
	DB	00H
	DB	0ffH
	DB	0ffH
	DB	0ffH
	DB	00H
	DB	0ffH
	DB	0ffH
	DB	0ffH
	DB	00H
	DB	0ffH
	DB	0ffH
	DB	0ffH
	DB	00H
	DB	0ffH
	DB	0ffH
	DB	0ffH
	DB	00H
	DB	0ffH
	DB	0ffH
	DB	0ffH
	DB	00H
	DB	0ffH
	DB	0ffH
	DB	0ffH
	DB	00H
	DB	0ffH
	DB	0ffH
	DB	0ffH
	DB	00H
	DB	00H
	DB	00H
	DB	00H
	DB	00H
	DB	00H
	DB	00H
	DB	00H
	DB	00H
	DB	00H
	DB	00H
	DB	00H
	DB	00H
	DB	00H
	DB	00H
	DB	00H
	DB	00H
	DB	00H
	DB	00H
	DB	00H
	DB	00H
	DB	00H
	DB	00H
	DB	00H
	DB	00H
	DB	00H
	DB	00H
	DB	00H
	DB	00H
	DB	00H
	DB	00H
	DB	00H
	DB	00H
	DB	00H
	DB	00H
	DB	00H
	DB	00H
	DB	00H
	DB	00H
	DB	00H
	DB	00H
	DB	00H
	DB	00H
	DB	00H
	DB	00H
	DB	00H
	DB	00H
	DB	00H
	DB	00H
	DB	00H
	DB	00H
	DB	00H
	DB	00H
	DB	00H
	DB	00H
	DB	00H
	DB	00H
	DB	00H
	DB	00H
	DB	00H
	DB	00H
	DB	00H
	DB	00H
	DB	00H
	DB	00H
	DB	0ffH
	DB	0ffH
	DB	0ffH
	DB	00H
	DB	0ffH
	DB	0ffH
	DB	0ffH
	DB	00H
	DB	0ffH
	DB	0ffH
	DB	0ffH
	DB	00H
	DB	0ffH
	DB	0ffH
	DB	0ffH
	DB	00H
	DB	0ffH
	DB	0ffH
	DB	0ffH
	DB	00H
	DB	0ffH
	DB	0ffH
	DB	0ffH
	DB	00H
	DB	0ffH
	DB	0ffH
	DB	0ffH
	DB	00H
	DB	0ffH
	DB	0ffH
	DB	0ffH
	DB	00H
	DB	0ffH
	DB	0ffH
	DB	0ffH
	DB	00H
	DB	0ffH
	DB	0ffH
	DB	0ffH
	DB	00H
	DB	0ffH
	DB	0ffH
	DB	0ffH
	DB	00H
	DB	0ffH
	DB	0ffH
	DB	0ffH
	DB	019H
	DB	0ffH
	DB	0ffH
	DB	0ffH
	DB	046H
	DB	0ffH
	DB	0ffH
	DB	0ffH
	DB	04dH
	DB	0ffH
	DB	0ffH
	DB	0ffH
	DB	04dH
	DB	0ffH
	DB	0ffH
	DB	0ffH
	DB	04dH
	DB	0ffH
	DB	0ffH
	DB	0ffH
	DB	04dH
	DB	0ffH
	DB	0ffH
	DB	0ffH
	DB	04dH
	DB	0ffH
	DB	0ffH
	DB	0ffH
	DB	04dH
	DB	0ffH
	DB	0ffH
	DB	0ffH
	DB	04dH
	DB	0ffH
	DB	0ffH
	DB	0ffH
	DB	04dH
	DB	0ffH
	DB	0ffH
	DB	0ffH
	DB	04dH
	DB	0ffH
	DB	0ffH
	DB	0ffH
	DB	04dH
	DB	0ffH
	DB	0ffH
	DB	0ffH
	DB	04dH
	DB	0ffH
	DB	0ffH
	DB	0ffH
	DB	04dH
	DB	0ffH
	DB	0ffH
	DB	0ffH
	DB	04dH
	DB	0ffH
	DB	0ffH
	DB	0ffH
	DB	04dH
	DB	0ffH
	DB	0ffH
	DB	0ffH
	DB	04dH
	DB	0ffH
	DB	0ffH
	DB	0ffH
	DB	04dH
	DB	0ffH
	DB	0ffH
	DB	0ffH
	DB	04dH
	DB	0ffH
	DB	0ffH
	DB	0ffH
	DB	04dH
	DB	0ffH
	DB	0ffH
	DB	0ffH
	DB	04dH
	DB	0ffH
	DB	0ffH
	DB	0ffH
	DB	04dH
	DB	0ffH
	DB	0ffH
	DB	0ffH
	DB	04dH
	DB	0ffH
	DB	0ffH
	DB	0ffH
	DB	04cH
	DB	0ffH
	DB	0ffH
	DB	0ffH
	DB	03bH
	DB	0ffH
	DB	0ffH
	DB	0ffH
	DB	023H
	DB	0ffH
	DB	0ffH
	DB	0ffH
	DB	0cH
	DB	0ffH
	DB	0ffH
	DB	0ffH
	DB	00H
	DB	0ffH
	DB	0ffH
	DB	0ffH
	DB	00H
	DB	0ffH
	DB	0ffH
	DB	0ffH
	DB	00H
	DB	0ffH
	DB	0ffH
	DB	0ffH
	DB	00H
	DB	0ffH
	DB	0ffH
	DB	0ffH
	DB	00H
	DB	0ffH
	DB	0ffH
	DB	0ffH
	DB	00H
	DB	0ffH
	DB	0ffH
	DB	0ffH
	DB	00H
	DB	0ffH
	DB	0ffH
	DB	0ffH
	DB	00H
	DB	0ffH
	DB	0ffH
	DB	0ffH
	DB	00H
	DB	0ffH
	DB	0ffH
	DB	0ffH
	DB	00H
	DB	0ffH
	DB	0ffH
	DB	0ffH
	DB	00H
	DB	0ffH
	DB	0ffH
	DB	0ffH
	DB	00H
	DB	0ffH
	DB	0ffH
	DB	0ffH
	DB	00H
	DB	0ffH
	DB	0ffH
	DB	0ffH
	DB	00H
	DB	0ffH
	DB	0ffH
	DB	0ffH
	DB	00H
	DB	0ffH
	DB	0ffH
	DB	0ffH
	DB	00H
	DB	0ffH
	DB	0ffH
	DB	0ffH
	DB	00H
	DB	0ffH
	DB	0ffH
	DB	0ffH
	DB	00H
	DB	0ffH
	DB	0ffH
	DB	0ffH
	DB	00H
	DB	0ffH
	DB	0ffH
	DB	0ffH
	DB	00H
	DB	0ffH
	DB	0ffH
	DB	0ffH
	DB	00H
	DB	0ffH
	DB	0ffH
	DB	0ffH
	DB	00H
	DB	0ffH
	DB	0ffH
	DB	0ffH
	DB	00H
	DB	0ffH
	DB	0ffH
	DB	0ffH
	DB	00H
	DB	0ffH
	DB	0ffH
	DB	0ffH
	DB	00H
	DB	0ffH
	DB	0ffH
	DB	0ffH
	DB	00H
	DB	0ffH
	DB	0ffH
	DB	0ffH
	DB	00H
	DB	0ffH
	DB	0ffH
	DB	0ffH
	DB	00H
	DB	0ffH
	DB	0ffH
	DB	0ffH
	DB	00H
	DB	0ffH
	DB	0ffH
	DB	0ffH
	DB	00H
	DB	0ffH
	DB	0ffH
	DB	0ffH
	DB	00H
	DB	0ffH
	DB	0ffH
	DB	0ffH
	DB	00H
	DB	0ffH
	DB	0ffH
	DB	0ffH
	DB	00H
	DB	0ffH
	DB	0ffH
	DB	0ffH
	DB	00H
	DB	0ffH
	DB	0ffH
	DB	0ffH
	DB	00H
	DB	0ffH
	DB	0ffH
	DB	0ffH
	DB	00H
	DB	0ffH
	DB	0ffH
	DB	0ffH
	DB	0dH
	DB	0ffH
	DB	0ffH
	DB	0ffH
	DB	024H
	DB	0ffH
	DB	0ffH
	DB	0ffH
	DB	03cH
	DB	0ffH
	DB	0ffH
	DB	0ffH
	DB	04cH
	DB	0ffH
	DB	0ffH
	DB	0ffH
	DB	04dH
	DB	0ffH
	DB	0ffH
	DB	0ffH
	DB	04dH
	DB	0ffH
	DB	0ffH
	DB	0ffH
	DB	04dH
	DB	0ffH
	DB	0ffH
	DB	0ffH
	DB	04dH
	DB	0ffH
	DB	0ffH
	DB	0ffH
	DB	04dH
	DB	0ffH
	DB	0ffH
	DB	0ffH
	DB	04dH
	DB	0ffH
	DB	0ffH
	DB	0ffH
	DB	04dH
	DB	0ffH
	DB	0ffH
	DB	0ffH
	DB	04dH
	DB	0ffH
	DB	0ffH
	DB	0ffH
	DB	04dH
	DB	0ffH
	DB	0ffH
	DB	0ffH
	DB	04dH
	DB	0ffH
	DB	0ffH
	DB	0ffH
	DB	04dH
	DB	0ffH
	DB	0ffH
	DB	0ffH
	DB	04dH
	DB	0ffH
	DB	0ffH
	DB	0ffH
	DB	04dH
	DB	0ffH
	DB	0ffH
	DB	0ffH
	DB	04dH
	DB	0ffH
	DB	0ffH
	DB	0ffH
	DB	04dH
	DB	0ffH
	DB	0ffH
	DB	0ffH
	DB	04dH
	DB	0ffH
	DB	0ffH
	DB	0ffH
	DB	04dH
	DB	0ffH
	DB	0ffH
	DB	0ffH
	DB	04dH
	DB	0ffH
	DB	0ffH
	DB	0ffH
	DB	04dH
	DB	0ffH
	DB	0ffH
	DB	0ffH
	DB	04dH
	DB	0ffH
	DB	0ffH
	DB	0ffH
	DB	04dH
	DB	0ffH
	DB	0ffH
	DB	0ffH
	DB	046H
	DB	0ffH
	DB	0ffH
	DB	0ffH
	DB	018H
	DB	0ffH
	DB	0ffH
	DB	0ffH
	DB	00H
	DB	0ffH
	DB	0ffH
	DB	0ffH
	DB	00H
	DB	0ffH
	DB	0ffH
	DB	0ffH
	DB	00H
	DB	0ffH
	DB	0ffH
	DB	0ffH
	DB	00H
	DB	0ffH
	DB	0ffH
	DB	0ffH
	DB	00H
	DB	0ffH
	DB	0ffH
	DB	0ffH
	DB	00H
	DB	0ffH
	DB	0ffH
	DB	0ffH
	DB	00H
	DB	0ffH
	DB	0ffH
	DB	0ffH
	DB	00H
	DB	0ffH
	DB	0ffH
	DB	0ffH
	DB	00H
	DB	0ffH
	DB	0ffH
	DB	0ffH
	DB	00H
	DB	0ffH
	DB	0ffH
	DB	0ffH
	DB	00H
	DB	00H
	DB	00H
	DB	00H
	DB	00H
	DB	00H
	DB	00H
	DB	00H
	DB	00H
	DB	00H
	DB	00H
	DB	00H
	DB	00H
	DB	00H
	DB	00H
	DB	00H
	DB	00H
	DB	00H
	DB	00H
	DB	00H
	DB	00H
	DB	00H
	DB	00H
	DB	00H
	DB	00H
	DB	00H
	DB	00H
	DB	00H
	DB	00H
	DB	00H
	DB	00H
	DB	00H
	DB	00H
	DB	00H
	DB	00H
	DB	00H
	DB	00H
	DB	00H
	DB	00H
	DB	00H
	DB	00H
	DB	00H
	DB	00H
	DB	00H
	DB	00H
	DB	00H
	DB	00H
	DB	00H
	DB	00H
	DB	00H
	DB	00H
	DB	00H
	DB	00H
	DB	00H
	DB	00H
	DB	00H
	DB	00H
	DB	00H
	DB	00H
	DB	00H
	DB	00H
	DB	00H
	DB	00H
	DB	00H
	DB	00H
	DB	0ffH
	DB	0ffH
	DB	0ffH
	DB	00H
	DB	0ffH
	DB	0ffH
	DB	0ffH
	DB	00H
	DB	0ffH
	DB	0ffH
	DB	0ffH
	DB	00H
	DB	0ffH
	DB	0ffH
	DB	0ffH
	DB	00H
	DB	0ffH
	DB	0ffH
	DB	0ffH
	DB	00H
	DB	0ffH
	DB	0ffH
	DB	0ffH
	DB	00H
	DB	0ffH
	DB	0ffH
	DB	0ffH
	DB	00H
	DB	0ffH
	DB	0ffH
	DB	0ffH
	DB	00H
	DB	0ffH
	DB	0ffH
	DB	0ffH
	DB	00H
	DB	0ffH
	DB	0ffH
	DB	0ffH
	DB	04H
	DB	0ffH
	DB	0ffH
	DB	0ffH
	DB	031H
	DB	0ffH
	DB	0ffH
	DB	0ffH
	DB	04dH
	DB	0ffH
	DB	0ffH
	DB	0ffH
	DB	04dH
	DB	0ffH
	DB	0ffH
	DB	0ffH
	DB	04dH
	DB	0ffH
	DB	0ffH
	DB	0ffH
	DB	04dH
	DB	0ffH
	DB	0ffH
	DB	0ffH
	DB	04dH
	DB	0ffH
	DB	0ffH
	DB	0ffH
	DB	04dH
	DB	0ffH
	DB	0ffH
	DB	0ffH
	DB	04dH
	DB	0ffH
	DB	0ffH
	DB	0ffH
	DB	04dH
	DB	0ffH
	DB	0ffH
	DB	0ffH
	DB	04dH
	DB	0ffH
	DB	0ffH
	DB	0ffH
	DB	04dH
	DB	0ffH
	DB	0ffH
	DB	0ffH
	DB	04dH
	DB	0ffH
	DB	0ffH
	DB	0ffH
	DB	04dH
	DB	0ffH
	DB	0ffH
	DB	0ffH
	DB	04dH
	DB	0ffH
	DB	0ffH
	DB	0ffH
	DB	04dH
	DB	0ffH
	DB	0ffH
	DB	0ffH
	DB	04dH
	DB	0ffH
	DB	0ffH
	DB	0ffH
	DB	04dH
	DB	0ffH
	DB	0ffH
	DB	0ffH
	DB	04dH
	DB	0ffH
	DB	0ffH
	DB	0ffH
	DB	04dH
	DB	0ffH
	DB	0ffH
	DB	0ffH
	DB	04dH
	DB	0ffH
	DB	0ffH
	DB	0ffH
	DB	04dH
	DB	0ffH
	DB	0ffH
	DB	0ffH
	DB	04dH
	DB	0ffH
	DB	0ffH
	DB	0ffH
	DB	03eH
	DB	0ffH
	DB	0ffH
	DB	0ffH
	DB	021H
	DB	0ffH
	DB	0ffH
	DB	0ffH
	DB	07H
	DB	0ffH
	DB	0ffH
	DB	0ffH
	DB	00H
	DB	0ffH
	DB	0ffH
	DB	0ffH
	DB	00H
	DB	0ffH
	DB	0ffH
	DB	0ffH
	DB	00H
	DB	0ffH
	DB	0ffH
	DB	0ffH
	DB	00H
	DB	0ffH
	DB	0ffH
	DB	0ffH
	DB	00H
	DB	0ffH
	DB	0ffH
	DB	0ffH
	DB	00H
	DB	0ffH
	DB	0ffH
	DB	0ffH
	DB	00H
	DB	0ffH
	DB	0ffH
	DB	0ffH
	DB	00H
	DB	0ffH
	DB	0ffH
	DB	0ffH
	DB	00H
	DB	0ffH
	DB	0ffH
	DB	0ffH
	DB	00H
	DB	0ffH
	DB	0ffH
	DB	0ffH
	DB	00H
	DB	0ffH
	DB	0ffH
	DB	0ffH
	DB	00H
	DB	0ffH
	DB	0ffH
	DB	0ffH
	DB	00H
	DB	0ffH
	DB	0ffH
	DB	0ffH
	DB	00H
	DB	0ffH
	DB	0ffH
	DB	0ffH
	DB	00H
	DB	0ffH
	DB	0ffH
	DB	0ffH
	DB	00H
	DB	0ffH
	DB	0ffH
	DB	0ffH
	DB	00H
	DB	0ffH
	DB	0ffH
	DB	0ffH
	DB	00H
	DB	0ffH
	DB	0ffH
	DB	0ffH
	DB	00H
	DB	0ffH
	DB	0ffH
	DB	0ffH
	DB	00H
	DB	0ffH
	DB	0ffH
	DB	0ffH
	DB	00H
	DB	0ffH
	DB	0ffH
	DB	0ffH
	DB	00H
	DB	0ffH
	DB	0ffH
	DB	0ffH
	DB	00H
	DB	0ffH
	DB	0ffH
	DB	0ffH
	DB	00H
	DB	0ffH
	DB	0ffH
	DB	0ffH
	DB	00H
	DB	0ffH
	DB	0ffH
	DB	0ffH
	DB	00H
	DB	0ffH
	DB	0ffH
	DB	0ffH
	DB	00H
	DB	0ffH
	DB	0ffH
	DB	0ffH
	DB	00H
	DB	0ffH
	DB	0ffH
	DB	0ffH
	DB	00H
	DB	0ffH
	DB	0ffH
	DB	0ffH
	DB	00H
	DB	0ffH
	DB	0ffH
	DB	0ffH
	DB	00H
	DB	0ffH
	DB	0ffH
	DB	0ffH
	DB	00H
	DB	0ffH
	DB	0ffH
	DB	0ffH
	DB	00H
	DB	0ffH
	DB	0ffH
	DB	0ffH
	DB	00H
	DB	0ffH
	DB	0ffH
	DB	0ffH
	DB	00H
	DB	0ffH
	DB	0ffH
	DB	0ffH
	DB	00H
	DB	0ffH
	DB	0ffH
	DB	0ffH
	DB	00H
	DB	0ffH
	DB	0ffH
	DB	0ffH
	DB	00H
	DB	0ffH
	DB	0ffH
	DB	0ffH
	DB	00H
	DB	0ffH
	DB	0ffH
	DB	0ffH
	DB	00H
	DB	0ffH
	DB	0ffH
	DB	0ffH
	DB	00H
	DB	0ffH
	DB	0ffH
	DB	0ffH
	DB	00H
	DB	0ffH
	DB	0ffH
	DB	0ffH
	DB	07H
	DB	0ffH
	DB	0ffH
	DB	0ffH
	DB	022H
	DB	0ffH
	DB	0ffH
	DB	0ffH
	DB	03eH
	DB	0ffH
	DB	0ffH
	DB	0ffH
	DB	04dH
	DB	0ffH
	DB	0ffH
	DB	0ffH
	DB	04dH
	DB	0ffH
	DB	0ffH
	DB	0ffH
	DB	04dH
	DB	0ffH
	DB	0ffH
	DB	0ffH
	DB	04dH
	DB	0ffH
	DB	0ffH
	DB	0ffH
	DB	04dH
	DB	0ffH
	DB	0ffH
	DB	0ffH
	DB	04dH
	DB	0ffH
	DB	0ffH
	DB	0ffH
	DB	04dH
	DB	0ffH
	DB	0ffH
	DB	0ffH
	DB	04dH
	DB	0ffH
	DB	0ffH
	DB	0ffH
	DB	04dH
	DB	0ffH
	DB	0ffH
	DB	0ffH
	DB	04dH
	DB	0ffH
	DB	0ffH
	DB	0ffH
	DB	04dH
	DB	0ffH
	DB	0ffH
	DB	0ffH
	DB	04dH
	DB	0ffH
	DB	0ffH
	DB	0ffH
	DB	04dH
	DB	0ffH
	DB	0ffH
	DB	0ffH
	DB	04dH
	DB	0ffH
	DB	0ffH
	DB	0ffH
	DB	04dH
	DB	0ffH
	DB	0ffH
	DB	0ffH
	DB	04dH
	DB	0ffH
	DB	0ffH
	DB	0ffH
	DB	04dH
	DB	0ffH
	DB	0ffH
	DB	0ffH
	DB	04dH
	DB	0ffH
	DB	0ffH
	DB	0ffH
	DB	04dH
	DB	0ffH
	DB	0ffH
	DB	0ffH
	DB	04dH
	DB	0ffH
	DB	0ffH
	DB	0ffH
	DB	04dH
	DB	0ffH
	DB	0ffH
	DB	0ffH
	DB	02fH
	DB	0ffH
	DB	0ffH
	DB	0ffH
	DB	03H
	DB	0ffH
	DB	0ffH
	DB	0ffH
	DB	00H
	DB	0ffH
	DB	0ffH
	DB	0ffH
	DB	00H
	DB	0ffH
	DB	0ffH
	DB	0ffH
	DB	00H
	DB	0ffH
	DB	0ffH
	DB	0ffH
	DB	00H
	DB	0ffH
	DB	0ffH
	DB	0ffH
	DB	00H
	DB	0ffH
	DB	0ffH
	DB	0ffH
	DB	00H
	DB	0ffH
	DB	0ffH
	DB	0ffH
	DB	00H
	DB	0ffH
	DB	0ffH
	DB	0ffH
	DB	00H
	DB	0ffH
	DB	0ffH
	DB	0ffH
	DB	00H
	DB	00H
	DB	00H
	DB	00H
	DB	00H
	DB	00H
	DB	00H
	DB	00H
	DB	00H
	DB	00H
	DB	00H
	DB	00H
	DB	00H
	DB	00H
	DB	00H
	DB	00H
	DB	00H
	DB	00H
	DB	00H
	DB	00H
	DB	00H
	DB	00H
	DB	00H
	DB	00H
	DB	00H
	DB	00H
	DB	00H
	DB	00H
	DB	00H
	DB	00H
	DB	00H
	DB	00H
	DB	00H
	DB	00H
	DB	00H
	DB	00H
	DB	00H
	DB	00H
	DB	00H
	DB	00H
	DB	00H
	DB	00H
	DB	00H
	DB	00H
	DB	00H
	DB	00H
	DB	00H
	DB	00H
	DB	00H
	DB	00H
	DB	00H
	DB	00H
	DB	00H
	DB	00H
	DB	00H
	DB	00H
	DB	00H
	DB	00H
	DB	00H
	DB	00H
	DB	00H
	DB	00H
	DB	00H
	DB	00H
	DB	00H
	DB	0ffH
	DB	0ffH
	DB	0ffH
	DB	00H
	DB	0ffH
	DB	0ffH
	DB	0ffH
	DB	00H
	DB	0ffH
	DB	0ffH
	DB	0ffH
	DB	00H
	DB	0ffH
	DB	0ffH
	DB	0ffH
	DB	00H
	DB	0ffH
	DB	0ffH
	DB	0ffH
	DB	00H
	DB	0ffH
	DB	0ffH
	DB	0ffH
	DB	00H
	DB	0ffH
	DB	0ffH
	DB	0ffH
	DB	00H
	DB	0ffH
	DB	0ffH
	DB	0ffH
	DB	00H
	DB	0ffH
	DB	0ffH
	DB	0ffH
	DB	0dH
	DB	0ffH
	DB	0ffH
	DB	0ffH
	DB	041H
	DB	0ffH
	DB	0ffH
	DB	0ffH
	DB	04dH
	DB	0ffH
	DB	0ffH
	DB	0ffH
	DB	04dH
	DB	0ffH
	DB	0ffH
	DB	0ffH
	DB	04dH
	DB	0ffH
	DB	0ffH
	DB	0ffH
	DB	04dH
	DB	0ffH
	DB	0ffH
	DB	0ffH
	DB	04dH
	DB	0ffH
	DB	0ffH
	DB	0ffH
	DB	04dH
	DB	0ffH
	DB	0ffH
	DB	0ffH
	DB	04dH
	DB	0ffH
	DB	0ffH
	DB	0ffH
	DB	04dH
	DB	0ffH
	DB	0ffH
	DB	0ffH
	DB	04dH
	DB	0ffH
	DB	0ffH
	DB	0ffH
	DB	04dH
	DB	0ffH
	DB	0ffH
	DB	0ffH
	DB	04dH
	DB	0ffH
	DB	0ffH
	DB	0ffH
	DB	04dH
	DB	0ffH
	DB	0ffH
	DB	0ffH
	DB	04dH
	DB	0ffH
	DB	0ffH
	DB	0ffH
	DB	04dH
	DB	0ffH
	DB	0ffH
	DB	0ffH
	DB	04dH
	DB	0ffH
	DB	0ffH
	DB	0ffH
	DB	04dH
	DB	0ffH
	DB	0ffH
	DB	0ffH
	DB	04dH
	DB	0ffH
	DB	0ffH
	DB	0ffH
	DB	04dH
	DB	0ffH
	DB	0ffH
	DB	0ffH
	DB	04dH
	DB	0ffH
	DB	0ffH
	DB	0ffH
	DB	048H
	DB	0ffH
	DB	0ffH
	DB	0ffH
	DB	02bH
	DB	0ffH
	DB	0ffH
	DB	0ffH
	DB	0cH
	DB	0ffH
	DB	0ffH
	DB	0ffH
	DB	00H
	DB	0ffH
	DB	0ffH
	DB	0ffH
	DB	00H
	DB	0ffH
	DB	0ffH
	DB	0ffH
	DB	00H
	DB	0ffH
	DB	0ffH
	DB	0ffH
	DB	00H
	DB	0ffH
	DB	0ffH
	DB	0ffH
	DB	00H
	DB	0ffH
	DB	0ffH
	DB	0ffH
	DB	00H
	DB	0ffH
	DB	0ffH
	DB	0ffH
	DB	00H
	DB	0ffH
	DB	0ffH
	DB	0ffH
	DB	00H
	DB	0ffH
	DB	0ffH
	DB	0ffH
	DB	00H
	DB	0ffH
	DB	0ffH
	DB	0ffH
	DB	00H
	DB	0ffH
	DB	0ffH
	DB	0ffH
	DB	00H
	DB	0ffH
	DB	0ffH
	DB	0ffH
	DB	00H
	DB	0ffH
	DB	0ffH
	DB	0ffH
	DB	00H
	DB	0ffH
	DB	0ffH
	DB	0ffH
	DB	00H
	DB	0ffH
	DB	0ffH
	DB	0ffH
	DB	00H
	DB	0ffH
	DB	0ffH
	DB	0ffH
	DB	00H
	DB	0ffH
	DB	0ffH
	DB	0ffH
	DB	00H
	DB	0ffH
	DB	0ffH
	DB	0ffH
	DB	00H
	DB	0ffH
	DB	0ffH
	DB	0ffH
	DB	00H
	DB	0ffH
	DB	0ffH
	DB	0ffH
	DB	00H
	DB	0ffH
	DB	0ffH
	DB	0ffH
	DB	00H
	DB	0ffH
	DB	0ffH
	DB	0ffH
	DB	00H
	DB	0ffH
	DB	0ffH
	DB	0ffH
	DB	00H
	DB	0ffH
	DB	0ffH
	DB	0ffH
	DB	00H
	DB	0ffH
	DB	0ffH
	DB	0ffH
	DB	00H
	DB	0ffH
	DB	0ffH
	DB	0ffH
	DB	00H
	DB	0ffH
	DB	0ffH
	DB	0ffH
	DB	00H
	DB	0ffH
	DB	0ffH
	DB	0ffH
	DB	00H
	DB	0ffH
	DB	0ffH
	DB	0ffH
	DB	00H
	DB	0ffH
	DB	0ffH
	DB	0ffH
	DB	00H
	DB	0ffH
	DB	0ffH
	DB	0ffH
	DB	00H
	DB	0ffH
	DB	0ffH
	DB	0ffH
	DB	00H
	DB	0ffH
	DB	0ffH
	DB	0ffH
	DB	00H
	DB	0ffH
	DB	0ffH
	DB	0ffH
	DB	00H
	DB	0ffH
	DB	0ffH
	DB	0ffH
	DB	00H
	DB	0ffH
	DB	0ffH
	DB	0ffH
	DB	00H
	DB	0ffH
	DB	0ffH
	DB	0ffH
	DB	00H
	DB	0ffH
	DB	0ffH
	DB	0ffH
	DB	00H
	DB	0ffH
	DB	0ffH
	DB	0ffH
	DB	00H
	DB	0ffH
	DB	0ffH
	DB	0ffH
	DB	00H
	DB	0ffH
	DB	0ffH
	DB	0ffH
	DB	00H
	DB	0ffH
	DB	0ffH
	DB	0ffH
	DB	00H
	DB	0ffH
	DB	0ffH
	DB	0ffH
	DB	00H
	DB	0ffH
	DB	0ffH
	DB	0ffH
	DB	00H
	DB	0ffH
	DB	0ffH
	DB	0ffH
	DB	00H
	DB	0ffH
	DB	0ffH
	DB	0ffH
	DB	00H
	DB	0ffH
	DB	0ffH
	DB	0ffH
	DB	00H
	DB	0ffH
	DB	0ffH
	DB	0ffH
	DB	00H
	DB	0ffH
	DB	0ffH
	DB	0ffH
	DB	0dH
	DB	0ffH
	DB	0ffH
	DB	0ffH
	DB	02cH
	DB	0ffH
	DB	0ffH
	DB	0ffH
	DB	049H
	DB	0ffH
	DB	0ffH
	DB	0ffH
	DB	04dH
	DB	0ffH
	DB	0ffH
	DB	0ffH
	DB	04dH
	DB	0ffH
	DB	0ffH
	DB	0ffH
	DB	04dH
	DB	0ffH
	DB	0ffH
	DB	0ffH
	DB	04dH
	DB	0ffH
	DB	0ffH
	DB	0ffH
	DB	04dH
	DB	0ffH
	DB	0ffH
	DB	0ffH
	DB	04dH
	DB	0ffH
	DB	0ffH
	DB	0ffH
	DB	04dH
	DB	0ffH
	DB	0ffH
	DB	0ffH
	DB	04dH
	DB	0ffH
	DB	0ffH
	DB	0ffH
	DB	04dH
	DB	0ffH
	DB	0ffH
	DB	0ffH
	DB	04dH
	DB	0ffH
	DB	0ffH
	DB	0ffH
	DB	04dH
	DB	0ffH
	DB	0ffH
	DB	0ffH
	DB	04dH
	DB	0ffH
	DB	0ffH
	DB	0ffH
	DB	04dH
	DB	0ffH
	DB	0ffH
	DB	0ffH
	DB	04dH
	DB	0ffH
	DB	0ffH
	DB	0ffH
	DB	04dH
	DB	0ffH
	DB	0ffH
	DB	0ffH
	DB	04dH
	DB	0ffH
	DB	0ffH
	DB	0ffH
	DB	04dH
	DB	0ffH
	DB	0ffH
	DB	0ffH
	DB	04dH
	DB	0ffH
	DB	0ffH
	DB	0ffH
	DB	04dH
	DB	0ffH
	DB	0ffH
	DB	0ffH
	DB	041H
	DB	0ffH
	DB	0ffH
	DB	0ffH
	DB	0dH
	DB	0ffH
	DB	0ffH
	DB	0ffH
	DB	00H
	DB	0ffH
	DB	0ffH
	DB	0ffH
	DB	00H
	DB	0ffH
	DB	0ffH
	DB	0ffH
	DB	00H
	DB	0ffH
	DB	0ffH
	DB	0ffH
	DB	00H
	DB	0ffH
	DB	0ffH
	DB	0ffH
	DB	00H
	DB	0ffH
	DB	0ffH
	DB	0ffH
	DB	00H
	DB	0ffH
	DB	0ffH
	DB	0ffH
	DB	00H
	DB	0ffH
	DB	0ffH
	DB	0ffH
	DB	00H
	DB	00H
	DB	00H
	DB	00H
	DB	00H
	DB	00H
	DB	00H
	DB	00H
	DB	00H
	DB	00H
	DB	00H
	DB	00H
	DB	00H
	DB	00H
	DB	00H
	DB	00H
	DB	00H
	DB	00H
	DB	00H
	DB	00H
	DB	00H
	DB	00H
	DB	00H
	DB	00H
	DB	00H
	DB	00H
	DB	00H
	DB	00H
	DB	00H
	DB	00H
	DB	00H
	DB	00H
	DB	00H
	DB	00H
	DB	00H
	DB	00H
	DB	00H
	DB	00H
	DB	00H
	DB	00H
	DB	00H
	DB	00H
	DB	00H
	DB	00H
	DB	00H
	DB	00H
	DB	00H
	DB	00H
	DB	00H
	DB	00H
	DB	00H
	DB	00H
	DB	00H
	DB	00H
	DB	00H
	DB	00H
	DB	00H
	DB	00H
	DB	00H
	DB	00H
	DB	00H
	DB	00H
	DB	00H
	DB	00H
	DB	00H
	DB	0ffH
	DB	0ffH
	DB	0ffH
	DB	00H
	DB	0ffH
	DB	0ffH
	DB	0ffH
	DB	00H
	DB	0ffH
	DB	0ffH
	DB	0ffH
	DB	00H
	DB	0ffH
	DB	0ffH
	DB	0ffH
	DB	00H
	DB	0ffH
	DB	0ffH
	DB	0ffH
	DB	00H
	DB	0ffH
	DB	0ffH
	DB	0ffH
	DB	00H
	DB	0ffH
	DB	0ffH
	DB	0ffH
	DB	00H
	DB	0ffH
	DB	0ffH
	DB	0ffH
	DB	01dH
	DB	0ffH
	DB	0ffH
	DB	0ffH
	DB	04aH
	DB	0ffH
	DB	0ffH
	DB	0ffH
	DB	04dH
	DB	0ffH
	DB	0ffH
	DB	0ffH
	DB	04dH
	DB	0ffH
	DB	0ffH
	DB	0ffH
	DB	04dH
	DB	0ffH
	DB	0ffH
	DB	0ffH
	DB	04dH
	DB	0ffH
	DB	0ffH
	DB	0ffH
	DB	04dH
	DB	0ffH
	DB	0ffH
	DB	0ffH
	DB	04dH
	DB	0ffH
	DB	0ffH
	DB	0ffH
	DB	04dH
	DB	0ffH
	DB	0ffH
	DB	0ffH
	DB	04dH
	DB	0ffH
	DB	0ffH
	DB	0ffH
	DB	04dH
	DB	0ffH
	DB	0ffH
	DB	0ffH
	DB	04dH
	DB	0ffH
	DB	0ffH
	DB	0ffH
	DB	04dH
	DB	0ffH
	DB	0ffH
	DB	0ffH
	DB	04dH
	DB	0ffH
	DB	0ffH
	DB	0ffH
	DB	04dH
	DB	0ffH
	DB	0ffH
	DB	0ffH
	DB	04dH
	DB	0ffH
	DB	0ffH
	DB	0ffH
	DB	04dH
	DB	0ffH
	DB	0ffH
	DB	0ffH
	DB	04dH
	DB	0ffH
	DB	0ffH
	DB	0ffH
	DB	04dH
	DB	0ffH
	DB	0ffH
	DB	0ffH
	DB	04dH
	DB	0ffH
	DB	0ffH
	DB	0ffH
	DB	042H
	DB	0ffH
	DB	0ffH
	DB	0ffH
	DB	020H
	DB	0ffH
	DB	0ffH
	DB	0ffH
	DB	04H
	DB	0ffH
	DB	0ffH
	DB	0ffH
	DB	00H
	DB	0ffH
	DB	0ffH
	DB	0ffH
	DB	00H
	DB	0ffH
	DB	0ffH
	DB	0ffH
	DB	00H
	DB	0ffH
	DB	0ffH
	DB	0ffH
	DB	00H
	DB	0ffH
	DB	0ffH
	DB	0ffH
	DB	00H
	DB	0ffH
	DB	0ffH
	DB	0ffH
	DB	00H
	DB	0ffH
	DB	0ffH
	DB	0ffH
	DB	00H
	DB	0ffH
	DB	0ffH
	DB	0ffH
	DB	00H
	DB	0ffH
	DB	0ffH
	DB	0ffH
	DB	00H
	DB	0ffH
	DB	0ffH
	DB	0ffH
	DB	00H
	DB	0ffH
	DB	0ffH
	DB	0ffH
	DB	00H
	DB	0ffH
	DB	0ffH
	DB	0ffH
	DB	00H
	DB	0ffH
	DB	0ffH
	DB	0ffH
	DB	00H
	DB	0ffH
	DB	0ffH
	DB	0ffH
	DB	00H
	DB	0ffH
	DB	0ffH
	DB	0ffH
	DB	00H
	DB	0ffH
	DB	0ffH
	DB	0ffH
	DB	00H
	DB	0ffH
	DB	0ffH
	DB	0ffH
	DB	00H
	DB	0ffH
	DB	0ffH
	DB	0ffH
	DB	00H
	DB	0ffH
	DB	0ffH
	DB	0ffH
	DB	00H
	DB	0ffH
	DB	0ffH
	DB	0ffH
	DB	00H
	DB	0ffH
	DB	0ffH
	DB	0ffH
	DB	00H
	DB	0ffH
	DB	0ffH
	DB	0ffH
	DB	00H
	DB	0ffH
	DB	0ffH
	DB	0ffH
	DB	00H
	DB	0ffH
	DB	0ffH
	DB	0ffH
	DB	00H
	DB	0ffH
	DB	0ffH
	DB	0ffH
	DB	00H
	DB	0ffH
	DB	0ffH
	DB	0ffH
	DB	00H
	DB	0ffH
	DB	0ffH
	DB	0ffH
	DB	00H
	DB	0ffH
	DB	0ffH
	DB	0ffH
	DB	00H
	DB	0ffH
	DB	0ffH
	DB	0ffH
	DB	00H
	DB	0ffH
	DB	0ffH
	DB	0ffH
	DB	00H
	DB	0ffH
	DB	0ffH
	DB	0ffH
	DB	00H
	DB	0ffH
	DB	0ffH
	DB	0ffH
	DB	00H
	DB	0ffH
	DB	0ffH
	DB	0ffH
	DB	00H
	DB	0ffH
	DB	0ffH
	DB	0ffH
	DB	00H
	DB	0ffH
	DB	0ffH
	DB	0ffH
	DB	00H
	DB	0ffH
	DB	0ffH
	DB	0ffH
	DB	00H
	DB	0ffH
	DB	0ffH
	DB	0ffH
	DB	00H
	DB	0ffH
	DB	0ffH
	DB	0ffH
	DB	00H
	DB	0ffH
	DB	0ffH
	DB	0ffH
	DB	00H
	DB	0ffH
	DB	0ffH
	DB	0ffH
	DB	00H
	DB	0ffH
	DB	0ffH
	DB	0ffH
	DB	00H
	DB	0ffH
	DB	0ffH
	DB	0ffH
	DB	00H
	DB	0ffH
	DB	0ffH
	DB	0ffH
	DB	00H
	DB	0ffH
	DB	0ffH
	DB	0ffH
	DB	00H
	DB	0ffH
	DB	0ffH
	DB	0ffH
	DB	00H
	DB	0ffH
	DB	0ffH
	DB	0ffH
	DB	00H
	DB	0ffH
	DB	0ffH
	DB	0ffH
	DB	00H
	DB	0ffH
	DB	0ffH
	DB	0ffH
	DB	00H
	DB	0ffH
	DB	0ffH
	DB	0ffH
	DB	00H
	DB	0ffH
	DB	0ffH
	DB	0ffH
	DB	00H
	DB	0ffH
	DB	0ffH
	DB	0ffH
	DB	00H
	DB	0ffH
	DB	0ffH
	DB	0ffH
	DB	00H
	DB	0ffH
	DB	0ffH
	DB	0ffH
	DB	04H
	DB	0ffH
	DB	0ffH
	DB	0ffH
	DB	020H
	DB	0ffH
	DB	0ffH
	DB	0ffH
	DB	043H
	DB	0ffH
	DB	0ffH
	DB	0ffH
	DB	04dH
	DB	0ffH
	DB	0ffH
	DB	0ffH
	DB	04dH
	DB	0ffH
	DB	0ffH
	DB	0ffH
	DB	04dH
	DB	0ffH
	DB	0ffH
	DB	0ffH
	DB	04dH
	DB	0ffH
	DB	0ffH
	DB	0ffH
	DB	04dH
	DB	0ffH
	DB	0ffH
	DB	0ffH
	DB	04dH
	DB	0ffH
	DB	0ffH
	DB	0ffH
	DB	04dH
	DB	0ffH
	DB	0ffH
	DB	0ffH
	DB	04dH
	DB	0ffH
	DB	0ffH
	DB	0ffH
	DB	04dH
	DB	0ffH
	DB	0ffH
	DB	0ffH
	DB	04dH
	DB	0ffH
	DB	0ffH
	DB	0ffH
	DB	04dH
	DB	0ffH
	DB	0ffH
	DB	0ffH
	DB	04dH
	DB	0ffH
	DB	0ffH
	DB	0ffH
	DB	04dH
	DB	0ffH
	DB	0ffH
	DB	0ffH
	DB	04dH
	DB	0ffH
	DB	0ffH
	DB	0ffH
	DB	04dH
	DB	0ffH
	DB	0ffH
	DB	0ffH
	DB	04dH
	DB	0ffH
	DB	0ffH
	DB	0ffH
	DB	04dH
	DB	0ffH
	DB	0ffH
	DB	0ffH
	DB	04dH
	DB	0ffH
	DB	0ffH
	DB	0ffH
	DB	04aH
	DB	0ffH
	DB	0ffH
	DB	0ffH
	DB	01cH
	DB	0ffH
	DB	0ffH
	DB	0ffH
	DB	00H
	DB	0ffH
	DB	0ffH
	DB	0ffH
	DB	00H
	DB	0ffH
	DB	0ffH
	DB	0ffH
	DB	00H
	DB	0ffH
	DB	0ffH
	DB	0ffH
	DB	00H
	DB	0ffH
	DB	0ffH
	DB	0ffH
	DB	00H
	DB	0ffH
	DB	0ffH
	DB	0ffH
	DB	00H
	DB	0ffH
	DB	0ffH
	DB	0ffH
	DB	00H
	DB	00H
	DB	00H
	DB	00H
	DB	00H
	DB	00H
	DB	00H
	DB	00H
	DB	00H
	DB	00H
	DB	00H
	DB	00H
	DB	00H
	DB	00H
	DB	00H
	DB	00H
	DB	00H
	DB	00H
	DB	00H
	DB	00H
	DB	00H
	DB	00H
	DB	00H
	DB	00H
	DB	00H
	DB	00H
	DB	00H
	DB	00H
	DB	00H
	DB	00H
	DB	00H
	DB	00H
	DB	00H
	DB	00H
	DB	00H
	DB	00H
	DB	00H
	DB	00H
	DB	00H
	DB	00H
	DB	00H
	DB	00H
	DB	00H
	DB	00H
	DB	00H
	DB	00H
	DB	00H
	DB	00H
	DB	00H
	DB	00H
	DB	00H
	DB	00H
	DB	00H
	DB	00H
	DB	00H
	DB	00H
	DB	00H
	DB	00H
	DB	00H
	DB	00H
	DB	00H
	DB	00H
	DB	00H
	DB	00H
	DB	00H
	DB	0ffH
	DB	0ffH
	DB	0ffH
	DB	00H
	DB	0ffH
	DB	0ffH
	DB	0ffH
	DB	00H
	DB	0ffH
	DB	0ffH
	DB	0ffH
	DB	00H
	DB	0ffH
	DB	0ffH
	DB	0ffH
	DB	00H
	DB	0ffH
	DB	0ffH
	DB	0ffH
	DB	00H
	DB	0ffH
	DB	0ffH
	DB	0ffH
	DB	01H
	DB	0ffH
	DB	0ffH
	DB	0ffH
	DB	02bH
	DB	0ffH
	DB	0ffH
	DB	0ffH
	DB	04dH
	DB	0ffH
	DB	0ffH
	DB	0ffH
	DB	04dH
	DB	0ffH
	DB	0ffH
	DB	0ffH
	DB	04dH
	DB	0ffH
	DB	0ffH
	DB	0ffH
	DB	04dH
	DB	0ffH
	DB	0ffH
	DB	0ffH
	DB	04dH
	DB	0ffH
	DB	0ffH
	DB	0ffH
	DB	04dH
	DB	0ffH
	DB	0ffH
	DB	0ffH
	DB	04dH
	DB	0ffH
	DB	0ffH
	DB	0ffH
	DB	04dH
	DB	0ffH
	DB	0ffH
	DB	0ffH
	DB	04dH
	DB	0ffH
	DB	0ffH
	DB	0ffH
	DB	04dH
	DB	0ffH
	DB	0ffH
	DB	0ffH
	DB	04dH
	DB	0ffH
	DB	0ffH
	DB	0ffH
	DB	04dH
	DB	0ffH
	DB	0ffH
	DB	0ffH
	DB	04dH
	DB	0ffH
	DB	0ffH
	DB	0ffH
	DB	04dH
	DB	0ffH
	DB	0ffH
	DB	0ffH
	DB	04dH
	DB	0ffH
	DB	0ffH
	DB	0ffH
	DB	04dH
	DB	0ffH
	DB	0ffH
	DB	0ffH
	DB	04dH
	DB	0ffH
	DB	0ffH
	DB	0ffH
	DB	04dH
	DB	0ffH
	DB	0ffH
	DB	0ffH
	DB	03fH
	DB	0ffH
	DB	0ffH
	DB	0ffH
	DB	01bH
	DB	0ffH
	DB	0ffH
	DB	0ffH
	DB	01H
	DB	0ffH
	DB	0ffH
	DB	0ffH
	DB	00H
	DB	0ffH
	DB	0ffH
	DB	0ffH
	DB	00H
	DB	0ffH
	DB	0ffH
	DB	0ffH
	DB	00H
	DB	0ffH
	DB	0ffH
	DB	0ffH
	DB	00H
	DB	0ffH
	DB	0ffH
	DB	0ffH
	DB	00H
	DB	0ffH
	DB	0ffH
	DB	0ffH
	DB	00H
	DB	0ffH
	DB	0ffH
	DB	0ffH
	DB	00H
	DB	0ffH
	DB	0ffH
	DB	0ffH
	DB	00H
	DB	0ffH
	DB	0ffH
	DB	0ffH
	DB	00H
	DB	0ffH
	DB	0ffH
	DB	0ffH
	DB	00H
	DB	0ffH
	DB	0ffH
	DB	0ffH
	DB	00H
	DB	0ffH
	DB	0ffH
	DB	0ffH
	DB	00H
	DB	0ffH
	DB	0ffH
	DB	0ffH
	DB	00H
	DB	0ffH
	DB	0ffH
	DB	0ffH
	DB	00H
	DB	0ffH
	DB	0ffH
	DB	0ffH
	DB	00H
	DB	0ffH
	DB	0ffH
	DB	0ffH
	DB	00H
	DB	0ffH
	DB	0ffH
	DB	0ffH
	DB	00H
	DB	0ffH
	DB	0ffH
	DB	0ffH
	DB	00H
	DB	0ffH
	DB	0ffH
	DB	0ffH
	DB	00H
	DB	0ffH
	DB	0ffH
	DB	0ffH
	DB	00H
	DB	0ffH
	DB	0ffH
	DB	0ffH
	DB	00H
	DB	0ffH
	DB	0ffH
	DB	0ffH
	DB	00H
	DB	0ffH
	DB	0ffH
	DB	0ffH
	DB	00H
	DB	0ffH
	DB	0ffH
	DB	0ffH
	DB	00H
	DB	0ffH
	DB	0ffH
	DB	0ffH
	DB	00H
	DB	0ffH
	DB	0ffH
	DB	0ffH
	DB	00H
	DB	0ffH
	DB	0ffH
	DB	0ffH
	DB	00H
	DB	0ffH
	DB	0ffH
	DB	0ffH
	DB	00H
	DB	0ffH
	DB	0ffH
	DB	0ffH
	DB	00H
	DB	0ffH
	DB	0ffH
	DB	0ffH
	DB	00H
	DB	0ffH
	DB	0ffH
	DB	0ffH
	DB	00H
	DB	0ffH
	DB	0ffH
	DB	0ffH
	DB	00H
	DB	0ffH
	DB	0ffH
	DB	0ffH
	DB	00H
	DB	0ffH
	DB	0ffH
	DB	0ffH
	DB	00H
	DB	0ffH
	DB	0ffH
	DB	0ffH
	DB	00H
	DB	0ffH
	DB	0ffH
	DB	0ffH
	DB	00H
	DB	0ffH
	DB	0ffH
	DB	0ffH
	DB	00H
	DB	0ffH
	DB	0ffH
	DB	0ffH
	DB	00H
	DB	0ffH
	DB	0ffH
	DB	0ffH
	DB	00H
	DB	0ffH
	DB	0ffH
	DB	0ffH
	DB	00H
	DB	0ffH
	DB	0ffH
	DB	0ffH
	DB	00H
	DB	0ffH
	DB	0ffH
	DB	0ffH
	DB	00H
	DB	0ffH
	DB	0ffH
	DB	0ffH
	DB	00H
	DB	0ffH
	DB	0ffH
	DB	0ffH
	DB	00H
	DB	0ffH
	DB	0ffH
	DB	0ffH
	DB	00H
	DB	0ffH
	DB	0ffH
	DB	0ffH
	DB	00H
	DB	0ffH
	DB	0ffH
	DB	0ffH
	DB	00H
	DB	0ffH
	DB	0ffH
	DB	0ffH
	DB	00H
	DB	0ffH
	DB	0ffH
	DB	0ffH
	DB	00H
	DB	0ffH
	DB	0ffH
	DB	0ffH
	DB	00H
	DB	0ffH
	DB	0ffH
	DB	0ffH
	DB	00H
	DB	0ffH
	DB	0ffH
	DB	0ffH
	DB	00H
	DB	0ffH
	DB	0ffH
	DB	0ffH
	DB	00H
	DB	0ffH
	DB	0ffH
	DB	0ffH
	DB	00H
	DB	0ffH
	DB	0ffH
	DB	0ffH
	DB	00H
	DB	0ffH
	DB	0ffH
	DB	0ffH
	DB	00H
	DB	0ffH
	DB	0ffH
	DB	0ffH
	DB	01H
	DB	0ffH
	DB	0ffH
	DB	0ffH
	DB	01bH
	DB	0ffH
	DB	0ffH
	DB	0ffH
	DB	040H
	DB	0ffH
	DB	0ffH
	DB	0ffH
	DB	04dH
	DB	0ffH
	DB	0ffH
	DB	0ffH
	DB	04dH
	DB	0ffH
	DB	0ffH
	DB	0ffH
	DB	04dH
	DB	0ffH
	DB	0ffH
	DB	0ffH
	DB	04dH
	DB	0ffH
	DB	0ffH
	DB	0ffH
	DB	04dH
	DB	0ffH
	DB	0ffH
	DB	0ffH
	DB	04dH
	DB	0ffH
	DB	0ffH
	DB	0ffH
	DB	04dH
	DB	0ffH
	DB	0ffH
	DB	0ffH
	DB	04dH
	DB	0ffH
	DB	0ffH
	DB	0ffH
	DB	04dH
	DB	0ffH
	DB	0ffH
	DB	0ffH
	DB	04dH
	DB	0ffH
	DB	0ffH
	DB	0ffH
	DB	04dH
	DB	0ffH
	DB	0ffH
	DB	0ffH
	DB	04dH
	DB	0ffH
	DB	0ffH
	DB	0ffH
	DB	04dH
	DB	0ffH
	DB	0ffH
	DB	0ffH
	DB	04dH
	DB	0ffH
	DB	0ffH
	DB	0ffH
	DB	04dH
	DB	0ffH
	DB	0ffH
	DB	0ffH
	DB	04dH
	DB	0ffH
	DB	0ffH
	DB	0ffH
	DB	04dH
	DB	0ffH
	DB	0ffH
	DB	0ffH
	DB	04dH
	DB	0ffH
	DB	0ffH
	DB	0ffH
	DB	02aH
	DB	0ffH
	DB	0ffH
	DB	0ffH
	DB	01H
	DB	0ffH
	DB	0ffH
	DB	0ffH
	DB	00H
	DB	0ffH
	DB	0ffH
	DB	0ffH
	DB	00H
	DB	0ffH
	DB	0ffH
	DB	0ffH
	DB	00H
	DB	0ffH
	DB	0ffH
	DB	0ffH
	DB	00H
	DB	0ffH
	DB	0ffH
	DB	0ffH
	DB	00H
	DB	00H
	DB	00H
	DB	00H
	DB	00H
	DB	00H
	DB	00H
	DB	00H
	DB	00H
	DB	00H
	DB	00H
	DB	00H
	DB	00H
	DB	00H
	DB	00H
	DB	00H
	DB	00H
	DB	00H
	DB	00H
	DB	00H
	DB	00H
	DB	00H
	DB	00H
	DB	00H
	DB	00H
	DB	00H
	DB	00H
	DB	00H
	DB	00H
	DB	00H
	DB	00H
	DB	00H
	DB	00H
	DB	00H
	DB	00H
	DB	00H
	DB	00H
	DB	00H
	DB	00H
	DB	00H
	DB	00H
	DB	00H
	DB	00H
	DB	00H
	DB	00H
	DB	00H
	DB	00H
	DB	00H
	DB	00H
	DB	00H
	DB	00H
	DB	00H
	DB	00H
	DB	00H
	DB	00H
	DB	00H
	DB	00H
	DB	00H
	DB	00H
	DB	00H
	DB	00H
	DB	00H
	DB	00H
	DB	00H
	DB	00H
	DB	0ffH
	DB	0ffH
	DB	0ffH
	DB	00H
	DB	0ffH
	DB	0ffH
	DB	0ffH
	DB	00H
	DB	0ffH
	DB	0ffH
	DB	0ffH
	DB	00H
	DB	0ffH
	DB	0ffH
	DB	0ffH
	DB	00H
	DB	0ffH
	DB	0ffH
	DB	0ffH
	DB	05H
	DB	0ffH
	DB	0ffH
	DB	0ffH
	DB	037H
	DB	0ffH
	DB	0ffH
	DB	0ffH
	DB	04dH
	DB	0ffH
	DB	0ffH
	DB	0ffH
	DB	04dH
	DB	0ffH
	DB	0ffH
	DB	0ffH
	DB	04dH
	DB	0ffH
	DB	0ffH
	DB	0ffH
	DB	04dH
	DB	0ffH
	DB	0ffH
	DB	0ffH
	DB	04dH
	DB	0ffH
	DB	0ffH
	DB	0ffH
	DB	04dH
	DB	0ffH
	DB	0ffH
	DB	0ffH
	DB	04dH
	DB	0ffH
	DB	0ffH
	DB	0ffH
	DB	04dH
	DB	0ffH
	DB	0ffH
	DB	0ffH
	DB	04dH
	DB	0ffH
	DB	0ffH
	DB	0ffH
	DB	04dH
	DB	0ffH
	DB	0ffH
	DB	0ffH
	DB	04dH
	DB	0ffH
	DB	0ffH
	DB	0ffH
	DB	04dH
	DB	0ffH
	DB	0ffH
	DB	0ffH
	DB	04dH
	DB	0ffH
	DB	0ffH
	DB	0ffH
	DB	04dH
	DB	0ffH
	DB	0ffH
	DB	0ffH
	DB	04dH
	DB	0ffH
	DB	0ffH
	DB	0ffH
	DB	04dH
	DB	0ffH
	DB	0ffH
	DB	0ffH
	DB	04dH
	DB	0ffH
	DB	0ffH
	DB	0ffH
	DB	044H
	DB	0ffH
	DB	0ffH
	DB	0ffH
	DB	01bH
	DB	0ffH
	DB	0ffH
	DB	0ffH
	DB	01H
	DB	0ffH
	DB	0ffH
	DB	0ffH
	DB	00H
	DB	0ffH
	DB	0ffH
	DB	0ffH
	DB	00H
	DB	0ffH
	DB	0ffH
	DB	0ffH
	DB	00H
	DB	0ffH
	DB	0ffH
	DB	0ffH
	DB	00H
	DB	0ffH
	DB	0ffH
	DB	0ffH
	DB	00H
	DB	0ffH
	DB	0ffH
	DB	0ffH
	DB	00H
	DB	0ffH
	DB	0ffH
	DB	0ffH
	DB	00H
	DB	0ffH
	DB	0ffH
	DB	0ffH
	DB	00H
	DB	0ffH
	DB	0ffH
	DB	0ffH
	DB	00H
	DB	0ffH
	DB	0ffH
	DB	0ffH
	DB	00H
	DB	0ffH
	DB	0ffH
	DB	0ffH
	DB	00H
	DB	0ffH
	DB	0ffH
	DB	0ffH
	DB	00H
	DB	0ffH
	DB	0ffH
	DB	0ffH
	DB	00H
	DB	0ffH
	DB	0ffH
	DB	0ffH
	DB	00H
	DB	0ffH
	DB	0ffH
	DB	0ffH
	DB	00H
	DB	0ffH
	DB	0ffH
	DB	0ffH
	DB	00H
	DB	0ffH
	DB	0ffH
	DB	0ffH
	DB	00H
	DB	0ffH
	DB	0ffH
	DB	0ffH
	DB	00H
	DB	0ffH
	DB	0ffH
	DB	0ffH
	DB	00H
	DB	0ffH
	DB	0ffH
	DB	0ffH
	DB	00H
	DB	0ffH
	DB	0ffH
	DB	0ffH
	DB	00H
	DB	0ffH
	DB	0ffH
	DB	0ffH
	DB	00H
	DB	0ffH
	DB	0ffH
	DB	0ffH
	DB	00H
	DB	0ffH
	DB	0ffH
	DB	0ffH
	DB	00H
	DB	0ffH
	DB	0ffH
	DB	0ffH
	DB	00H
	DB	0ffH
	DB	0ffH
	DB	0ffH
	DB	00H
	DB	0ffH
	DB	0ffH
	DB	0ffH
	DB	00H
	DB	0ffH
	DB	0ffH
	DB	0ffH
	DB	00H
	DB	0ffH
	DB	0ffH
	DB	0ffH
	DB	00H
	DB	0ffH
	DB	0ffH
	DB	0ffH
	DB	00H
	DB	0ffH
	DB	0ffH
	DB	0ffH
	DB	00H
	DB	0ffH
	DB	0ffH
	DB	0ffH
	DB	00H
	DB	0ffH
	DB	0ffH
	DB	0ffH
	DB	00H
	DB	0ffH
	DB	0ffH
	DB	0ffH
	DB	00H
	DB	0ffH
	DB	0ffH
	DB	0ffH
	DB	00H
	DB	0ffH
	DB	0ffH
	DB	0ffH
	DB	00H
	DB	0ffH
	DB	0ffH
	DB	0ffH
	DB	00H
	DB	0ffH
	DB	0ffH
	DB	0ffH
	DB	00H
	DB	0ffH
	DB	0ffH
	DB	0ffH
	DB	00H
	DB	0ffH
	DB	0ffH
	DB	0ffH
	DB	00H
	DB	0ffH
	DB	0ffH
	DB	0ffH
	DB	00H
	DB	0ffH
	DB	0ffH
	DB	0ffH
	DB	00H
	DB	0ffH
	DB	0ffH
	DB	0ffH
	DB	00H
	DB	0ffH
	DB	0ffH
	DB	0ffH
	DB	00H
	DB	0ffH
	DB	0ffH
	DB	0ffH
	DB	00H
	DB	0ffH
	DB	0ffH
	DB	0ffH
	DB	00H
	DB	0ffH
	DB	0ffH
	DB	0ffH
	DB	00H
	DB	0ffH
	DB	0ffH
	DB	0ffH
	DB	00H
	DB	0ffH
	DB	0ffH
	DB	0ffH
	DB	00H
	DB	0ffH
	DB	0ffH
	DB	0ffH
	DB	00H
	DB	0ffH
	DB	0ffH
	DB	0ffH
	DB	00H
	DB	0ffH
	DB	0ffH
	DB	0ffH
	DB	00H
	DB	0ffH
	DB	0ffH
	DB	0ffH
	DB	00H
	DB	0ffH
	DB	0ffH
	DB	0ffH
	DB	00H
	DB	0ffH
	DB	0ffH
	DB	0ffH
	DB	00H
	DB	0ffH
	DB	0ffH
	DB	0ffH
	DB	00H
	DB	0ffH
	DB	0ffH
	DB	0ffH
	DB	00H
	DB	0ffH
	DB	0ffH
	DB	0ffH
	DB	00H
	DB	0ffH
	DB	0ffH
	DB	0ffH
	DB	00H
	DB	0ffH
	DB	0ffH
	DB	0ffH
	DB	00H
	DB	0ffH
	DB	0ffH
	DB	0ffH
	DB	01H
	DB	0ffH
	DB	0ffH
	DB	0ffH
	DB	01cH
	DB	0ffH
	DB	0ffH
	DB	0ffH
	DB	044H
	DB	0ffH
	DB	0ffH
	DB	0ffH
	DB	04dH
	DB	0ffH
	DB	0ffH
	DB	0ffH
	DB	04dH
	DB	0ffH
	DB	0ffH
	DB	0ffH
	DB	04dH
	DB	0ffH
	DB	0ffH
	DB	0ffH
	DB	04dH
	DB	0ffH
	DB	0ffH
	DB	0ffH
	DB	04dH
	DB	0ffH
	DB	0ffH
	DB	0ffH
	DB	04dH
	DB	0ffH
	DB	0ffH
	DB	0ffH
	DB	04dH
	DB	0ffH
	DB	0ffH
	DB	0ffH
	DB	04dH
	DB	0ffH
	DB	0ffH
	DB	0ffH
	DB	04dH
	DB	0ffH
	DB	0ffH
	DB	0ffH
	DB	04dH
	DB	0ffH
	DB	0ffH
	DB	0ffH
	DB	04dH
	DB	0ffH
	DB	0ffH
	DB	0ffH
	DB	04dH
	DB	0ffH
	DB	0ffH
	DB	0ffH
	DB	04dH
	DB	0ffH
	DB	0ffH
	DB	0ffH
	DB	04dH
	DB	0ffH
	DB	0ffH
	DB	0ffH
	DB	04dH
	DB	0ffH
	DB	0ffH
	DB	0ffH
	DB	04dH
	DB	0ffH
	DB	0ffH
	DB	0ffH
	DB	04dH
	DB	0ffH
	DB	0ffH
	DB	0ffH
	DB	036H
	DB	0ffH
	DB	0ffH
	DB	0ffH
	DB	04H
	DB	0ffH
	DB	0ffH
	DB	0ffH
	DB	00H
	DB	0ffH
	DB	0ffH
	DB	0ffH
	DB	00H
	DB	0ffH
	DB	0ffH
	DB	0ffH
	DB	00H
	DB	0ffH
	DB	0ffH
	DB	0ffH
	DB	00H
	DB	00H
	DB	00H
	DB	00H
	DB	00H
	DB	00H
	DB	00H
	DB	00H
	DB	00H
	DB	00H
	DB	00H
	DB	00H
	DB	00H
	DB	00H
	DB	00H
	DB	00H
	DB	00H
	DB	00H
	DB	00H
	DB	00H
	DB	00H
	DB	00H
	DB	00H
	DB	00H
	DB	00H
	DB	00H
	DB	00H
	DB	00H
	DB	00H
	DB	00H
	DB	00H
	DB	00H
	DB	00H
	DB	00H
	DB	00H
	DB	00H
	DB	00H
	DB	00H
	DB	00H
	DB	00H
	DB	00H
	DB	00H
	DB	00H
	DB	00H
	DB	00H
	DB	00H
	DB	00H
	DB	00H
	DB	00H
	DB	00H
	DB	00H
	DB	00H
	DB	00H
	DB	00H
	DB	00H
	DB	00H
	DB	00H
	DB	00H
	DB	00H
	DB	00H
	DB	00H
	DB	00H
	DB	00H
	DB	00H
	DB	00H
	DB	0ffH
	DB	0ffH
	DB	0ffH
	DB	00H
	DB	0ffH
	DB	0ffH
	DB	0ffH
	DB	00H
	DB	0ffH
	DB	0ffH
	DB	0ffH
	DB	00H
	DB	0ffH
	DB	0ffH
	DB	0ffH
	DB	08H
	DB	0ffH
	DB	0ffH
	DB	0ffH
	DB	03fH
	DB	0ffH
	DB	0ffH
	DB	0ffH
	DB	04dH
	DB	0ffH
	DB	0ffH
	DB	0ffH
	DB	04dH
	DB	0ffH
	DB	0ffH
	DB	0ffH
	DB	04dH
	DB	0ffH
	DB	0ffH
	DB	0ffH
	DB	04dH
	DB	0ffH
	DB	0ffH
	DB	0ffH
	DB	04dH
	DB	0ffH
	DB	0ffH
	DB	0ffH
	DB	04dH
	DB	0ffH
	DB	0ffH
	DB	0ffH
	DB	04dH
	DB	0ffH
	DB	0ffH
	DB	0ffH
	DB	04dH
	DB	0ffH
	DB	0ffH
	DB	0ffH
	DB	04dH
	DB	0ffH
	DB	0ffH
	DB	0ffH
	DB	04dH
	DB	0ffH
	DB	0ffH
	DB	0ffH
	DB	04dH
	DB	0ffH
	DB	0ffH
	DB	0ffH
	DB	04dH
	DB	0ffH
	DB	0ffH
	DB	0ffH
	DB	04dH
	DB	0ffH
	DB	0ffH
	DB	0ffH
	DB	04dH
	DB	0ffH
	DB	0ffH
	DB	0ffH
	DB	04dH
	DB	0ffH
	DB	0ffH
	DB	0ffH
	DB	04dH
	DB	0ffH
	DB	0ffH
	DB	0ffH
	DB	049H
	DB	0ffH
	DB	0ffH
	DB	0ffH
	DB	023H
	DB	0ffH
	DB	0ffH
	DB	0ffH
	DB	02H
	DB	0ffH
	DB	0ffH
	DB	0ffH
	DB	00H
	DB	0ffH
	DB	0ffH
	DB	0ffH
	DB	00H
	DB	0ffH
	DB	0ffH
	DB	0ffH
	DB	00H
	DB	0ffH
	DB	0ffH
	DB	0ffH
	DB	00H
	DB	0ffH
	DB	0ffH
	DB	0ffH
	DB	00H
	DB	0ffH
	DB	0ffH
	DB	0ffH
	DB	00H
	DB	0ffH
	DB	0ffH
	DB	0ffH
	DB	00H
	DB	0ffH
	DB	0ffH
	DB	0ffH
	DB	00H
	DB	0ffH
	DB	0ffH
	DB	0ffH
	DB	00H
	DB	0ffH
	DB	0ffH
	DB	0ffH
	DB	00H
	DB	0ffH
	DB	0ffH
	DB	0ffH
	DB	00H
	DB	0ffH
	DB	0ffH
	DB	0ffH
	DB	00H
	DB	0ffH
	DB	0ffH
	DB	0ffH
	DB	00H
	DB	0ffH
	DB	0ffH
	DB	0ffH
	DB	00H
	DB	0ffH
	DB	0ffH
	DB	0ffH
	DB	00H
	DB	0ffH
	DB	0ffH
	DB	0ffH
	DB	00H
	DB	0ffH
	DB	0ffH
	DB	0ffH
	DB	00H
	DB	0ffH
	DB	0ffH
	DB	0ffH
	DB	00H
	DB	0ffH
	DB	0ffH
	DB	0ffH
	DB	00H
	DB	0ffH
	DB	0ffH
	DB	0ffH
	DB	00H
	DB	0ffH
	DB	0ffH
	DB	0ffH
	DB	00H
	DB	0ffH
	DB	0ffH
	DB	0ffH
	DB	00H
	DB	0ffH
	DB	0ffH
	DB	0ffH
	DB	00H
	DB	0ffH
	DB	0ffH
	DB	0ffH
	DB	00H
	DB	0ffH
	DB	0ffH
	DB	0ffH
	DB	00H
	DB	0ffH
	DB	0ffH
	DB	0ffH
	DB	00H
	DB	0ffH
	DB	0ffH
	DB	0ffH
	DB	00H
	DB	0ffH
	DB	0ffH
	DB	0ffH
	DB	00H
	DB	0ffH
	DB	0ffH
	DB	0ffH
	DB	00H
	DB	0ffH
	DB	0ffH
	DB	0ffH
	DB	00H
	DB	0ffH
	DB	0ffH
	DB	0ffH
	DB	00H
	DB	0ffH
	DB	0ffH
	DB	0ffH
	DB	00H
	DB	0ffH
	DB	0ffH
	DB	0ffH
	DB	00H
	DB	0ffH
	DB	0ffH
	DB	0ffH
	DB	00H
	DB	0ffH
	DB	0ffH
	DB	0ffH
	DB	00H
	DB	0ffH
	DB	0ffH
	DB	0ffH
	DB	00H
	DB	0ffH
	DB	0ffH
	DB	0ffH
	DB	00H
	DB	0ffH
	DB	0ffH
	DB	0ffH
	DB	00H
	DB	0ffH
	DB	0ffH
	DB	0ffH
	DB	00H
	DB	0ffH
	DB	0ffH
	DB	0ffH
	DB	00H
	DB	0ffH
	DB	0ffH
	DB	0ffH
	DB	00H
	DB	0ffH
	DB	0ffH
	DB	0ffH
	DB	00H
	DB	0ffH
	DB	0ffH
	DB	0ffH
	DB	00H
	DB	0ffH
	DB	0ffH
	DB	0ffH
	DB	00H
	DB	0ffH
	DB	0ffH
	DB	0ffH
	DB	00H
	DB	0ffH
	DB	0ffH
	DB	0ffH
	DB	00H
	DB	0ffH
	DB	0ffH
	DB	0ffH
	DB	00H
	DB	0ffH
	DB	0ffH
	DB	0ffH
	DB	00H
	DB	0ffH
	DB	0ffH
	DB	0ffH
	DB	00H
	DB	0ffH
	DB	0ffH
	DB	0ffH
	DB	00H
	DB	0ffH
	DB	0ffH
	DB	0ffH
	DB	00H
	DB	0ffH
	DB	0ffH
	DB	0ffH
	DB	00H
	DB	0ffH
	DB	0ffH
	DB	0ffH
	DB	00H
	DB	0ffH
	DB	0ffH
	DB	0ffH
	DB	00H
	DB	0ffH
	DB	0ffH
	DB	0ffH
	DB	00H
	DB	0ffH
	DB	0ffH
	DB	0ffH
	DB	00H
	DB	0ffH
	DB	0ffH
	DB	0ffH
	DB	00H
	DB	0ffH
	DB	0ffH
	DB	0ffH
	DB	00H
	DB	0ffH
	DB	0ffH
	DB	0ffH
	DB	00H
	DB	0ffH
	DB	0ffH
	DB	0ffH
	DB	00H
	DB	0ffH
	DB	0ffH
	DB	0ffH
	DB	00H
	DB	0ffH
	DB	0ffH
	DB	0ffH
	DB	00H
	DB	0ffH
	DB	0ffH
	DB	0ffH
	DB	00H
	DB	0ffH
	DB	0ffH
	DB	0ffH
	DB	00H
	DB	0ffH
	DB	0ffH
	DB	0ffH
	DB	02H
	DB	0ffH
	DB	0ffH
	DB	0ffH
	DB	023H
	DB	0ffH
	DB	0ffH
	DB	0ffH
	DB	049H
	DB	0ffH
	DB	0ffH
	DB	0ffH
	DB	04dH
	DB	0ffH
	DB	0ffH
	DB	0ffH
	DB	04dH
	DB	0ffH
	DB	0ffH
	DB	0ffH
	DB	04dH
	DB	0ffH
	DB	0ffH
	DB	0ffH
	DB	04dH
	DB	0ffH
	DB	0ffH
	DB	0ffH
	DB	04dH
	DB	0ffH
	DB	0ffH
	DB	0ffH
	DB	04dH
	DB	0ffH
	DB	0ffH
	DB	0ffH
	DB	04dH
	DB	0ffH
	DB	0ffH
	DB	0ffH
	DB	04dH
	DB	0ffH
	DB	0ffH
	DB	0ffH
	DB	04dH
	DB	0ffH
	DB	0ffH
	DB	0ffH
	DB	04dH
	DB	0ffH
	DB	0ffH
	DB	0ffH
	DB	04dH
	DB	0ffH
	DB	0ffH
	DB	0ffH
	DB	04dH
	DB	0ffH
	DB	0ffH
	DB	0ffH
	DB	04dH
	DB	0ffH
	DB	0ffH
	DB	0ffH
	DB	04dH
	DB	0ffH
	DB	0ffH
	DB	0ffH
	DB	04dH
	DB	0ffH
	DB	0ffH
	DB	0ffH
	DB	04dH
	DB	0ffH
	DB	0ffH
	DB	0ffH
	DB	03fH
	DB	0ffH
	DB	0ffH
	DB	0ffH
	DB	07H
	DB	0ffH
	DB	0ffH
	DB	0ffH
	DB	00H
	DB	0ffH
	DB	0ffH
	DB	0ffH
	DB	00H
	DB	0ffH
	DB	0ffH
	DB	0ffH
	DB	00H
	DB	00H
	DB	00H
	DB	00H
	DB	00H
	DB	00H
	DB	00H
	DB	00H
	DB	00H
	DB	00H
	DB	00H
	DB	00H
	DB	00H
	DB	00H
	DB	00H
	DB	00H
	DB	00H
	DB	00H
	DB	00H
	DB	00H
	DB	00H
	DB	00H
	DB	00H
	DB	00H
	DB	00H
	DB	00H
	DB	00H
	DB	00H
	DB	00H
	DB	00H
	DB	00H
	DB	00H
	DB	00H
	DB	00H
	DB	00H
	DB	00H
	DB	00H
	DB	00H
	DB	00H
	DB	00H
	DB	00H
	DB	00H
	DB	00H
	DB	00H
	DB	00H
	DB	00H
	DB	00H
	DB	00H
	DB	00H
	DB	00H
	DB	00H
	DB	00H
	DB	00H
	DB	00H
	DB	00H
	DB	00H
	DB	00H
	DB	00H
	DB	00H
	DB	00H
	DB	00H
	DB	00H
	DB	00H
	DB	00H
	DB	00H
	DB	0ffH
	DB	0ffH
	DB	0ffH
	DB	00H
	DB	0ffH
	DB	0ffH
	DB	0ffH
	DB	00H
	DB	0ffH
	DB	0ffH
	DB	0ffH
	DB	0bH
	DB	0ffH
	DB	0ffH
	DB	0ffH
	DB	043H
	DB	0ffH
	DB	0ffH
	DB	0ffH
	DB	04dH
	DB	0ffH
	DB	0ffH
	DB	0ffH
	DB	04dH
	DB	0ffH
	DB	0ffH
	DB	0ffH
	DB	04dH
	DB	0ffH
	DB	0ffH
	DB	0ffH
	DB	04dH
	DB	0ffH
	DB	0ffH
	DB	0ffH
	DB	04dH
	DB	0ffH
	DB	0ffH
	DB	0ffH
	DB	04dH
	DB	0ffH
	DB	0ffH
	DB	0ffH
	DB	04dH
	DB	0ffH
	DB	0ffH
	DB	0ffH
	DB	04dH
	DB	0ffH
	DB	0ffH
	DB	0ffH
	DB	04dH
	DB	0ffH
	DB	0ffH
	DB	0ffH
	DB	04dH
	DB	0ffH
	DB	0ffH
	DB	0ffH
	DB	04dH
	DB	0ffH
	DB	0ffH
	DB	0ffH
	DB	04dH
	DB	0ffH
	DB	0ffH
	DB	0ffH
	DB	04dH
	DB	0ffH
	DB	0ffH
	DB	0ffH
	DB	04dH
	DB	0ffH
	DB	0ffH
	DB	0ffH
	DB	04dH
	DB	0ffH
	DB	0ffH
	DB	0ffH
	DB	04dH
	DB	0ffH
	DB	0ffH
	DB	0ffH
	DB	032H
	DB	0ffH
	DB	0ffH
	DB	0ffH
	DB	08H
	DB	0ffH
	DB	0ffH
	DB	0ffH
	DB	00H
	DB	0ffH
	DB	0ffH
	DB	0ffH
	DB	00H
	DB	0ffH
	DB	0ffH
	DB	0ffH
	DB	00H
	DB	0ffH
	DB	0ffH
	DB	0ffH
	DB	00H
	DB	0ffH
	DB	0ffH
	DB	0ffH
	DB	00H
	DB	0ffH
	DB	0ffH
	DB	0ffH
	DB	00H
	DB	0ffH
	DB	0ffH
	DB	0ffH
	DB	00H
	DB	0ffH
	DB	0ffH
	DB	0ffH
	DB	00H
	DB	0ffH
	DB	0ffH
	DB	0ffH
	DB	00H
	DB	0ffH
	DB	0ffH
	DB	0ffH
	DB	00H
	DB	0ffH
	DB	0ffH
	DB	0ffH
	DB	00H
	DB	0ffH
	DB	0ffH
	DB	0ffH
	DB	00H
	DB	0ffH
	DB	0ffH
	DB	0ffH
	DB	00H
	DB	0ffH
	DB	0ffH
	DB	0ffH
	DB	00H
	DB	0ffH
	DB	0ffH
	DB	0ffH
	DB	00H
	DB	0ffH
	DB	0ffH
	DB	0ffH
	DB	00H
	DB	0ffH
	DB	0ffH
	DB	0ffH
	DB	00H
	DB	0ffH
	DB	0ffH
	DB	0ffH
	DB	00H
	DB	0ffH
	DB	0ffH
	DB	0ffH
	DB	00H
	DB	0ffH
	DB	0ffH
	DB	0ffH
	DB	00H
	DB	0ffH
	DB	0ffH
	DB	0ffH
	DB	00H
	DB	0ffH
	DB	0ffH
	DB	0ffH
	DB	00H
	DB	0ffH
	DB	0ffH
	DB	0ffH
	DB	00H
	DB	0ffH
	DB	0ffH
	DB	0ffH
	DB	00H
	DB	0ffH
	DB	0ffH
	DB	0ffH
	DB	00H
	DB	0ffH
	DB	0ffH
	DB	0ffH
	DB	00H
	DB	0ffH
	DB	0ffH
	DB	0ffH
	DB	00H
	DB	0ffH
	DB	0ffH
	DB	0ffH
	DB	00H
	DB	0ffH
	DB	0ffH
	DB	0ffH
	DB	00H
	DB	0ffH
	DB	0ffH
	DB	0ffH
	DB	00H
	DB	0ffH
	DB	0ffH
	DB	0ffH
	DB	00H
	DB	0ffH
	DB	0ffH
	DB	0ffH
	DB	00H
	DB	0ffH
	DB	0ffH
	DB	0ffH
	DB	00H
	DB	0ffH
	DB	0ffH
	DB	0ffH
	DB	00H
	DB	0ffH
	DB	0ffH
	DB	0ffH
	DB	00H
	DB	0ffH
	DB	0ffH
	DB	0ffH
	DB	00H
	DB	0ffH
	DB	0ffH
	DB	0ffH
	DB	00H
	DB	0ffH
	DB	0ffH
	DB	0ffH
	DB	00H
	DB	0ffH
	DB	0ffH
	DB	0ffH
	DB	00H
	DB	0ffH
	DB	0ffH
	DB	0ffH
	DB	00H
	DB	0ffH
	DB	0ffH
	DB	0ffH
	DB	00H
	DB	0ffH
	DB	0ffH
	DB	0ffH
	DB	00H
	DB	0ffH
	DB	0ffH
	DB	0ffH
	DB	00H
	DB	0ffH
	DB	0ffH
	DB	0ffH
	DB	00H
	DB	0ffH
	DB	0ffH
	DB	0ffH
	DB	00H
	DB	0ffH
	DB	0ffH
	DB	0ffH
	DB	00H
	DB	0ffH
	DB	0ffH
	DB	0ffH
	DB	00H
	DB	0ffH
	DB	0ffH
	DB	0ffH
	DB	00H
	DB	0ffH
	DB	0ffH
	DB	0ffH
	DB	00H
	DB	0ffH
	DB	0ffH
	DB	0ffH
	DB	00H
	DB	0ffH
	DB	0ffH
	DB	0ffH
	DB	00H
	DB	0ffH
	DB	0ffH
	DB	0ffH
	DB	00H
	DB	0ffH
	DB	0ffH
	DB	0ffH
	DB	00H
	DB	0ffH
	DB	0ffH
	DB	0ffH
	DB	00H
	DB	0ffH
	DB	0ffH
	DB	0ffH
	DB	00H
	DB	0ffH
	DB	0ffH
	DB	0ffH
	DB	00H
	DB	0ffH
	DB	0ffH
	DB	0ffH
	DB	00H
	DB	0ffH
	DB	0ffH
	DB	0ffH
	DB	00H
	DB	0ffH
	DB	0ffH
	DB	0ffH
	DB	00H
	DB	0ffH
	DB	0ffH
	DB	0ffH
	DB	00H
	DB	0ffH
	DB	0ffH
	DB	0ffH
	DB	00H
	DB	0ffH
	DB	0ffH
	DB	0ffH
	DB	00H
	DB	0ffH
	DB	0ffH
	DB	0ffH
	DB	00H
	DB	0ffH
	DB	0ffH
	DB	0ffH
	DB	00H
	DB	0ffH
	DB	0ffH
	DB	0ffH
	DB	00H
	DB	0ffH
	DB	0ffH
	DB	0ffH
	DB	00H
	DB	0ffH
	DB	0ffH
	DB	0ffH
	DB	00H
	DB	0ffH
	DB	0ffH
	DB	0ffH
	DB	00H
	DB	0ffH
	DB	0ffH
	DB	0ffH
	DB	08H
	DB	0ffH
	DB	0ffH
	DB	0ffH
	DB	033H
	DB	0ffH
	DB	0ffH
	DB	0ffH
	DB	04dH
	DB	0ffH
	DB	0ffH
	DB	0ffH
	DB	04dH
	DB	0ffH
	DB	0ffH
	DB	0ffH
	DB	04dH
	DB	0ffH
	DB	0ffH
	DB	0ffH
	DB	04dH
	DB	0ffH
	DB	0ffH
	DB	0ffH
	DB	04dH
	DB	0ffH
	DB	0ffH
	DB	0ffH
	DB	04dH
	DB	0ffH
	DB	0ffH
	DB	0ffH
	DB	04dH
	DB	0ffH
	DB	0ffH
	DB	0ffH
	DB	04dH
	DB	0ffH
	DB	0ffH
	DB	0ffH
	DB	04dH
	DB	0ffH
	DB	0ffH
	DB	0ffH
	DB	04dH
	DB	0ffH
	DB	0ffH
	DB	0ffH
	DB	04dH
	DB	0ffH
	DB	0ffH
	DB	0ffH
	DB	04dH
	DB	0ffH
	DB	0ffH
	DB	0ffH
	DB	04dH
	DB	0ffH
	DB	0ffH
	DB	0ffH
	DB	04dH
	DB	0ffH
	DB	0ffH
	DB	0ffH
	DB	04dH
	DB	0ffH
	DB	0ffH
	DB	0ffH
	DB	04dH
	DB	0ffH
	DB	0ffH
	DB	0ffH
	DB	043H
	DB	0ffH
	DB	0ffH
	DB	0ffH
	DB	0aH
	DB	0ffH
	DB	0ffH
	DB	0ffH
	DB	00H
	DB	0ffH
	DB	0ffH
	DB	0ffH
	DB	00H
	DB	00H
	DB	00H
	DB	00H
	DB	00H
	DB	00H
	DB	00H
	DB	00H
	DB	00H
	DB	00H
	DB	00H
	DB	00H
	DB	00H
	DB	00H
	DB	00H
	DB	00H
	DB	00H
	DB	00H
	DB	00H
	DB	00H
	DB	00H
	DB	00H
	DB	00H
	DB	00H
	DB	00H
	DB	00H
	DB	00H
	DB	00H
	DB	00H
	DB	00H
	DB	00H
	DB	00H
	DB	00H
	DB	00H
	DB	00H
	DB	00H
	DB	00H
	DB	00H
	DB	00H
	DB	00H
	DB	00H
	DB	00H
	DB	00H
	DB	00H
	DB	00H
	DB	00H
	DB	00H
	DB	00H
	DB	00H
	DB	00H
	DB	00H
	DB	00H
	DB	00H
	DB	00H
	DB	00H
	DB	00H
	DB	00H
	DB	00H
	DB	00H
	DB	00H
	DB	00H
	DB	00H
	DB	00H
	DB	00H
	DB	00H
	DB	0ffH
	DB	0ffH
	DB	0ffH
	DB	00H
	DB	0ffH
	DB	0ffH
	DB	0ffH
	DB	0eH
	DB	0ffH
	DB	0ffH
	DB	0ffH
	DB	046H
	DB	0ffH
	DB	0ffH
	DB	0ffH
	DB	04dH
	DB	0ffH
	DB	0ffH
	DB	0ffH
	DB	04dH
	DB	0ffH
	DB	0ffH
	DB	0ffH
	DB	04dH
	DB	0ffH
	DB	0ffH
	DB	0ffH
	DB	04dH
	DB	0ffH
	DB	0ffH
	DB	0ffH
	DB	04dH
	DB	0ffH
	DB	0ffH
	DB	0ffH
	DB	04dH
	DB	0ffH
	DB	0ffH
	DB	0ffH
	DB	04dH
	DB	0ffH
	DB	0ffH
	DB	0ffH
	DB	04dH
	DB	0ffH
	DB	0ffH
	DB	0ffH
	DB	04dH
	DB	0ffH
	DB	0ffH
	DB	0ffH
	DB	04dH
	DB	0ffH
	DB	0ffH
	DB	0ffH
	DB	04dH
	DB	0ffH
	DB	0ffH
	DB	0ffH
	DB	04dH
	DB	0ffH
	DB	0ffH
	DB	0ffH
	DB	04dH
	DB	0ffH
	DB	0ffH
	DB	0ffH
	DB	04dH
	DB	0ffH
	DB	0ffH
	DB	0ffH
	DB	04dH
	DB	0ffH
	DB	0ffH
	DB	0ffH
	DB	044H
	DB	0ffH
	DB	0ffH
	DB	0ffH
	DB	015H
	DB	0ffH
	DB	0ffH
	DB	0ffH
	DB	00H
	DB	0ffH
	DB	0ffH
	DB	0ffH
	DB	00H
	DB	0ffH
	DB	0ffH
	DB	0ffH
	DB	00H
	DB	0ffH
	DB	0ffH
	DB	0ffH
	DB	00H
	DB	0ffH
	DB	0ffH
	DB	0ffH
	DB	00H
	DB	0ffH
	DB	0ffH
	DB	0ffH
	DB	00H
	DB	0ffH
	DB	0ffH
	DB	0ffH
	DB	00H
	DB	0ffH
	DB	0ffH
	DB	0ffH
	DB	00H
	DB	0ffH
	DB	0ffH
	DB	0ffH
	DB	00H
	DB	0ffH
	DB	0ffH
	DB	0ffH
	DB	00H
	DB	0ffH
	DB	0ffH
	DB	0ffH
	DB	00H
	DB	0ffH
	DB	0ffH
	DB	0ffH
	DB	00H
	DB	0ffH
	DB	0ffH
	DB	0ffH
	DB	00H
	DB	0ffH
	DB	0ffH
	DB	0ffH
	DB	00H
	DB	0ffH
	DB	0ffH
	DB	0ffH
	DB	00H
	DB	0ffH
	DB	0ffH
	DB	0ffH
	DB	00H
	DB	0ffH
	DB	0ffH
	DB	0ffH
	DB	00H
	DB	0ffH
	DB	0ffH
	DB	0ffH
	DB	00H
	DB	0ffH
	DB	0ffH
	DB	0ffH
	DB	00H
	DB	0ffH
	DB	0ffH
	DB	0ffH
	DB	00H
	DB	0ffH
	DB	0ffH
	DB	0ffH
	DB	00H
	DB	0ffH
	DB	0ffH
	DB	0ffH
	DB	00H
	DB	0ffH
	DB	0ffH
	DB	0ffH
	DB	00H
	DB	0ffH
	DB	0ffH
	DB	0ffH
	DB	00H
	DB	0ffH
	DB	0ffH
	DB	0ffH
	DB	00H
	DB	0ffH
	DB	0ffH
	DB	0ffH
	DB	00H
	DB	0ffH
	DB	0ffH
	DB	0ffH
	DB	00H
	DB	0ffH
	DB	0ffH
	DB	0ffH
	DB	00H
	DB	0ffH
	DB	0ffH
	DB	0ffH
	DB	00H
	DB	0ffH
	DB	0ffH
	DB	0ffH
	DB	00H
	DB	0ffH
	DB	0ffH
	DB	0ffH
	DB	00H
	DB	0ffH
	DB	0ffH
	DB	0ffH
	DB	00H
	DB	0ffH
	DB	0ffH
	DB	0ffH
	DB	00H
	DB	0ffH
	DB	0ffH
	DB	0ffH
	DB	00H
	DB	0ffH
	DB	0ffH
	DB	0ffH
	DB	00H
	DB	0ffH
	DB	0ffH
	DB	0ffH
	DB	00H
	DB	0ffH
	DB	0ffH
	DB	0ffH
	DB	00H
	DB	0ffH
	DB	0ffH
	DB	0ffH
	DB	00H
	DB	0ffH
	DB	0ffH
	DB	0ffH
	DB	00H
	DB	0ffH
	DB	0ffH
	DB	0ffH
	DB	00H
	DB	0ffH
	DB	0ffH
	DB	0ffH
	DB	00H
	DB	0ffH
	DB	0ffH
	DB	0ffH
	DB	00H
	DB	0ffH
	DB	0ffH
	DB	0ffH
	DB	00H
	DB	0ffH
	DB	0ffH
	DB	0ffH
	DB	00H
	DB	0ffH
	DB	0ffH
	DB	0ffH
	DB	00H
	DB	0ffH
	DB	0ffH
	DB	0ffH
	DB	00H
	DB	0ffH
	DB	0ffH
	DB	0ffH
	DB	00H
	DB	0ffH
	DB	0ffH
	DB	0ffH
	DB	00H
	DB	0ffH
	DB	0ffH
	DB	0ffH
	DB	00H
	DB	0ffH
	DB	0ffH
	DB	0ffH
	DB	00H
	DB	0ffH
	DB	0ffH
	DB	0ffH
	DB	00H
	DB	0ffH
	DB	0ffH
	DB	0ffH
	DB	00H
	DB	0ffH
	DB	0ffH
	DB	0ffH
	DB	00H
	DB	0ffH
	DB	0ffH
	DB	0ffH
	DB	00H
	DB	0ffH
	DB	0ffH
	DB	0ffH
	DB	00H
	DB	0ffH
	DB	0ffH
	DB	0ffH
	DB	00H
	DB	0ffH
	DB	0ffH
	DB	0ffH
	DB	00H
	DB	0ffH
	DB	0ffH
	DB	0ffH
	DB	00H
	DB	0ffH
	DB	0ffH
	DB	0ffH
	DB	00H
	DB	0ffH
	DB	0ffH
	DB	0ffH
	DB	00H
	DB	0ffH
	DB	0ffH
	DB	0ffH
	DB	00H
	DB	0ffH
	DB	0ffH
	DB	0ffH
	DB	00H
	DB	0ffH
	DB	0ffH
	DB	0ffH
	DB	00H
	DB	0ffH
	DB	0ffH
	DB	0ffH
	DB	00H
	DB	0ffH
	DB	0ffH
	DB	0ffH
	DB	00H
	DB	0ffH
	DB	0ffH
	DB	0ffH
	DB	00H
	DB	0ffH
	DB	0ffH
	DB	0ffH
	DB	00H
	DB	0ffH
	DB	0ffH
	DB	0ffH
	DB	00H
	DB	0ffH
	DB	0ffH
	DB	0ffH
	DB	00H
	DB	0ffH
	DB	0ffH
	DB	0ffH
	DB	00H
	DB	0ffH
	DB	0ffH
	DB	0ffH
	DB	00H
	DB	0ffH
	DB	0ffH
	DB	0ffH
	DB	00H
	DB	0ffH
	DB	0ffH
	DB	0ffH
	DB	016H
	DB	0ffH
	DB	0ffH
	DB	0ffH
	DB	045H
	DB	0ffH
	DB	0ffH
	DB	0ffH
	DB	04dH
	DB	0ffH
	DB	0ffH
	DB	0ffH
	DB	04dH
	DB	0ffH
	DB	0ffH
	DB	0ffH
	DB	04dH
	DB	0ffH
	DB	0ffH
	DB	0ffH
	DB	04dH
	DB	0ffH
	DB	0ffH
	DB	0ffH
	DB	04dH
	DB	0ffH
	DB	0ffH
	DB	0ffH
	DB	04dH
	DB	0ffH
	DB	0ffH
	DB	0ffH
	DB	04dH
	DB	0ffH
	DB	0ffH
	DB	0ffH
	DB	04dH
	DB	0ffH
	DB	0ffH
	DB	0ffH
	DB	04dH
	DB	0ffH
	DB	0ffH
	DB	0ffH
	DB	04dH
	DB	0ffH
	DB	0ffH
	DB	0ffH
	DB	04dH
	DB	0ffH
	DB	0ffH
	DB	0ffH
	DB	04dH
	DB	0ffH
	DB	0ffH
	DB	0ffH
	DB	04dH
	DB	0ffH
	DB	0ffH
	DB	0ffH
	DB	04dH
	DB	0ffH
	DB	0ffH
	DB	0ffH
	DB	04dH
	DB	0ffH
	DB	0ffH
	DB	0ffH
	DB	045H
	DB	0ffH
	DB	0ffH
	DB	0ffH
	DB	0dH
	DB	0ffH
	DB	0ffH
	DB	0ffH
	DB	00H
	DB	00H
	DB	00H
	DB	00H
	DB	00H
	DB	00H
	DB	00H
	DB	00H
	DB	00H
	DB	00H
	DB	00H
	DB	00H
	DB	00H
	DB	00H
	DB	00H
	DB	00H
	DB	00H
	DB	00H
	DB	00H
	DB	00H
	DB	00H
	DB	00H
	DB	00H
	DB	00H
	DB	00H
	DB	00H
	DB	00H
	DB	00H
	DB	00H
	DB	00H
	DB	00H
	DB	00H
	DB	00H
	DB	00H
	DB	00H
	DB	00H
	DB	00H
	DB	00H
	DB	00H
	DB	00H
	DB	00H
	DB	00H
	DB	00H
	DB	00H
	DB	00H
	DB	00H
	DB	00H
	DB	00H
	DB	00H
	DB	00H
	DB	00H
	DB	00H
	DB	00H
	DB	00H
	DB	00H
	DB	00H
	DB	00H
	DB	00H
	DB	00H
	DB	00H
	DB	00H
	DB	00H
	DB	00H
	DB	00H
	DB	00H
	DB	0ffH
	DB	0ffH
	DB	0ffH
	DB	06H
	DB	0ffH
	DB	0ffH
	DB	0ffH
	DB	046H
	DB	0ffH
	DB	0ffH
	DB	0ffH
	DB	04dH
	DB	0ffH
	DB	0ffH
	DB	0ffH
	DB	04dH
	DB	0ffH
	DB	0ffH
	DB	0ffH
	DB	04dH
	DB	0ffH
	DB	0ffH
	DB	0ffH
	DB	04dH
	DB	0ffH
	DB	0ffH
	DB	0ffH
	DB	04dH
	DB	0ffH
	DB	0ffH
	DB	0ffH
	DB	04dH
	DB	0ffH
	DB	0ffH
	DB	0ffH
	DB	04dH
	DB	0ffH
	DB	0ffH
	DB	0ffH
	DB	04dH
	DB	0ffH
	DB	0ffH
	DB	0ffH
	DB	04dH
	DB	0ffH
	DB	0ffH
	DB	0ffH
	DB	04dH
	DB	0ffH
	DB	0ffH
	DB	0ffH
	DB	04dH
	DB	0ffH
	DB	0ffH
	DB	0ffH
	DB	04dH
	DB	0ffH
	DB	0ffH
	DB	0ffH
	DB	04dH
	DB	0ffH
	DB	0ffH
	DB	0ffH
	DB	04dH
	DB	0ffH
	DB	0ffH
	DB	0ffH
	DB	04dH
	DB	0ffH
	DB	0ffH
	DB	0ffH
	DB	030H
	DB	0ffH
	DB	0ffH
	DB	0ffH
	DB	05H
	DB	0ffH
	DB	0ffH
	DB	0ffH
	DB	00H
	DB	0ffH
	DB	0ffH
	DB	0ffH
	DB	00H
	DB	0ffH
	DB	0ffH
	DB	0ffH
	DB	00H
	DB	0ffH
	DB	0ffH
	DB	0ffH
	DB	00H
	DB	0ffH
	DB	0ffH
	DB	0ffH
	DB	00H
	DB	0ffH
	DB	0ffH
	DB	0ffH
	DB	00H
	DB	0ffH
	DB	0ffH
	DB	0ffH
	DB	00H
	DB	0ffH
	DB	0ffH
	DB	0ffH
	DB	00H
	DB	0ffH
	DB	0ffH
	DB	0ffH
	DB	00H
	DB	0ffH
	DB	0ffH
	DB	0ffH
	DB	00H
	DB	0ffH
	DB	0ffH
	DB	0ffH
	DB	00H
	DB	0ffH
	DB	0ffH
	DB	0ffH
	DB	00H
	DB	0ffH
	DB	0ffH
	DB	0ffH
	DB	00H
	DB	0ffH
	DB	0ffH
	DB	0ffH
	DB	00H
	DB	0ffH
	DB	0ffH
	DB	0ffH
	DB	00H
	DB	0ffH
	DB	0ffH
	DB	0ffH
	DB	00H
	DB	0ffH
	DB	0ffH
	DB	0ffH
	DB	00H
	DB	0ffH
	DB	0ffH
	DB	0ffH
	DB	00H
	DB	0ffH
	DB	0ffH
	DB	0ffH
	DB	00H
	DB	0ffH
	DB	0ffH
	DB	0ffH
	DB	00H
	DB	0ffH
	DB	0ffH
	DB	0ffH
	DB	00H
	DB	0ffH
	DB	0ffH
	DB	0ffH
	DB	00H
	DB	0ffH
	DB	0ffH
	DB	0ffH
	DB	00H
	DB	0ffH
	DB	0ffH
	DB	0ffH
	DB	00H
	DB	0ffH
	DB	0ffH
	DB	0ffH
	DB	00H
	DB	0ffH
	DB	0ffH
	DB	0ffH
	DB	00H
	DB	0ffH
	DB	0ffH
	DB	0ffH
	DB	01H
	DB	0ffH
	DB	0ffH
	DB	0ffH
	DB	0bH
	DB	0ffH
	DB	0ffH
	DB	0ffH
	DB	017H
	DB	0ffH
	DB	0ffH
	DB	0ffH
	DB	022H
	DB	0ffH
	DB	0ffH
	DB	0ffH
	DB	02bH
	DB	0ffH
	DB	0ffH
	DB	0ffH
	DB	034H
	DB	0ffH
	DB	0ffH
	DB	0ffH
	DB	03aH
	DB	0ffH
	DB	0ffH
	DB	0ffH
	DB	03fH
	DB	0ffH
	DB	0ffH
	DB	0ffH
	DB	043H
	DB	0ffH
	DB	0ffH
	DB	0ffH
	DB	048H
	DB	0ffH
	DB	0ffH
	DB	0ffH
	DB	048H
	DB	0ffH
	DB	0ffH
	DB	0ffH
	DB	048H
	DB	0ffH
	DB	0ffH
	DB	0ffH
	DB	048H
	DB	0ffH
	DB	0ffH
	DB	0ffH
	DB	043H
	DB	0ffH
	DB	0ffH
	DB	0ffH
	DB	040H
	DB	0ffH
	DB	0ffH
	DB	0ffH
	DB	03bH
	DB	0ffH
	DB	0ffH
	DB	0ffH
	DB	035H
	DB	0ffH
	DB	0ffH
	DB	0ffH
	DB	02bH
	DB	0ffH
	DB	0ffH
	DB	0ffH
	DB	022H
	DB	0ffH
	DB	0ffH
	DB	0ffH
	DB	018H
	DB	0ffH
	DB	0ffH
	DB	0ffH
	DB	0bH
	DB	0ffH
	DB	0ffH
	DB	0ffH
	DB	01H
	DB	0ffH
	DB	0ffH
	DB	0ffH
	DB	00H
	DB	0ffH
	DB	0ffH
	DB	0ffH
	DB	00H
	DB	0ffH
	DB	0ffH
	DB	0ffH
	DB	00H
	DB	0ffH
	DB	0ffH
	DB	0ffH
	DB	00H
	DB	0ffH
	DB	0ffH
	DB	0ffH
	DB	00H
	DB	0ffH
	DB	0ffH
	DB	0ffH
	DB	00H
	DB	0ffH
	DB	0ffH
	DB	0ffH
	DB	00H
	DB	0ffH
	DB	0ffH
	DB	0ffH
	DB	00H
	DB	0ffH
	DB	0ffH
	DB	0ffH
	DB	00H
	DB	0ffH
	DB	0ffH
	DB	0ffH
	DB	00H
	DB	0ffH
	DB	0ffH
	DB	0ffH
	DB	00H
	DB	0ffH
	DB	0ffH
	DB	0ffH
	DB	00H
	DB	0ffH
	DB	0ffH
	DB	0ffH
	DB	00H
	DB	0ffH
	DB	0ffH
	DB	0ffH
	DB	00H
	DB	0ffH
	DB	0ffH
	DB	0ffH
	DB	00H
	DB	0ffH
	DB	0ffH
	DB	0ffH
	DB	00H
	DB	0ffH
	DB	0ffH
	DB	0ffH
	DB	00H
	DB	0ffH
	DB	0ffH
	DB	0ffH
	DB	00H
	DB	0ffH
	DB	0ffH
	DB	0ffH
	DB	00H
	DB	0ffH
	DB	0ffH
	DB	0ffH
	DB	00H
	DB	0ffH
	DB	0ffH
	DB	0ffH
	DB	00H
	DB	0ffH
	DB	0ffH
	DB	0ffH
	DB	00H
	DB	0ffH
	DB	0ffH
	DB	0ffH
	DB	00H
	DB	0ffH
	DB	0ffH
	DB	0ffH
	DB	00H
	DB	0ffH
	DB	0ffH
	DB	0ffH
	DB	00H
	DB	0ffH
	DB	0ffH
	DB	0ffH
	DB	00H
	DB	0ffH
	DB	0ffH
	DB	0ffH
	DB	05H
	DB	0ffH
	DB	0ffH
	DB	0ffH
	DB	031H
	DB	0ffH
	DB	0ffH
	DB	0ffH
	DB	04dH
	DB	0ffH
	DB	0ffH
	DB	0ffH
	DB	04dH
	DB	0ffH
	DB	0ffH
	DB	0ffH
	DB	04dH
	DB	0ffH
	DB	0ffH
	DB	0ffH
	DB	04dH
	DB	0ffH
	DB	0ffH
	DB	0ffH
	DB	04dH
	DB	0ffH
	DB	0ffH
	DB	0ffH
	DB	04dH
	DB	0ffH
	DB	0ffH
	DB	0ffH
	DB	04dH
	DB	0ffH
	DB	0ffH
	DB	0ffH
	DB	04dH
	DB	0ffH
	DB	0ffH
	DB	0ffH
	DB	04dH
	DB	0ffH
	DB	0ffH
	DB	0ffH
	DB	04dH
	DB	0ffH
	DB	0ffH
	DB	0ffH
	DB	04dH
	DB	0ffH
	DB	0ffH
	DB	0ffH
	DB	04dH
	DB	0ffH
	DB	0ffH
	DB	0ffH
	DB	04dH
	DB	0ffH
	DB	0ffH
	DB	0ffH
	DB	04dH
	DB	0ffH
	DB	0ffH
	DB	0ffH
	DB	04dH
	DB	0ffH
	DB	0ffH
	DB	0ffH
	DB	045H
	DB	0ffH
	DB	0ffH
	DB	0ffH
	DB	06H
	DB	00H
	DB	00H
	DB	00H
	DB	00H
	DB	00H
	DB	00H
	DB	00H
	DB	00H
	DB	00H
	DB	00H
	DB	00H
	DB	00H
	DB	00H
	DB	00H
	DB	00H
	DB	00H
	DB	00H
	DB	00H
	DB	00H
	DB	00H
	DB	00H
	DB	00H
	DB	00H
	DB	00H
	DB	00H
	DB	00H
	DB	00H
	DB	00H
	DB	00H
	DB	00H
	DB	00H
	DB	00H
	DB	00H
	DB	00H
	DB	00H
	DB	00H
	DB	00H
	DB	00H
	DB	00H
	DB	00H
	DB	00H
	DB	00H
	DB	00H
	DB	00H
	DB	00H
	DB	00H
	DB	00H
	DB	00H
	DB	00H
	DB	00H
	DB	00H
	DB	00H
	DB	00H
	DB	00H
	DB	00H
	DB	00H
	DB	00H
	DB	00H
	DB	00H
	DB	00H
	DB	00H
	DB	00H
	DB	00H
	DB	00H
	DB	0ffH
	DB	0ffH
	DB	0ffH
	DB	02aH
	DB	0ffH
	DB	0ffH
	DB	0ffH
	DB	04dH
	DB	0ffH
	DB	0ffH
	DB	0ffH
	DB	04dH
	DB	0ffH
	DB	0ffH
	DB	0ffH
	DB	04dH
	DB	0ffH
	DB	0ffH
	DB	0ffH
	DB	04dH
	DB	0ffH
	DB	0ffH
	DB	0ffH
	DB	04dH
	DB	0ffH
	DB	0ffH
	DB	0ffH
	DB	04dH
	DB	0ffH
	DB	0ffH
	DB	0ffH
	DB	04dH
	DB	0ffH
	DB	0ffH
	DB	0ffH
	DB	04dH
	DB	0ffH
	DB	0ffH
	DB	0ffH
	DB	04dH
	DB	0ffH
	DB	0ffH
	DB	0ffH
	DB	04dH
	DB	0ffH
	DB	0ffH
	DB	0ffH
	DB	04dH
	DB	0ffH
	DB	0ffH
	DB	0ffH
	DB	04dH
	DB	0ffH
	DB	0ffH
	DB	0ffH
	DB	04dH
	DB	0ffH
	DB	0ffH
	DB	0ffH
	DB	04dH
	DB	0ffH
	DB	0ffH
	DB	0ffH
	DB	049H
	DB	0ffH
	DB	0ffH
	DB	0ffH
	DB	01aH
	DB	0ffH
	DB	0ffH
	DB	0ffH
	DB	00H
	DB	0ffH
	DB	0ffH
	DB	0ffH
	DB	00H
	DB	0ffH
	DB	0ffH
	DB	0ffH
	DB	00H
	DB	0ffH
	DB	0ffH
	DB	0ffH
	DB	00H
	DB	0ffH
	DB	0ffH
	DB	0ffH
	DB	00H
	DB	0ffH
	DB	0ffH
	DB	0ffH
	DB	00H
	DB	0ffH
	DB	0ffH
	DB	0ffH
	DB	00H
	DB	0ffH
	DB	0ffH
	DB	0ffH
	DB	00H
	DB	0ffH
	DB	0ffH
	DB	0ffH
	DB	00H
	DB	0ffH
	DB	0ffH
	DB	0ffH
	DB	00H
	DB	0ffH
	DB	0ffH
	DB	0ffH
	DB	00H
	DB	0ffH
	DB	0ffH
	DB	0ffH
	DB	00H
	DB	0ffH
	DB	0ffH
	DB	0ffH
	DB	00H
	DB	0ffH
	DB	0ffH
	DB	0ffH
	DB	00H
	DB	0ffH
	DB	0ffH
	DB	0ffH
	DB	00H
	DB	0ffH
	DB	0ffH
	DB	0ffH
	DB	00H
	DB	0ffH
	DB	0ffH
	DB	0ffH
	DB	00H
	DB	0ffH
	DB	0ffH
	DB	0ffH
	DB	00H
	DB	0ffH
	DB	0ffH
	DB	0ffH
	DB	00H
	DB	0ffH
	DB	0ffH
	DB	0ffH
	DB	00H
	DB	0ffH
	DB	0ffH
	DB	0ffH
	DB	00H
	DB	0ffH
	DB	0ffH
	DB	0ffH
	DB	00H
	DB	0ffH
	DB	0ffH
	DB	0ffH
	DB	00H
	DB	0ffH
	DB	0ffH
	DB	0ffH
	DB	00H
	DB	0ffH
	DB	0ffH
	DB	0ffH
	DB	06H
	DB	0ffH
	DB	0ffH
	DB	0ffH
	DB	019H
	DB	0ffH
	DB	0ffH
	DB	0ffH
	DB	02bH
	DB	0ffH
	DB	0ffH
	DB	0ffH
	DB	03bH
	DB	0ffH
	DB	0ffH
	DB	0ffH
	DB	04aH
	DB	0ffH
	DB	0ffH
	DB	0ffH
	DB	04dH
	DB	0ffH
	DB	0ffH
	DB	0ffH
	DB	04dH
	DB	0ffH
	DB	0ffH
	DB	0ffH
	DB	04dH
	DB	0ffH
	DB	0ffH
	DB	0ffH
	DB	04dH
	DB	0ffH
	DB	0ffH
	DB	0ffH
	DB	04dH
	DB	0ffH
	DB	0ffH
	DB	0ffH
	DB	04dH
	DB	0ffH
	DB	0ffH
	DB	0ffH
	DB	04dH
	DB	0ffH
	DB	0ffH
	DB	0ffH
	DB	04dH
	DB	0ffH
	DB	0ffH
	DB	0ffH
	DB	04dH
	DB	0ffH
	DB	0ffH
	DB	0ffH
	DB	04dH
	DB	0ffH
	DB	0ffH
	DB	0ffH
	DB	04dH
	DB	0ffH
	DB	0ffH
	DB	0ffH
	DB	04dH
	DB	0ffH
	DB	0ffH
	DB	0ffH
	DB	04dH
	DB	0ffH
	DB	0ffH
	DB	0ffH
	DB	04dH
	DB	0ffH
	DB	0ffH
	DB	0ffH
	DB	04dH
	DB	0ffH
	DB	0ffH
	DB	0ffH
	DB	04dH
	DB	0ffH
	DB	0ffH
	DB	0ffH
	DB	04dH
	DB	0ffH
	DB	0ffH
	DB	0ffH
	DB	04dH
	DB	0ffH
	DB	0ffH
	DB	0ffH
	DB	04dH
	DB	0ffH
	DB	0ffH
	DB	0ffH
	DB	04dH
	DB	0ffH
	DB	0ffH
	DB	0ffH
	DB	04bH
	DB	0ffH
	DB	0ffH
	DB	0ffH
	DB	03cH
	DB	0ffH
	DB	0ffH
	DB	0ffH
	DB	02cH
	DB	0ffH
	DB	0ffH
	DB	0ffH
	DB	01aH
	DB	0ffH
	DB	0ffH
	DB	0ffH
	DB	07H
	DB	0ffH
	DB	0ffH
	DB	0ffH
	DB	00H
	DB	0ffH
	DB	0ffH
	DB	0ffH
	DB	00H
	DB	0ffH
	DB	0ffH
	DB	0ffH
	DB	00H
	DB	0ffH
	DB	0ffH
	DB	0ffH
	DB	00H
	DB	0ffH
	DB	0ffH
	DB	0ffH
	DB	00H
	DB	0ffH
	DB	0ffH
	DB	0ffH
	DB	00H
	DB	0ffH
	DB	0ffH
	DB	0ffH
	DB	00H
	DB	0ffH
	DB	0ffH
	DB	0ffH
	DB	00H
	DB	0ffH
	DB	0ffH
	DB	0ffH
	DB	00H
	DB	0ffH
	DB	0ffH
	DB	0ffH
	DB	00H
	DB	0ffH
	DB	0ffH
	DB	0ffH
	DB	00H
	DB	0ffH
	DB	0ffH
	DB	0ffH
	DB	00H
	DB	0ffH
	DB	0ffH
	DB	0ffH
	DB	00H
	DB	0ffH
	DB	0ffH
	DB	0ffH
	DB	00H
	DB	0ffH
	DB	0ffH
	DB	0ffH
	DB	00H
	DB	0ffH
	DB	0ffH
	DB	0ffH
	DB	00H
	DB	0ffH
	DB	0ffH
	DB	0ffH
	DB	00H
	DB	0ffH
	DB	0ffH
	DB	0ffH
	DB	00H
	DB	0ffH
	DB	0ffH
	DB	0ffH
	DB	00H
	DB	0ffH
	DB	0ffH
	DB	0ffH
	DB	00H
	DB	0ffH
	DB	0ffH
	DB	0ffH
	DB	00H
	DB	0ffH
	DB	0ffH
	DB	0ffH
	DB	00H
	DB	0ffH
	DB	0ffH
	DB	0ffH
	DB	00H
	DB	0ffH
	DB	0ffH
	DB	0ffH
	DB	00H
	DB	0ffH
	DB	0ffH
	DB	0ffH
	DB	01bH
	DB	0ffH
	DB	0ffH
	DB	0ffH
	DB	049H
	DB	0ffH
	DB	0ffH
	DB	0ffH
	DB	04dH
	DB	0ffH
	DB	0ffH
	DB	0ffH
	DB	04dH
	DB	0ffH
	DB	0ffH
	DB	0ffH
	DB	04dH
	DB	0ffH
	DB	0ffH
	DB	0ffH
	DB	04dH
	DB	0ffH
	DB	0ffH
	DB	0ffH
	DB	04dH
	DB	0ffH
	DB	0ffH
	DB	0ffH
	DB	04dH
	DB	0ffH
	DB	0ffH
	DB	0ffH
	DB	04dH
	DB	0ffH
	DB	0ffH
	DB	0ffH
	DB	04dH
	DB	0ffH
	DB	0ffH
	DB	0ffH
	DB	04dH
	DB	0ffH
	DB	0ffH
	DB	0ffH
	DB	04dH
	DB	0ffH
	DB	0ffH
	DB	0ffH
	DB	04dH
	DB	0ffH
	DB	0ffH
	DB	0ffH
	DB	04dH
	DB	0ffH
	DB	0ffH
	DB	0ffH
	DB	04dH
	DB	0ffH
	DB	0ffH
	DB	0ffH
	DB	04dH
	DB	0ffH
	DB	0ffH
	DB	0ffH
	DB	02aH
	DB	00H
	DB	00H
	DB	00H
	DB	00H
	DB	00H
	DB	00H
	DB	00H
	DB	00H
	DB	00H
	DB	00H
	DB	00H
	DB	00H
	DB	00H
	DB	00H
	DB	00H
	DB	00H
	DB	00H
	DB	00H
	DB	00H
	DB	00H
	DB	00H
	DB	00H
	DB	00H
	DB	00H
	DB	00H
	DB	00H
	DB	00H
	DB	00H
	DB	00H
	DB	00H
	DB	00H
	DB	00H
	DB	00H
	DB	00H
	DB	00H
	DB	00H
	DB	00H
	DB	00H
	DB	00H
	DB	00H
	DB	00H
	DB	00H
	DB	00H
	DB	00H
	DB	00H
	DB	00H
	DB	00H
	DB	00H
	DB	00H
	DB	00H
	DB	00H
	DB	00H
	DB	00H
	DB	00H
	DB	00H
	DB	00H
	DB	00H
	DB	00H
	DB	00H
	DB	00H
	DB	00H
	DB	00H
	DB	00H
	DB	00H
	DB	0ffH
	DB	0ffH
	DB	0ffH
	DB	043H
	DB	0ffH
	DB	0ffH
	DB	0ffH
	DB	04dH
	DB	0ffH
	DB	0ffH
	DB	0ffH
	DB	04dH
	DB	0ffH
	DB	0ffH
	DB	0ffH
	DB	04dH
	DB	0ffH
	DB	0ffH
	DB	0ffH
	DB	04dH
	DB	0ffH
	DB	0ffH
	DB	0ffH
	DB	04dH
	DB	0ffH
	DB	0ffH
	DB	0ffH
	DB	04dH
	DB	0ffH
	DB	0ffH
	DB	0ffH
	DB	04dH
	DB	0ffH
	DB	0ffH
	DB	0ffH
	DB	04dH
	DB	0ffH
	DB	0ffH
	DB	0ffH
	DB	04dH
	DB	0ffH
	DB	0ffH
	DB	0ffH
	DB	04dH
	DB	0ffH
	DB	0ffH
	DB	0ffH
	DB	04dH
	DB	0ffH
	DB	0ffH
	DB	0ffH
	DB	04dH
	DB	0ffH
	DB	0ffH
	DB	0ffH
	DB	04dH
	DB	0ffH
	DB	0ffH
	DB	0ffH
	DB	03fH
	DB	0ffH
	DB	0ffH
	DB	0ffH
	DB	0bH
	DB	0ffH
	DB	0ffH
	DB	0ffH
	DB	00H
	DB	0ffH
	DB	0ffH
	DB	0ffH
	DB	00H
	DB	0ffH
	DB	0ffH
	DB	0ffH
	DB	00H
	DB	0ffH
	DB	0ffH
	DB	0ffH
	DB	00H
	DB	0ffH
	DB	0ffH
	DB	0ffH
	DB	00H
	DB	0ffH
	DB	0ffH
	DB	0ffH
	DB	00H
	DB	0ffH
	DB	0ffH
	DB	0ffH
	DB	00H
	DB	0ffH
	DB	0ffH
	DB	0ffH
	DB	00H
	DB	0ffH
	DB	0ffH
	DB	0ffH
	DB	00H
	DB	0ffH
	DB	0ffH
	DB	0ffH
	DB	00H
	DB	0ffH
	DB	0ffH
	DB	0ffH
	DB	00H
	DB	0ffH
	DB	0ffH
	DB	0ffH
	DB	00H
	DB	0ffH
	DB	0ffH
	DB	0ffH
	DB	00H
	DB	0ffH
	DB	0ffH
	DB	0ffH
	DB	00H
	DB	0ffH
	DB	0ffH
	DB	0ffH
	DB	00H
	DB	0ffH
	DB	0ffH
	DB	0ffH
	DB	00H
	DB	0ffH
	DB	0ffH
	DB	0ffH
	DB	00H
	DB	0ffH
	DB	0ffH
	DB	0ffH
	DB	00H
	DB	0ffH
	DB	0ffH
	DB	0ffH
	DB	00H
	DB	0ffH
	DB	0ffH
	DB	0ffH
	DB	00H
	DB	0ffH
	DB	0ffH
	DB	0ffH
	DB	00H
	DB	0ffH
	DB	0ffH
	DB	0ffH
	DB	00H
	DB	0ffH
	DB	0ffH
	DB	0ffH
	DB	0fH
	DB	0ffH
	DB	0ffH
	DB	0ffH
	DB	027H
	DB	0ffH
	DB	0ffH
	DB	0ffH
	DB	03eH
	DB	0ffH
	DB	0ffH
	DB	0ffH
	DB	04cH
	DB	0ffH
	DB	0ffH
	DB	0ffH
	DB	04dH
	DB	0ffH
	DB	0ffH
	DB	0ffH
	DB	04dH
	DB	0ffH
	DB	0ffH
	DB	0ffH
	DB	04dH
	DB	0ffH
	DB	0ffH
	DB	0ffH
	DB	04dH
	DB	0ffH
	DB	0ffH
	DB	0ffH
	DB	04dH
	DB	0ffH
	DB	0ffH
	DB	0ffH
	DB	04dH
	DB	0ffH
	DB	0ffH
	DB	0ffH
	DB	04dH
	DB	0ffH
	DB	0ffH
	DB	0ffH
	DB	04dH
	DB	0ffH
	DB	0ffH
	DB	0ffH
	DB	04dH
	DB	0ffH
	DB	0ffH
	DB	0ffH
	DB	04dH
	DB	0ffH
	DB	0ffH
	DB	0ffH
	DB	04dH
	DB	0ffH
	DB	0ffH
	DB	0ffH
	DB	04dH
	DB	0ffH
	DB	0ffH
	DB	0ffH
	DB	04dH
	DB	0ffH
	DB	0ffH
	DB	0ffH
	DB	04dH
	DB	0ffH
	DB	0ffH
	DB	0ffH
	DB	04dH
	DB	0ffH
	DB	0ffH
	DB	0ffH
	DB	04dH
	DB	0ffH
	DB	0ffH
	DB	0ffH
	DB	04dH
	DB	0ffH
	DB	0ffH
	DB	0ffH
	DB	04dH
	DB	0ffH
	DB	0ffH
	DB	0ffH
	DB	04dH
	DB	0ffH
	DB	0ffH
	DB	0ffH
	DB	04dH
	DB	0ffH
	DB	0ffH
	DB	0ffH
	DB	04dH
	DB	0ffH
	DB	0ffH
	DB	0ffH
	DB	04dH
	DB	0ffH
	DB	0ffH
	DB	0ffH
	DB	04dH
	DB	0ffH
	DB	0ffH
	DB	0ffH
	DB	04dH
	DB	0ffH
	DB	0ffH
	DB	0ffH
	DB	04dH
	DB	0ffH
	DB	0ffH
	DB	0ffH
	DB	04dH
	DB	0ffH
	DB	0ffH
	DB	0ffH
	DB	04dH
	DB	0ffH
	DB	0ffH
	DB	0ffH
	DB	04dH
	DB	0ffH
	DB	0ffH
	DB	0ffH
	DB	04dH
	DB	0ffH
	DB	0ffH
	DB	0ffH
	DB	03fH
	DB	0ffH
	DB	0ffH
	DB	0ffH
	DB	028H
	DB	0ffH
	DB	0ffH
	DB	0ffH
	DB	010H
	DB	0ffH
	DB	0ffH
	DB	0ffH
	DB	00H
	DB	0ffH
	DB	0ffH
	DB	0ffH
	DB	00H
	DB	0ffH
	DB	0ffH
	DB	0ffH
	DB	00H
	DB	0ffH
	DB	0ffH
	DB	0ffH
	DB	00H
	DB	0ffH
	DB	0ffH
	DB	0ffH
	DB	00H
	DB	0ffH
	DB	0ffH
	DB	0ffH
	DB	00H
	DB	0ffH
	DB	0ffH
	DB	0ffH
	DB	00H
	DB	0ffH
	DB	0ffH
	DB	0ffH
	DB	00H
	DB	0ffH
	DB	0ffH
	DB	0ffH
	DB	00H
	DB	0ffH
	DB	0ffH
	DB	0ffH
	DB	00H
	DB	0ffH
	DB	0ffH
	DB	0ffH
	DB	00H
	DB	0ffH
	DB	0ffH
	DB	0ffH
	DB	00H
	DB	0ffH
	DB	0ffH
	DB	0ffH
	DB	00H
	DB	0ffH
	DB	0ffH
	DB	0ffH
	DB	00H
	DB	0ffH
	DB	0ffH
	DB	0ffH
	DB	00H
	DB	0ffH
	DB	0ffH
	DB	0ffH
	DB	00H
	DB	0ffH
	DB	0ffH
	DB	0ffH
	DB	00H
	DB	0ffH
	DB	0ffH
	DB	0ffH
	DB	00H
	DB	0ffH
	DB	0ffH
	DB	0ffH
	DB	00H
	DB	0ffH
	DB	0ffH
	DB	0ffH
	DB	00H
	DB	0ffH
	DB	0ffH
	DB	0ffH
	DB	00H
	DB	0ffH
	DB	0ffH
	DB	0ffH
	DB	00H
	DB	0ffH
	DB	0ffH
	DB	0ffH
	DB	0bH
	DB	0ffH
	DB	0ffH
	DB	0ffH
	DB	03fH
	DB	0ffH
	DB	0ffH
	DB	0ffH
	DB	04dH
	DB	0ffH
	DB	0ffH
	DB	0ffH
	DB	04dH
	DB	0ffH
	DB	0ffH
	DB	0ffH
	DB	04dH
	DB	0ffH
	DB	0ffH
	DB	0ffH
	DB	04dH
	DB	0ffH
	DB	0ffH
	DB	0ffH
	DB	04dH
	DB	0ffH
	DB	0ffH
	DB	0ffH
	DB	04dH
	DB	0ffH
	DB	0ffH
	DB	0ffH
	DB	04dH
	DB	0ffH
	DB	0ffH
	DB	0ffH
	DB	04dH
	DB	0ffH
	DB	0ffH
	DB	0ffH
	DB	04dH
	DB	0ffH
	DB	0ffH
	DB	0ffH
	DB	04dH
	DB	0ffH
	DB	0ffH
	DB	0ffH
	DB	04dH
	DB	0ffH
	DB	0ffH
	DB	0ffH
	DB	04dH
	DB	0ffH
	DB	0ffH
	DB	0ffH
	DB	04dH
	DB	0ffH
	DB	0ffH
	DB	0ffH
	DB	042H
	DB	00H
	DB	00H
	DB	00H
	DB	00H
	DB	00H
	DB	00H
	DB	00H
	DB	00H
	DB	00H
	DB	00H
	DB	00H
	DB	00H
	DB	00H
	DB	00H
	DB	00H
	DB	00H
	DB	00H
	DB	00H
	DB	00H
	DB	00H
	DB	00H
	DB	00H
	DB	00H
	DB	00H
	DB	00H
	DB	00H
	DB	00H
	DB	00H
	DB	00H
	DB	00H
	DB	00H
	DB	00H
	DB	00H
	DB	00H
	DB	00H
	DB	00H
	DB	00H
	DB	00H
	DB	00H
	DB	00H
	DB	00H
	DB	00H
	DB	00H
	DB	00H
	DB	00H
	DB	00H
	DB	00H
	DB	00H
	DB	00H
	DB	00H
	DB	00H
	DB	00H
	DB	00H
	DB	00H
	DB	00H
	DB	00H
	DB	00H
	DB	00H
	DB	00H
	DB	00H
	DB	00H
	DB	00H
	DB	00H
	DB	00H
	DB	0ffH
	DB	0ffH
	DB	0ffH
	DB	04bH
	DB	0ffH
	DB	0ffH
	DB	0ffH
	DB	04dH
	DB	0ffH
	DB	0ffH
	DB	0ffH
	DB	04dH
	DB	0ffH
	DB	0ffH
	DB	0ffH
	DB	04dH
	DB	0ffH
	DB	0ffH
	DB	0ffH
	DB	04dH
	DB	0ffH
	DB	0ffH
	DB	0ffH
	DB	04dH
	DB	0ffH
	DB	0ffH
	DB	0ffH
	DB	04dH
	DB	0ffH
	DB	0ffH
	DB	0ffH
	DB	04dH
	DB	0ffH
	DB	0ffH
	DB	0ffH
	DB	04dH
	DB	0ffH
	DB	0ffH
	DB	0ffH
	DB	04dH
	DB	0ffH
	DB	0ffH
	DB	0ffH
	DB	04dH
	DB	0ffH
	DB	0ffH
	DB	0ffH
	DB	04dH
	DB	0ffH
	DB	0ffH
	DB	0ffH
	DB	04dH
	DB	0ffH
	DB	0ffH
	DB	0ffH
	DB	033H
	DB	0ffH
	DB	0ffH
	DB	0ffH
	DB	03H
	DB	0ffH
	DB	0ffH
	DB	0ffH
	DB	00H
	DB	0ffH
	DB	0ffH
	DB	0ffH
	DB	00H
	DB	0ffH
	DB	0ffH
	DB	0ffH
	DB	00H
	DB	0ffH
	DB	0ffH
	DB	0ffH
	DB	00H
	DB	0ffH
	DB	0ffH
	DB	0ffH
	DB	00H
	DB	0ffH
	DB	0ffH
	DB	0ffH
	DB	00H
	DB	0ffH
	DB	0ffH
	DB	0ffH
	DB	00H
	DB	0ffH
	DB	0ffH
	DB	0ffH
	DB	00H
	DB	0ffH
	DB	0ffH
	DB	0ffH
	DB	00H
	DB	0ffH
	DB	0ffH
	DB	0ffH
	DB	00H
	DB	0ffH
	DB	0ffH
	DB	0ffH
	DB	00H
	DB	0ffH
	DB	0ffH
	DB	0ffH
	DB	00H
	DB	0ffH
	DB	0ffH
	DB	0ffH
	DB	00H
	DB	0ffH
	DB	0ffH
	DB	0ffH
	DB	00H
	DB	0ffH
	DB	0ffH
	DB	0ffH
	DB	00H
	DB	0ffH
	DB	0ffH
	DB	0ffH
	DB	00H
	DB	0ffH
	DB	0ffH
	DB	0ffH
	DB	00H
	DB	0ffH
	DB	0ffH
	DB	0ffH
	DB	00H
	DB	0ffH
	DB	0ffH
	DB	0ffH
	DB	00H
	DB	0ffH
	DB	0ffH
	DB	0ffH
	DB	00H
	DB	0ffH
	DB	0ffH
	DB	0ffH
	DB	0bH
	DB	0ffH
	DB	0ffH
	DB	0ffH
	DB	027H
	DB	0ffH
	DB	0ffH
	DB	0ffH
	DB	042H
	DB	0ffH
	DB	0ffH
	DB	0ffH
	DB	04dH
	DB	0ffH
	DB	0ffH
	DB	0ffH
	DB	04dH
	DB	0ffH
	DB	0ffH
	DB	0ffH
	DB	04dH
	DB	0ffH
	DB	0ffH
	DB	0ffH
	DB	04dH
	DB	0ffH
	DB	0ffH
	DB	0ffH
	DB	04dH
	DB	0ffH
	DB	0ffH
	DB	0ffH
	DB	04dH
	DB	0ffH
	DB	0ffH
	DB	0ffH
	DB	04dH
	DB	0ffH
	DB	0ffH
	DB	0ffH
	DB	04dH
	DB	0ffH
	DB	0ffH
	DB	0ffH
	DB	04dH
	DB	0ffH
	DB	0ffH
	DB	0ffH
	DB	04dH
	DB	0ffH
	DB	0ffH
	DB	0ffH
	DB	04dH
	DB	0ffH
	DB	0ffH
	DB	0ffH
	DB	04dH
	DB	0ffH
	DB	0ffH
	DB	0ffH
	DB	04dH
	DB	0ffH
	DB	0ffH
	DB	0ffH
	DB	04dH
	DB	0ffH
	DB	0ffH
	DB	0ffH
	DB	04dH
	DB	0ffH
	DB	0ffH
	DB	0ffH
	DB	04dH
	DB	0ffH
	DB	0ffH
	DB	0ffH
	DB	04dH
	DB	0ffH
	DB	0ffH
	DB	0ffH
	DB	04dH
	DB	0ffH
	DB	0ffH
	DB	0ffH
	DB	04dH
	DB	0ffH
	DB	0ffH
	DB	0ffH
	DB	04dH
	DB	0ffH
	DB	0ffH
	DB	0ffH
	DB	04dH
	DB	0ffH
	DB	0ffH
	DB	0ffH
	DB	04dH
	DB	0ffH
	DB	0ffH
	DB	0ffH
	DB	04dH
	DB	0ffH
	DB	0ffH
	DB	0ffH
	DB	04dH
	DB	0ffH
	DB	0ffH
	DB	0ffH
	DB	04dH
	DB	0ffH
	DB	0ffH
	DB	0ffH
	DB	04dH
	DB	0ffH
	DB	0ffH
	DB	0ffH
	DB	04dH
	DB	0ffH
	DB	0ffH
	DB	0ffH
	DB	04dH
	DB	0ffH
	DB	0ffH
	DB	0ffH
	DB	04dH
	DB	0ffH
	DB	0ffH
	DB	0ffH
	DB	04dH
	DB	0ffH
	DB	0ffH
	DB	0ffH
	DB	04dH
	DB	0ffH
	DB	0ffH
	DB	0ffH
	DB	04dH
	DB	0ffH
	DB	0ffH
	DB	0ffH
	DB	04dH
	DB	0ffH
	DB	0ffH
	DB	0ffH
	DB	04dH
	DB	0ffH
	DB	0ffH
	DB	0ffH
	DB	04dH
	DB	0ffH
	DB	0ffH
	DB	0ffH
	DB	04dH
	DB	0ffH
	DB	0ffH
	DB	0ffH
	DB	044H
	DB	0ffH
	DB	0ffH
	DB	0ffH
	DB	028H
	DB	0ffH
	DB	0ffH
	DB	0ffH
	DB	0dH
	DB	0ffH
	DB	0ffH
	DB	0ffH
	DB	00H
	DB	0ffH
	DB	0ffH
	DB	0ffH
	DB	00H
	DB	0ffH
	DB	0ffH
	DB	0ffH
	DB	00H
	DB	0ffH
	DB	0ffH
	DB	0ffH
	DB	00H
	DB	0ffH
	DB	0ffH
	DB	0ffH
	DB	00H
	DB	0ffH
	DB	0ffH
	DB	0ffH
	DB	00H
	DB	0ffH
	DB	0ffH
	DB	0ffH
	DB	00H
	DB	0ffH
	DB	0ffH
	DB	0ffH
	DB	00H
	DB	0ffH
	DB	0ffH
	DB	0ffH
	DB	00H
	DB	0ffH
	DB	0ffH
	DB	0ffH
	DB	00H
	DB	0ffH
	DB	0ffH
	DB	0ffH
	DB	00H
	DB	0ffH
	DB	0ffH
	DB	0ffH
	DB	00H
	DB	0ffH
	DB	0ffH
	DB	0ffH
	DB	00H
	DB	0ffH
	DB	0ffH
	DB	0ffH
	DB	00H
	DB	0ffH
	DB	0ffH
	DB	0ffH
	DB	00H
	DB	0ffH
	DB	0ffH
	DB	0ffH
	DB	00H
	DB	0ffH
	DB	0ffH
	DB	0ffH
	DB	00H
	DB	0ffH
	DB	0ffH
	DB	0ffH
	DB	00H
	DB	0ffH
	DB	0ffH
	DB	0ffH
	DB	00H
	DB	0ffH
	DB	0ffH
	DB	0ffH
	DB	00H
	DB	0ffH
	DB	0ffH
	DB	0ffH
	DB	03H
	DB	0ffH
	DB	0ffH
	DB	0ffH
	DB	034H
	DB	0ffH
	DB	0ffH
	DB	0ffH
	DB	04dH
	DB	0ffH
	DB	0ffH
	DB	0ffH
	DB	04dH
	DB	0ffH
	DB	0ffH
	DB	0ffH
	DB	04dH
	DB	0ffH
	DB	0ffH
	DB	0ffH
	DB	04dH
	DB	0ffH
	DB	0ffH
	DB	0ffH
	DB	04dH
	DB	0ffH
	DB	0ffH
	DB	0ffH
	DB	04dH
	DB	0ffH
	DB	0ffH
	DB	0ffH
	DB	04dH
	DB	0ffH
	DB	0ffH
	DB	0ffH
	DB	04dH
	DB	0ffH
	DB	0ffH
	DB	0ffH
	DB	04dH
	DB	0ffH
	DB	0ffH
	DB	0ffH
	DB	04dH
	DB	0ffH
	DB	0ffH
	DB	0ffH
	DB	04dH
	DB	0ffH
	DB	0ffH
	DB	0ffH
	DB	04dH
	DB	0ffH
	DB	0ffH
	DB	0ffH
	DB	04aH
	DB	00H
	DB	00H
	DB	00H
	DB	00H
	DB	00H
	DB	00H
	DB	00H
	DB	00H
	DB	00H
	DB	00H
	DB	00H
	DB	00H
	DB	00H
	DB	00H
	DB	00H
	DB	00H
	DB	00H
	DB	00H
	DB	00H
	DB	00H
	DB	00H
	DB	00H
	DB	00H
	DB	00H
	DB	00H
	DB	00H
	DB	00H
	DB	00H
	DB	00H
	DB	00H
	DB	00H
	DB	00H
	DB	00H
	DB	00H
	DB	00H
	DB	00H
	DB	00H
	DB	00H
	DB	00H
	DB	00H
	DB	00H
	DB	00H
	DB	00H
	DB	00H
	DB	00H
	DB	00H
	DB	00H
	DB	00H
	DB	00H
	DB	00H
	DB	00H
	DB	00H
	DB	00H
	DB	00H
	DB	00H
	DB	00H
	DB	00H
	DB	00H
	DB	00H
	DB	00H
	DB	00H
	DB	00H
	DB	00H
	DB	00H
	DB	0ffH
	DB	0ffH
	DB	0ffH
	DB	044H
	DB	0ffH
	DB	0ffH
	DB	0ffH
	DB	04dH
	DB	0ffH
	DB	0ffH
	DB	0ffH
	DB	04dH
	DB	0ffH
	DB	0ffH
	DB	0ffH
	DB	04dH
	DB	0ffH
	DB	0ffH
	DB	0ffH
	DB	04dH
	DB	0ffH
	DB	0ffH
	DB	0ffH
	DB	04dH
	DB	0ffH
	DB	0ffH
	DB	0ffH
	DB	04dH
	DB	0ffH
	DB	0ffH
	DB	0ffH
	DB	04dH
	DB	0ffH
	DB	0ffH
	DB	0ffH
	DB	04dH
	DB	0ffH
	DB	0ffH
	DB	0ffH
	DB	04dH
	DB	0ffH
	DB	0ffH
	DB	0ffH
	DB	04dH
	DB	0ffH
	DB	0ffH
	DB	0ffH
	DB	04dH
	DB	0ffH
	DB	0ffH
	DB	0ffH
	DB	026H
	DB	0ffH
	DB	0ffH
	DB	0ffH
	DB	00H
	DB	0ffH
	DB	0ffH
	DB	0ffH
	DB	00H
	DB	0ffH
	DB	0ffH
	DB	0ffH
	DB	00H
	DB	0ffH
	DB	0ffH
	DB	0ffH
	DB	00H
	DB	0ffH
	DB	0ffH
	DB	0ffH
	DB	00H
	DB	0ffH
	DB	0ffH
	DB	0ffH
	DB	00H
	DB	0ffH
	DB	0ffH
	DB	0ffH
	DB	00H
	DB	0ffH
	DB	0ffH
	DB	0ffH
	DB	00H
	DB	0ffH
	DB	0ffH
	DB	0ffH
	DB	00H
	DB	0ffH
	DB	0ffH
	DB	0ffH
	DB	00H
	DB	0ffH
	DB	0ffH
	DB	0ffH
	DB	00H
	DB	0ffH
	DB	0ffH
	DB	0ffH
	DB	00H
	DB	0ffH
	DB	0ffH
	DB	0ffH
	DB	00H
	DB	0ffH
	DB	0ffH
	DB	0ffH
	DB	00H
	DB	0ffH
	DB	0ffH
	DB	0ffH
	DB	00H
	DB	0ffH
	DB	0ffH
	DB	0ffH
	DB	00H
	DB	0ffH
	DB	0ffH
	DB	0ffH
	DB	00H
	DB	0ffH
	DB	0ffH
	DB	0ffH
	DB	00H
	DB	0ffH
	DB	0ffH
	DB	0ffH
	DB	00H
	DB	0ffH
	DB	0ffH
	DB	0ffH
	DB	01H
	DB	0ffH
	DB	0ffH
	DB	0ffH
	DB	019H
	DB	0ffH
	DB	0ffH
	DB	0ffH
	DB	038H
	DB	0ffH
	DB	0ffH
	DB	0ffH
	DB	04dH
	DB	0ffH
	DB	0ffH
	DB	0ffH
	DB	04dH
	DB	0ffH
	DB	0ffH
	DB	0ffH
	DB	04dH
	DB	0ffH
	DB	0ffH
	DB	0ffH
	DB	04dH
	DB	0ffH
	DB	0ffH
	DB	0ffH
	DB	04dH
	DB	0ffH
	DB	0ffH
	DB	0ffH
	DB	04dH
	DB	0ffH
	DB	0ffH
	DB	0ffH
	DB	04dH
	DB	0ffH
	DB	0ffH
	DB	0ffH
	DB	04dH
	DB	0ffH
	DB	0ffH
	DB	0ffH
	DB	04dH
	DB	0ffH
	DB	0ffH
	DB	0ffH
	DB	04dH
	DB	0ffH
	DB	0ffH
	DB	0ffH
	DB	04dH
	DB	0ffH
	DB	0ffH
	DB	0ffH
	DB	04dH
	DB	0ffH
	DB	0ffH
	DB	0ffH
	DB	04dH
	DB	0ffH
	DB	0ffH
	DB	0ffH
	DB	04dH
	DB	0ffH
	DB	0ffH
	DB	0ffH
	DB	04dH
	DB	0ffH
	DB	0ffH
	DB	0ffH
	DB	04dH
	DB	0ffH
	DB	0ffH
	DB	0ffH
	DB	04dH
	DB	0ffH
	DB	0ffH
	DB	0ffH
	DB	04dH
	DB	0ffH
	DB	0ffH
	DB	0ffH
	DB	04dH
	DB	0ffH
	DB	0ffH
	DB	0ffH
	DB	04dH
	DB	0ffH
	DB	0ffH
	DB	0ffH
	DB	04dH
	DB	0ffH
	DB	0ffH
	DB	0ffH
	DB	04dH
	DB	0ffH
	DB	0ffH
	DB	0ffH
	DB	04dH
	DB	0ffH
	DB	0ffH
	DB	0ffH
	DB	04dH
	DB	0ffH
	DB	0ffH
	DB	0ffH
	DB	04dH
	DB	0ffH
	DB	0ffH
	DB	0ffH
	DB	04dH
	DB	0ffH
	DB	0ffH
	DB	0ffH
	DB	04dH
	DB	0ffH
	DB	0ffH
	DB	0ffH
	DB	04dH
	DB	0ffH
	DB	0ffH
	DB	0ffH
	DB	04dH
	DB	0ffH
	DB	0ffH
	DB	0ffH
	DB	04dH
	DB	0ffH
	DB	0ffH
	DB	0ffH
	DB	04dH
	DB	0ffH
	DB	0ffH
	DB	0ffH
	DB	04dH
	DB	0ffH
	DB	0ffH
	DB	0ffH
	DB	04dH
	DB	0ffH
	DB	0ffH
	DB	0ffH
	DB	04dH
	DB	0ffH
	DB	0ffH
	DB	0ffH
	DB	04dH
	DB	0ffH
	DB	0ffH
	DB	0ffH
	DB	04dH
	DB	0ffH
	DB	0ffH
	DB	0ffH
	DB	04dH
	DB	0ffH
	DB	0ffH
	DB	0ffH
	DB	04dH
	DB	0ffH
	DB	0ffH
	DB	0ffH
	DB	04dH
	DB	0ffH
	DB	0ffH
	DB	0ffH
	DB	04dH
	DB	0ffH
	DB	0ffH
	DB	0ffH
	DB	04dH
	DB	0ffH
	DB	0ffH
	DB	0ffH
	DB	04dH
	DB	0ffH
	DB	0ffH
	DB	0ffH
	DB	03aH
	DB	0ffH
	DB	0ffH
	DB	0ffH
	DB	01bH
	DB	0ffH
	DB	0ffH
	DB	0ffH
	DB	02H
	DB	0ffH
	DB	0ffH
	DB	0ffH
	DB	00H
	DB	0ffH
	DB	0ffH
	DB	0ffH
	DB	00H
	DB	0ffH
	DB	0ffH
	DB	0ffH
	DB	00H
	DB	0ffH
	DB	0ffH
	DB	0ffH
	DB	00H
	DB	0ffH
	DB	0ffH
	DB	0ffH
	DB	00H
	DB	0ffH
	DB	0ffH
	DB	0ffH
	DB	00H
	DB	0ffH
	DB	0ffH
	DB	0ffH
	DB	00H
	DB	0ffH
	DB	0ffH
	DB	0ffH
	DB	00H
	DB	0ffH
	DB	0ffH
	DB	0ffH
	DB	00H
	DB	0ffH
	DB	0ffH
	DB	0ffH
	DB	00H
	DB	0ffH
	DB	0ffH
	DB	0ffH
	DB	00H
	DB	0ffH
	DB	0ffH
	DB	0ffH
	DB	00H
	DB	0ffH
	DB	0ffH
	DB	0ffH
	DB	00H
	DB	0ffH
	DB	0ffH
	DB	0ffH
	DB	00H
	DB	0ffH
	DB	0ffH
	DB	0ffH
	DB	00H
	DB	0ffH
	DB	0ffH
	DB	0ffH
	DB	00H
	DB	0ffH
	DB	0ffH
	DB	0ffH
	DB	00H
	DB	0ffH
	DB	0ffH
	DB	0ffH
	DB	00H
	DB	0ffH
	DB	0ffH
	DB	0ffH
	DB	00H
	DB	0ffH
	DB	0ffH
	DB	0ffH
	DB	027H
	DB	0ffH
	DB	0ffH
	DB	0ffH
	DB	04dH
	DB	0ffH
	DB	0ffH
	DB	0ffH
	DB	04dH
	DB	0ffH
	DB	0ffH
	DB	0ffH
	DB	04dH
	DB	0ffH
	DB	0ffH
	DB	0ffH
	DB	04dH
	DB	0ffH
	DB	0ffH
	DB	0ffH
	DB	04dH
	DB	0ffH
	DB	0ffH
	DB	0ffH
	DB	04dH
	DB	0ffH
	DB	0ffH
	DB	0ffH
	DB	04dH
	DB	0ffH
	DB	0ffH
	DB	0ffH
	DB	04dH
	DB	0ffH
	DB	0ffH
	DB	0ffH
	DB	04dH
	DB	0ffH
	DB	0ffH
	DB	0ffH
	DB	04dH
	DB	0ffH
	DB	0ffH
	DB	0ffH
	DB	04dH
	DB	0ffH
	DB	0ffH
	DB	0ffH
	DB	043H
	DB	00H
	DB	00H
	DB	00H
	DB	00H
	DB	00H
	DB	00H
	DB	00H
	DB	00H
	DB	00H
	DB	00H
	DB	00H
	DB	00H
	DB	00H
	DB	00H
	DB	00H
	DB	00H
	DB	00H
	DB	00H
	DB	00H
	DB	00H
	DB	00H
	DB	00H
	DB	00H
	DB	00H
	DB	00H
	DB	00H
	DB	00H
	DB	00H
	DB	00H
	DB	00H
	DB	00H
	DB	00H
	DB	00H
	DB	00H
	DB	00H
	DB	00H
	DB	00H
	DB	00H
	DB	00H
	DB	00H
	DB	00H
	DB	00H
	DB	00H
	DB	00H
	DB	00H
	DB	00H
	DB	00H
	DB	00H
	DB	00H
	DB	00H
	DB	00H
	DB	00H
	DB	00H
	DB	00H
	DB	00H
	DB	00H
	DB	00H
	DB	00H
	DB	00H
	DB	00H
	DB	00H
	DB	00H
	DB	00H
	DB	00H
	DB	0ffH
	DB	0ffH
	DB	0ffH
	DB	02dH
	DB	0ffH
	DB	0ffH
	DB	0ffH
	DB	04dH
	DB	0ffH
	DB	0ffH
	DB	0ffH
	DB	04dH
	DB	0ffH
	DB	0ffH
	DB	0ffH
	DB	04dH
	DB	0ffH
	DB	0ffH
	DB	0ffH
	DB	04dH
	DB	0ffH
	DB	0ffH
	DB	0ffH
	DB	04dH
	DB	0ffH
	DB	0ffH
	DB	0ffH
	DB	04dH
	DB	0ffH
	DB	0ffH
	DB	0ffH
	DB	04dH
	DB	0ffH
	DB	0ffH
	DB	0ffH
	DB	04dH
	DB	0ffH
	DB	0ffH
	DB	0ffH
	DB	04dH
	DB	0ffH
	DB	0ffH
	DB	0ffH
	DB	04cH
	DB	0ffH
	DB	0ffH
	DB	0ffH
	DB	01cH
	DB	0ffH
	DB	0ffH
	DB	0ffH
	DB	00H
	DB	0ffH
	DB	0ffH
	DB	0ffH
	DB	00H
	DB	0ffH
	DB	0ffH
	DB	0ffH
	DB	00H
	DB	0ffH
	DB	0ffH
	DB	0ffH
	DB	00H
	DB	0ffH
	DB	0ffH
	DB	0ffH
	DB	00H
	DB	0ffH
	DB	0ffH
	DB	0ffH
	DB	00H
	DB	0ffH
	DB	0ffH
	DB	0ffH
	DB	00H
	DB	0ffH
	DB	0ffH
	DB	0ffH
	DB	00H
	DB	0ffH
	DB	0ffH
	DB	0ffH
	DB	00H
	DB	0ffH
	DB	0ffH
	DB	0ffH
	DB	00H
	DB	0ffH
	DB	0ffH
	DB	0ffH
	DB	00H
	DB	0ffH
	DB	0ffH
	DB	0ffH
	DB	00H
	DB	0ffH
	DB	0ffH
	DB	0ffH
	DB	00H
	DB	0ffH
	DB	0ffH
	DB	0ffH
	DB	00H
	DB	0ffH
	DB	0ffH
	DB	0ffH
	DB	00H
	DB	0ffH
	DB	0ffH
	DB	0ffH
	DB	00H
	DB	0ffH
	DB	0ffH
	DB	0ffH
	DB	00H
	DB	0ffH
	DB	0ffH
	DB	0ffH
	DB	00H
	DB	0ffH
	DB	0ffH
	DB	0ffH
	DB	02H
	DB	0ffH
	DB	0ffH
	DB	0ffH
	DB	01fH
	DB	0ffH
	DB	0ffH
	DB	0ffH
	DB	042H
	DB	0ffH
	DB	0ffH
	DB	0ffH
	DB	04dH
	DB	0ffH
	DB	0ffH
	DB	0ffH
	DB	04dH
	DB	0ffH
	DB	0ffH
	DB	0ffH
	DB	04dH
	DB	0ffH
	DB	0ffH
	DB	0ffH
	DB	04dH
	DB	0ffH
	DB	0ffH
	DB	0ffH
	DB	04dH
	DB	0ffH
	DB	0ffH
	DB	0ffH
	DB	04dH
	DB	0ffH
	DB	0ffH
	DB	0ffH
	DB	04dH
	DB	0ffH
	DB	0ffH
	DB	0ffH
	DB	04dH
	DB	0ffH
	DB	0ffH
	DB	0ffH
	DB	04dH
	DB	0ffH
	DB	0ffH
	DB	0ffH
	DB	04dH
	DB	0ffH
	DB	0ffH
	DB	0ffH
	DB	04dH
	DB	0ffH
	DB	0ffH
	DB	0ffH
	DB	04dH
	DB	0ffH
	DB	0ffH
	DB	0ffH
	DB	04dH
	DB	0ffH
	DB	0ffH
	DB	0ffH
	DB	04dH
	DB	0ffH
	DB	0ffH
	DB	0ffH
	DB	04dH
	DB	0ffH
	DB	0ffH
	DB	0ffH
	DB	04dH
	DB	0ffH
	DB	0ffH
	DB	0ffH
	DB	04dH
	DB	0ffH
	DB	0ffH
	DB	0ffH
	DB	04dH
	DB	0ffH
	DB	0ffH
	DB	0ffH
	DB	04dH
	DB	0ffH
	DB	0ffH
	DB	0ffH
	DB	04dH
	DB	0ffH
	DB	0ffH
	DB	0ffH
	DB	04dH
	DB	0ffH
	DB	0ffH
	DB	0ffH
	DB	04dH
	DB	0ffH
	DB	0ffH
	DB	0ffH
	DB	04dH
	DB	0ffH
	DB	0ffH
	DB	0ffH
	DB	04dH
	DB	0ffH
	DB	0ffH
	DB	0ffH
	DB	04dH
	DB	0ffH
	DB	0ffH
	DB	0ffH
	DB	04dH
	DB	0ffH
	DB	0ffH
	DB	0ffH
	DB	04dH
	DB	0ffH
	DB	0ffH
	DB	0ffH
	DB	04dH
	DB	0ffH
	DB	0ffH
	DB	0ffH
	DB	04dH
	DB	0ffH
	DB	0ffH
	DB	0ffH
	DB	04dH
	DB	0ffH
	DB	0ffH
	DB	0ffH
	DB	04dH
	DB	0ffH
	DB	0ffH
	DB	0ffH
	DB	04dH
	DB	0ffH
	DB	0ffH
	DB	0ffH
	DB	04dH
	DB	0ffH
	DB	0ffH
	DB	0ffH
	DB	04dH
	DB	0ffH
	DB	0ffH
	DB	0ffH
	DB	04dH
	DB	0ffH
	DB	0ffH
	DB	0ffH
	DB	04dH
	DB	0ffH
	DB	0ffH
	DB	0ffH
	DB	04dH
	DB	0ffH
	DB	0ffH
	DB	0ffH
	DB	04dH
	DB	0ffH
	DB	0ffH
	DB	0ffH
	DB	04dH
	DB	0ffH
	DB	0ffH
	DB	0ffH
	DB	04dH
	DB	0ffH
	DB	0ffH
	DB	0ffH
	DB	04dH
	DB	0ffH
	DB	0ffH
	DB	0ffH
	DB	04dH
	DB	0ffH
	DB	0ffH
	DB	0ffH
	DB	04dH
	DB	0ffH
	DB	0ffH
	DB	0ffH
	DB	04dH
	DB	0ffH
	DB	0ffH
	DB	0ffH
	DB	04dH
	DB	0ffH
	DB	0ffH
	DB	0ffH
	DB	04dH
	DB	0ffH
	DB	0ffH
	DB	0ffH
	DB	044H
	DB	0ffH
	DB	0ffH
	DB	0ffH
	DB	021H
	DB	0ffH
	DB	0ffH
	DB	0ffH
	DB	03H
	DB	0ffH
	DB	0ffH
	DB	0ffH
	DB	00H
	DB	0ffH
	DB	0ffH
	DB	0ffH
	DB	00H
	DB	0ffH
	DB	0ffH
	DB	0ffH
	DB	00H
	DB	0ffH
	DB	0ffH
	DB	0ffH
	DB	00H
	DB	0ffH
	DB	0ffH
	DB	0ffH
	DB	00H
	DB	0ffH
	DB	0ffH
	DB	0ffH
	DB	00H
	DB	0ffH
	DB	0ffH
	DB	0ffH
	DB	00H
	DB	0ffH
	DB	0ffH
	DB	0ffH
	DB	00H
	DB	0ffH
	DB	0ffH
	DB	0ffH
	DB	00H
	DB	0ffH
	DB	0ffH
	DB	0ffH
	DB	00H
	DB	0ffH
	DB	0ffH
	DB	0ffH
	DB	00H
	DB	0ffH
	DB	0ffH
	DB	0ffH
	DB	00H
	DB	0ffH
	DB	0ffH
	DB	0ffH
	DB	00H
	DB	0ffH
	DB	0ffH
	DB	0ffH
	DB	00H
	DB	0ffH
	DB	0ffH
	DB	0ffH
	DB	00H
	DB	0ffH
	DB	0ffH
	DB	0ffH
	DB	00H
	DB	0ffH
	DB	0ffH
	DB	0ffH
	DB	00H
	DB	0ffH
	DB	0ffH
	DB	0ffH
	DB	00H
	DB	0ffH
	DB	0ffH
	DB	0ffH
	DB	01dH
	DB	0ffH
	DB	0ffH
	DB	0ffH
	DB	04cH
	DB	0ffH
	DB	0ffH
	DB	0ffH
	DB	04dH
	DB	0ffH
	DB	0ffH
	DB	0ffH
	DB	04dH
	DB	0ffH
	DB	0ffH
	DB	0ffH
	DB	04dH
	DB	0ffH
	DB	0ffH
	DB	0ffH
	DB	04dH
	DB	0ffH
	DB	0ffH
	DB	0ffH
	DB	04dH
	DB	0ffH
	DB	0ffH
	DB	0ffH
	DB	04dH
	DB	0ffH
	DB	0ffH
	DB	0ffH
	DB	04dH
	DB	0ffH
	DB	0ffH
	DB	0ffH
	DB	04dH
	DB	0ffH
	DB	0ffH
	DB	0ffH
	DB	04dH
	DB	0ffH
	DB	0ffH
	DB	0ffH
	DB	02cH
	DB	00H
	DB	00H
	DB	00H
	DB	00H
	DB	00H
	DB	00H
	DB	00H
	DB	00H
	DB	00H
	DB	00H
	DB	00H
	DB	00H
	DB	00H
	DB	00H
	DB	00H
	DB	00H
	DB	00H
	DB	00H
	DB	00H
	DB	00H
	DB	00H
	DB	00H
	DB	00H
	DB	00H
	DB	00H
	DB	00H
	DB	00H
	DB	00H
	DB	00H
	DB	00H
	DB	00H
	DB	00H
	DB	00H
	DB	00H
	DB	00H
	DB	00H
	DB	00H
	DB	00H
	DB	00H
	DB	00H
	DB	00H
	DB	00H
	DB	00H
	DB	00H
	DB	00H
	DB	00H
	DB	00H
	DB	00H
	DB	00H
	DB	00H
	DB	00H
	DB	00H
	DB	00H
	DB	00H
	DB	00H
	DB	00H
	DB	00H
	DB	00H
	DB	00H
	DB	00H
	DB	00H
	DB	00H
	DB	00H
	DB	00H
	DB	0ffH
	DB	0ffH
	DB	0ffH
	DB	08H
	DB	0ffH
	DB	0ffH
	DB	0ffH
	DB	047H
	DB	0ffH
	DB	0ffH
	DB	0ffH
	DB	04dH
	DB	0ffH
	DB	0ffH
	DB	0ffH
	DB	04dH
	DB	0ffH
	DB	0ffH
	DB	0ffH
	DB	04dH
	DB	0ffH
	DB	0ffH
	DB	0ffH
	DB	04dH
	DB	0ffH
	DB	0ffH
	DB	0ffH
	DB	04dH
	DB	0ffH
	DB	0ffH
	DB	0ffH
	DB	04dH
	DB	0ffH
	DB	0ffH
	DB	0ffH
	DB	04dH
	DB	0ffH
	DB	0ffH
	DB	0ffH
	DB	04aH
	DB	0ffH
	DB	0ffH
	DB	0ffH
	DB	017H
	DB	0ffH
	DB	0ffH
	DB	0ffH
	DB	00H
	DB	0ffH
	DB	0ffH
	DB	0ffH
	DB	00H
	DB	0ffH
	DB	0ffH
	DB	0ffH
	DB	00H
	DB	0ffH
	DB	0ffH
	DB	0ffH
	DB	00H
	DB	0ffH
	DB	0ffH
	DB	0ffH
	DB	00H
	DB	0ffH
	DB	0ffH
	DB	0ffH
	DB	00H
	DB	0ffH
	DB	0ffH
	DB	0ffH
	DB	00H
	DB	0ffH
	DB	0ffH
	DB	0ffH
	DB	00H
	DB	0ffH
	DB	0ffH
	DB	0ffH
	DB	00H
	DB	0ffH
	DB	0ffH
	DB	0ffH
	DB	00H
	DB	0ffH
	DB	0ffH
	DB	0ffH
	DB	00H
	DB	0ffH
	DB	0ffH
	DB	0ffH
	DB	00H
	DB	0ffH
	DB	0ffH
	DB	0ffH
	DB	00H
	DB	0ffH
	DB	0ffH
	DB	0ffH
	DB	00H
	DB	0ffH
	DB	0ffH
	DB	0ffH
	DB	00H
	DB	0ffH
	DB	0ffH
	DB	0ffH
	DB	00H
	DB	0ffH
	DB	0ffH
	DB	0ffH
	DB	00H
	DB	0ffH
	DB	0ffH
	DB	0ffH
	DB	01H
	DB	0ffH
	DB	0ffH
	DB	0ffH
	DB	01eH
	DB	0ffH
	DB	0ffH
	DB	0ffH
	DB	045H
	DB	0ffH
	DB	0ffH
	DB	0ffH
	DB	04dH
	DB	0ffH
	DB	0ffH
	DB	0ffH
	DB	04dH
	DB	0ffH
	DB	0ffH
	DB	0ffH
	DB	04dH
	DB	0ffH
	DB	0ffH
	DB	0ffH
	DB	04dH
	DB	0ffH
	DB	0ffH
	DB	0ffH
	DB	04dH
	DB	0ffH
	DB	0ffH
	DB	0ffH
	DB	04dH
	DB	0ffH
	DB	0ffH
	DB	0ffH
	DB	04dH
	DB	0ffH
	DB	0ffH
	DB	0ffH
	DB	04dH
	DB	0ffH
	DB	0ffH
	DB	0ffH
	DB	04dH
	DB	0ffH
	DB	0ffH
	DB	0ffH
	DB	04dH
	DB	0ffH
	DB	0ffH
	DB	0ffH
	DB	04dH
	DB	0ffH
	DB	0ffH
	DB	0ffH
	DB	04dH
	DB	0ffH
	DB	0ffH
	DB	0ffH
	DB	04dH
	DB	0ffH
	DB	0ffH
	DB	0ffH
	DB	04dH
	DB	0ffH
	DB	0ffH
	DB	0ffH
	DB	04dH
	DB	0ffH
	DB	0ffH
	DB	0ffH
	DB	04dH
	DB	0ffH
	DB	0ffH
	DB	0ffH
	DB	04dH
	DB	0ffH
	DB	0ffH
	DB	0ffH
	DB	04dH
	DB	0ffH
	DB	0ffH
	DB	0ffH
	DB	04dH
	DB	0ffH
	DB	0ffH
	DB	0ffH
	DB	04dH
	DB	0ffH
	DB	0ffH
	DB	0ffH
	DB	04dH
	DB	0ffH
	DB	0ffH
	DB	0ffH
	DB	04dH
	DB	0ffH
	DB	0ffH
	DB	0ffH
	DB	04dH
	DB	0ffH
	DB	0ffH
	DB	0ffH
	DB	04dH
	DB	0ffH
	DB	0ffH
	DB	0ffH
	DB	04dH
	DB	0ffH
	DB	0ffH
	DB	0ffH
	DB	04dH
	DB	0ffH
	DB	0ffH
	DB	0ffH
	DB	04dH
	DB	0ffH
	DB	0ffH
	DB	0ffH
	DB	04dH
	DB	0ffH
	DB	0ffH
	DB	0ffH
	DB	04dH
	DB	0ffH
	DB	0ffH
	DB	0ffH
	DB	04dH
	DB	0ffH
	DB	0ffH
	DB	0ffH
	DB	04dH
	DB	0ffH
	DB	0ffH
	DB	0ffH
	DB	04dH
	DB	0ffH
	DB	0ffH
	DB	0ffH
	DB	04dH
	DB	0ffH
	DB	0ffH
	DB	0ffH
	DB	04dH
	DB	0ffH
	DB	0ffH
	DB	0ffH
	DB	04dH
	DB	0ffH
	DB	0ffH
	DB	0ffH
	DB	04dH
	DB	0ffH
	DB	0ffH
	DB	0ffH
	DB	04dH
	DB	0ffH
	DB	0ffH
	DB	0ffH
	DB	04dH
	DB	0ffH
	DB	0ffH
	DB	0ffH
	DB	04dH
	DB	0ffH
	DB	0ffH
	DB	0ffH
	DB	04dH
	DB	0ffH
	DB	0ffH
	DB	0ffH
	DB	04dH
	DB	0ffH
	DB	0ffH
	DB	0ffH
	DB	04dH
	DB	0ffH
	DB	0ffH
	DB	0ffH
	DB	04dH
	DB	0ffH
	DB	0ffH
	DB	0ffH
	DB	04dH
	DB	0ffH
	DB	0ffH
	DB	0ffH
	DB	04dH
	DB	0ffH
	DB	0ffH
	DB	0ffH
	DB	04dH
	DB	0ffH
	DB	0ffH
	DB	0ffH
	DB	04dH
	DB	0ffH
	DB	0ffH
	DB	0ffH
	DB	04dH
	DB	0ffH
	DB	0ffH
	DB	0ffH
	DB	04dH
	DB	0ffH
	DB	0ffH
	DB	0ffH
	DB	04dH
	DB	0ffH
	DB	0ffH
	DB	0ffH
	DB	046H
	DB	0ffH
	DB	0ffH
	DB	0ffH
	DB	021H
	DB	0ffH
	DB	0ffH
	DB	0ffH
	DB	02H
	DB	0ffH
	DB	0ffH
	DB	0ffH
	DB	00H
	DB	0ffH
	DB	0ffH
	DB	0ffH
	DB	00H
	DB	0ffH
	DB	0ffH
	DB	0ffH
	DB	00H
	DB	0ffH
	DB	0ffH
	DB	0ffH
	DB	00H
	DB	0ffH
	DB	0ffH
	DB	0ffH
	DB	00H
	DB	0ffH
	DB	0ffH
	DB	0ffH
	DB	00H
	DB	0ffH
	DB	0ffH
	DB	0ffH
	DB	00H
	DB	0ffH
	DB	0ffH
	DB	0ffH
	DB	00H
	DB	0ffH
	DB	0ffH
	DB	0ffH
	DB	00H
	DB	0ffH
	DB	0ffH
	DB	0ffH
	DB	00H
	DB	0ffH
	DB	0ffH
	DB	0ffH
	DB	00H
	DB	0ffH
	DB	0ffH
	DB	0ffH
	DB	00H
	DB	0ffH
	DB	0ffH
	DB	0ffH
	DB	00H
	DB	0ffH
	DB	0ffH
	DB	0ffH
	DB	00H
	DB	0ffH
	DB	0ffH
	DB	0ffH
	DB	00H
	DB	0ffH
	DB	0ffH
	DB	0ffH
	DB	00H
	DB	0ffH
	DB	0ffH
	DB	0ffH
	DB	00H
	DB	0ffH
	DB	0ffH
	DB	0ffH
	DB	018H
	DB	0ffH
	DB	0ffH
	DB	0ffH
	DB	04bH
	DB	0ffH
	DB	0ffH
	DB	0ffH
	DB	04dH
	DB	0ffH
	DB	0ffH
	DB	0ffH
	DB	04dH
	DB	0ffH
	DB	0ffH
	DB	0ffH
	DB	04dH
	DB	0ffH
	DB	0ffH
	DB	0ffH
	DB	04dH
	DB	0ffH
	DB	0ffH
	DB	0ffH
	DB	04dH
	DB	0ffH
	DB	0ffH
	DB	0ffH
	DB	04dH
	DB	0ffH
	DB	0ffH
	DB	0ffH
	DB	04dH
	DB	0ffH
	DB	0ffH
	DB	0ffH
	DB	047H
	DB	0ffH
	DB	0ffH
	DB	0ffH
	DB	08H
	DB	00H
	DB	00H
	DB	00H
	DB	00H
	DB	00H
	DB	00H
	DB	00H
	DB	00H
	DB	00H
	DB	00H
	DB	00H
	DB	00H
	DB	00H
	DB	00H
	DB	00H
	DB	00H
	DB	00H
	DB	00H
	DB	00H
	DB	00H
	DB	00H
	DB	00H
	DB	00H
	DB	00H
	DB	00H
	DB	00H
	DB	00H
	DB	00H
	DB	00H
	DB	00H
	DB	00H
	DB	00H
	DB	00H
	DB	00H
	DB	00H
	DB	00H
	DB	00H
	DB	00H
	DB	00H
	DB	00H
	DB	00H
	DB	00H
	DB	00H
	DB	00H
	DB	00H
	DB	00H
	DB	00H
	DB	00H
	DB	00H
	DB	00H
	DB	00H
	DB	00H
	DB	00H
	DB	00H
	DB	00H
	DB	00H
	DB	00H
	DB	00H
	DB	00H
	DB	00H
	DB	00H
	DB	00H
	DB	00H
	DB	00H
	DB	0ffH
	DB	0ffH
	DB	0ffH
	DB	00H
	DB	0ffH
	DB	0ffH
	DB	0ffH
	DB	012H
	DB	0ffH
	DB	0ffH
	DB	0ffH
	DB	047H
	DB	0ffH
	DB	0ffH
	DB	0ffH
	DB	04dH
	DB	0ffH
	DB	0ffH
	DB	0ffH
	DB	04dH
	DB	0ffH
	DB	0ffH
	DB	0ffH
	DB	04dH
	DB	0ffH
	DB	0ffH
	DB	0ffH
	DB	04dH
	DB	0ffH
	DB	0ffH
	DB	0ffH
	DB	04dH
	DB	0ffH
	DB	0ffH
	DB	0ffH
	DB	047H
	DB	0ffH
	DB	0ffH
	DB	0ffH
	DB	012H
	DB	0ffH
	DB	0ffH
	DB	0ffH
	DB	00H
	DB	0ffH
	DB	0ffH
	DB	0ffH
	DB	00H
	DB	0ffH
	DB	0ffH
	DB	0ffH
	DB	00H
	DB	0ffH
	DB	0ffH
	DB	0ffH
	DB	00H
	DB	0ffH
	DB	0ffH
	DB	0ffH
	DB	00H
	DB	0ffH
	DB	0ffH
	DB	0ffH
	DB	00H
	DB	0ffH
	DB	0ffH
	DB	0ffH
	DB	00H
	DB	0ffH
	DB	0ffH
	DB	0ffH
	DB	00H
	DB	0ffH
	DB	0ffH
	DB	0ffH
	DB	00H
	DB	0ffH
	DB	0ffH
	DB	0ffH
	DB	00H
	DB	0ffH
	DB	0ffH
	DB	0ffH
	DB	00H
	DB	0ffH
	DB	0ffH
	DB	0ffH
	DB	00H
	DB	0ffH
	DB	0ffH
	DB	0ffH
	DB	00H
	DB	0ffH
	DB	0ffH
	DB	0ffH
	DB	00H
	DB	0ffH
	DB	0ffH
	DB	0ffH
	DB	00H
	DB	0ffH
	DB	0ffH
	DB	0ffH
	DB	00H
	DB	0ffH
	DB	0ffH
	DB	0ffH
	DB	00H
	DB	0ffH
	DB	0ffH
	DB	0ffH
	DB	017H
	DB	0ffH
	DB	0ffH
	DB	0ffH
	DB	041H
	DB	0ffH
	DB	0ffH
	DB	0ffH
	DB	04dH
	DB	0ffH
	DB	0ffH
	DB	0ffH
	DB	04dH
	DB	0ffH
	DB	0ffH
	DB	0ffH
	DB	04dH
	DB	0ffH
	DB	0ffH
	DB	0ffH
	DB	04dH
	DB	0ffH
	DB	0ffH
	DB	0ffH
	DB	04dH
	DB	0ffH
	DB	0ffH
	DB	0ffH
	DB	04dH
	DB	0ffH
	DB	0ffH
	DB	0ffH
	DB	04dH
	DB	0ffH
	DB	0ffH
	DB	0ffH
	DB	04dH
	DB	0ffH
	DB	0ffH
	DB	0ffH
	DB	04dH
	DB	0ffH
	DB	0ffH
	DB	0ffH
	DB	04dH
	DB	0ffH
	DB	0ffH
	DB	0ffH
	DB	04dH
	DB	0ffH
	DB	0ffH
	DB	0ffH
	DB	04dH
	DB	0ffH
	DB	0ffH
	DB	0ffH
	DB	04dH
	DB	0ffH
	DB	0ffH
	DB	0ffH
	DB	04dH
	DB	0ffH
	DB	0ffH
	DB	0ffH
	DB	04dH
	DB	0ffH
	DB	0ffH
	DB	0ffH
	DB	04dH
	DB	0ffH
	DB	0ffH
	DB	0ffH
	DB	04dH
	DB	0ffH
	DB	0ffH
	DB	0ffH
	DB	04dH
	DB	0ffH
	DB	0ffH
	DB	0ffH
	DB	04dH
	DB	0ffH
	DB	0ffH
	DB	0ffH
	DB	04dH
	DB	0ffH
	DB	0ffH
	DB	0ffH
	DB	04dH
	DB	0ffH
	DB	0ffH
	DB	0ffH
	DB	04dH
	DB	0ffH
	DB	0ffH
	DB	0ffH
	DB	04dH
	DB	0ffH
	DB	0ffH
	DB	0ffH
	DB	04dH
	DB	0ffH
	DB	0ffH
	DB	0ffH
	DB	04dH
	DB	0ffH
	DB	0ffH
	DB	0ffH
	DB	04dH
	DB	0ffH
	DB	0ffH
	DB	0ffH
	DB	04dH
	DB	0ffH
	DB	0ffH
	DB	0ffH
	DB	04dH
	DB	0ffH
	DB	0ffH
	DB	0ffH
	DB	04dH
	DB	0ffH
	DB	0ffH
	DB	0ffH
	DB	04dH
	DB	0ffH
	DB	0ffH
	DB	0ffH
	DB	04dH
	DB	0ffH
	DB	0ffH
	DB	0ffH
	DB	04dH
	DB	0ffH
	DB	0ffH
	DB	0ffH
	DB	04dH
	DB	0ffH
	DB	0ffH
	DB	0ffH
	DB	04dH
	DB	0ffH
	DB	0ffH
	DB	0ffH
	DB	04dH
	DB	0ffH
	DB	0ffH
	DB	0ffH
	DB	04dH
	DB	0ffH
	DB	0ffH
	DB	0ffH
	DB	04dH
	DB	0ffH
	DB	0ffH
	DB	0ffH
	DB	04dH
	DB	0ffH
	DB	0ffH
	DB	0ffH
	DB	04dH
	DB	0ffH
	DB	0ffH
	DB	0ffH
	DB	04dH
	DB	0ffH
	DB	0ffH
	DB	0ffH
	DB	04dH
	DB	0ffH
	DB	0ffH
	DB	0ffH
	DB	04dH
	DB	0ffH
	DB	0ffH
	DB	0ffH
	DB	04dH
	DB	0ffH
	DB	0ffH
	DB	0ffH
	DB	04dH
	DB	0ffH
	DB	0ffH
	DB	0ffH
	DB	04dH
	DB	0ffH
	DB	0ffH
	DB	0ffH
	DB	04dH
	DB	0ffH
	DB	0ffH
	DB	0ffH
	DB	04dH
	DB	0ffH
	DB	0ffH
	DB	0ffH
	DB	04dH
	DB	0ffH
	DB	0ffH
	DB	0ffH
	DB	04dH
	DB	0ffH
	DB	0ffH
	DB	0ffH
	DB	04dH
	DB	0ffH
	DB	0ffH
	DB	0ffH
	DB	04dH
	DB	0ffH
	DB	0ffH
	DB	0ffH
	DB	04dH
	DB	0ffH
	DB	0ffH
	DB	0ffH
	DB	04dH
	DB	0ffH
	DB	0ffH
	DB	0ffH
	DB	04dH
	DB	0ffH
	DB	0ffH
	DB	0ffH
	DB	042H
	DB	0ffH
	DB	0ffH
	DB	0ffH
	DB	018H
	DB	0ffH
	DB	0ffH
	DB	0ffH
	DB	00H
	DB	0ffH
	DB	0ffH
	DB	0ffH
	DB	00H
	DB	0ffH
	DB	0ffH
	DB	0ffH
	DB	00H
	DB	0ffH
	DB	0ffH
	DB	0ffH
	DB	00H
	DB	0ffH
	DB	0ffH
	DB	0ffH
	DB	00H
	DB	0ffH
	DB	0ffH
	DB	0ffH
	DB	00H
	DB	0ffH
	DB	0ffH
	DB	0ffH
	DB	00H
	DB	0ffH
	DB	0ffH
	DB	0ffH
	DB	00H
	DB	0ffH
	DB	0ffH
	DB	0ffH
	DB	00H
	DB	0ffH
	DB	0ffH
	DB	0ffH
	DB	00H
	DB	0ffH
	DB	0ffH
	DB	0ffH
	DB	00H
	DB	0ffH
	DB	0ffH
	DB	0ffH
	DB	00H
	DB	0ffH
	DB	0ffH
	DB	0ffH
	DB	00H
	DB	0ffH
	DB	0ffH
	DB	0ffH
	DB	00H
	DB	0ffH
	DB	0ffH
	DB	0ffH
	DB	00H
	DB	0ffH
	DB	0ffH
	DB	0ffH
	DB	00H
	DB	0ffH
	DB	0ffH
	DB	0ffH
	DB	00H
	DB	0ffH
	DB	0ffH
	DB	0ffH
	DB	013H
	DB	0ffH
	DB	0ffH
	DB	0ffH
	DB	047H
	DB	0ffH
	DB	0ffH
	DB	0ffH
	DB	04dH
	DB	0ffH
	DB	0ffH
	DB	0ffH
	DB	04dH
	DB	0ffH
	DB	0ffH
	DB	0ffH
	DB	04dH
	DB	0ffH
	DB	0ffH
	DB	0ffH
	DB	04dH
	DB	0ffH
	DB	0ffH
	DB	0ffH
	DB	04dH
	DB	0ffH
	DB	0ffH
	DB	0ffH
	DB	046H
	DB	0ffH
	DB	0ffH
	DB	0ffH
	DB	010H
	DB	0ffH
	DB	0ffH
	DB	0ffH
	DB	00H
	DB	00H
	DB	00H
	DB	00H
	DB	00H
	DB	00H
	DB	00H
	DB	00H
	DB	00H
	DB	00H
	DB	00H
	DB	00H
	DB	00H
	DB	00H
	DB	00H
	DB	00H
	DB	00H
	DB	00H
	DB	00H
	DB	00H
	DB	00H
	DB	00H
	DB	00H
	DB	00H
	DB	00H
	DB	00H
	DB	00H
	DB	00H
	DB	00H
	DB	00H
	DB	00H
	DB	00H
	DB	00H
	DB	00H
	DB	00H
	DB	00H
	DB	00H
	DB	00H
	DB	00H
	DB	00H
	DB	00H
	DB	00H
	DB	00H
	DB	00H
	DB	00H
	DB	00H
	DB	00H
	DB	00H
	DB	00H
	DB	00H
	DB	00H
	DB	00H
	DB	00H
	DB	00H
	DB	00H
	DB	00H
	DB	00H
	DB	00H
	DB	00H
	DB	00H
	DB	00H
	DB	00H
	DB	00H
	DB	00H
	DB	00H
	DB	0ffH
	DB	0ffH
	DB	0ffH
	DB	00H
	DB	0ffH
	DB	0ffH
	DB	0ffH
	DB	00H
	DB	0ffH
	DB	0ffH
	DB	0ffH
	DB	05H
	DB	0ffH
	DB	0ffH
	DB	0ffH
	DB	025H
	DB	0ffH
	DB	0ffH
	DB	0ffH
	DB	03bH
	DB	0ffH
	DB	0ffH
	DB	0ffH
	DB	042H
	DB	0ffH
	DB	0ffH
	DB	0ffH
	DB	03bH
	DB	0ffH
	DB	0ffH
	DB	0ffH
	DB	025H
	DB	0ffH
	DB	0ffH
	DB	0ffH
	DB	05H
	DB	0ffH
	DB	0ffH
	DB	0ffH
	DB	00H
	DB	0ffH
	DB	0ffH
	DB	0ffH
	DB	00H
	DB	0ffH
	DB	0ffH
	DB	0ffH
	DB	00H
	DB	0ffH
	DB	0ffH
	DB	0ffH
	DB	00H
	DB	0ffH
	DB	0ffH
	DB	0ffH
	DB	00H
	DB	0ffH
	DB	0ffH
	DB	0ffH
	DB	00H
	DB	0ffH
	DB	0ffH
	DB	0ffH
	DB	00H
	DB	0ffH
	DB	0ffH
	DB	0ffH
	DB	00H
	DB	0ffH
	DB	0ffH
	DB	0ffH
	DB	00H
	DB	0ffH
	DB	0ffH
	DB	0ffH
	DB	00H
	DB	0ffH
	DB	0ffH
	DB	0ffH
	DB	00H
	DB	0ffH
	DB	0ffH
	DB	0ffH
	DB	00H
	DB	0ffH
	DB	0ffH
	DB	0ffH
	DB	00H
	DB	0ffH
	DB	0ffH
	DB	0ffH
	DB	00H
	DB	0ffH
	DB	0ffH
	DB	0ffH
	DB	00H
	DB	0ffH
	DB	0ffH
	DB	0ffH
	DB	00H
	DB	0ffH
	DB	0ffH
	DB	0ffH
	DB	09H
	DB	0ffH
	DB	0ffH
	DB	0ffH
	DB	036H
	DB	0ffH
	DB	0ffH
	DB	0ffH
	DB	04dH
	DB	0ffH
	DB	0ffH
	DB	0ffH
	DB	04dH
	DB	0ffH
	DB	0ffH
	DB	0ffH
	DB	04dH
	DB	0ffH
	DB	0ffH
	DB	0ffH
	DB	04dH
	DB	0ffH
	DB	0ffH
	DB	0ffH
	DB	04dH
	DB	0ffH
	DB	0ffH
	DB	0ffH
	DB	04dH
	DB	0ffH
	DB	0ffH
	DB	0ffH
	DB	04dH
	DB	0ffH
	DB	0ffH
	DB	0ffH
	DB	04dH
	DB	0ffH
	DB	0ffH
	DB	0ffH
	DB	04dH
	DB	0ffH
	DB	0ffH
	DB	0ffH
	DB	04dH
	DB	0ffH
	DB	0ffH
	DB	0ffH
	DB	04dH
	DB	0ffH
	DB	0ffH
	DB	0ffH
	DB	04dH
	DB	0ffH
	DB	0ffH
	DB	0ffH
	DB	04dH
	DB	0ffH
	DB	0ffH
	DB	0ffH
	DB	04dH
	DB	0ffH
	DB	0ffH
	DB	0ffH
	DB	04dH
	DB	0ffH
	DB	0ffH
	DB	0ffH
	DB	04dH
	DB	0ffH
	DB	0ffH
	DB	0ffH
	DB	04dH
	DB	0ffH
	DB	0ffH
	DB	0ffH
	DB	04dH
	DB	0ffH
	DB	0ffH
	DB	0ffH
	DB	04dH
	DB	0ffH
	DB	0ffH
	DB	0ffH
	DB	04dH
	DB	0ffH
	DB	0ffH
	DB	0ffH
	DB	04dH
	DB	0ffH
	DB	0ffH
	DB	0ffH
	DB	04dH
	DB	0ffH
	DB	0ffH
	DB	0ffH
	DB	04dH
	DB	0ffH
	DB	0ffH
	DB	0ffH
	DB	04dH
	DB	0ffH
	DB	0ffH
	DB	0ffH
	DB	04dH
	DB	0ffH
	DB	0ffH
	DB	0ffH
	DB	04dH
	DB	0ffH
	DB	0ffH
	DB	0ffH
	DB	04dH
	DB	0ffH
	DB	0ffH
	DB	0ffH
	DB	04dH
	DB	0ffH
	DB	0ffH
	DB	0ffH
	DB	04dH
	DB	0ffH
	DB	0ffH
	DB	0ffH
	DB	04dH
	DB	0ffH
	DB	0ffH
	DB	0ffH
	DB	04dH
	DB	0ffH
	DB	0ffH
	DB	0ffH
	DB	04dH
	DB	0ffH
	DB	0ffH
	DB	0ffH
	DB	04dH
	DB	0ffH
	DB	0ffH
	DB	0ffH
	DB	04dH
	DB	0ffH
	DB	0ffH
	DB	0ffH
	DB	04dH
	DB	0ffH
	DB	0ffH
	DB	0ffH
	DB	04dH
	DB	0ffH
	DB	0ffH
	DB	0ffH
	DB	04dH
	DB	0ffH
	DB	0ffH
	DB	0ffH
	DB	04dH
	DB	0ffH
	DB	0ffH
	DB	0ffH
	DB	04dH
	DB	0ffH
	DB	0ffH
	DB	0ffH
	DB	04dH
	DB	0ffH
	DB	0ffH
	DB	0ffH
	DB	04dH
	DB	0ffH
	DB	0ffH
	DB	0ffH
	DB	04dH
	DB	0ffH
	DB	0ffH
	DB	0ffH
	DB	04dH
	DB	0ffH
	DB	0ffH
	DB	0ffH
	DB	04dH
	DB	0ffH
	DB	0ffH
	DB	0ffH
	DB	04dH
	DB	0ffH
	DB	0ffH
	DB	0ffH
	DB	04dH
	DB	0ffH
	DB	0ffH
	DB	0ffH
	DB	04dH
	DB	0ffH
	DB	0ffH
	DB	0ffH
	DB	04dH
	DB	0ffH
	DB	0ffH
	DB	0ffH
	DB	04dH
	DB	0ffH
	DB	0ffH
	DB	0ffH
	DB	04dH
	DB	0ffH
	DB	0ffH
	DB	0ffH
	DB	04dH
	DB	0ffH
	DB	0ffH
	DB	0ffH
	DB	04dH
	DB	0ffH
	DB	0ffH
	DB	0ffH
	DB	04dH
	DB	0ffH
	DB	0ffH
	DB	0ffH
	DB	04dH
	DB	0ffH
	DB	0ffH
	DB	0ffH
	DB	04dH
	DB	0ffH
	DB	0ffH
	DB	0ffH
	DB	04dH
	DB	0ffH
	DB	0ffH
	DB	0ffH
	DB	04dH
	DB	0ffH
	DB	0ffH
	DB	0ffH
	DB	04dH
	DB	0ffH
	DB	0ffH
	DB	0ffH
	DB	037H
	DB	0ffH
	DB	0ffH
	DB	0ffH
	DB	0bH
	DB	0ffH
	DB	0ffH
	DB	0ffH
	DB	00H
	DB	0ffH
	DB	0ffH
	DB	0ffH
	DB	00H
	DB	0ffH
	DB	0ffH
	DB	0ffH
	DB	00H
	DB	0ffH
	DB	0ffH
	DB	0ffH
	DB	00H
	DB	0ffH
	DB	0ffH
	DB	0ffH
	DB	00H
	DB	0ffH
	DB	0ffH
	DB	0ffH
	DB	00H
	DB	0ffH
	DB	0ffH
	DB	0ffH
	DB	00H
	DB	0ffH
	DB	0ffH
	DB	0ffH
	DB	00H
	DB	0ffH
	DB	0ffH
	DB	0ffH
	DB	00H
	DB	0ffH
	DB	0ffH
	DB	0ffH
	DB	00H
	DB	0ffH
	DB	0ffH
	DB	0ffH
	DB	00H
	DB	0ffH
	DB	0ffH
	DB	0ffH
	DB	00H
	DB	0ffH
	DB	0ffH
	DB	0ffH
	DB	00H
	DB	0ffH
	DB	0ffH
	DB	0ffH
	DB	00H
	DB	0ffH
	DB	0ffH
	DB	0ffH
	DB	00H
	DB	0ffH
	DB	0ffH
	DB	0ffH
	DB	00H
	DB	0ffH
	DB	0ffH
	DB	0ffH
	DB	05H
	DB	0ffH
	DB	0ffH
	DB	0ffH
	DB	026H
	DB	0ffH
	DB	0ffH
	DB	0ffH
	DB	03bH
	DB	0ffH
	DB	0ffH
	DB	0ffH
	DB	042H
	DB	0ffH
	DB	0ffH
	DB	0ffH
	DB	03bH
	DB	0ffH
	DB	0ffH
	DB	0ffH
	DB	025H
	DB	0ffH
	DB	0ffH
	DB	0ffH
	DB	05H
	DB	0ffH
	DB	0ffH
	DB	0ffH
	DB	00H
	DB	0ffH
	DB	0ffH
	DB	0ffH
	DB	00H
	DB	00H
	DB	00H
	DB	00H
	DB	00H
	DB	00H
	DB	00H
	DB	00H
	DB	00H
	DB	00H
	DB	00H
	DB	00H
	DB	00H
	DB	00H
	DB	00H
	DB	00H
	DB	00H
	DB	00H
	DB	00H
	DB	00H
	DB	00H
	DB	00H
	DB	00H
	DB	00H
	DB	00H
	DB	00H
	DB	00H
	DB	00H
	DB	00H
	DB	00H
	DB	00H
	DB	00H
	DB	00H
	DB	00H
	DB	00H
	DB	00H
	DB	00H
	DB	00H
	DB	00H
	DB	00H
	DB	00H
	DB	00H
	DB	00H
	DB	00H
	DB	00H
	DB	00H
	DB	00H
	DB	00H
	DB	00H
	DB	00H
	DB	00H
	DB	00H
	DB	00H
	DB	00H
	DB	00H
	DB	00H
	DB	00H
	DB	00H
	DB	00H
	DB	00H
	DB	00H
	DB	00H
	DB	00H
	DB	00H
	DB	00H
	DB	0ffH
	DB	0ffH
	DB	0ffH
	DB	00H
	DB	0ffH
	DB	0ffH
	DB	0ffH
	DB	00H
	DB	0ffH
	DB	0ffH
	DB	0ffH
	DB	00H
	DB	0ffH
	DB	0ffH
	DB	0ffH
	DB	00H
	DB	0ffH
	DB	0ffH
	DB	0ffH
	DB	00H
	DB	0ffH
	DB	0ffH
	DB	0ffH
	DB	00H
	DB	0ffH
	DB	0ffH
	DB	0ffH
	DB	00H
	DB	0ffH
	DB	0ffH
	DB	0ffH
	DB	00H
	DB	0ffH
	DB	0ffH
	DB	0ffH
	DB	00H
	DB	0ffH
	DB	0ffH
	DB	0ffH
	DB	00H
	DB	0ffH
	DB	0ffH
	DB	0ffH
	DB	00H
	DB	0ffH
	DB	0ffH
	DB	0ffH
	DB	00H
	DB	0ffH
	DB	0ffH
	DB	0ffH
	DB	00H
	DB	0ffH
	DB	0ffH
	DB	0ffH
	DB	00H
	DB	0ffH
	DB	0ffH
	DB	0ffH
	DB	00H
	DB	0ffH
	DB	0ffH
	DB	0ffH
	DB	00H
	DB	0ffH
	DB	0ffH
	DB	0ffH
	DB	00H
	DB	0ffH
	DB	0ffH
	DB	0ffH
	DB	00H
	DB	0ffH
	DB	0ffH
	DB	0ffH
	DB	00H
	DB	0ffH
	DB	0ffH
	DB	0ffH
	DB	00H
	DB	0ffH
	DB	0ffH
	DB	0ffH
	DB	00H
	DB	0ffH
	DB	0ffH
	DB	0ffH
	DB	00H
	DB	0ffH
	DB	0ffH
	DB	0ffH
	DB	00H
	DB	0ffH
	DB	0ffH
	DB	0ffH
	DB	00H
	DB	0ffH
	DB	0ffH
	DB	0ffH
	DB	01fH
	DB	0ffH
	DB	0ffH
	DB	0ffH
	DB	049H
	DB	0ffH
	DB	0ffH
	DB	0ffH
	DB	04dH
	DB	0ffH
	DB	0ffH
	DB	0ffH
	DB	04dH
	DB	0ffH
	DB	0ffH
	DB	0ffH
	DB	04dH
	DB	0ffH
	DB	0ffH
	DB	0ffH
	DB	04dH
	DB	0ffH
	DB	0ffH
	DB	0ffH
	DB	04dH
	DB	0ffH
	DB	0ffH
	DB	0ffH
	DB	04dH
	DB	0ffH
	DB	0ffH
	DB	0ffH
	DB	04dH
	DB	0ffH
	DB	0ffH
	DB	0ffH
	DB	04dH
	DB	0ffH
	DB	0ffH
	DB	0ffH
	DB	04dH
	DB	0ffH
	DB	0ffH
	DB	0ffH
	DB	04dH
	DB	0ffH
	DB	0ffH
	DB	0ffH
	DB	04dH
	DB	0ffH
	DB	0ffH
	DB	0ffH
	DB	04dH
	DB	0ffH
	DB	0ffH
	DB	0ffH
	DB	04dH
	DB	0ffH
	DB	0ffH
	DB	0ffH
	DB	04dH
	DB	0ffH
	DB	0ffH
	DB	0ffH
	DB	04dH
	DB	0ffH
	DB	0ffH
	DB	0ffH
	DB	04dH
	DB	0ffH
	DB	0ffH
	DB	0ffH
	DB	04dH
	DB	0ffH
	DB	0ffH
	DB	0ffH
	DB	04dH
	DB	0ffH
	DB	0ffH
	DB	0ffH
	DB	04dH
	DB	0ffH
	DB	0ffH
	DB	0ffH
	DB	04dH
	DB	0ffH
	DB	0ffH
	DB	0ffH
	DB	04dH
	DB	0ffH
	DB	0ffH
	DB	0ffH
	DB	04dH
	DB	0ffH
	DB	0ffH
	DB	0ffH
	DB	04dH
	DB	0ffH
	DB	0ffH
	DB	0ffH
	DB	04dH
	DB	0ffH
	DB	0ffH
	DB	0ffH
	DB	04dH
	DB	0ffH
	DB	0ffH
	DB	0ffH
	DB	04dH
	DB	0ffH
	DB	0ffH
	DB	0ffH
	DB	04dH
	DB	0ffH
	DB	0ffH
	DB	0ffH
	DB	04dH
	DB	0ffH
	DB	0ffH
	DB	0ffH
	DB	04dH
	DB	0ffH
	DB	0ffH
	DB	0ffH
	DB	04dH
	DB	0ffH
	DB	0ffH
	DB	0ffH
	DB	04dH
	DB	0ffH
	DB	0ffH
	DB	0ffH
	DB	04dH
	DB	0ffH
	DB	0ffH
	DB	0ffH
	DB	04dH
	DB	0ffH
	DB	0ffH
	DB	0ffH
	DB	04dH
	DB	0ffH
	DB	0ffH
	DB	0ffH
	DB	04dH
	DB	0ffH
	DB	0ffH
	DB	0ffH
	DB	04dH
	DB	0ffH
	DB	0ffH
	DB	0ffH
	DB	04dH
	DB	0ffH
	DB	0ffH
	DB	0ffH
	DB	04dH
	DB	0ffH
	DB	0ffH
	DB	0ffH
	DB	04dH
	DB	0ffH
	DB	0ffH
	DB	0ffH
	DB	04dH
	DB	0ffH
	DB	0ffH
	DB	0ffH
	DB	04dH
	DB	0ffH
	DB	0ffH
	DB	0ffH
	DB	04dH
	DB	0ffH
	DB	0ffH
	DB	0ffH
	DB	04dH
	DB	0ffH
	DB	0ffH
	DB	0ffH
	DB	04dH
	DB	0ffH
	DB	0ffH
	DB	0ffH
	DB	04dH
	DB	0ffH
	DB	0ffH
	DB	0ffH
	DB	04dH
	DB	0ffH
	DB	0ffH
	DB	0ffH
	DB	04dH
	DB	0ffH
	DB	0ffH
	DB	0ffH
	DB	04dH
	DB	0ffH
	DB	0ffH
	DB	0ffH
	DB	04dH
	DB	0ffH
	DB	0ffH
	DB	0ffH
	DB	04dH
	DB	0ffH
	DB	0ffH
	DB	0ffH
	DB	04dH
	DB	0ffH
	DB	0ffH
	DB	0ffH
	DB	04dH
	DB	0ffH
	DB	0ffH
	DB	0ffH
	DB	04dH
	DB	0ffH
	DB	0ffH
	DB	0ffH
	DB	04dH
	DB	0ffH
	DB	0ffH
	DB	0ffH
	DB	04dH
	DB	0ffH
	DB	0ffH
	DB	0ffH
	DB	04dH
	DB	0ffH
	DB	0ffH
	DB	0ffH
	DB	04dH
	DB	0ffH
	DB	0ffH
	DB	0ffH
	DB	04dH
	DB	0ffH
	DB	0ffH
	DB	0ffH
	DB	04dH
	DB	0ffH
	DB	0ffH
	DB	0ffH
	DB	04dH
	DB	0ffH
	DB	0ffH
	DB	0ffH
	DB	04aH
	DB	0ffH
	DB	0ffH
	DB	0ffH
	DB	022H
	DB	0ffH
	DB	0ffH
	DB	0ffH
	DB	01H
	DB	0ffH
	DB	0ffH
	DB	0ffH
	DB	00H
	DB	0ffH
	DB	0ffH
	DB	0ffH
	DB	00H
	DB	0ffH
	DB	0ffH
	DB	0ffH
	DB	00H
	DB	0ffH
	DB	0ffH
	DB	0ffH
	DB	00H
	DB	0ffH
	DB	0ffH
	DB	0ffH
	DB	00H
	DB	0ffH
	DB	0ffH
	DB	0ffH
	DB	00H
	DB	0ffH
	DB	0ffH
	DB	0ffH
	DB	00H
	DB	0ffH
	DB	0ffH
	DB	0ffH
	DB	00H
	DB	0ffH
	DB	0ffH
	DB	0ffH
	DB	00H
	DB	0ffH
	DB	0ffH
	DB	0ffH
	DB	00H
	DB	0ffH
	DB	0ffH
	DB	0ffH
	DB	00H
	DB	0ffH
	DB	0ffH
	DB	0ffH
	DB	00H
	DB	0ffH
	DB	0ffH
	DB	0ffH
	DB	00H
	DB	0ffH
	DB	0ffH
	DB	0ffH
	DB	00H
	DB	0ffH
	DB	0ffH
	DB	0ffH
	DB	00H
	DB	0ffH
	DB	0ffH
	DB	0ffH
	DB	00H
	DB	0ffH
	DB	0ffH
	DB	0ffH
	DB	00H
	DB	0ffH
	DB	0ffH
	DB	0ffH
	DB	00H
	DB	0ffH
	DB	0ffH
	DB	0ffH
	DB	00H
	DB	0ffH
	DB	0ffH
	DB	0ffH
	DB	00H
	DB	0ffH
	DB	0ffH
	DB	0ffH
	DB	00H
	DB	0ffH
	DB	0ffH
	DB	0ffH
	DB	00H
	DB	0ffH
	DB	0ffH
	DB	0ffH
	DB	00H
	DB	00H
	DB	00H
	DB	00H
	DB	00H
	DB	00H
	DB	00H
	DB	00H
	DB	00H
	DB	00H
	DB	00H
	DB	00H
	DB	00H
	DB	00H
	DB	00H
	DB	00H
	DB	00H
	DB	00H
	DB	00H
	DB	00H
	DB	00H
	DB	00H
	DB	00H
	DB	00H
	DB	00H
	DB	00H
	DB	00H
	DB	00H
	DB	00H
	DB	00H
	DB	00H
	DB	00H
	DB	00H
	DB	00H
	DB	00H
	DB	00H
	DB	00H
	DB	00H
	DB	00H
	DB	00H
	DB	00H
	DB	00H
	DB	00H
	DB	00H
	DB	00H
	DB	00H
	DB	00H
	DB	00H
	DB	00H
	DB	00H
	DB	00H
	DB	00H
	DB	00H
	DB	00H
	DB	00H
	DB	00H
	DB	00H
	DB	00H
	DB	00H
	DB	00H
	DB	00H
	DB	00H
	DB	00H
	DB	00H
	DB	00H
	DB	0ffH
	DB	0ffH
	DB	0ffH
	DB	00H
	DB	0ffH
	DB	0ffH
	DB	0ffH
	DB	00H
	DB	0ffH
	DB	0ffH
	DB	0ffH
	DB	00H
	DB	0ffH
	DB	0ffH
	DB	0ffH
	DB	00H
	DB	0ffH
	DB	0ffH
	DB	0ffH
	DB	00H
	DB	0ffH
	DB	0ffH
	DB	0ffH
	DB	00H
	DB	0ffH
	DB	0ffH
	DB	0ffH
	DB	00H
	DB	0ffH
	DB	0ffH
	DB	0ffH
	DB	00H
	DB	0ffH
	DB	0ffH
	DB	0ffH
	DB	00H
	DB	0ffH
	DB	0ffH
	DB	0ffH
	DB	00H
	DB	0ffH
	DB	0ffH
	DB	0ffH
	DB	00H
	DB	0ffH
	DB	0ffH
	DB	0ffH
	DB	00H
	DB	0ffH
	DB	0ffH
	DB	0ffH
	DB	00H
	DB	0ffH
	DB	0ffH
	DB	0ffH
	DB	00H
	DB	0ffH
	DB	0ffH
	DB	0ffH
	DB	00H
	DB	0ffH
	DB	0ffH
	DB	0ffH
	DB	00H
	DB	0ffH
	DB	0ffH
	DB	0ffH
	DB	00H
	DB	0ffH
	DB	0ffH
	DB	0ffH
	DB	00H
	DB	0ffH
	DB	0ffH
	DB	0ffH
	DB	00H
	DB	0ffH
	DB	0ffH
	DB	0ffH
	DB	00H
	DB	0ffH
	DB	0ffH
	DB	0ffH
	DB	00H
	DB	0ffH
	DB	0ffH
	DB	0ffH
	DB	00H
	DB	0ffH
	DB	0ffH
	DB	0ffH
	DB	06H
	DB	0ffH
	DB	0ffH
	DB	0ffH
	DB	037H
	DB	0ffH
	DB	0ffH
	DB	0ffH
	DB	04dH
	DB	0ffH
	DB	0ffH
	DB	0ffH
	DB	04dH
	DB	0ffH
	DB	0ffH
	DB	0ffH
	DB	04dH
	DB	0ffH
	DB	0ffH
	DB	0ffH
	DB	04dH
	DB	0ffH
	DB	0ffH
	DB	0ffH
	DB	04dH
	DB	0ffH
	DB	0ffH
	DB	0ffH
	DB	04dH
	DB	0ffH
	DB	0ffH
	DB	0ffH
	DB	04dH
	DB	0ffH
	DB	0ffH
	DB	0ffH
	DB	04dH
	DB	0ffH
	DB	0ffH
	DB	0ffH
	DB	04dH
	DB	0ffH
	DB	0ffH
	DB	0ffH
	DB	04dH
	DB	0ffH
	DB	0ffH
	DB	0ffH
	DB	04dH
	DB	0ffH
	DB	0ffH
	DB	0ffH
	DB	04dH
	DB	0ffH
	DB	0ffH
	DB	0ffH
	DB	04dH
	DB	0ffH
	DB	0ffH
	DB	0ffH
	DB	04dH
	DB	0ffH
	DB	0ffH
	DB	0ffH
	DB	04dH
	DB	0ffH
	DB	0ffH
	DB	0ffH
	DB	04dH
	DB	0ffH
	DB	0ffH
	DB	0ffH
	DB	04dH
	DB	0ffH
	DB	0ffH
	DB	0ffH
	DB	04dH
	DB	0ffH
	DB	0ffH
	DB	0ffH
	DB	04dH
	DB	0ffH
	DB	0ffH
	DB	0ffH
	DB	04dH
	DB	0ffH
	DB	0ffH
	DB	0ffH
	DB	04dH
	DB	0ffH
	DB	0ffH
	DB	0ffH
	DB	04dH
	DB	0ffH
	DB	0ffH
	DB	0ffH
	DB	04dH
	DB	0ffH
	DB	0ffH
	DB	0ffH
	DB	04dH
	DB	0ffH
	DB	0ffH
	DB	0ffH
	DB	04dH
	DB	0ffH
	DB	0ffH
	DB	0ffH
	DB	04cH
	DB	0ffH
	DB	0ffH
	DB	0ffH
	DB	044H
	DB	0ffH
	DB	0ffH
	DB	0ffH
	DB	03bH
	DB	0ffH
	DB	0ffH
	DB	0ffH
	DB	035H
	DB	0ffH
	DB	0ffH
	DB	0ffH
	DB	02fH
	DB	0ffH
	DB	0ffH
	DB	0ffH
	DB	02cH
	DB	0ffH
	DB	0ffH
	DB	0ffH
	DB	029H
	DB	0ffH
	DB	0ffH
	DB	0ffH
	DB	029H
	DB	0ffH
	DB	0ffH
	DB	0ffH
	DB	02cH
	DB	0ffH
	DB	0ffH
	DB	0ffH
	DB	02fH
	DB	0ffH
	DB	0ffH
	DB	0ffH
	DB	034H
	DB	0ffH
	DB	0ffH
	DB	0ffH
	DB	03bH
	DB	0ffH
	DB	0ffH
	DB	0ffH
	DB	044H
	DB	0ffH
	DB	0ffH
	DB	0ffH
	DB	04bH
	DB	0ffH
	DB	0ffH
	DB	0ffH
	DB	04dH
	DB	0ffH
	DB	0ffH
	DB	0ffH
	DB	04dH
	DB	0ffH
	DB	0ffH
	DB	0ffH
	DB	04dH
	DB	0ffH
	DB	0ffH
	DB	0ffH
	DB	04dH
	DB	0ffH
	DB	0ffH
	DB	0ffH
	DB	04dH
	DB	0ffH
	DB	0ffH
	DB	0ffH
	DB	04dH
	DB	0ffH
	DB	0ffH
	DB	0ffH
	DB	04dH
	DB	0ffH
	DB	0ffH
	DB	0ffH
	DB	04dH
	DB	0ffH
	DB	0ffH
	DB	0ffH
	DB	04dH
	DB	0ffH
	DB	0ffH
	DB	0ffH
	DB	04dH
	DB	0ffH
	DB	0ffH
	DB	0ffH
	DB	04dH
	DB	0ffH
	DB	0ffH
	DB	0ffH
	DB	04dH
	DB	0ffH
	DB	0ffH
	DB	0ffH
	DB	04dH
	DB	0ffH
	DB	0ffH
	DB	0ffH
	DB	04dH
	DB	0ffH
	DB	0ffH
	DB	0ffH
	DB	04dH
	DB	0ffH
	DB	0ffH
	DB	0ffH
	DB	04dH
	DB	0ffH
	DB	0ffH
	DB	0ffH
	DB	04dH
	DB	0ffH
	DB	0ffH
	DB	0ffH
	DB	04dH
	DB	0ffH
	DB	0ffH
	DB	0ffH
	DB	04dH
	DB	0ffH
	DB	0ffH
	DB	0ffH
	DB	04dH
	DB	0ffH
	DB	0ffH
	DB	0ffH
	DB	04dH
	DB	0ffH
	DB	0ffH
	DB	0ffH
	DB	04dH
	DB	0ffH
	DB	0ffH
	DB	0ffH
	DB	04dH
	DB	0ffH
	DB	0ffH
	DB	0ffH
	DB	04dH
	DB	0ffH
	DB	0ffH
	DB	0ffH
	DB	04dH
	DB	0ffH
	DB	0ffH
	DB	0ffH
	DB	039H
	DB	0ffH
	DB	0ffH
	DB	0ffH
	DB	08H
	DB	0ffH
	DB	0ffH
	DB	0ffH
	DB	00H
	DB	0ffH
	DB	0ffH
	DB	0ffH
	DB	00H
	DB	0ffH
	DB	0ffH
	DB	0ffH
	DB	00H
	DB	0ffH
	DB	0ffH
	DB	0ffH
	DB	00H
	DB	0ffH
	DB	0ffH
	DB	0ffH
	DB	00H
	DB	0ffH
	DB	0ffH
	DB	0ffH
	DB	00H
	DB	0ffH
	DB	0ffH
	DB	0ffH
	DB	00H
	DB	0ffH
	DB	0ffH
	DB	0ffH
	DB	00H
	DB	0ffH
	DB	0ffH
	DB	0ffH
	DB	00H
	DB	0ffH
	DB	0ffH
	DB	0ffH
	DB	00H
	DB	0ffH
	DB	0ffH
	DB	0ffH
	DB	00H
	DB	0ffH
	DB	0ffH
	DB	0ffH
	DB	00H
	DB	0ffH
	DB	0ffH
	DB	0ffH
	DB	00H
	DB	0ffH
	DB	0ffH
	DB	0ffH
	DB	00H
	DB	0ffH
	DB	0ffH
	DB	0ffH
	DB	00H
	DB	0ffH
	DB	0ffH
	DB	0ffH
	DB	00H
	DB	0ffH
	DB	0ffH
	DB	0ffH
	DB	00H
	DB	0ffH
	DB	0ffH
	DB	0ffH
	DB	00H
	DB	0ffH
	DB	0ffH
	DB	0ffH
	DB	00H
	DB	0ffH
	DB	0ffH
	DB	0ffH
	DB	00H
	DB	0ffH
	DB	0ffH
	DB	0ffH
	DB	00H
	DB	0ffH
	DB	0ffH
	DB	0ffH
	DB	00H
	DB	00H
	DB	00H
	DB	00H
	DB	00H
	DB	00H
	DB	00H
	DB	00H
	DB	00H
	DB	00H
	DB	00H
	DB	00H
	DB	00H
	DB	00H
	DB	00H
	DB	00H
	DB	00H
	DB	00H
	DB	00H
	DB	00H
	DB	00H
	DB	00H
	DB	00H
	DB	00H
	DB	00H
	DB	00H
	DB	00H
	DB	00H
	DB	00H
	DB	00H
	DB	00H
	DB	00H
	DB	00H
	DB	00H
	DB	00H
	DB	00H
	DB	00H
	DB	00H
	DB	00H
	DB	00H
	DB	00H
	DB	00H
	DB	00H
	DB	00H
	DB	00H
	DB	00H
	DB	00H
	DB	00H
	DB	00H
	DB	00H
	DB	00H
	DB	00H
	DB	00H
	DB	00H
	DB	00H
	DB	00H
	DB	00H
	DB	00H
	DB	00H
	DB	00H
	DB	00H
	DB	00H
	DB	00H
	DB	00H
	DB	00H
	DB	0ffH
	DB	0ffH
	DB	0ffH
	DB	00H
	DB	0ffH
	DB	0ffH
	DB	0ffH
	DB	00H
	DB	0ffH
	DB	0ffH
	DB	0ffH
	DB	00H
	DB	0ffH
	DB	0ffH
	DB	0ffH
	DB	00H
	DB	0ffH
	DB	0ffH
	DB	0ffH
	DB	00H
	DB	0ffH
	DB	0ffH
	DB	0ffH
	DB	00H
	DB	0ffH
	DB	0ffH
	DB	0ffH
	DB	00H
	DB	0ffH
	DB	0ffH
	DB	0ffH
	DB	00H
	DB	0ffH
	DB	0ffH
	DB	0ffH
	DB	00H
	DB	0ffH
	DB	0ffH
	DB	0ffH
	DB	00H
	DB	0ffH
	DB	0ffH
	DB	0ffH
	DB	00H
	DB	0ffH
	DB	0ffH
	DB	0ffH
	DB	00H
	DB	0ffH
	DB	0ffH
	DB	0ffH
	DB	00H
	DB	0ffH
	DB	0ffH
	DB	0ffH
	DB	00H
	DB	0ffH
	DB	0ffH
	DB	0ffH
	DB	00H
	DB	0ffH
	DB	0ffH
	DB	0ffH
	DB	00H
	DB	0ffH
	DB	0ffH
	DB	0ffH
	DB	00H
	DB	0ffH
	DB	0ffH
	DB	0ffH
	DB	00H
	DB	0ffH
	DB	0ffH
	DB	0ffH
	DB	00H
	DB	0ffH
	DB	0ffH
	DB	0ffH
	DB	00H
	DB	0ffH
	DB	0ffH
	DB	0ffH
	DB	00H
	DB	0ffH
	DB	0ffH
	DB	0ffH
	DB	014H
	DB	0ffH
	DB	0ffH
	DB	0ffH
	DB	045H
	DB	0ffH
	DB	0ffH
	DB	0ffH
	DB	04dH
	DB	0ffH
	DB	0ffH
	DB	0ffH
	DB	04dH
	DB	0ffH
	DB	0ffH
	DB	0ffH
	DB	04dH
	DB	0ffH
	DB	0ffH
	DB	0ffH
	DB	04dH
	DB	0ffH
	DB	0ffH
	DB	0ffH
	DB	04dH
	DB	0ffH
	DB	0ffH
	DB	0ffH
	DB	04dH
	DB	0ffH
	DB	0ffH
	DB	0ffH
	DB	04dH
	DB	0ffH
	DB	0ffH
	DB	0ffH
	DB	04dH
	DB	0ffH
	DB	0ffH
	DB	0ffH
	DB	04dH
	DB	0ffH
	DB	0ffH
	DB	0ffH
	DB	04dH
	DB	0ffH
	DB	0ffH
	DB	0ffH
	DB	04dH
	DB	0ffH
	DB	0ffH
	DB	0ffH
	DB	04dH
	DB	0ffH
	DB	0ffH
	DB	0ffH
	DB	04dH
	DB	0ffH
	DB	0ffH
	DB	0ffH
	DB	04dH
	DB	0ffH
	DB	0ffH
	DB	0ffH
	DB	04dH
	DB	0ffH
	DB	0ffH
	DB	0ffH
	DB	04dH
	DB	0ffH
	DB	0ffH
	DB	0ffH
	DB	04dH
	DB	0ffH
	DB	0ffH
	DB	0ffH
	DB	04dH
	DB	0ffH
	DB	0ffH
	DB	0ffH
	DB	04dH
	DB	0ffH
	DB	0ffH
	DB	0ffH
	DB	04dH
	DB	0ffH
	DB	0ffH
	DB	0ffH
	DB	04dH
	DB	0ffH
	DB	0ffH
	DB	0ffH
	DB	04cH
	DB	0ffH
	DB	0ffH
	DB	0ffH
	DB	03eH
	DB	0ffH
	DB	0ffH
	DB	0ffH
	DB	02cH
	DB	0ffH
	DB	0ffH
	DB	0ffH
	DB	01aH
	DB	0ffH
	DB	0ffH
	DB	0ffH
	DB	0dH
	DB	0ffH
	DB	0ffH
	DB	0ffH
	DB	02H
	DB	0ffH
	DB	0ffH
	DB	0ffH
	DB	00H
	DB	0ffH
	DB	0ffH
	DB	0ffH
	DB	00H
	DB	0ffH
	DB	0ffH
	DB	0ffH
	DB	00H
	DB	0ffH
	DB	0ffH
	DB	0ffH
	DB	00H
	DB	0ffH
	DB	0ffH
	DB	0ffH
	DB	00H
	DB	0ffH
	DB	0ffH
	DB	0ffH
	DB	00H
	DB	0ffH
	DB	0ffH
	DB	0ffH
	DB	00H
	DB	0ffH
	DB	0ffH
	DB	0ffH
	DB	00H
	DB	0ffH
	DB	0ffH
	DB	0ffH
	DB	00H
	DB	0ffH
	DB	0ffH
	DB	0ffH
	DB	00H
	DB	0ffH
	DB	0ffH
	DB	0ffH
	DB	00H
	DB	0ffH
	DB	0ffH
	DB	0ffH
	DB	00H
	DB	0ffH
	DB	0ffH
	DB	0ffH
	DB	02H
	DB	0ffH
	DB	0ffH
	DB	0ffH
	DB	0cH
	DB	0ffH
	DB	0ffH
	DB	0ffH
	DB	01aH
	DB	0ffH
	DB	0ffH
	DB	0ffH
	DB	02bH
	DB	0ffH
	DB	0ffH
	DB	0ffH
	DB	03dH
	DB	0ffH
	DB	0ffH
	DB	0ffH
	DB	04cH
	DB	0ffH
	DB	0ffH
	DB	0ffH
	DB	04dH
	DB	0ffH
	DB	0ffH
	DB	0ffH
	DB	04dH
	DB	0ffH
	DB	0ffH
	DB	0ffH
	DB	04dH
	DB	0ffH
	DB	0ffH
	DB	0ffH
	DB	04dH
	DB	0ffH
	DB	0ffH
	DB	0ffH
	DB	04dH
	DB	0ffH
	DB	0ffH
	DB	0ffH
	DB	04dH
	DB	0ffH
	DB	0ffH
	DB	0ffH
	DB	04dH
	DB	0ffH
	DB	0ffH
	DB	0ffH
	DB	04dH
	DB	0ffH
	DB	0ffH
	DB	0ffH
	DB	04dH
	DB	0ffH
	DB	0ffH
	DB	0ffH
	DB	04dH
	DB	0ffH
	DB	0ffH
	DB	0ffH
	DB	04dH
	DB	0ffH
	DB	0ffH
	DB	0ffH
	DB	04dH
	DB	0ffH
	DB	0ffH
	DB	0ffH
	DB	04dH
	DB	0ffH
	DB	0ffH
	DB	0ffH
	DB	04dH
	DB	0ffH
	DB	0ffH
	DB	0ffH
	DB	04dH
	DB	0ffH
	DB	0ffH
	DB	0ffH
	DB	04dH
	DB	0ffH
	DB	0ffH
	DB	0ffH
	DB	04dH
	DB	0ffH
	DB	0ffH
	DB	0ffH
	DB	04dH
	DB	0ffH
	DB	0ffH
	DB	0ffH
	DB	04dH
	DB	0ffH
	DB	0ffH
	DB	0ffH
	DB	04dH
	DB	0ffH
	DB	0ffH
	DB	0ffH
	DB	04dH
	DB	0ffH
	DB	0ffH
	DB	0ffH
	DB	047H
	DB	0ffH
	DB	0ffH
	DB	0ffH
	DB	016H
	DB	0ffH
	DB	0ffH
	DB	0ffH
	DB	00H
	DB	0ffH
	DB	0ffH
	DB	0ffH
	DB	00H
	DB	0ffH
	DB	0ffH
	DB	0ffH
	DB	00H
	DB	0ffH
	DB	0ffH
	DB	0ffH
	DB	00H
	DB	0ffH
	DB	0ffH
	DB	0ffH
	DB	00H
	DB	0ffH
	DB	0ffH
	DB	0ffH
	DB	00H
	DB	0ffH
	DB	0ffH
	DB	0ffH
	DB	00H
	DB	0ffH
	DB	0ffH
	DB	0ffH
	DB	00H
	DB	0ffH
	DB	0ffH
	DB	0ffH
	DB	00H
	DB	0ffH
	DB	0ffH
	DB	0ffH
	DB	00H
	DB	0ffH
	DB	0ffH
	DB	0ffH
	DB	00H
	DB	0ffH
	DB	0ffH
	DB	0ffH
	DB	00H
	DB	0ffH
	DB	0ffH
	DB	0ffH
	DB	00H
	DB	0ffH
	DB	0ffH
	DB	0ffH
	DB	00H
	DB	0ffH
	DB	0ffH
	DB	0ffH
	DB	00H
	DB	0ffH
	DB	0ffH
	DB	0ffH
	DB	00H
	DB	0ffH
	DB	0ffH
	DB	0ffH
	DB	00H
	DB	0ffH
	DB	0ffH
	DB	0ffH
	DB	00H
	DB	0ffH
	DB	0ffH
	DB	0ffH
	DB	00H
	DB	0ffH
	DB	0ffH
	DB	0ffH
	DB	00H
	DB	0ffH
	DB	0ffH
	DB	0ffH
	DB	00H
	DB	00H
	DB	00H
	DB	00H
	DB	00H
	DB	00H
	DB	00H
	DB	00H
	DB	00H
	DB	00H
	DB	00H
	DB	00H
	DB	00H
	DB	00H
	DB	00H
	DB	00H
	DB	00H
	DB	00H
	DB	00H
	DB	00H
	DB	00H
	DB	00H
	DB	00H
	DB	00H
	DB	00H
	DB	00H
	DB	00H
	DB	00H
	DB	00H
	DB	00H
	DB	00H
	DB	00H
	DB	00H
	DB	00H
	DB	00H
	DB	00H
	DB	00H
	DB	00H
	DB	00H
	DB	00H
	DB	00H
	DB	00H
	DB	00H
	DB	00H
	DB	00H
	DB	00H
	DB	00H
	DB	00H
	DB	00H
	DB	00H
	DB	00H
	DB	00H
	DB	00H
	DB	00H
	DB	00H
	DB	00H
	DB	00H
	DB	00H
	DB	00H
	DB	00H
	DB	00H
	DB	00H
	DB	00H
	DB	00H
	DB	00H
	DB	0ffH
	DB	0ffH
	DB	0ffH
	DB	00H
	DB	0ffH
	DB	0ffH
	DB	0ffH
	DB	00H
	DB	0ffH
	DB	0ffH
	DB	0ffH
	DB	00H
	DB	0ffH
	DB	0ffH
	DB	0ffH
	DB	00H
	DB	0ffH
	DB	0ffH
	DB	0ffH
	DB	00H
	DB	0ffH
	DB	0ffH
	DB	0ffH
	DB	00H
	DB	0ffH
	DB	0ffH
	DB	0ffH
	DB	00H
	DB	0ffH
	DB	0ffH
	DB	0ffH
	DB	00H
	DB	0ffH
	DB	0ffH
	DB	0ffH
	DB	00H
	DB	0ffH
	DB	0ffH
	DB	0ffH
	DB	00H
	DB	0ffH
	DB	0ffH
	DB	0ffH
	DB	00H
	DB	0ffH
	DB	0ffH
	DB	0ffH
	DB	00H
	DB	0ffH
	DB	0ffH
	DB	0ffH
	DB	00H
	DB	0ffH
	DB	0ffH
	DB	0ffH
	DB	00H
	DB	0ffH
	DB	0ffH
	DB	0ffH
	DB	00H
	DB	0ffH
	DB	0ffH
	DB	0ffH
	DB	00H
	DB	0ffH
	DB	0ffH
	DB	0ffH
	DB	00H
	DB	0ffH
	DB	0ffH
	DB	0ffH
	DB	00H
	DB	0ffH
	DB	0ffH
	DB	0ffH
	DB	00H
	DB	0ffH
	DB	0ffH
	DB	0ffH
	DB	00H
	DB	0ffH
	DB	0ffH
	DB	0ffH
	DB	021H
	DB	0ffH
	DB	0ffH
	DB	0ffH
	DB	04cH
	DB	0ffH
	DB	0ffH
	DB	0ffH
	DB	04dH
	DB	0ffH
	DB	0ffH
	DB	0ffH
	DB	04dH
	DB	0ffH
	DB	0ffH
	DB	0ffH
	DB	04dH
	DB	0ffH
	DB	0ffH
	DB	0ffH
	DB	04dH
	DB	0ffH
	DB	0ffH
	DB	0ffH
	DB	04dH
	DB	0ffH
	DB	0ffH
	DB	0ffH
	DB	04dH
	DB	0ffH
	DB	0ffH
	DB	0ffH
	DB	04dH
	DB	0ffH
	DB	0ffH
	DB	0ffH
	DB	04dH
	DB	0ffH
	DB	0ffH
	DB	0ffH
	DB	04dH
	DB	0ffH
	DB	0ffH
	DB	0ffH
	DB	04dH
	DB	0ffH
	DB	0ffH
	DB	0ffH
	DB	04dH
	DB	0ffH
	DB	0ffH
	DB	0ffH
	DB	04dH
	DB	0ffH
	DB	0ffH
	DB	0ffH
	DB	04dH
	DB	0ffH
	DB	0ffH
	DB	0ffH
	DB	04dH
	DB	0ffH
	DB	0ffH
	DB	0ffH
	DB	04dH
	DB	0ffH
	DB	0ffH
	DB	0ffH
	DB	04dH
	DB	0ffH
	DB	0ffH
	DB	0ffH
	DB	04dH
	DB	0ffH
	DB	0ffH
	DB	0ffH
	DB	04dH
	DB	0ffH
	DB	0ffH
	DB	0ffH
	DB	04dH
	DB	0ffH
	DB	0ffH
	DB	0ffH
	DB	045H
	DB	0ffH
	DB	0ffH
	DB	0ffH
	DB	02dH
	DB	0ffH
	DB	0ffH
	DB	0ffH
	DB	015H
	DB	0ffH
	DB	0ffH
	DB	0ffH
	DB	04H
	DB	0ffH
	DB	0ffH
	DB	0ffH
	DB	00H
	DB	0ffH
	DB	0ffH
	DB	0ffH
	DB	00H
	DB	0ffH
	DB	0ffH
	DB	0ffH
	DB	00H
	DB	0ffH
	DB	0ffH
	DB	0ffH
	DB	00H
	DB	0ffH
	DB	0ffH
	DB	0ffH
	DB	00H
	DB	0ffH
	DB	0ffH
	DB	0ffH
	DB	00H
	DB	0ffH
	DB	0ffH
	DB	0ffH
	DB	00H
	DB	0ffH
	DB	0ffH
	DB	0ffH
	DB	00H
	DB	0ffH
	DB	0ffH
	DB	0ffH
	DB	00H
	DB	0ffH
	DB	0ffH
	DB	0ffH
	DB	00H
	DB	0ffH
	DB	0ffH
	DB	0ffH
	DB	00H
	DB	0ffH
	DB	0ffH
	DB	0ffH
	DB	00H
	DB	0ffH
	DB	0ffH
	DB	0ffH
	DB	00H
	DB	0ffH
	DB	0ffH
	DB	0ffH
	DB	00H
	DB	0ffH
	DB	0ffH
	DB	0ffH
	DB	00H
	DB	0ffH
	DB	0ffH
	DB	0ffH
	DB	00H
	DB	0ffH
	DB	0ffH
	DB	0ffH
	DB	00H
	DB	0ffH
	DB	0ffH
	DB	0ffH
	DB	00H
	DB	0ffH
	DB	0ffH
	DB	0ffH
	DB	00H
	DB	0ffH
	DB	0ffH
	DB	0ffH
	DB	00H
	DB	0ffH
	DB	0ffH
	DB	0ffH
	DB	00H
	DB	0ffH
	DB	0ffH
	DB	0ffH
	DB	00H
	DB	0ffH
	DB	0ffH
	DB	0ffH
	DB	03H
	DB	0ffH
	DB	0ffH
	DB	0ffH
	DB	015H
	DB	0ffH
	DB	0ffH
	DB	0ffH
	DB	02cH
	DB	0ffH
	DB	0ffH
	DB	0ffH
	DB	044H
	DB	0ffH
	DB	0ffH
	DB	0ffH
	DB	04dH
	DB	0ffH
	DB	0ffH
	DB	0ffH
	DB	04dH
	DB	0ffH
	DB	0ffH
	DB	0ffH
	DB	04dH
	DB	0ffH
	DB	0ffH
	DB	0ffH
	DB	04dH
	DB	0ffH
	DB	0ffH
	DB	0ffH
	DB	04dH
	DB	0ffH
	DB	0ffH
	DB	0ffH
	DB	04dH
	DB	0ffH
	DB	0ffH
	DB	0ffH
	DB	04dH
	DB	0ffH
	DB	0ffH
	DB	0ffH
	DB	04dH
	DB	0ffH
	DB	0ffH
	DB	0ffH
	DB	04dH
	DB	0ffH
	DB	0ffH
	DB	0ffH
	DB	04dH
	DB	0ffH
	DB	0ffH
	DB	0ffH
	DB	04dH
	DB	0ffH
	DB	0ffH
	DB	0ffH
	DB	04dH
	DB	0ffH
	DB	0ffH
	DB	0ffH
	DB	04dH
	DB	0ffH
	DB	0ffH
	DB	0ffH
	DB	04dH
	DB	0ffH
	DB	0ffH
	DB	0ffH
	DB	04dH
	DB	0ffH
	DB	0ffH
	DB	0ffH
	DB	04dH
	DB	0ffH
	DB	0ffH
	DB	0ffH
	DB	04dH
	DB	0ffH
	DB	0ffH
	DB	0ffH
	DB	04dH
	DB	0ffH
	DB	0ffH
	DB	0ffH
	DB	04dH
	DB	0ffH
	DB	0ffH
	DB	0ffH
	DB	04cH
	DB	0ffH
	DB	0ffH
	DB	0ffH
	DB	024H
	DB	0ffH
	DB	0ffH
	DB	0ffH
	DB	00H
	DB	0ffH
	DB	0ffH
	DB	0ffH
	DB	00H
	DB	0ffH
	DB	0ffH
	DB	0ffH
	DB	00H
	DB	0ffH
	DB	0ffH
	DB	0ffH
	DB	00H
	DB	0ffH
	DB	0ffH
	DB	0ffH
	DB	00H
	DB	0ffH
	DB	0ffH
	DB	0ffH
	DB	00H
	DB	0ffH
	DB	0ffH
	DB	0ffH
	DB	00H
	DB	0ffH
	DB	0ffH
	DB	0ffH
	DB	00H
	DB	0ffH
	DB	0ffH
	DB	0ffH
	DB	00H
	DB	0ffH
	DB	0ffH
	DB	0ffH
	DB	00H
	DB	0ffH
	DB	0ffH
	DB	0ffH
	DB	00H
	DB	0ffH
	DB	0ffH
	DB	0ffH
	DB	00H
	DB	0ffH
	DB	0ffH
	DB	0ffH
	DB	00H
	DB	0ffH
	DB	0ffH
	DB	0ffH
	DB	00H
	DB	0ffH
	DB	0ffH
	DB	0ffH
	DB	00H
	DB	0ffH
	DB	0ffH
	DB	0ffH
	DB	00H
	DB	0ffH
	DB	0ffH
	DB	0ffH
	DB	00H
	DB	0ffH
	DB	0ffH
	DB	0ffH
	DB	00H
	DB	0ffH
	DB	0ffH
	DB	0ffH
	DB	00H
	DB	0ffH
	DB	0ffH
	DB	0ffH
	DB	00H
	DB	00H
	DB	00H
	DB	00H
	DB	00H
	DB	00H
	DB	00H
	DB	00H
	DB	00H
	DB	00H
	DB	00H
	DB	00H
	DB	00H
	DB	00H
	DB	00H
	DB	00H
	DB	00H
	DB	00H
	DB	00H
	DB	00H
	DB	00H
	DB	00H
	DB	00H
	DB	00H
	DB	00H
	DB	00H
	DB	00H
	DB	00H
	DB	00H
	DB	00H
	DB	00H
	DB	00H
	DB	00H
	DB	00H
	DB	00H
	DB	00H
	DB	00H
	DB	00H
	DB	00H
	DB	00H
	DB	00H
	DB	00H
	DB	00H
	DB	00H
	DB	00H
	DB	00H
	DB	00H
	DB	00H
	DB	00H
	DB	00H
	DB	00H
	DB	00H
	DB	00H
	DB	00H
	DB	00H
	DB	00H
	DB	00H
	DB	00H
	DB	00H
	DB	00H
	DB	00H
	DB	00H
	DB	00H
	DB	00H
	DB	00H
	DB	0ffH
	DB	0ffH
	DB	0ffH
	DB	00H
	DB	0ffH
	DB	0ffH
	DB	0ffH
	DB	00H
	DB	0ffH
	DB	0ffH
	DB	0ffH
	DB	00H
	DB	0ffH
	DB	0ffH
	DB	0ffH
	DB	00H
	DB	0ffH
	DB	0ffH
	DB	0ffH
	DB	00H
	DB	0ffH
	DB	0ffH
	DB	0ffH
	DB	00H
	DB	0ffH
	DB	0ffH
	DB	0ffH
	DB	00H
	DB	0ffH
	DB	0ffH
	DB	0ffH
	DB	00H
	DB	0ffH
	DB	0ffH
	DB	0ffH
	DB	00H
	DB	0ffH
	DB	0ffH
	DB	0ffH
	DB	00H
	DB	0ffH
	DB	0ffH
	DB	0ffH
	DB	00H
	DB	0ffH
	DB	0ffH
	DB	0ffH
	DB	00H
	DB	0ffH
	DB	0ffH
	DB	0ffH
	DB	00H
	DB	0ffH
	DB	0ffH
	DB	0ffH
	DB	00H
	DB	0ffH
	DB	0ffH
	DB	0ffH
	DB	00H
	DB	0ffH
	DB	0ffH
	DB	0ffH
	DB	00H
	DB	0ffH
	DB	0ffH
	DB	0ffH
	DB	00H
	DB	0ffH
	DB	0ffH
	DB	0ffH
	DB	00H
	DB	0ffH
	DB	0ffH
	DB	0ffH
	DB	01H
	DB	0ffH
	DB	0ffH
	DB	0ffH
	DB	02eH
	DB	0ffH
	DB	0ffH
	DB	0ffH
	DB	04dH
	DB	0ffH
	DB	0ffH
	DB	0ffH
	DB	04dH
	DB	0ffH
	DB	0ffH
	DB	0ffH
	DB	04dH
	DB	0ffH
	DB	0ffH
	DB	0ffH
	DB	04dH
	DB	0ffH
	DB	0ffH
	DB	0ffH
	DB	04dH
	DB	0ffH
	DB	0ffH
	DB	0ffH
	DB	04dH
	DB	0ffH
	DB	0ffH
	DB	0ffH
	DB	04dH
	DB	0ffH
	DB	0ffH
	DB	0ffH
	DB	04dH
	DB	0ffH
	DB	0ffH
	DB	0ffH
	DB	04dH
	DB	0ffH
	DB	0ffH
	DB	0ffH
	DB	04dH
	DB	0ffH
	DB	0ffH
	DB	0ffH
	DB	04dH
	DB	0ffH
	DB	0ffH
	DB	0ffH
	DB	04dH
	DB	0ffH
	DB	0ffH
	DB	0ffH
	DB	04dH
	DB	0ffH
	DB	0ffH
	DB	0ffH
	DB	04dH
	DB	0ffH
	DB	0ffH
	DB	0ffH
	DB	04dH
	DB	0ffH
	DB	0ffH
	DB	0ffH
	DB	04dH
	DB	0ffH
	DB	0ffH
	DB	0ffH
	DB	04dH
	DB	0ffH
	DB	0ffH
	DB	0ffH
	DB	04dH
	DB	0ffH
	DB	0ffH
	DB	0ffH
	DB	04aH
	DB	0ffH
	DB	0ffH
	DB	0ffH
	DB	030H
	DB	0ffH
	DB	0ffH
	DB	0ffH
	DB	013H
	DB	0ffH
	DB	0ffH
	DB	0ffH
	DB	01H
	DB	0ffH
	DB	0ffH
	DB	0ffH
	DB	00H
	DB	0ffH
	DB	0ffH
	DB	0ffH
	DB	00H
	DB	0ffH
	DB	0ffH
	DB	0ffH
	DB	00H
	DB	0ffH
	DB	0ffH
	DB	0ffH
	DB	00H
	DB	0ffH
	DB	0ffH
	DB	0ffH
	DB	00H
	DB	0ffH
	DB	0ffH
	DB	0ffH
	DB	00H
	DB	0ffH
	DB	0ffH
	DB	0ffH
	DB	00H
	DB	0ffH
	DB	0ffH
	DB	0ffH
	DB	00H
	DB	0ffH
	DB	0ffH
	DB	0ffH
	DB	00H
	DB	0ffH
