; Listing generated by Microsoft (R) Optimizing Compiler Version 19.29.30037.0 

	TITLE	G:\Germany\Scanner\Firmware\Display_Board\TouchGFX\build\Debug\obj\image_keyboard_close.obj
	.686P
	.XMM
	include listing.inc
	.model	flat

INCLUDELIB MSVCRTD
INCLUDELIB OLDNAMES

PUBLIC	?image_keyboard_close@@3QBEB			; image_keyboard_close
CONST	SEGMENT
?image_keyboard_close@@3QBEB DB 0ffH			; image_keyboard_close
	DB	0ffH
	DB	0ffH
	DB	00H
	DB	0ffH
	DB	0ffH
	DB	0ffH
	DB	00H
	DB	0ffH
	DB	0ffH
	DB	0ffH
	DB	00H
	DB	0ffH
	DB	0ffH
	DB	0ffH
	DB	00H
	DB	0ffH
	DB	0ffH
	DB	0ffH
	DB	00H
	DB	0ffH
	DB	0ffH
	DB	0ffH
	DB	00H
	DB	0ffH
	DB	0ffH
	DB	0ffH
	DB	00H
	DB	0ffH
	DB	0ffH
	DB	0ffH
	DB	00H
	DB	0ffH
	DB	0ffH
	DB	0ffH
	DB	00H
	DB	0ffH
	DB	0ffH
	DB	0ffH
	DB	00H
	DB	0ffH
	DB	0ffH
	DB	0ffH
	DB	00H
	DB	0ffH
	DB	0ffH
	DB	0ffH
	DB	00H
	DB	0ffH
	DB	0ffH
	DB	0ffH
	DB	00H
	DB	0ffH
	DB	0ffH
	DB	0ffH
	DB	00H
	DB	0ffH
	DB	0ffH
	DB	0ffH
	DB	00H
	DB	0ffH
	DB	0ffH
	DB	0ffH
	DB	00H
	DB	0ffH
	DB	0ffH
	DB	0ffH
	DB	00H
	DB	0ffH
	DB	0ffH
	DB	0ffH
	DB	00H
	DB	0ffH
	DB	0ffH
	DB	0ffH
	DB	00H
	DB	0ffH
	DB	0ffH
	DB	0ffH
	DB	00H
	DB	0ffH
	DB	0ffH
	DB	0ffH
	DB	00H
	DB	0ffH
	DB	0ffH
	DB	0ffH
	DB	00H
	DB	0ffH
	DB	0ffH
	DB	0ffH
	DB	00H
	DB	0ffH
	DB	0ffH
	DB	0ffH
	DB	00H
	DB	0ffH
	DB	0ffH
	DB	0ffH
	DB	00H
	DB	0ffH
	DB	0ffH
	DB	0ffH
	DB	00H
	DB	0ffH
	DB	0ffH
	DB	0ffH
	DB	00H
	DB	0ffH
	DB	0ffH
	DB	0ffH
	DB	00H
	DB	0ffH
	DB	0ffH
	DB	0ffH
	DB	00H
	DB	0ffH
	DB	0ffH
	DB	0ffH
	DB	00H
	DB	0ffH
	DB	0ffH
	DB	0ffH
	DB	00H
	DB	0ffH
	DB	0ffH
	DB	0ffH
	DB	00H
	DB	0ffH
	DB	0ffH
	DB	0ffH
	DB	00H
	DB	0ffH
	DB	0ffH
	DB	0ffH
	DB	00H
	DB	0ffH
	DB	0ffH
	DB	0ffH
	DB	00H
	DB	0ffH
	DB	0ffH
	DB	0ffH
	DB	00H
	DB	0ffH
	DB	0ffH
	DB	0ffH
	DB	00H
	DB	0ffH
	DB	0ffH
	DB	0ffH
	DB	00H
	DB	0ffH
	DB	0ffH
	DB	0ffH
	DB	00H
	DB	0ffH
	DB	0ffH
	DB	0ffH
	DB	00H
	DB	0ffH
	DB	0ffH
	DB	0ffH
	DB	00H
	DB	0ffH
	DB	0ffH
	DB	0ffH
	DB	00H
	DB	0ffH
	DB	0ffH
	DB	0ffH
	DB	00H
	DB	0ffH
	DB	0ffH
	DB	0ffH
	DB	00H
	DB	0ffH
	DB	0ffH
	DB	0ffH
	DB	00H
	DB	0ffH
	DB	0ffH
	DB	0ffH
	DB	00H
	DB	0ffH
	DB	0ffH
	DB	0ffH
	DB	00H
	DB	0ffH
	DB	0ffH
	DB	0ffH
	DB	00H
	DB	0ffH
	DB	0ffH
	DB	0ffH
	DB	00H
	DB	0ffH
	DB	0ffH
	DB	0ffH
	DB	00H
	DB	0ffH
	DB	0ffH
	DB	0ffH
	DB	00H
	DB	0ffH
	DB	0ffH
	DB	0ffH
	DB	00H
	DB	0ffH
	DB	0ffH
	DB	0ffH
	DB	00H
	DB	0ffH
	DB	0ffH
	DB	0ffH
	DB	00H
	DB	0ffH
	DB	0ffH
	DB	0ffH
	DB	00H
	DB	0ffH
	DB	0ffH
	DB	0ffH
	DB	00H
	DB	0ffH
	DB	0ffH
	DB	0ffH
	DB	00H
	DB	0ffH
	DB	0ffH
	DB	0ffH
	DB	00H
	DB	0ffH
	DB	0ffH
	DB	0ffH
	DB	00H
	DB	0ffH
	DB	0ffH
	DB	0ffH
	DB	00H
	DB	0ffH
	DB	0ffH
	DB	0ffH
	DB	00H
	DB	0ffH
	DB	0ffH
	DB	0ffH
	DB	00H
	DB	0ffH
	DB	0ffH
	DB	0ffH
	DB	00H
	DB	0ffH
	DB	0ffH
	DB	0ffH
	DB	00H
	DB	0ffH
	DB	0ffH
	DB	0ffH
	DB	00H
	DB	0ffH
	DB	0ffH
	DB	0ffH
	DB	00H
	DB	0ffH
	DB	0ffH
	DB	0ffH
	DB	00H
	DB	0ffH
	DB	0ffH
	DB	0ffH
	DB	00H
	DB	0ffH
	DB	0ffH
	DB	0ffH
	DB	00H
	DB	0ffH
	DB	0ffH
	DB	0ffH
	DB	00H
	DB	0ffH
	DB	0ffH
	DB	0ffH
	DB	00H
	DB	0ffH
	DB	0ffH
	DB	0ffH
	DB	00H
	DB	0ffH
	DB	0ffH
	DB	0ffH
	DB	00H
	DB	0ffH
	DB	0ffH
	DB	0ffH
	DB	00H
	DB	0ffH
	DB	0ffH
	DB	0ffH
	DB	00H
	DB	0ffH
	DB	0ffH
	DB	0ffH
	DB	079H
	DB	0ffH
	DB	0ffH
	DB	0ffH
	DB	0f8H
	DB	0ffH
	DB	0ffH
	DB	0ffH
	DB	07dH
	DB	0ffH
	DB	0ffH
	DB	0ffH
	DB	00H
	DB	0ffH
	DB	0ffH
	DB	0ffH
	DB	00H
	DB	0ffH
	DB	0ffH
	DB	0ffH
	DB	00H
	DB	0ffH
	DB	0ffH
	DB	0ffH
	DB	00H
	DB	0ffH
	DB	0ffH
	DB	0ffH
	DB	00H
	DB	0ffH
	DB	0ffH
	DB	0ffH
	DB	00H
	DB	0ffH
	DB	0ffH
	DB	0ffH
	DB	00H
	DB	0ffH
	DB	0ffH
	DB	0ffH
	DB	00H
	DB	0ffH
	DB	0ffH
	DB	0ffH
	DB	00H
	DB	0ffH
	DB	0ffH
	DB	0ffH
	DB	00H
	DB	0ffH
	DB	0ffH
	DB	0ffH
	DB	00H
	DB	0ffH
	DB	0ffH
	DB	0ffH
	DB	01H
	DB	0ffH
	DB	0ffH
	DB	0ffH
	DB	081H
	DB	0ffH
	DB	0ffH
	DB	0ffH
	DB	0f7H
	DB	0ffH
	DB	0ffH
	DB	0ffH
	DB	073H
	DB	0ffH
	DB	0ffH
	DB	0ffH
	DB	00H
	DB	0ffH
	DB	0ffH
	DB	0ffH
	DB	00H
	DB	0ffH
	DB	0ffH
	DB	0ffH
	DB	00H
	DB	0ffH
	DB	0ffH
	DB	0ffH
	DB	00H
	DB	0ffH
	DB	0ffH
	DB	0ffH
	DB	00H
	DB	0ffH
	DB	0ffH
	DB	0ffH
	DB	00H
	DB	0ffH
	DB	0ffH
	DB	0ffH
	DB	0f5H
	DB	0ffH
	DB	0ffH
	DB	0ffH
	DB	0ffH
	DB	0ffH
	DB	0ffH
	DB	0ffH
	DB	0ffH
	DB	0ffH
	DB	0ffH
	DB	0ffH
	DB	09bH
	DB	0ffH
	DB	0ffH
	DB	0ffH
	DB	04H
	DB	0ffH
	DB	0ffH
	DB	0ffH
	DB	00H
	DB	0ffH
	DB	0ffH
	DB	0ffH
	DB	00H
	DB	0ffH
	DB	0ffH
	DB	0ffH
	DB	00H
	DB	0ffH
	DB	0ffH
	DB	0ffH
	DB	00H
	DB	0ffH
	DB	0ffH
	DB	0ffH
	DB	00H
	DB	0ffH
	DB	0ffH
	DB	0ffH
	DB	00H
	DB	0ffH
	DB	0ffH
	DB	0ffH
	DB	00H
	DB	0ffH
	DB	0ffH
	DB	0ffH
	DB	00H
	DB	0ffH
	DB	0ffH
	DB	0ffH
	DB	05H
	DB	0ffH
	DB	0ffH
	DB	0ffH
	DB	09eH
	DB	0ffH
	DB	0ffH
	DB	0ffH
	DB	0ffH
	DB	0ffH
	DB	0ffH
	DB	0ffH
	DB	0ffH
	DB	0ffH
	DB	0ffH
	DB	0ffH
	DB	0ecH
	DB	0ffH
	DB	0ffH
	DB	0ffH
	DB	00H
	DB	0ffH
	DB	0ffH
	DB	0ffH
	DB	00H
	DB	0ffH
	DB	0ffH
	DB	0ffH
	DB	00H
	DB	0ffH
	DB	0ffH
	DB	0ffH
	DB	00H
	DB	0ffH
	DB	0ffH
	DB	0ffH
	DB	00H
	DB	0ffH
	DB	0ffH
	DB	0ffH
	DB	00H
	DB	0ffH
	DB	0ffH
	DB	0ffH
	DB	077H
	DB	0ffH
	DB	0ffH
	DB	0ffH
	DB	0ffH
	DB	0ffH
	DB	0ffH
	DB	0ffH
	DB	0ffH
	DB	0ffH
	DB	0ffH
	DB	0ffH
	DB	0ffH
	DB	0ffH
	DB	0ffH
	DB	0ffH
	DB	0b5H
	DB	0ffH
	DB	0ffH
	DB	0ffH
	DB	0cH
	DB	0ffH
	DB	0ffH
	DB	0ffH
	DB	00H
	DB	0ffH
	DB	0ffH
	DB	0ffH
	DB	00H
	DB	0ffH
	DB	0ffH
	DB	0ffH
	DB	00H
	DB	0ffH
	DB	0ffH
	DB	0ffH
	DB	00H
	DB	0ffH
	DB	0ffH
	DB	0ffH
	DB	00H
	DB	0ffH
	DB	0ffH
	DB	0ffH
	DB	00H
	DB	0ffH
	DB	0ffH
	DB	0ffH
	DB	0dH
	DB	0ffH
	DB	0ffH
	DB	0ffH
	DB	0b8H
	DB	0ffH
	DB	0ffH
	DB	0ffH
	DB	0ffH
	DB	0ffH
	DB	0ffH
	DB	0ffH
	DB	0ffH
	DB	0ffH
	DB	0ffH
	DB	0ffH
	DB	0ffH
	DB	0ffH
	DB	0ffH
	DB	0ffH
	DB	076H
	DB	0ffH
	DB	0ffH
	DB	0ffH
	DB	00H
	DB	0ffH
	DB	0ffH
	DB	0ffH
	DB	00H
	DB	0ffH
	DB	0ffH
	DB	0ffH
	DB	00H
	DB	0ffH
	DB	0ffH
	DB	0ffH
	DB	00H
	DB	0ffH
	DB	0ffH
	DB	0ffH
	DB	00H
	DB	0ffH
	DB	0ffH
	DB	0ffH
	DB	00H
	DB	0ffH
	DB	0ffH
	DB	0ffH
	DB	00H
	DB	0ffH
	DB	0ffH
	DB	0ffH
	DB	096H
	DB	0ffH
	DB	0ffH
	DB	0ffH
	DB	0ffH
	DB	0ffH
	DB	0ffH
	DB	0ffH
	DB	0ffH
	DB	0ffH
	DB	0ffH
	DB	0ffH
	DB	0ffH
	DB	0ffH
	DB	0ffH
	DB	0ffH
	DB	0cbH
	DB	0ffH
	DB	0ffH
	DB	0ffH
	DB	018H
	DB	0ffH
	DB	0ffH
	DB	0ffH
	DB	00H
	DB	0ffH
	DB	0ffH
	DB	0ffH
	DB	00H
	DB	0ffH
	DB	0ffH
	DB	0ffH
	DB	00H
	DB	0ffH
	DB	0ffH
	DB	0ffH
	DB	00H
	DB	0ffH
	DB	0ffH
	DB	0ffH
	DB	019H
	DB	0ffH
	DB	0ffH
	DB	0ffH
	DB	0ceH
	DB	0ffH
	DB	0ffH
	DB	0ffH
	DB	0ffH
	DB	0ffH
	DB	0ffH
	DB	0ffH
	DB	0ffH
	DB	0ffH
	DB	0ffH
	DB	0ffH
	DB	0ffH
	DB	0ffH
	DB	0ffH
	DB	0ffH
	DB	096H
	DB	0ffH
	DB	0ffH
	DB	0ffH
	DB	00H
	DB	0ffH
	DB	0ffH
	DB	0ffH
	DB	00H
	DB	0ffH
	DB	0ffH
	DB	0ffH
	DB	00H
	DB	0ffH
	DB	0ffH
	DB	0ffH
	DB	00H
	DB	0ffH
	DB	0ffH
	DB	0ffH
	DB	00H
	DB	0ffH
	DB	0ffH
	DB	0ffH
	DB	00H
	DB	0ffH
	DB	0ffH
	DB	0ffH
	DB	00H
	DB	0ffH
	DB	0ffH
	DB	0ffH
	DB	00H
	DB	0ffH
	DB	0ffH
	DB	0ffH
	DB	03H
	DB	0ffH
	DB	0ffH
	DB	0ffH
	DB	0b1H
	DB	0ffH
	DB	0ffH
	DB	0ffH
	DB	0ffH
	DB	0ffH
	DB	0ffH
	DB	0ffH
	DB	0ffH
	DB	0ffH
	DB	0ffH
	DB	0ffH
	DB	0ffH
	DB	0ffH
	DB	0ffH
	DB	0ffH
	DB	0deH
	DB	0ffH
	DB	0ffH
	DB	0ffH
	DB	027H
	DB	0ffH
	DB	0ffH
	DB	0ffH
	DB	00H
	DB	0ffH
	DB	0ffH
	DB	0ffH
	DB	00H
	DB	0ffH
	DB	0ffH
	DB	0ffH
	DB	02aH
	DB	0ffH
	DB	0ffH
	DB	0ffH
	DB	0e0H
	DB	0ffH
	DB	0ffH
	DB	0ffH
	DB	0ffH
	DB	0ffH
	DB	0ffH
	DB	0ffH
	DB	0ffH
	DB	0ffH
	DB	0ffH
	DB	0ffH
	DB	0ffH
	DB	0ffH
	DB	0ffH
	DB	0ffH
	DB	0b1H
	DB	0ffH
	DB	0ffH
	DB	0ffH
	DB	03H
	DB	0ffH
	DB	0ffH
	DB	0ffH
	DB	00H
	DB	0ffH
	DB	0ffH
	DB	0ffH
	DB	00H
	DB	0ffH
	DB	0ffH
	DB	0ffH
	DB	00H
	DB	0ffH
	DB	0ffH
	DB	0ffH
	DB	00H
	DB	0ffH
	DB	0ffH
	DB	0ffH
	DB	00H
	DB	0ffH
	DB	0ffH
	DB	0ffH
	DB	00H
	DB	0ffH
	DB	0ffH
	DB	0ffH
	DB	00H
	DB	0ffH
	DB	0ffH
	DB	0ffH
	DB	00H
	DB	0ffH
	DB	0ffH
	DB	0ffH
	DB	00H
	DB	0ffH
	DB	0ffH
	DB	0ffH
	DB	0aH
	DB	0ffH
	DB	0ffH
	DB	0ffH
	DB	0c8H
	DB	0ffH
	DB	0ffH
	DB	0ffH
	DB	0ffH
	DB	0ffH
	DB	0ffH
	DB	0ffH
	DB	0ffH
	DB	0ffH
	DB	0ffH
	DB	0ffH
	DB	0ffH
	DB	0ffH
	DB	0ffH
	DB	0ffH
	DB	0edH
	DB	0ffH
	DB	0ffH
	DB	0ffH
	DB	03bH
	DB	0ffH
	DB	0ffH
	DB	0ffH
	DB	03eH
	DB	0ffH
	DB	0ffH
	DB	0ffH
	DB	0eeH
	DB	0ffH
	DB	0ffH
	DB	0ffH
	DB	0ffH
	DB	0ffH
	DB	0ffH
	DB	0ffH
	DB	0ffH
	DB	0ffH
	DB	0ffH
	DB	0ffH
	DB	0ffH
	DB	0ffH
	DB	0ffH
	DB	0ffH
	DB	0c8H
	DB	0ffH
	DB	0ffH
	DB	0ffH
	DB	0aH
	DB	0ffH
	DB	0ffH
	DB	0ffH
	DB	00H
	DB	0ffH
	DB	0ffH
	DB	0ffH
	DB	00H
	DB	0ffH
	DB	0ffH
	DB	0ffH
	DB	00H
	DB	0ffH
	DB	0ffH
	DB	0ffH
	DB	00H
	DB	0ffH
	DB	0ffH
	DB	0ffH
	DB	00H
	DB	0ffH
	DB	0ffH
	DB	0ffH
	DB	00H
	DB	0ffH
	DB	0ffH
	DB	0ffH
	DB	00H
	DB	0ffH
	DB	0ffH
	DB	0ffH
	DB	00H
	DB	0ffH
	DB	0ffH
	DB	0ffH
	DB	00H
	DB	0ffH
	DB	0ffH
	DB	0ffH
	DB	00H
	DB	0ffH
	DB	0ffH
	DB	0ffH
	DB	00H
	DB	0ffH
	DB	0ffH
	DB	0ffH
	DB	015H
	DB	0ffH
	DB	0ffH
	DB	0ffH
	DB	0dbH
	DB	0ffH
	DB	0ffH
	DB	0ffH
	DB	0ffH
	DB	0ffH
	DB	0ffH
	DB	0ffH
	DB	0ffH
	DB	0ffH
	DB	0ffH
	DB	0ffH
	DB	0ffH
	DB	0ffH
	DB	0ffH
	DB	0ffH
	DB	0f7H
	DB	0ffH
	DB	0ffH
	DB	0ffH
	DB	0f8H
	DB	0ffH
	DB	0ffH
	DB	0ffH
	DB	0ffH
	DB	0ffH
	DB	0ffH
	DB	0ffH
	DB	0ffH
	DB	0ffH
	DB	0ffH
	DB	0ffH
	DB	0ffH
	DB	0ffH
	DB	0ffH
	DB	0ffH
	DB	0dbH
	DB	0ffH
	DB	0ffH
	DB	0ffH
	DB	015H
	DB	0ffH
	DB	0ffH
	DB	0ffH
	DB	00H
	DB	0ffH
	DB	0ffH
	DB	0ffH
	DB	00H
	DB	0ffH
	DB	0ffH
	DB	0ffH
	DB	00H
	DB	0ffH
	DB	0ffH
	DB	0ffH
	DB	00H
	DB	0ffH
	DB	0ffH
	DB	0ffH
	DB	00H
	DB	0ffH
	DB	0ffH
	DB	0ffH
	DB	00H
	DB	0ffH
	DB	0ffH
	DB	0ffH
	DB	00H
	DB	0ffH
	DB	0ffH
	DB	0ffH
	DB	00H
	DB	0ffH
	DB	0ffH
	DB	0ffH
	DB	00H
	DB	0ffH
	DB	0ffH
	DB	0ffH
	DB	00H
	DB	0ffH
	DB	0ffH
	DB	0ffH
	DB	00H
	DB	0ffH
	DB	0ffH
	DB	0ffH
	DB	00H
	DB	0ffH
	DB	0ffH
	DB	0ffH
	DB	00H
	DB	0ffH
	DB	0ffH
	DB	0ffH
	DB	024H
	DB	0ffH
	DB	0ffH
	DB	0ffH
	DB	0eaH
	DB	0ffH
	DB	0ffH
	DB	0ffH
	DB	0ffH
	DB	0ffH
	DB	0ffH
	DB	0ffH
	DB	0ffH
	DB	0ffH
	DB	0ffH
	DB	0ffH
	DB	0ffH
	DB	0ffH
	DB	0ffH
	DB	0ffH
	DB	0ffH
	DB	0ffH
	DB	0ffH
	DB	0ffH
	DB	0ffH
	DB	0ffH
	DB	0ffH
	DB	0ffH
	DB	0ffH
	DB	0ffH
	DB	0ffH
	DB	0ffH
	DB	0eaH
	DB	0ffH
	DB	0ffH
	DB	0ffH
	DB	024H
	DB	0ffH
	DB	0ffH
	DB	0ffH
	DB	00H
	DB	0ffH
	DB	0ffH
	DB	0ffH
	DB	00H
	DB	0ffH
	DB	0ffH
	DB	0ffH
	DB	00H
	DB	0ffH
	DB	0ffH
	DB	0ffH
	DB	00H
	DB	0ffH
	DB	0ffH
	DB	0ffH
	DB	00H
	DB	0ffH
	DB	0ffH
	DB	0ffH
	DB	00H
	DB	0ffH
	DB	0ffH
	DB	0ffH
	DB	00H
	DB	0ffH
	DB	0ffH
	DB	0ffH
	DB	00H
	DB	0ffH
	DB	0ffH
	DB	0ffH
	DB	00H
	DB	0ffH
	DB	0ffH
	DB	0ffH
	DB	00H
	DB	0ffH
	DB	0ffH
	DB	0ffH
	DB	00H
	DB	0ffH
	DB	0ffH
	DB	0ffH
	DB	00H
	DB	0ffH
	DB	0ffH
	DB	0ffH
	DB	00H
	DB	0ffH
	DB	0ffH
	DB	0ffH
	DB	00H
	DB	0ffH
	DB	0ffH
	DB	0ffH
	DB	00H
	DB	0ffH
	DB	0ffH
	DB	0ffH
	DB	037H
	DB	0ffH
	DB	0ffH
	DB	0ffH
	DB	0f5H
	DB	0ffH
	DB	0ffH
	DB	0ffH
	DB	0ffH
	DB	0ffH
	DB	0ffH
	DB	0ffH
	DB	0ffH
	DB	0ffH
	DB	0ffH
	DB	0ffH
	DB	0ffH
	DB	0ffH
	DB	0ffH
	DB	0ffH
	DB	0ffH
	DB	0ffH
	DB	0ffH
	DB	0ffH
	DB	0f5H
	DB	0ffH
	DB	0ffH
	DB	0ffH
	DB	037H
	DB	0ffH
	DB	0ffH
	DB	0ffH
	DB	00H
	DB	0ffH
	DB	0ffH
	DB	0ffH
	DB	00H
	DB	0ffH
	DB	0ffH
	DB	0ffH
	DB	00H
	DB	0ffH
	DB	0ffH
	DB	0ffH
	DB	00H
	DB	0ffH
	DB	0ffH
	DB	0ffH
	DB	00H
	DB	0ffH
	DB	0ffH
	DB	0ffH
	DB	00H
	DB	0ffH
	DB	0ffH
	DB	0ffH
	DB	00H
	DB	0ffH
	DB	0ffH
	DB	0ffH
	DB	00H
	DB	0ffH
	DB	0ffH
	DB	0ffH
	DB	00H
	DB	0ffH
	DB	0ffH
	DB	0ffH
	DB	00H
	DB	0ffH
	DB	0ffH
	DB	0ffH
	DB	00H
	DB	0ffH
	DB	0ffH
	DB	0ffH
	DB	00H
	DB	0ffH
	DB	0ffH
	DB	0ffH
	DB	00H
	DB	0ffH
	DB	0ffH
	DB	0ffH
	DB	00H
	DB	0ffH
	DB	0ffH
	DB	0ffH
	DB	00H
	DB	0ffH
	DB	0ffH
	DB	0ffH
	DB	00H
	DB	0ffH
	DB	0ffH
	DB	0ffH
	DB	037H
	DB	0ffH
	DB	0ffH
	DB	0ffH
	DB	0f5H
	DB	0ffH
	DB	0ffH
	DB	0ffH
	DB	0ffH
	DB	0ffH
	DB	0ffH
	DB	0ffH
	DB	0ffH
	DB	0ffH
	DB	0ffH
	DB	0ffH
	DB	0ffH
	DB	0ffH
	DB	0ffH
	DB	0ffH
	DB	0ffH
	DB	0ffH
	DB	0ffH
	DB	0ffH
	DB	0f5H
	DB	0ffH
	DB	0ffH
	DB	0ffH
	DB	037H
	DB	0ffH
	DB	0ffH
	DB	0ffH
	DB	00H
	DB	0ffH
	DB	0ffH
	DB	0ffH
	DB	00H
	DB	0ffH
	DB	0ffH
	DB	0ffH
	DB	00H
	DB	0ffH
	DB	0ffH
	DB	0ffH
	DB	00H
	DB	0ffH
	DB	0ffH
	DB	0ffH
	DB	00H
	DB	0ffH
	DB	0ffH
	DB	0ffH
	DB	00H
	DB	0ffH
	DB	0ffH
	DB	0ffH
	DB	00H
	DB	0ffH
	DB	0ffH
	DB	0ffH
	DB	00H
	DB	0ffH
	DB	0ffH
	DB	0ffH
	DB	00H
	DB	0ffH
	DB	0ffH
	DB	0ffH
	DB	00H
	DB	0ffH
	DB	0ffH
	DB	0ffH
	DB	00H
	DB	0ffH
	DB	0ffH
	DB	0ffH
	DB	00H
	DB	0ffH
	DB	0ffH
	DB	0ffH
	DB	00H
	DB	0ffH
	DB	0ffH
	DB	0ffH
	DB	00H
	DB	0ffH
	DB	0ffH
	DB	0ffH
	DB	00H
	DB	0ffH
	DB	0ffH
	DB	0ffH
	DB	024H
	DB	0ffH
	DB	0ffH
	DB	0ffH
	DB	0eaH
	DB	0ffH
	DB	0ffH
	DB	0ffH
	DB	0ffH
	DB	0ffH
	DB	0ffH
	DB	0ffH
	DB	0ffH
	DB	0ffH
	DB	0ffH
	DB	0ffH
	DB	0ffH
	DB	0ffH
	DB	0ffH
	DB	0ffH
	DB	0ffH
	DB	0ffH
	DB	0ffH
	DB	0ffH
	DB	0ffH
	DB	0ffH
	DB	0ffH
	DB	0ffH
	DB	0ffH
	DB	0ffH
	DB	0ffH
	DB	0ffH
	DB	0eaH
	DB	0ffH
	DB	0ffH
	DB	0ffH
	DB	024H
	DB	0ffH
	DB	0ffH
	DB	0ffH
	DB	00H
	DB	0ffH
	DB	0ffH
	DB	0ffH
	DB	00H
	DB	0ffH
	DB	0ffH
	DB	0ffH
	DB	00H
	DB	0ffH
	DB	0ffH
	DB	0ffH
	DB	00H
	DB	0ffH
	DB	0ffH
	DB	0ffH
	DB	00H
	DB	0ffH
	DB	0ffH
	DB	0ffH
	DB	00H
	DB	0ffH
	DB	0ffH
	DB	0ffH
	DB	00H
	DB	0ffH
	DB	0ffH
	DB	0ffH
	DB	00H
	DB	0ffH
	DB	0ffH
	DB	0ffH
	DB	00H
	DB	0ffH
	DB	0ffH
	DB	0ffH
	DB	00H
	DB	0ffH
	DB	0ffH
	DB	0ffH
	DB	00H
	DB	0ffH
	DB	0ffH
	DB	0ffH
	DB	00H
	DB	0ffH
	DB	0ffH
	DB	0ffH
	DB	00H
	DB	0ffH
	DB	0ffH
	DB	0ffH
	DB	015H
	DB	0ffH
	DB	0ffH
	DB	0ffH
	DB	0dbH
	DB	0ffH
	DB	0ffH
	DB	0ffH
	DB	0ffH
	DB	0ffH
	DB	0ffH
	DB	0ffH
	DB	0ffH
	DB	0ffH
	DB	0ffH
	DB	0ffH
	DB	0ffH
	DB	0ffH
	DB	0ffH
	DB	0ffH
	DB	0f4H
	DB	0ffH
	DB	0ffH
	DB	0ffH
	DB	0f6H
	DB	0ffH
	DB	0ffH
	DB	0ffH
	DB	0ffH
	DB	0ffH
	DB	0ffH
	DB	0ffH
	DB	0ffH
	DB	0ffH
	DB	0ffH
	DB	0ffH
	DB	0ffH
	DB	0ffH
	DB	0ffH
	DB	0ffH
	DB	0dbH
	DB	0ffH
	DB	0ffH
	DB	0ffH
	DB	015H
	DB	0ffH
	DB	0ffH
	DB	0ffH
	DB	00H
	DB	0ffH
	DB	0ffH
	DB	0ffH
	DB	00H
	DB	0ffH
	DB	0ffH
	DB	0ffH
	DB	00H
	DB	0ffH
	DB	0ffH
	DB	0ffH
	DB	00H
	DB	0ffH
	DB	0ffH
	DB	0ffH
	DB	00H
	DB	0ffH
	DB	0ffH
	DB	0ffH
	DB	00H
	DB	0ffH
	DB	0ffH
	DB	0ffH
	DB	00H
	DB	0ffH
	DB	0ffH
	DB	0ffH
	DB	00H
	DB	0ffH
	DB	0ffH
	DB	0ffH
	DB	00H
	DB	0ffH
	DB	0ffH
	DB	0ffH
	DB	00H
	DB	0ffH
	DB	0ffH
	DB	0ffH
	DB	00H
	DB	0ffH
	DB	0ffH
	DB	0ffH
	DB	0aH
	DB	0ffH
	DB	0ffH
	DB	0ffH
	DB	0c8H
	DB	0ffH
	DB	0ffH
	DB	0ffH
	DB	0ffH
	DB	0ffH
	DB	0ffH
	DB	0ffH
	DB	0ffH
	DB	0ffH
	DB	0ffH
	DB	0ffH
	DB	0ffH
	DB	0ffH
	DB	0ffH
	DB	0ffH
	DB	0e8H
	DB	0ffH
	DB	0ffH
	DB	0ffH
	DB	035H
	DB	0ffH
	DB	0ffH
	DB	0ffH
	DB	038H
	DB	0ffH
	DB	0ffH
	DB	0ffH
	DB	0ebH
	DB	0ffH
	DB	0ffH
	DB	0ffH
	DB	0ffH
	DB	0ffH
	DB	0ffH
	DB	0ffH
	DB	0ffH
	DB	0ffH
	DB	0ffH
	DB	0ffH
	DB	0ffH
	DB	0ffH
	DB	0ffH
	DB	0ffH
	DB	0c8H
	DB	0ffH
	DB	0ffH
	DB	0ffH
	DB	0aH
	DB	0ffH
	DB	0ffH
	DB	0ffH
	DB	00H
	DB	0ffH
	DB	0ffH
	DB	0ffH
	DB	00H
	DB	0ffH
	DB	0ffH
	DB	0ffH
	DB	00H
	DB	0ffH
	DB	0ffH
	DB	0ffH
	DB	00H
	DB	0ffH
	DB	0ffH
	DB	0ffH
	DB	00H
	DB	0ffH
	DB	0ffH
	DB	0ffH
	DB	00H
	DB	0ffH
	DB	0ffH
	DB	0ffH
	DB	00H
	DB	0ffH
	DB	0ffH
	DB	0ffH
	DB	00H
	DB	0ffH
	DB	0ffH
	DB	0ffH
	DB	00H
	DB	0ffH
	DB	0ffH
	DB	0ffH
	DB	03H
	DB	0ffH
	DB	0ffH
	DB	0ffH
	DB	0b1H
	DB	0ffH
	DB	0ffH
	DB	0ffH
	DB	0ffH
	DB	0ffH
	DB	0ffH
	DB	0ffH
	DB	0ffH
	DB	0ffH
	DB	0ffH
	DB	0ffH
	DB	0ffH
	DB	0ffH
	DB	0ffH
	DB	0ffH
	DB	0daH
	DB	0ffH
	DB	0ffH
	DB	0ffH
	DB	022H
	DB	0ffH
	DB	0ffH
	DB	0ffH
	DB	00H
	DB	0ffH
	DB	0ffH
	DB	0ffH
	DB	00H
	DB	0ffH
	DB	0ffH
	DB	0ffH
	DB	025H
	DB	0ffH
	DB	0ffH
	DB	0ffH
	DB	0dcH
	DB	0ffH
	DB	0ffH
	DB	0ffH
	DB	0ffH
	DB	0ffH
	DB	0ffH
	DB	0ffH
	DB	0ffH
	DB	0ffH
	DB	0ffH
	DB	0ffH
	DB	0ffH
	DB	0ffH
	DB	0ffH
	DB	0ffH
	DB	0b1H
	DB	0ffH
	DB	0ffH
	DB	0ffH
	DB	03H
	DB	0ffH
	DB	0ffH
	DB	0ffH
	DB	00H
	DB	0ffH
	DB	0ffH
	DB	0ffH
	DB	00H
	DB	0ffH
	DB	0ffH
	DB	0ffH
	DB	00H
	DB	0ffH
	DB	0ffH
	DB	0ffH
	DB	00H
	DB	0ffH
	DB	0ffH
	DB	0ffH
	DB	00H
	DB	0ffH
	DB	0ffH
	DB	0ffH
	DB	00H
	DB	0ffH
	DB	0ffH
	DB	0ffH
	DB	00H
	DB	0ffH
	DB	0ffH
	DB	0ffH
	DB	00H
	DB	0ffH
	DB	0ffH
	DB	0ffH
	DB	096H
	DB	0ffH
	DB	0ffH
	DB	0ffH
	DB	0ffH
	DB	0ffH
	DB	0ffH
	DB	0ffH
	DB	0ffH
	DB	0ffH
	DB	0ffH
	DB	0ffH
	DB	0ffH
	DB	0ffH
	DB	0ffH
	DB	0ffH
	DB	0c7H
	DB	0ffH
	DB	0ffH
	DB	0ffH
	DB	014H
	DB	0ffH
	DB	0ffH
	DB	0ffH
	DB	00H
	DB	0ffH
	DB	0ffH
	DB	0ffH
	DB	00H
	DB	0ffH
	DB	0ffH
	DB	0ffH
	DB	00H
	DB	0ffH
	DB	0ffH
	DB	0ffH
	DB	00H
	DB	0ffH
	DB	0ffH
	DB	0ffH
	DB	016H
	DB	0ffH
	DB	0ffH
	DB	0ffH
	DB	0c9H
	DB	0ffH
	DB	0ffH
	DB	0ffH
	DB	0ffH
	DB	0ffH
	DB	0ffH
	DB	0ffH
	DB	0ffH
	DB	0ffH
	DB	0ffH
	DB	0ffH
	DB	0ffH
	DB	0ffH
	DB	0ffH
	DB	0ffH
	DB	096H
	DB	0ffH
	DB	0ffH
	DB	0ffH
	DB	00H
	DB	0ffH
	DB	0ffH
	DB	0ffH
	DB	00H
	DB	0ffH
	DB	0ffH
	DB	0ffH
	DB	00H
	DB	0ffH
	DB	0ffH
	DB	0ffH
	DB	00H
	DB	0ffH
	DB	0ffH
	DB	0ffH
	DB	00H
	DB	0ffH
	DB	0ffH
	DB	0ffH
	DB	00H
	DB	0ffH
	DB	0ffH
	DB	0ffH
	DB	00H
	DB	0ffH
	DB	0ffH
	DB	0ffH
	DB	078H
	DB	0ffH
	DB	0ffH
	DB	0ffH
	DB	0ffH
	DB	0ffH
	DB	0ffH
	DB	0ffH
	DB	0ffH
	DB	0ffH
	DB	0ffH
	DB	0ffH
	DB	0ffH
	DB	0ffH
	DB	0ffH
	DB	0ffH
	DB	0afH
	DB	0ffH
	DB	0ffH
	DB	0ffH
	DB	09H
	DB	0ffH
	DB	0ffH
	DB	0ffH
	DB	00H
	DB	0ffH
	DB	0ffH
	DB	0ffH
	DB	00H
	DB	0ffH
	DB	0ffH
	DB	0ffH
	DB	00H
	DB	0ffH
	DB	0ffH
	DB	0ffH
	DB	00H
	DB	0ffH
	DB	0ffH
	DB	0ffH
	DB	00H
	DB	0ffH
	DB	0ffH
	DB	0ffH
	DB	00H
	DB	0ffH
	DB	0ffH
	DB	0ffH
	DB	0bH
	DB	0ffH
	DB	0ffH
	DB	0ffH
	DB	0b2H
	DB	0ffH
	DB	0ffH
	DB	0ffH
	DB	0ffH
	DB	0ffH
	DB	0ffH
	DB	0ffH
	DB	0ffH
	DB	0ffH
	DB	0ffH
	DB	0ffH
	DB	0ffH
	DB	0ffH
	DB	0ffH
	DB	0ffH
	DB	077H
	DB	0ffH
	DB	0ffH
	DB	0ffH
	DB	00H
	DB	0ffH
	DB	0ffH
	DB	0ffH
	DB	00H
	DB	0ffH
	DB	0ffH
	DB	0ffH
	DB	00H
	DB	0ffH
	DB	0ffH
	DB	0ffH
	DB	00H
	DB	0ffH
	DB	0ffH
	DB	0ffH
	DB	00H
	DB	0ffH
	DB	0ffH
	DB	0ffH
	DB	00H
	DB	0ffH
	DB	0ffH
	DB	0ffH
	DB	0f3H
	DB	0ffH
	DB	0ffH
	DB	0ffH
	DB	0ffH
	DB	0ffH
	DB	0ffH
	DB	0ffH
	DB	0ffH
	DB	0ffH
	DB	0ffH
	DB	0ffH
	DB	093H
	DB	0ffH
	DB	0ffH
	DB	0ffH
	DB	03H
	DB	0ffH
	DB	0ffH
	DB	0ffH
	DB	00H
	DB	0ffH
	DB	0ffH
	DB	0ffH
	DB	00H
	DB	0ffH
	DB	0ffH
	DB	0ffH
	DB	00H
	DB	0ffH
	DB	0ffH
	DB	0ffH
	DB	00H
	DB	0ffH
	DB	0ffH
	DB	0ffH
	DB	00H
	DB	0ffH
	DB	0ffH
	DB	0ffH
	DB	00H
	DB	0ffH
	DB	0ffH
	DB	0ffH
	DB	00H
	DB	0ffH
	DB	0ffH
	DB	0ffH
	DB	00H
	DB	0ffH
	DB	0ffH
	DB	0ffH
	DB	03H
	DB	0ffH
	DB	0ffH
	DB	0ffH
	DB	098H
	DB	0ffH
	DB	0ffH
	DB	0ffH
	DB	0ffH
	DB	0ffH
	DB	0ffH
	DB	0ffH
	DB	0ffH
	DB	0ffH
	DB	0ffH
	DB	0ffH
	DB	0f1H
	DB	0ffH
	DB	0ffH
	DB	0ffH
	DB	00H
	DB	0ffH
	DB	0ffH
	DB	0ffH
	DB	00H
	DB	0ffH
	DB	0ffH
	DB	0ffH
	DB	00H
	DB	0ffH
	DB	0ffH
	DB	0ffH
	DB	00H
	DB	0ffH
	DB	0ffH
	DB	0ffH
	DB	00H
	DB	0ffH
	DB	0ffH
	DB	0ffH
	DB	00H
	DB	0ffH
	DB	0ffH
	DB	0ffH
	DB	073H
	DB	0ffH
	DB	0ffH
	DB	0ffH
	DB	0efH
	DB	0ffH
	DB	0ffH
	DB	0ffH
	DB	076H
	DB	0ffH
	DB	0ffH
	DB	0ffH
	DB	00H
	DB	0ffH
	DB	0ffH
	DB	0ffH
	DB	00H
	DB	0ffH
	DB	0ffH
	DB	0ffH
	DB	00H
	DB	0ffH
	DB	0ffH
	DB	0ffH
	DB	00H
	DB	0ffH
	DB	0ffH
	DB	0ffH
	DB	00H
	DB	0ffH
	DB	0ffH
	DB	0ffH
	DB	00H
	DB	0ffH
	DB	0ffH
	DB	0ffH
	DB	00H
	DB	0ffH
	DB	0ffH
	DB	0ffH
	DB	00H
	DB	0ffH
	DB	0ffH
	DB	0ffH
	DB	00H
	DB	0ffH
	DB	0ffH
	DB	0ffH
	DB	00H
	DB	0ffH
	DB	0ffH
	DB	0ffH
	DB	00H
	DB	0ffH
	DB	0ffH
	DB	0ffH
	DB	00H
	DB	0ffH
	DB	0ffH
	DB	0ffH
	DB	07aH
	DB	0ffH
	DB	0ffH
	DB	0ffH
	DB	0eeH
	DB	0ffH
	DB	0ffH
	DB	0ffH
	DB	06eH
	DB	0ffH
	DB	0ffH
	DB	0ffH
	DB	00H
	DB	0ffH
	DB	0ffH
	DB	0ffH
	DB	00H
	DB	0ffH
	DB	0ffH
	DB	0ffH
	DB	00H
	DB	0ffH
	DB	0ffH
	DB	0ffH
	DB	00H
	DB	0ffH
	DB	0ffH
	DB	0ffH
	DB	00H
	DB	0ffH
	DB	0ffH
	DB	0ffH
	DB	00H
	DB	0ffH
	DB	0ffH
	DB	0ffH
	DB	00H
	DB	0ffH
	DB	0ffH
	DB	0ffH
	DB	00H
	DB	0ffH
	DB	0ffH
	DB	0ffH
	DB	00H
	DB	0ffH
	DB	0ffH
	DB	0ffH
	DB	00H
	DB	0ffH
	DB	0ffH
	DB	0ffH
	DB	00H
	DB	0ffH
	DB	0ffH
	DB	0ffH
	DB	00H
	DB	0ffH
	DB	0ffH
	DB	0ffH
	DB	00H
	DB	0ffH
	DB	0ffH
	DB	0ffH
	DB	00H
	DB	0ffH
	DB	0ffH
	DB	0ffH
	DB	00H
	DB	0ffH
	DB	0ffH
	DB	0ffH
	DB	00H
	DB	0ffH
	DB	0ffH
	DB	0ffH
	DB	00H
	DB	0ffH
	DB	0ffH
	DB	0ffH
	DB	00H
	DB	0ffH
	DB	0ffH
	DB	0ffH
	DB	00H
	DB	0ffH
	DB	0ffH
	DB	0ffH
	DB	00H
	DB	0ffH
	DB	0ffH
	DB	0ffH
	DB	00H
	DB	0ffH
	DB	0ffH
	DB	0ffH
	DB	00H
	DB	0ffH
	DB	0ffH
	DB	0ffH
	DB	00H
	DB	0ffH
	DB	0ffH
	DB	0ffH
	DB	00H
	DB	0ffH
	DB	0ffH
	DB	0ffH
	DB	00H
	DB	0ffH
	DB	0ffH
	DB	0ffH
	DB	00H
	DB	0ffH
	DB	0ffH
	DB	0ffH
	DB	00H
	DB	0ffH
	DB	0ffH
	DB	0ffH
	DB	00H
	DB	0ffH
	DB	0ffH
	DB	0ffH
	DB	00H
	DB	0ffH
	DB	0ffH
	DB	0ffH
	DB	00H
	DB	0ffH
	DB	0ffH
	DB	0ffH
	DB	00H
	DB	0ffH
	DB	0ffH
	DB	0ffH
	DB	00H
	DB	0ffH
	DB	0ffH
	DB	0ffH
	DB	00H
	DB	0ffH
	DB	0ffH
	DB	0ffH
	DB	00H
	DB	0ffH
	DB	0ffH
	DB	0ffH
	DB	00H
	DB	0ffH
	DB	0ffH
	DB	0ffH
	DB	00H
	DB	0ffH
	DB	0ffH
	DB	0ffH
	DB	00H
	DB	0ffH
	DB	0ffH
	DB	0ffH
	DB	00H
	DB	0ffH
	DB	0ffH
	DB	0ffH
	DB	00H
	DB	0ffH
	DB	0ffH
	DB	0ffH
	DB	00H
	DB	0ffH
	DB	0ffH
	DB	0ffH
	DB	00H
	DB	0ffH
	DB	0ffH
	DB	0ffH
	DB	00H
	DB	0ffH
	DB	0ffH
	DB	0ffH
	DB	00H
	DB	0ffH
	DB	0ffH
	DB	0ffH
	DB	00H
	DB	0ffH
	DB	0ffH
	DB	0ffH
	DB	00H
	DB	0ffH
	DB	0ffH
	DB	0ffH
	DB	00H
	DB	0ffH
	DB	0ffH
	DB	0ffH
	DB	00H
	DB	0ffH
	DB	0ffH
	DB	0ffH
	DB	00H
	DB	0ffH
	DB	0ffH
	DB	0ffH
	DB	00H
	DB	0ffH
	DB	0ffH
	DB	0ffH
	DB	00H
	DB	0ffH
	DB	0ffH
	DB	0ffH
	DB	00H
	DB	0ffH
	DB	0ffH
	DB	0ffH
	DB	00H
	DB	0ffH
	DB	0ffH
	DB	0ffH
	DB	00H
	DB	0ffH
	DB	0ffH
	DB	0ffH
	DB	00H
	DB	0ffH
	DB	0ffH
	DB	0ffH
	DB	00H
	DB	0ffH
	DB	0ffH
	DB	0ffH
	DB	00H
	DB	0ffH
	DB	0ffH
	DB	0ffH
	DB	00H
	DB	0ffH
	DB	0ffH
	DB	0ffH
	DB	00H
	DB	0ffH
	DB	0ffH
	DB	0ffH
	DB	00H
	DB	0ffH
	DB	0ffH
	DB	0ffH
	DB	00H
	DB	0ffH
	DB	0ffH
	DB	0ffH
	DB	00H
	DB	0ffH
	DB	0ffH
	DB	0ffH
	DB	00H
	DB	0ffH
	DB	0ffH
	DB	0ffH
	DB	00H
	DB	0ffH
	DB	0ffH
	DB	0ffH
	DB	00H
	DB	0ffH
	DB	0ffH
	DB	0ffH
	DB	00H
	DB	0ffH
	DB	0ffH
	DB	0ffH
	DB	00H
	DB	0ffH
	DB	0ffH
	DB	0ffH
	DB	00H
	DB	0ffH
	DB	0ffH
	DB	0ffH
	DB	00H
	DB	0ffH
	DB	0ffH
	DB	0ffH
	DB	00H
	DB	0ffH
	DB	0ffH
	DB	0ffH
	DB	00H
	DB	0ffH
	DB	0ffH
	DB	0ffH
	DB	00H
	DB	0ffH
	DB	0ffH
	DB	0ffH
	DB	00H
	DB	0ffH
	DB	0ffH
	DB	0ffH
	DB	00H
	DB	0ffH
	DB	0ffH
	DB	0ffH
	DB	00H
	DB	0ffH
	DB	0ffH
	DB	0ffH
	DB	00H
CONST	ENDS
END
