; Listing generated by Microsoft (R) Optimizing Compiler Version 19.29.30037.0 

	TITLE	G:\Germany\Scanner\Firmware\Display_Board\TouchGFX\build\Debug\obj\image_Blue_Slider_Horizontal_Large_Slider_Round_back.obj
	.686P
	.XMM
	include listing.inc
	.model	flat

INCLUDELIB MSVCRTD
INCLUDELIB OLDNAMES

PUBLIC	?image_blue_slider_horizontal_large_slider_round_back@@3QBEB ; image_blue_slider_horizontal_large_slider_round_back
CONST	SEGMENT
?image_blue_slider_horizontal_large_slider_round_back@@3QBEB DB 00H ; image_blue_slider_horizontal_large_slider_round_back
	DB	00H
	DB	00H
	DB	00H
	DB	00H
	DB	00H
	DB	00H
	DB	00H
	DB	00H
	DB	00H
	DB	00H
	DB	00H
	DB	00H
	DB	00H
	DB	00H
	DB	00H
	DB	00H
	DB	00H
	DB	00H
	DB	00H
	DB	00H
	DB	00H
	DB	00H
	DB	00H
	DB	00H
	DB	00H
	DB	00H
	DB	00H
	DB	00H
	DB	00H
	DB	00H
	DB	00H
	DB	00H
	DB	00H
	DB	00H
	DB	00H
	DB	00H
	DB	00H
	DB	00H
	DB	00H
	DB	00H
	DB	00H
	DB	00H
	DB	00H
	DB	00H
	DB	00H
	DB	00H
	DB	00H
	DB	00H
	DB	00H
	DB	00H
	DB	00H
	DB	00H
	DB	00H
	DB	00H
	DB	00H
	DB	00H
	DB	00H
	DB	00H
	DB	00H
	DB	00H
	DB	00H
	DB	00H
	DB	00H
	DB	00H
	DB	00H
	DB	00H
	DB	00H
	DB	00H
	DB	00H
	DB	00H
	DB	00H
	DB	00H
	DB	00H
	DB	00H
	DB	00H
	DB	00H
	DB	00H
	DB	00H
	DB	00H
	DB	00H
	DB	00H
	DB	00H
	DB	00H
	DB	00H
	DB	00H
	DB	00H
	DB	00H
	DB	00H
	DB	00H
	DB	00H
	DB	00H
	DB	00H
	DB	00H
	DB	00H
	DB	00H
	DB	00H
	DB	00H
	DB	00H
	DB	00H
	DB	00H
	DB	00H
	DB	00H
	DB	00H
	DB	00H
	DB	00H
	DB	00H
	DB	00H
	DB	00H
	DB	00H
	DB	00H
	DB	00H
	DB	00H
	DB	00H
	DB	00H
	DB	00H
	DB	00H
	DB	00H
	DB	00H
	DB	00H
	DB	00H
	DB	00H
	DB	00H
	DB	00H
	DB	00H
	DB	00H
	DB	00H
	DB	00H
	DB	00H
	DB	00H
	DB	00H
	DB	00H
	DB	00H
	DB	00H
	DB	00H
	DB	00H
	DB	00H
	DB	00H
	DB	00H
	DB	00H
	DB	00H
	DB	00H
	DB	00H
	DB	00H
	DB	00H
	DB	00H
	DB	00H
	DB	00H
	DB	00H
	DB	00H
	DB	00H
	DB	00H
	DB	00H
	DB	00H
	DB	00H
	DB	00H
	DB	00H
	DB	00H
	DB	00H
	DB	00H
	DB	00H
	DB	00H
	DB	00H
	DB	00H
	DB	00H
	DB	00H
	DB	00H
	DB	00H
	DB	00H
	DB	00H
	DB	00H
	DB	00H
	DB	00H
	DB	00H
	DB	00H
	DB	00H
	DB	00H
	DB	00H
	DB	00H
	DB	00H
	DB	00H
	DB	00H
	DB	00H
	DB	00H
	DB	00H
	DB	00H
	DB	00H
	DB	00H
	DB	00H
	DB	00H
	DB	00H
	DB	00H
	DB	00H
	DB	00H
	DB	00H
	DB	00H
	DB	00H
	DB	00H
	DB	00H
	DB	00H
	DB	00H
	DB	00H
	DB	00H
	DB	00H
	DB	00H
	DB	00H
	DB	00H
	DB	00H
	DB	00H
	DB	00H
	DB	00H
	DB	00H
	DB	00H
	DB	00H
	DB	00H
	DB	00H
	DB	00H
	DB	00H
	DB	00H
	DB	00H
	DB	00H
	DB	00H
	DB	00H
	DB	00H
	DB	00H
	DB	00H
	DB	00H
	DB	00H
	DB	00H
	DB	00H
	DB	00H
	DB	00H
	DB	00H
	DB	00H
	DB	00H
	DB	00H
	DB	00H
	DB	00H
	DB	00H
	DB	00H
	DB	00H
	DB	00H
	DB	00H
	DB	00H
	DB	00H
	DB	00H
	DB	00H
	DB	00H
	DB	00H
	DB	00H
	DB	00H
	DB	00H
	DB	00H
	DB	00H
	DB	00H
	DB	00H
	DB	00H
	DB	00H
	DB	00H
	DB	00H
	DB	00H
	DB	00H
	DB	00H
	DB	00H
	DB	00H
	DB	00H
	DB	00H
	DB	00H
	DB	00H
	DB	00H
	DB	00H
	DB	00H
	DB	00H
	DB	00H
	DB	00H
	DB	00H
	DB	00H
	DB	00H
	DB	00H
	DB	00H
	DB	00H
	DB	00H
	DB	00H
	DB	00H
	DB	00H
	DB	00H
	DB	00H
	DB	00H
	DB	00H
	DB	00H
	DB	00H
	DB	00H
	DB	00H
	DB	00H
	DB	00H
	DB	00H
	DB	00H
	DB	00H
	DB	00H
	DB	00H
	DB	00H
	DB	00H
	DB	00H
	DB	00H
	DB	00H
	DB	00H
	DB	00H
	DB	00H
	DB	00H
	DB	00H
	DB	00H
	DB	00H
	DB	00H
	DB	00H
	DB	00H
	DB	00H
	DB	00H
	DB	00H
	DB	00H
	DB	00H
	DB	00H
	DB	00H
	DB	00H
	DB	00H
	DB	00H
	DB	00H
	DB	00H
	DB	00H
	DB	00H
	DB	00H
	DB	00H
	DB	00H
	DB	00H
	DB	00H
	DB	00H
	DB	00H
	DB	00H
	DB	00H
	DB	00H
	DB	00H
	DB	00H
	DB	00H
	DB	00H
	DB	00H
	DB	00H
	DB	00H
	DB	00H
	DB	00H
	DB	00H
	DB	00H
	DB	00H
	DB	00H
	DB	00H
	DB	00H
	DB	00H
	DB	00H
	DB	00H
	DB	00H
	DB	00H
	DB	00H
	DB	00H
	DB	00H
	DB	00H
	DB	00H
	DB	00H
	DB	00H
	DB	00H
	DB	00H
	DB	00H
	DB	00H
	DB	00H
	DB	00H
	DB	00H
	DB	00H
	DB	00H
	DB	00H
	DB	00H
	DB	00H
	DB	00H
	DB	00H
	DB	00H
	DB	00H
	DB	00H
	DB	00H
	DB	00H
	DB	00H
	DB	00H
	DB	00H
	DB	00H
	DB	00H
	DB	00H
	DB	00H
	DB	00H
	DB	00H
	DB	00H
	DB	00H
	DB	00H
	DB	00H
	DB	00H
	DB	00H
	DB	00H
	DB	00H
	DB	00H
	DB	00H
	DB	00H
	DB	00H
	DB	00H
	DB	00H
	DB	00H
	DB	00H
	DB	00H
	DB	00H
	DB	00H
	DB	00H
	DB	00H
	DB	00H
	DB	00H
	DB	00H
	DB	00H
	DB	00H
	DB	00H
	DB	00H
	DB	00H
	DB	00H
	DB	00H
	DB	00H
	DB	00H
	DB	00H
	DB	00H
	DB	00H
	DB	00H
	DB	00H
	DB	00H
	DB	00H
	DB	00H
	DB	00H
	DB	00H
	DB	00H
	DB	00H
	DB	00H
	DB	00H
	DB	00H
	DB	00H
	DB	00H
	DB	00H
	DB	00H
	DB	00H
	DB	00H
	DB	00H
	DB	00H
	DB	00H
	DB	00H
	DB	00H
	DB	00H
	DB	00H
	DB	00H
	DB	00H
	DB	00H
	DB	00H
	DB	00H
	DB	00H
	DB	00H
	DB	00H
	DB	00H
	DB	00H
	DB	00H
	DB	00H
	DB	00H
	DB	00H
	DB	00H
	DB	00H
	DB	00H
	DB	00H
	DB	00H
	DB	00H
	DB	00H
	DB	00H
	DB	00H
	DB	00H
	DB	00H
	DB	00H
	DB	00H
	DB	00H
	DB	00H
	DB	00H
	DB	00H
	DB	00H
	DB	00H
	DB	00H
	DB	00H
	DB	00H
	DB	00H
	DB	00H
	DB	00H
	DB	00H
	DB	00H
	DB	00H
	DB	00H
	DB	00H
	DB	00H
	DB	00H
	DB	00H
	DB	00H
	DB	00H
	DB	00H
	DB	00H
	DB	00H
	DB	00H
	DB	00H
	DB	00H
	DB	00H
	DB	00H
	DB	00H
	DB	00H
	DB	00H
	DB	00H
	DB	00H
	DB	00H
	DB	00H
	DB	00H
	DB	00H
	DB	00H
	DB	00H
	DB	00H
	DB	00H
	DB	00H
	DB	00H
	DB	00H
	DB	00H
	DB	00H
	DB	00H
	DB	00H
	DB	00H
	DB	00H
	DB	00H
	DB	00H
	DB	00H
	DB	00H
	DB	00H
	DB	00H
	DB	00H
	DB	00H
	DB	00H
	DB	00H
	DB	00H
	DB	00H
	DB	00H
	DB	00H
	DB	00H
	DB	00H
	DB	00H
	DB	00H
	DB	00H
	DB	00H
	DB	00H
	DB	00H
	DB	00H
	DB	00H
	DB	00H
	DB	00H
	DB	00H
	DB	00H
	DB	00H
	DB	00H
	DB	00H
	DB	00H
	DB	00H
	DB	00H
	DB	00H
	DB	00H
	DB	00H
	DB	00H
	DB	00H
	DB	00H
	DB	00H
	DB	00H
	DB	00H
	DB	00H
	DB	00H
	DB	00H
	DB	00H
	DB	00H
	DB	00H
	DB	00H
	DB	00H
	DB	00H
	DB	00H
	DB	00H
	DB	00H
	DB	00H
	DB	00H
	DB	00H
	DB	00H
	DB	00H
	DB	00H
	DB	00H
	DB	00H
	DB	00H
	DB	00H
	DB	00H
	DB	00H
	DB	00H
	DB	00H
	DB	00H
	DB	00H
	DB	00H
	DB	00H
	DB	00H
	DB	00H
	DB	00H
	DB	00H
	DB	00H
	DB	00H
	DB	00H
	DB	00H
	DB	00H
	DB	00H
	DB	00H
	DB	00H
	DB	00H
	DB	00H
	DB	00H
	DB	00H
	DB	00H
	DB	00H
	DB	00H
	DB	00H
	DB	00H
	DB	00H
	DB	00H
	DB	00H
	DB	00H
	DB	00H
	DB	00H
	DB	00H
	DB	00H
	DB	00H
	DB	00H
	DB	00H
	DB	00H
	DB	00H
	DB	00H
	DB	00H
	DB	00H
	DB	00H
	DB	00H
	DB	00H
	DB	00H
	DB	00H
	DB	00H
	DB	00H
	DB	00H
	DB	00H
	DB	00H
	DB	00H
	DB	00H
	DB	00H
	DB	00H
	DB	00H
	DB	00H
	DB	00H
	DB	00H
	DB	00H
	DB	00H
	DB	00H
	DB	00H
	DB	00H
	DB	00H
	DB	00H
	DB	00H
	DB	00H
	DB	00H
	DB	00H
	DB	00H
	DB	00H
	DB	00H
	DB	00H
	DB	00H
	DB	00H
	DB	00H
	DB	00H
	DB	00H
	DB	00H
	DB	00H
	DB	00H
	DB	00H
	DB	00H
	DB	00H
	DB	00H
	DB	00H
	DB	00H
	DB	00H
	DB	00H
	DB	00H
	DB	00H
	DB	00H
	DB	00H
	DB	00H
	DB	00H
	DB	00H
	DB	00H
	DB	00H
	DB	00H
	DB	00H
	DB	00H
	DB	00H
	DB	00H
	DB	00H
	DB	00H
	DB	00H
	DB	00H
	DB	00H
	DB	00H
	DB	00H
	DB	00H
	DB	00H
	DB	00H
	DB	00H
	DB	00H
	DB	00H
	DB	00H
	DB	00H
	DB	00H
	DB	00H
	DB	00H
	DB	00H
	DB	00H
	DB	00H
	DB	00H
	DB	00H
	DB	00H
	DB	00H
	DB	00H
	DB	00H
	DB	00H
	DB	00H
	DB	00H
	DB	00H
	DB	00H
	DB	00H
	DB	00H
	DB	00H
	DB	00H
	DB	00H
	DB	00H
	DB	00H
	DB	00H
	DB	00H
	DB	00H
	DB	00H
	DB	00H
	DB	00H
	DB	00H
	DB	00H
	DB	00H
	DB	00H
	DB	00H
	DB	00H
	DB	00H
	DB	00H
	DB	00H
	DB	00H
	DB	00H
	DB	00H
	DB	00H
	DB	00H
	DB	00H
	DB	00H
	DB	00H
	DB	00H
	DB	00H
	DB	00H
	DB	00H
	DB	00H
	DB	00H
	DB	00H
	DB	00H
	DB	00H
	DB	00H
	DB	00H
	DB	00H
	DB	00H
	DB	00H
	DB	00H
	DB	00H
	DB	00H
	DB	00H
	DB	00H
	DB	00H
	DB	00H
	DB	00H
	DB	00H
	DB	00H
	DB	00H
	DB	00H
	DB	00H
	DB	00H
	DB	00H
	DB	00H
	DB	00H
	DB	00H
	DB	00H
	DB	00H
	DB	00H
	DB	00H
	DB	00H
	DB	00H
	DB	00H
	DB	00H
	DB	00H
	DB	00H
	DB	00H
	DB	00H
	DB	00H
	DB	00H
	DB	00H
	DB	00H
	DB	00H
	DB	00H
	DB	00H
	DB	00H
	DB	00H
	DB	00H
	DB	00H
	DB	00H
	DB	00H
	DB	00H
	DB	00H
	DB	00H
	DB	00H
	DB	00H
	DB	00H
	DB	00H
	DB	00H
	DB	00H
	DB	00H
	DB	00H
	DB	00H
	DB	00H
	DB	00H
	DB	00H
	DB	00H
	DB	00H
	DB	00H
	DB	00H
	DB	00H
	DB	00H
	DB	00H
	DB	00H
	DB	00H
	DB	00H
	DB	00H
	DB	00H
	DB	00H
	DB	00H
	DB	00H
	DB	00H
	DB	00H
	DB	00H
	DB	00H
	DB	00H
	DB	00H
	DB	00H
	DB	00H
	DB	00H
	DB	00H
	DB	00H
	DB	00H
	DB	00H
	DB	00H
	DB	00H
	DB	00H
	DB	00H
	DB	00H
	DB	00H
	DB	00H
	DB	00H
	DB	00H
	DB	00H
	DB	00H
	DB	00H
	DB	00H
	DB	00H
	DB	00H
	DB	00H
	DB	00H
	DB	00H
	DB	00H
	DB	00H
	DB	00H
	DB	00H
	DB	00H
	DB	00H
	DB	00H
	DB	00H
	DB	00H
	DB	00H
	DB	00H
	DB	00H
	DB	00H
	DB	00H
	DB	00H
	DB	00H
	DB	00H
	DB	00H
	DB	00H
	DB	00H
	DB	00H
	DB	00H
	DB	00H
	DB	00H
	DB	00H
	DB	00H
	DB	00H
	DB	00H
	DB	00H
	DB	00H
	DB	00H
	DB	00H
	DB	00H
	DB	00H
	DB	00H
	DB	00H
	DB	00H
	DB	00H
	DB	00H
	DB	00H
	DB	00H
	DB	00H
	DB	00H
	DB	00H
	DB	00H
	DB	00H
	DB	00H
	DB	00H
	DB	00H
	DB	00H
	DB	00H
	DB	00H
	DB	00H
	DB	00H
	DB	00H
	DB	00H
	DB	00H
	DB	00H
	DB	00H
	DB	00H
	DB	00H
	DB	00H
	DB	00H
	DB	00H
	DB	00H
	DB	00H
	DB	00H
	DB	00H
	DB	00H
	DB	00H
	DB	00H
	DB	00H
	DB	00H
	DB	00H
	DB	00H
	DB	00H
	DB	00H
	DB	00H
	DB	00H
	DB	00H
	DB	00H
	DB	00H
	DB	00H
	DB	00H
	DB	00H
	DB	00H
	DB	00H
	DB	00H
	DB	00H
	DB	00H
	DB	00H
	DB	00H
	DB	00H
	DB	00H
	DB	00H
	DB	00H
	DB	00H
	DB	00H
	DB	00H
	DB	00H
	DB	00H
	DB	00H
	DB	00H
	DB	00H
	DB	00H
	DB	00H
	DB	00H
	DB	00H
	DB	00H
	DB	00H
	DB	00H
	DB	00H
	DB	00H
	DB	00H
	DB	00H
	DB	00H
	DB	00H
	DB	00H
	DB	00H
	DB	00H
	DB	00H
	DB	00H
	DB	00H
	DB	00H
	DB	00H
	DB	00H
	DB	00H
	DB	00H
	DB	00H
	DB	00H
	DB	00H
	DB	00H
	DB	00H
	DB	00H
	DB	00H
	DB	00H
	DB	00H
	DB	00H
	DB	00H
	DB	00H
	DB	00H
	DB	00H
	DB	00H
	DB	00H
	DB	00H
	DB	00H
	DB	00H
	DB	00H
	DB	00H
	DB	00H
	DB	00H
	DB	00H
	DB	00H
	DB	00H
	DB	00H
	DB	00H
	DB	00H
	DB	00H
	DB	00H
	DB	00H
	DB	00H
	DB	00H
	DB	00H
	DB	00H
	DB	00H
	DB	00H
	DB	00H
	DB	00H
	DB	00H
	DB	00H
	DB	00H
	DB	00H
	DB	00H
	DB	00H
	DB	00H
	DB	00H
	DB	00H
	DB	00H
	DB	00H
	DB	00H
	DB	00H
	DB	00H
	DB	00H
	DB	00H
	DB	00H
	DB	00H
	DB	00H
	DB	00H
	DB	00H
	DB	00H
	DB	00H
	DB	00H
	DB	00H
	DB	00H
	DB	00H
	DB	00H
	DB	00H
	DB	00H
	DB	00H
	DB	00H
	DB	00H
	DB	00H
	DB	00H
	DB	00H
	DB	00H
	DB	00H
	DB	00H
	DB	00H
	DB	00H
	DB	00H
	DB	00H
	DB	00H
	DB	00H
	DB	00H
	DB	00H
	DB	00H
	DB	00H
	DB	00H
	DB	00H
	DB	00H
	DB	00H
	DB	00H
	DB	00H
	DB	00H
	DB	00H
	DB	00H
	DB	00H
	DB	00H
	DB	00H
	DB	00H
	DB	00H
	DB	00H
	DB	00H
	DB	00H
	DB	00H
	DB	00H
	DB	00H
	DB	00H
	DB	00H
	DB	00H
	DB	00H
	DB	00H
	DB	00H
	DB	00H
	DB	00H
	DB	00H
	DB	00H
	DB	00H
	DB	00H
	DB	00H
	DB	00H
	DB	00H
	DB	00H
	DB	00H
	DB	00H
	DB	00H
	DB	00H
	DB	00H
	DB	00H
	DB	00H
	DB	00H
	DB	00H
	DB	00H
	DB	00H
	DB	00H
	DB	00H
	DB	00H
	DB	00H
	DB	00H
	DB	00H
	DB	00H
	DB	00H
	DB	00H
	DB	00H
	DB	00H
	DB	00H
	DB	00H
	DB	00H
	DB	00H
	DB	00H
	DB	00H
	DB	00H
	DB	00H
	DB	00H
	DB	00H
	DB	00H
	DB	00H
	DB	00H
	DB	00H
	DB	00H
	DB	00H
	DB	00H
	DB	00H
	DB	00H
	DB	00H
	DB	00H
	DB	00H
	DB	00H
	DB	00H
	DB	00H
	DB	00H
	DB	00H
	DB	00H
	DB	00H
	DB	00H
	DB	00H
	DB	00H
	DB	00H
	DB	00H
	DB	00H
	DB	00H
	DB	00H
	DB	00H
	DB	00H
	DB	00H
	DB	00H
	DB	00H
	DB	00H
	DB	00H
	DB	00H
	DB	00H
	DB	00H
	DB	00H
	DB	00H
	DB	00H
	DB	00H
	DB	00H
	DB	00H
	DB	00H
	DB	00H
	DB	00H
	DB	00H
	DB	00H
	DB	00H
	DB	00H
	DB	00H
	DB	00H
	DB	00H
	DB	00H
	DB	00H
	DB	00H
	DB	00H
	DB	00H
	DB	00H
	DB	00H
	DB	00H
	DB	00H
	DB	00H
	DB	00H
	DB	00H
	DB	00H
	DB	00H
	DB	00H
	DB	00H
	DB	00H
	DB	00H
	DB	00H
	DB	00H
	DB	00H
	DB	00H
	DB	00H
	DB	00H
	DB	00H
	DB	00H
	DB	00H
	DB	00H
	DB	00H
	DB	00H
	DB	00H
	DB	00H
	DB	00H
	DB	00H
	DB	00H
	DB	00H
	DB	00H
	DB	00H
	DB	00H
	DB	00H
	DB	00H
	DB	00H
	DB	00H
	DB	00H
	DB	00H
	DB	00H
	DB	00H
	DB	00H
	DB	00H
	DB	00H
	DB	00H
	DB	00H
	DB	00H
	DB	00H
	DB	00H
	DB	00H
	DB	00H
	DB	00H
	DB	00H
	DB	00H
	DB	00H
	DB	00H
	DB	00H
	DB	00H
	DB	00H
	DB	00H
	DB	00H
	DB	00H
	DB	00H
	DB	00H
	DB	00H
	DB	00H
	DB	00H
	DB	00H
	DB	00H
	DB	00H
	DB	00H
	DB	00H
	DB	00H
	DB	00H
	DB	00H
	DB	00H
	DB	00H
	DB	00H
	DB	00H
	DB	00H
	DB	00H
	DB	00H
	DB	00H
	DB	00H
	DB	00H
	DB	00H
	DB	00H
	DB	00H
	DB	00H
	DB	00H
	DB	00H
	DB	00H
	DB	00H
	DB	00H
	DB	00H
	DB	00H
	DB	00H
	DB	00H
	DB	00H
	DB	00H
	DB	00H
	DB	00H
	DB	00H
	DB	00H
	DB	00H
	DB	00H
	DB	00H
	DB	00H
	DB	00H
	DB	00H
	DB	00H
	DB	00H
	DB	00H
	DB	00H
	DB	00H
	DB	00H
	DB	00H
	DB	00H
	DB	00H
	DB	00H
	DB	00H
	DB	00H
	DB	00H
	DB	00H
	DB	00H
	DB	00H
	DB	00H
	DB	00H
	DB	00H
	DB	00H
	DB	00H
	DB	00H
	DB	00H
	DB	00H
	DB	00H
	DB	00H
	DB	00H
	DB	00H
	DB	00H
	DB	00H
	DB	00H
	DB	00H
	DB	00H
	DB	00H
	DB	00H
	DB	00H
	DB	00H
	DB	00H
	DB	00H
	DB	00H
	DB	00H
	DB	00H
	DB	00H
	DB	00H
	DB	00H
	DB	00H
	DB	00H
	DB	00H
	DB	00H
	DB	00H
	DB	00H
	DB	00H
	DB	00H
	DB	00H
	DB	00H
	DB	00H
	DB	00H
	DB	00H
	DB	00H
	DB	00H
	DB	00H
	DB	00H
	DB	00H
	DB	00H
	DB	00H
	DB	00H
	DB	00H
	DB	00H
	DB	00H
	DB	00H
	DB	00H
	DB	00H
	DB	00H
	DB	00H
	DB	00H
	DB	00H
	DB	00H
	DB	00H
	DB	00H
	DB	00H
	DB	00H
	DB	00H
	DB	00H
	DB	00H
	DB	00H
	DB	00H
	DB	00H
	DB	00H
	DB	00H
	DB	00H
	DB	00H
	DB	00H
	DB	00H
	DB	00H
	DB	00H
	DB	00H
	DB	00H
	DB	00H
	DB	00H
	DB	00H
	DB	00H
	DB	00H
	DB	00H
	DB	00H
	DB	00H
	DB	00H
	DB	00H
	DB	00H
	DB	00H
	DB	00H
	DB	00H
	DB	00H
	DB	00H
	DB	00H
	DB	00H
	DB	00H
	DB	00H
	DB	00H
	DB	00H
	DB	00H
	DB	00H
	DB	00H
	DB	00H
	DB	00H
	DB	00H
	DB	00H
	DB	00H
	DB	00H
	DB	00H
	DB	00H
	DB	00H
	DB	00H
	DB	00H
	DB	00H
	DB	00H
	DB	00H
	DB	00H
	DB	00H
	DB	00H
	DB	00H
	DB	00H
	DB	00H
	DB	00H
	DB	00H
	DB	00H
	DB	00H
	DB	00H
	DB	00H
	DB	00H
	DB	00H
	DB	00H
	DB	00H
	DB	00H
	DB	00H
	DB	00H
	DB	00H
	DB	00H
	DB	00H
	DB	00H
	DB	00H
	DB	00H
	DB	00H
	DB	00H
	DB	00H
	DB	00H
	DB	00H
	DB	00H
	DB	00H
	DB	00H
	DB	00H
	DB	00H
	DB	00H
	DB	00H
	DB	00H
	DB	00H
	DB	00H
	DB	00H
	DB	00H
	DB	00H
	DB	00H
	DB	00H
	DB	00H
	DB	00H
	DB	00H
	DB	00H
	DB	00H
	DB	00H
	DB	00H
	DB	00H
	DB	00H
	DB	00H
	DB	00H
	DB	00H
	DB	00H
	DB	00H
	DB	00H
	DB	00H
	DB	00H
	DB	00H
	DB	00H
	DB	00H
	DB	00H
	DB	00H
	DB	00H
	DB	00H
	DB	00H
	DB	00H
	DB	00H
	DB	00H
	DB	00H
	DB	00H
	DB	00H
	DB	00H
	DB	00H
	DB	00H
	DB	00H
	DB	00H
	DB	00H
	DB	00H
	DB	00H
	DB	00H
	DB	00H
	DB	00H
	DB	00H
	DB	00H
	DB	00H
	DB	00H
	DB	00H
	DB	00H
	DB	00H
	DB	00H
	DB	00H
	DB	00H
	DB	00H
	DB	00H
	DB	00H
	DB	00H
	DB	00H
	DB	00H
	DB	00H
	DB	00H
	DB	00H
	DB	00H
	DB	00H
	DB	00H
	DB	00H
	DB	00H
	DB	00H
	DB	00H
	DB	00H
	DB	00H
	DB	00H
	DB	00H
	DB	00H
	DB	00H
	DB	00H
	DB	00H
	DB	00H
	DB	00H
	DB	00H
	DB	00H
	DB	00H
	DB	00H
	DB	00H
	DB	00H
	DB	00H
	DB	00H
	DB	00H
	DB	00H
	DB	00H
	DB	00H
	DB	00H
	DB	00H
	DB	00H
	DB	00H
	DB	00H
	DB	00H
	DB	00H
	DB	00H
	DB	00H
	DB	00H
	DB	00H
	DB	00H
	DB	00H
	DB	00H
	DB	00H
	DB	00H
	DB	00H
	DB	00H
	DB	00H
	DB	00H
	DB	00H
	DB	00H
	DB	00H
	DB	00H
	DB	00H
	DB	00H
	DB	00H
	DB	00H
	DB	00H
	DB	00H
	DB	00H
	DB	00H
	DB	00H
	DB	00H
	DB	00H
	DB	00H
	DB	00H
	DB	00H
	DB	00H
	DB	00H
	DB	00H
	DB	00H
	DB	00H
	DB	00H
	DB	00H
	DB	00H
	DB	00H
	DB	00H
	DB	00H
	DB	00H
	DB	00H
	DB	00H
	DB	00H
	DB	00H
	DB	00H
	DB	00H
	DB	00H
	DB	00H
	DB	00H
	DB	00H
	DB	00H
	DB	00H
	DB	00H
	DB	00H
	DB	00H
	DB	00H
	DB	00H
	DB	00H
	DB	00H
	DB	00H
	DB	00H
	DB	00H
	DB	00H
	DB	00H
	DB	00H
	DB	00H
	DB	00H
	DB	00H
	DB	00H
	DB	00H
	DB	00H
	DB	00H
	DB	00H
	DB	00H
	DB	00H
	DB	00H
	DB	00H
	DB	00H
	DB	00H
	DB	00H
	DB	00H
	DB	00H
	DB	00H
	DB	00H
	DB	00H
	DB	00H
	DB	00H
	DB	00H
	DB	00H
	DB	00H
	DB	00H
	DB	00H
	DB	00H
	DB	00H
	DB	00H
	DB	00H
	DB	00H
	DB	00H
	DB	00H
	DB	00H
	DB	00H
	DB	00H
	DB	00H
	DB	00H
	DB	00H
	DB	00H
	DB	00H
	DB	00H
	DB	00H
	DB	00H
	DB	00H
	DB	00H
	DB	00H
	DB	00H
	DB	00H
	DB	00H
	DB	00H
	DB	00H
	DB	00H
	DB	00H
	DB	00H
	DB	00H
	DB	00H
	DB	00H
	DB	00H
	DB	00H
	DB	00H
	DB	00H
	DB	00H
	DB	00H
	DB	00H
	DB	00H
	DB	00H
	DB	00H
	DB	00H
	DB	00H
	DB	00H
	DB	00H
	DB	00H
	DB	00H
	DB	00H
	DB	00H
	DB	00H
	DB	00H
	DB	00H
	DB	00H
	DB	00H
	DB	00H
	DB	00H
	DB	00H
	DB	00H
	DB	00H
	DB	00H
	DB	00H
	DB	00H
	DB	00H
	DB	00H
	DB	00H
	DB	00H
	DB	00H
	DB	00H
	DB	00H
	DB	00H
	DB	00H
	DB	00H
	DB	00H
	DB	00H
	DB	00H
	DB	00H
	DB	00H
	DB	00H
	DB	00H
	DB	00H
	DB	00H
	DB	00H
	DB	00H
	DB	00H
	DB	00H
	DB	00H
	DB	00H
	DB	00H
	DB	00H
	DB	00H
	DB	00H
	DB	00H
	DB	00H
	DB	00H
	DB	00H
	DB	00H
	DB	00H
	DB	00H
	DB	00H
	DB	00H
	DB	00H
	DB	00H
	DB	00H
	DB	00H
	DB	00H
	DB	00H
	DB	00H
	DB	00H
	DB	00H
	DB	00H
	DB	00H
	DB	00H
	DB	00H
	DB	00H
	DB	00H
	DB	00H
	DB	00H
	DB	00H
	DB	00H
	DB	00H
	DB	00H
	DB	00H
	DB	00H
	DB	00H
	DB	00H
	DB	00H
	DB	00H
	DB	00H
	DB	00H
	DB	00H
	DB	00H
	DB	00H
	DB	00H
	DB	00H
	DB	00H
	DB	00H
	DB	00H
	DB	00H
	DB	00H
	DB	00H
	DB	00H
	DB	00H
	DB	00H
	DB	00H
	DB	00H
	DB	00H
	DB	00H
	DB	00H
	DB	00H
	DB	00H
	DB	00H
	DB	00H
	DB	00H
	DB	00H
	DB	00H
	DB	00H
	DB	00H
	DB	00H
	DB	00H
	DB	00H
	DB	00H
	DB	00H
	DB	00H
	DB	00H
	DB	00H
	DB	00H
	DB	00H
	DB	00H
	DB	00H
	DB	00H
	DB	00H
	DB	00H
	DB	00H
	DB	00H
	DB	00H
	DB	00H
	DB	00H
	DB	00H
	DB	00H
	DB	00H
	DB	00H
	DB	00H
	DB	00H
	DB	00H
	DB	00H
	DB	00H
	DB	00H
	DB	00H
	DB	00H
	DB	00H
	DB	00H
	DB	00H
	DB	00H
	DB	00H
	DB	00H
	DB	00H
	DB	00H
	DB	00H
	DB	00H
	DB	00H
	DB	00H
	DB	00H
	DB	00H
	DB	00H
	DB	00H
	DB	00H
	DB	00H
	DB	00H
	DB	00H
	DB	00H
	DB	00H
	DB	00H
	DB	00H
	DB	00H
	DB	00H
	DB	00H
	DB	00H
	DB	00H
	DB	00H
	DB	00H
	DB	00H
	DB	00H
	DB	00H
	DB	00H
	DB	00H
	DB	00H
	DB	00H
	DB	00H
	DB	00H
	DB	00H
	DB	00H
	DB	00H
	DB	00H
	DB	00H
	DB	00H
	DB	00H
	DB	00H
	DB	00H
	DB	00H
	DB	00H
	DB	00H
	DB	00H
	DB	00H
	DB	00H
	DB	00H
	DB	00H
	DB	00H
	DB	00H
	DB	00H
	DB	00H
	DB	00H
	DB	00H
	DB	00H
	DB	00H
	DB	00H
	DB	00H
	DB	00H
	DB	00H
	DB	00H
	DB	00H
	DB	00H
	DB	00H
	DB	00H
	DB	00H
	DB	00H
	DB	00H
	DB	00H
	DB	00H
	DB	00H
	DB	00H
	DB	00H
	DB	00H
	DB	00H
	DB	00H
	DB	00H
	DB	00H
	DB	00H
	DB	00H
	DB	00H
	DB	00H
	DB	00H
	DB	00H
	DB	00H
	DB	00H
	DB	00H
	DB	00H
	DB	00H
	DB	00H
	DB	00H
	DB	00H
	DB	00H
	DB	00H
	DB	00H
	DB	00H
	DB	00H
	DB	00H
	DB	00H
	DB	00H
	DB	00H
	DB	00H
	DB	00H
	DB	00H
	DB	00H
	DB	00H
	DB	00H
	DB	00H
	DB	00H
	DB	00H
	DB	00H
	DB	00H
	DB	00H
	DB	00H
	DB	00H
	DB	00H
	DB	00H
	DB	00H
	DB	00H
	DB	00H
	DB	00H
	DB	00H
	DB	00H
	DB	00H
	DB	00H
	DB	00H
	DB	00H
	DB	00H
	DB	00H
	DB	00H
	DB	00H
	DB	00H
	DB	00H
	DB	00H
	DB	00H
	DB	00H
	DB	00H
	DB	00H
	DB	00H
	DB	00H
	DB	00H
	DB	00H
	DB	00H
	DB	00H
	DB	00H
	DB	00H
	DB	00H
	DB	00H
	DB	00H
	DB	00H
	DB	00H
	DB	00H
	DB	00H
	DB	00H
	DB	00H
	DB	00H
	DB	00H
	DB	00H
	DB	00H
	DB	00H
	DB	00H
	DB	00H
	DB	00H
	DB	00H
	DB	00H
	DB	00H
	DB	00H
	DB	00H
	DB	00H
	DB	00H
	DB	00H
	DB	00H
	DB	00H
	DB	00H
	DB	00H
	DB	00H
	DB	00H
	DB	00H
	DB	00H
	DB	00H
	DB	00H
	DB	00H
	DB	00H
	DB	00H
	DB	00H
	DB	00H
	DB	00H
	DB	00H
	DB	00H
	DB	00H
	DB	00H
	DB	00H
	DB	00H
	DB	00H
	DB	00H
	DB	00H
	DB	00H
	DB	00H
	DB	00H
	DB	00H
	DB	00H
	DB	00H
	DB	00H
	DB	00H
	DB	00H
	DB	00H
	DB	00H
	DB	00H
	DB	00H
	DB	00H
	DB	00H
	DB	00H
	DB	00H
	DB	00H
	DB	00H
	DB	00H
	DB	00H
	DB	00H
	DB	00H
	DB	00H
	DB	00H
	DB	00H
	DB	00H
	DB	00H
	DB	00H
	DB	00H
	DB	00H
	DB	00H
	DB	00H
	DB	00H
	DB	00H
	DB	00H
	DB	00H
	DB	00H
	DB	00H
	DB	00H
	DB	00H
	DB	00H
	DB	00H
	DB	00H
	DB	00H
	DB	00H
	DB	00H
	DB	00H
	DB	00H
	DB	00H
	DB	00H
	DB	00H
	DB	00H
	DB	00H
	DB	00H
	DB	00H
	DB	00H
	DB	00H
	DB	00H
	DB	00H
	DB	00H
	DB	00H
	DB	00H
	DB	00H
	DB	00H
	DB	00H
	DB	00H
	DB	00H
	DB	00H
	DB	00H
	DB	00H
	DB	00H
	DB	00H
	DB	00H
	DB	00H
	DB	00H
	DB	00H
	DB	00H
	DB	00H
	DB	00H
	DB	00H
	DB	00H
	DB	00H
	DB	00H
	DB	00H
	DB	00H
	DB	00H
	DB	00H
	DB	00H
	DB	00H
	DB	00H
	DB	00H
	DB	00H
	DB	00H
	DB	00H
	DB	00H
	DB	00H
	DB	00H
	DB	00H
	DB	00H
	DB	00H
	DB	00H
	DB	00H
	DB	00H
	DB	00H
	DB	00H
	DB	00H
	DB	00H
	DB	00H
	DB	00H
	DB	00H
	DB	00H
	DB	00H
	DB	00H
	DB	00H
	DB	00H
	DB	00H
	DB	00H
	DB	00H
	DB	00H
	DB	00H
	DB	00H
	DB	00H
	DB	00H
	DB	00H
	DB	00H
	DB	00H
	DB	00H
	DB	00H
	DB	00H
	DB	00H
	DB	00H
	DB	00H
	DB	00H
	DB	00H
	DB	00H
	DB	00H
	DB	00H
	DB	00H
	DB	00H
	DB	00H
	DB	00H
	DB	00H
	DB	00H
	DB	00H
	DB	00H
	DB	00H
	DB	00H
	DB	00H
	DB	00H
	DB	00H
	DB	00H
	DB	00H
	DB	00H
	DB	00H
	DB	00H
	DB	00H
	DB	00H
	DB	00H
	DB	00H
	DB	00H
	DB	00H
	DB	00H
	DB	00H
	DB	00H
	DB	00H
	DB	00H
	DB	00H
	DB	00H
	DB	00H
	DB	00H
	DB	00H
	DB	00H
	DB	00H
	DB	00H
	DB	00H
	DB	00H
	DB	00H
	DB	00H
	DB	00H
	DB	00H
	DB	00H
	DB	00H
	DB	00H
	DB	00H
	DB	00H
	DB	00H
	DB	00H
	DB	00H
	DB	00H
	DB	00H
	DB	00H
	DB	00H
	DB	00H
	DB	00H
	DB	00H
	DB	00H
	DB	00H
	DB	00H
	DB	00H
	DB	00H
	DB	00H
	DB	00H
	DB	00H
	DB	00H
	DB	00H
	DB	00H
	DB	00H
	DB	00H
	DB	00H
	DB	00H
	DB	00H
	DB	00H
	DB	00H
	DB	00H
	DB	00H
	DB	00H
	DB	00H
	DB	00H
	DB	00H
	DB	00H
	DB	00H
	DB	00H
	DB	00H
	DB	00H
	DB	00H
	DB	00H
	DB	00H
	DB	00H
	DB	00H
	DB	00H
	DB	00H
	DB	00H
	DB	00H
	DB	00H
	DB	00H
	DB	00H
	DB	00H
	DB	00H
	DB	00H
	DB	00H
	DB	00H
	DB	00H
	DB	00H
	DB	00H
	DB	00H
	DB	00H
	DB	00H
	DB	00H
	DB	00H
	DB	00H
	DB	00H
	DB	00H
	DB	00H
	DB	00H
	DB	00H
	DB	00H
	DB	00H
	DB	00H
	DB	00H
	DB	00H
	DB	00H
	DB	00H
	DB	00H
	DB	00H
	DB	00H
	DB	00H
	DB	00H
	DB	00H
	DB	00H
	DB	00H
	DB	00H
	DB	00H
	DB	00H
	DB	00H
	DB	00H
	DB	00H
	DB	00H
	DB	00H
	DB	00H
	DB	00H
	DB	00H
	DB	00H
	DB	00H
	DB	00H
	DB	00H
	DB	00H
	DB	00H
	DB	00H
	DB	00H
	DB	00H
	DB	00H
	DB	00H
	DB	00H
	DB	00H
	DB	00H
	DB	00H
	DB	00H
	DB	00H
	DB	00H
	DB	00H
	DB	00H
	DB	00H
	DB	00H
	DB	00H
	DB	00H
	DB	00H
	DB	00H
	DB	00H
	DB	00H
	DB	00H
	DB	00H
	DB	00H
	DB	00H
	DB	00H
	DB	00H
	DB	00H
	DB	00H
	DB	00H
	DB	00H
	DB	00H
	DB	00H
	DB	00H
	DB	00H
	DB	00H
	DB	00H
	DB	00H
	DB	00H
	DB	00H
	DB	00H
	DB	00H
	DB	00H
	DB	00H
	DB	00H
	DB	00H
	DB	00H
	DB	00H
	DB	00H
	DB	00H
	DB	00H
	DB	00H
	DB	00H
	DB	00H
	DB	00H
	DB	00H
	DB	00H
	DB	00H
	DB	00H
	DB	00H
	DB	00H
	DB	00H
	DB	00H
	DB	00H
	DB	00H
	DB	00H
	DB	00H
	DB	00H
	DB	00H
	DB	00H
	DB	00H
	DB	00H
	DB	00H
	DB	00H
	DB	00H
	DB	00H
	DB	00H
	DB	00H
	DB	00H
	DB	00H
	DB	00H
	DB	00H
	DB	00H
	DB	00H
	DB	00H
	DB	00H
	DB	00H
	DB	00H
	DB	00H
	DB	00H
	DB	00H
	DB	00H
	DB	00H
	DB	00H
	DB	00H
	DB	00H
	DB	00H
	DB	00H
	DB	00H
	DB	00H
	DB	00H
	DB	00H
	DB	00H
	DB	00H
	DB	00H
	DB	00H
	DB	00H
	DB	00H
	DB	00H
	DB	00H
	DB	00H
	DB	00H
	DB	00H
	DB	00H
	DB	00H
	DB	00H
	DB	00H
	DB	00H
	DB	00H
	DB	00H
	DB	00H
	DB	00H
	DB	00H
	DB	00H
	DB	00H
	DB	00H
	DB	00H
	DB	00H
	DB	00H
	DB	00H
	DB	00H
	DB	00H
	DB	00H
	DB	00H
	DB	00H
	DB	00H
	DB	00H
	DB	00H
	DB	00H
	DB	00H
	DB	00H
	DB	00H
	DB	00H
	DB	00H
	DB	00H
	DB	00H
	DB	00H
	DB	00H
	DB	00H
	DB	00H
	DB	00H
	DB	00H
	DB	00H
	DB	00H
	DB	00H
	DB	00H
	DB	00H
	DB	00H
	DB	00H
	DB	00H
	DB	00H
	DB	00H
	DB	00H
	DB	00H
	DB	00H
	DB	00H
	DB	00H
	DB	00H
	DB	00H
	DB	00H
	DB	00H
	DB	00H
	DB	00H
	DB	00H
	DB	00H
	DB	00H
	DB	00H
	DB	00H
	DB	00H
	DB	00H
	DB	00H
	DB	00H
	DB	00H
	DB	00H
	DB	00H
	DB	00H
	DB	00H
	DB	00H
	DB	00H
	DB	00H
	DB	00H
	DB	00H
	DB	00H
	DB	00H
	DB	00H
	DB	00H
	DB	00H
	DB	00H
	DB	00H
	DB	00H
	DB	00H
	DB	00H
	DB	00H
	DB	00H
	DB	00H
	DB	00H
	DB	00H
	DB	00H
	DB	00H
	DB	00H
	DB	00H
	DB	00H
	DB	00H
	DB	00H
	DB	00H
	DB	00H
	DB	00H
	DB	00H
	DB	00H
	DB	00H
	DB	00H
	DB	00H
	DB	00H
	DB	00H
	DB	00H
	DB	00H
	DB	00H
	DB	00H
	DB	00H
	DB	00H
	DB	00H
	DB	00H
	DB	00H
	DB	00H
	DB	00H
	DB	00H
	DB	00H
	DB	00H
	DB	00H
	DB	00H
	DB	00H
	DB	00H
	DB	00H
	DB	00H
	DB	00H
	DB	00H
	DB	00H
	DB	00H
	DB	00H
	DB	00H
	DB	00H
	DB	00H
	DB	00H
	DB	00H
	DB	00H
	DB	00H
	DB	00H
	DB	00H
	DB	00H
	DB	00H
	DB	00H
	DB	00H
	DB	00H
	DB	00H
	DB	00H
	DB	00H
	DB	00H
	DB	00H
	DB	00H
	DB	00H
	DB	00H
	DB	00H
	DB	00H
	DB	00H
	DB	00H
	DB	00H
	DB	00H
	DB	00H
	DB	00H
	DB	00H
	DB	00H
	DB	00H
	DB	00H
	DB	00H
	DB	00H
	DB	00H
	DB	00H
	DB	00H
	DB	00H
	DB	00H
	DB	00H
	DB	00H
	DB	00H
	DB	00H
	DB	00H
	DB	00H
	DB	00H
	DB	00H
	DB	00H
	DB	00H
	DB	00H
	DB	00H
	DB	0acH
	DB	0acH
	DB	0acH
	DB	06H
	DB	0acH
	DB	0acH
	DB	0acH
	DB	06eH
	DB	0acH
	DB	0acH
	DB	0acH
	DB	0c7H
	DB	0acH
	DB	0acH
	DB	0acH
	DB	0f3H
	DB	0acH
	DB	0acH
	DB	0acH
	DB	0ffH
	DB	0acH
	DB	0acH
	DB	0acH
	DB	0ffH
	DB	0acH
	DB	0acH
	DB	0acH
	DB	0ffH
	DB	0acH
	DB	0acH
	DB	0acH
	DB	0ffH
	DB	0acH
	DB	0acH
	DB	0acH
	DB	0ffH
	DB	0acH
	DB	0acH
	DB	0acH
	DB	0ffH
	DB	0acH
	DB	0acH
	DB	0acH
	DB	0ffH
	DB	0acH
	DB	0acH
	DB	0acH
	DB	0ffH
	DB	0acH
	DB	0acH
	DB	0acH
	DB	0ffH
	DB	0acH
	DB	0acH
	DB	0acH
	DB	0ffH
	DB	0acH
	DB	0acH
	DB	0acH
	DB	0ffH
	DB	0acH
	DB	0acH
	DB	0acH
	DB	0ffH
	DB	0acH
	DB	0acH
	DB	0acH
	DB	0ffH
	DB	0acH
	DB	0acH
	DB	0acH
	DB	0ffH
	DB	0acH
	DB	0acH
	DB	0acH
	DB	0ffH
	DB	0acH
	DB	0acH
	DB	0acH
	DB	0ffH
	DB	0acH
	DB	0acH
	DB	0acH
	DB	0ffH
	DB	0acH
	DB	0acH
	DB	0acH
	DB	0ffH
	DB	0acH
	DB	0acH
	DB	0acH
	DB	0ffH
	DB	0acH
	DB	0acH
	DB	0acH
	DB	0ffH
	DB	0acH
	DB	0acH
	DB	0acH
	DB	0ffH
	DB	0acH
	DB	0acH
	DB	0acH
	DB	0ffH
	DB	0acH
	DB	0acH
	DB	0acH
	DB	0ffH
	DB	0acH
	DB	0acH
	DB	0acH
	DB	0ffH
	DB	0acH
	DB	0acH
	DB	0acH
	DB	0ffH
	DB	0acH
	DB	0acH
	DB	0acH
	DB	0ffH
	DB	0acH
	DB	0acH
	DB	0acH
	DB	0ffH
	DB	0acH
	DB	0acH
	DB	0acH
	DB	0ffH
	DB	0acH
	DB	0acH
	DB	0acH
	DB	0ffH
	DB	0acH
	DB	0acH
	DB	0acH
	DB	0ffH
	DB	0acH
	DB	0acH
	DB	0acH
	DB	0ffH
	DB	0acH
	DB	0acH
	DB	0acH
	DB	0ffH
	DB	0acH
	DB	0acH
	DB	0acH
	DB	0ffH
	DB	0acH
	DB	0acH
	DB	0acH
	DB	0ffH
	DB	0acH
	DB	0acH
	DB	0acH
	DB	0ffH
	DB	0acH
	DB	0acH
	DB	0acH
	DB	0ffH
	DB	0acH
	DB	0acH
	DB	0acH
	DB	0ffH
	DB	0acH
	DB	0acH
	DB	0acH
	DB	0ffH
	DB	0acH
	DB	0acH
	DB	0acH
	DB	0ffH
	DB	0acH
	DB	0acH
	DB	0acH
	DB	0ffH
	DB	0acH
	DB	0acH
	DB	0acH
	DB	0ffH
	DB	0acH
	DB	0acH
	DB	0acH
	DB	0ffH
	DB	0acH
	DB	0acH
	DB	0acH
	DB	0ffH
	DB	0acH
	DB	0acH
	DB	0acH
	DB	0ffH
	DB	0acH
	DB	0acH
	DB	0acH
	DB	0ffH
	DB	0acH
	DB	0acH
	DB	0acH
	DB	0ffH
	DB	0acH
	DB	0acH
	DB	0acH
	DB	0ffH
	DB	0acH
	DB	0acH
	DB	0acH
	DB	0ffH
	DB	0acH
	DB	0acH
	DB	0acH
	DB	0ffH
	DB	0acH
	DB	0acH
	DB	0acH
	DB	0ffH
	DB	0acH
	DB	0acH
	DB	0acH
	DB	0ffH
	DB	0acH
	DB	0acH
	DB	0acH
	DB	0ffH
	DB	0acH
	DB	0acH
	DB	0acH
	DB	0ffH
	DB	0acH
	DB	0acH
	DB	0acH
	DB	0ffH
	DB	0acH
	DB	0acH
	DB	0acH
	DB	0ffH
	DB	0acH
	DB	0acH
	DB	0acH
	DB	0ffH
	DB	0acH
	DB	0acH
	DB	0acH
	DB	0ffH
	DB	0acH
	DB	0acH
	DB	0acH
	DB	0ffH
	DB	0acH
	DB	0acH
	DB	0acH
	DB	0ffH
	DB	0acH
	DB	0acH
	DB	0acH
	DB	0ffH
	DB	0acH
	DB	0acH
	DB	0acH
	DB	0ffH
	DB	0acH
	DB	0acH
	DB	0acH
	DB	0ffH
	DB	0acH
	DB	0acH
	DB	0acH
	DB	0ffH
	DB	0acH
	DB	0acH
	DB	0acH
	DB	0ffH
	DB	0acH
	DB	0acH
	DB	0acH
	DB	0ffH
	DB	0acH
	DB	0acH
	DB	0acH
	DB	0ffH
	DB	0acH
	DB	0acH
	DB	0acH
	DB	0ffH
	DB	0acH
	DB	0acH
	DB	0acH
	DB	0ffH
	DB	0acH
	DB	0acH
	DB	0acH
	DB	0ffH
	DB	0acH
	DB	0acH
	DB	0acH
	DB	0ffH
	DB	0acH
	DB	0acH
	DB	0acH
	DB	0ffH
	DB	0acH
	DB	0acH
	DB	0acH
	DB	0ffH
	DB	0acH
	DB	0acH
	DB	0acH
	DB	0ffH
	DB	0acH
	DB	0acH
	DB	0acH
	DB	0ffH
	DB	0acH
	DB	0acH
	DB	0acH
	DB	0ffH
	DB	0acH
	DB	0acH
	DB	0acH
	DB	0ffH
	DB	0acH
	DB	0acH
	DB	0acH
	DB	0ffH
	DB	0acH
	DB	0acH
	DB	0acH
	DB	0ffH
	DB	0acH
	DB	0acH
	DB	0acH
	DB	0ffH
	DB	0acH
	DB	0acH
	DB	0acH
	DB	0ffH
	DB	0acH
	DB	0acH
	DB	0acH
	DB	0ffH
	DB	0acH
	DB	0acH
	DB	0acH
	DB	0ffH
	DB	0acH
	DB	0acH
	DB	0acH
	DB	0ffH
	DB	0acH
	DB	0acH
	DB	0acH
	DB	0ffH
	DB	0acH
	DB	0acH
	DB	0acH
	DB	0ffH
	DB	0acH
	DB	0acH
	DB	0acH
	DB	0ffH
	DB	0acH
	DB	0acH
	DB	0acH
	DB	0ffH
	DB	0acH
	DB	0acH
	DB	0acH
	DB	0ffH
	DB	0acH
	DB	0acH
	DB	0acH
	DB	0ffH
	DB	0acH
	DB	0acH
	DB	0acH
	DB	0ffH
	DB	0acH
	DB	0acH
	DB	0acH
	DB	0ffH
	DB	0acH
	DB	0acH
	DB	0acH
	DB	0ffH
	DB	0acH
	DB	0acH
	DB	0acH
	DB	0ffH
	DB	0acH
	DB	0acH
	DB	0acH
	DB	0ffH
	DB	0acH
	DB	0acH
	DB	0acH
	DB	0ffH
	DB	0acH
	DB	0acH
	DB	0acH
	DB	0ffH
	DB	0acH
	DB	0acH
	DB	0acH
	DB	0ffH
	DB	0acH
	DB	0acH
	DB	0acH
	DB	0ffH
	DB	0acH
	DB	0acH
	DB	0acH
	DB	0ffH
	DB	0acH
	DB	0acH
	DB	0acH
	DB	0ffH
	DB	0acH
	DB	0acH
	DB	0acH
	DB	0ffH
	DB	0acH
	DB	0acH
	DB	0acH
	DB	0ffH
	DB	0acH
	DB	0acH
	DB	0acH
	DB	0ffH
	DB	0acH
	DB	0acH
	DB	0acH
	DB	0ffH
	DB	0acH
	DB	0acH
	DB	0acH
	DB	0ffH
	DB	0acH
	DB	0acH
	DB	0acH
	DB	0ffH
	DB	0acH
	DB	0acH
	DB	0acH
	DB	0ffH
	DB	0acH
	DB	0acH
	DB	0acH
	DB	0ffH
	DB	0acH
	DB	0acH
	DB	0acH
	DB	0ffH
	DB	0acH
	DB	0acH
	DB	0acH
	DB	0ffH
	DB	0acH
	DB	0acH
	DB	0acH
	DB	0ffH
	DB	0acH
	DB	0acH
	DB	0acH
	DB	0ffH
	DB	0acH
	DB	0acH
	DB	0acH
	DB	0ffH
	DB	0acH
	DB	0acH
	DB	0acH
	DB	0ffH
	DB	0acH
	DB	0acH
	DB	0acH
	DB	0ffH
	DB	0acH
	DB	0acH
	DB	0acH
	DB	0ffH
	DB	0acH
	DB	0acH
	DB	0acH
	DB	0ffH
	DB	0acH
	DB	0acH
	DB	0acH
	DB	0ffH
	DB	0acH
	DB	0acH
	DB	0acH
	DB	0ffH
	DB	0acH
	DB	0acH
	DB	0acH
	DB	0ffH
	DB	0acH
	DB	0acH
	DB	0acH
	DB	0ffH
	DB	0acH
	DB	0acH
	DB	0acH
	DB	0ffH
	DB	0acH
	DB	0acH
	DB	0acH
	DB	0ffH
	DB	0acH
	DB	0acH
	DB	0acH
	DB	0ffH
	DB	0acH
	DB	0acH
	DB	0acH
	DB	0ffH
	DB	0acH
	DB	0acH
	DB	0acH
	DB	0ffH
	DB	0acH
	DB	0acH
	DB	0acH
	DB	0ffH
	DB	0acH
	DB	0acH
	DB	0acH
	DB	0ffH
	DB	0acH
	DB	0acH
	DB	0acH
	DB	0ffH
	DB	0acH
	DB	0acH
	DB	0acH
	DB	0ffH
	DB	0acH
	DB	0acH
	DB	0acH
	DB	0ffH
	DB	0acH
	DB	0acH
	DB	0acH
	DB	0ffH
	DB	0acH
	DB	0acH
	DB	0acH
	DB	0ffH
	DB	0acH
	DB	0acH
	DB	0acH
	DB	0ffH
	DB	0acH
	DB	0acH
	DB	0acH
	DB	0ffH
	DB	0acH
	DB	0acH
	DB	0acH
	DB	0ffH
	DB	0acH
	DB	0acH
	DB	0acH
	DB	0ffH
	DB	0acH
	DB	0acH
	DB	0acH
	DB	0ffH
	DB	0acH
	DB	0acH
	DB	0acH
	DB	0ffH
	DB	0acH
	DB	0acH
	DB	0acH
	DB	0ffH
	DB	0acH
	DB	0acH
	DB	0acH
	DB	0ffH
	DB	0acH
	DB	0acH
	DB	0acH
	DB	0ffH
	DB	0acH
	DB	0acH
	DB	0acH
	DB	0ffH
	DB	0acH
	DB	0acH
	DB	0acH
	DB	0ffH
	DB	0acH
	DB	0acH
	DB	0acH
	DB	0ffH
	DB	0acH
	DB	0acH
	DB	0acH
	DB	0ffH
	DB	0acH
	DB	0acH
	DB	0acH
	DB	0ffH
	DB	0acH
	DB	0acH
	DB	0acH
	DB	0ffH
	DB	0acH
	DB	0acH
	DB	0acH
	DB	0ffH
	DB	0acH
	DB	0acH
	DB	0acH
	DB	0ffH
	DB	0acH
	DB	0acH
	DB	0acH
	DB	0ffH
	DB	0acH
	DB	0acH
	DB	0acH
	DB	0ffH
	DB	0acH
	DB	0acH
	DB	0acH
	DB	0ffH
	DB	0acH
	DB	0acH
	DB	0acH
	DB	0ffH
	DB	0acH
	DB	0acH
	DB	0acH
	DB	0ffH
	DB	0acH
	DB	0acH
	DB	0acH
	DB	0ffH
	DB	0acH
	DB	0acH
	DB	0acH
	DB	0ffH
	DB	0acH
	DB	0acH
	DB	0acH
	DB	0ffH
	DB	0acH
	DB	0acH
	DB	0acH
	DB	0ffH
	DB	0acH
	DB	0acH
	DB	0acH
	DB	0ffH
	DB	0acH
	DB	0acH
	DB	0acH
	DB	0ffH
	DB	0acH
	DB	0acH
	DB	0acH
	DB	0ffH
	DB	0acH
	DB	0acH
	DB	0acH
	DB	0ffH
	DB	0acH
	DB	0acH
	DB	0acH
	DB	0ffH
	DB	0acH
	DB	0acH
	DB	0acH
	DB	0ffH
	DB	0acH
	DB	0acH
	DB	0acH
	DB	0ffH
	DB	0acH
	DB	0acH
	DB	0acH
	DB	0ffH
	DB	0acH
	DB	0acH
	DB	0acH
	DB	0ffH
	DB	0acH
	DB	0acH
	DB	0acH
	DB	0ffH
	DB	0acH
	DB	0acH
	DB	0acH
	DB	0ffH
	DB	0acH
	DB	0acH
	DB	0acH
	DB	0ffH
	DB	0acH
	DB	0acH
	DB	0acH
	DB	0ffH
	DB	0acH
	DB	0acH
	DB	0acH
	DB	0ffH
	DB	0acH
	DB	0acH
	DB	0acH
	DB	0ffH
	DB	0acH
	DB	0acH
	DB	0acH
	DB	0ffH
	DB	0acH
	DB	0acH
	DB	0acH
	DB	0ffH
	DB	0acH
	DB	0acH
	DB	0acH
	DB	0ffH
	DB	0acH
	DB	0acH
	DB	0acH
	DB	0ffH
	DB	0acH
	DB	0acH
	DB	0acH
	DB	0ffH
	DB	0acH
	DB	0acH
	DB	0acH
	DB	0ffH
	DB	0acH
	DB	0acH
	DB	0acH
	DB	0ffH
	DB	0acH
	DB	0acH
	DB	0acH
	DB	0ffH
	DB	0acH
	DB	0acH
	DB	0acH
	DB	0ffH
	DB	0acH
	DB	0acH
	DB	0acH
	DB	0ffH
	DB	0acH
	DB	0acH
	DB	0acH
	DB	0ffH
	DB	0acH
	DB	0acH
	DB	0acH
	DB	0ffH
	DB	0acH
	DB	0acH
	DB	0acH
	DB	0ffH
	DB	0acH
	DB	0acH
	DB	0acH
	DB	0ffH
	DB	0acH
	DB	0acH
	DB	0acH
	DB	0ffH
	DB	0acH
	DB	0acH
	DB	0acH
	DB	0ffH
	DB	0acH
	DB	0acH
	DB	0acH
	DB	0ffH
	DB	0acH
	DB	0acH
	DB	0acH
	DB	0ffH
	DB	0acH
	DB	0acH
	DB	0acH
	DB	0ffH
	DB	0acH
	DB	0acH
	DB	0acH
	DB	0ffH
	DB	0acH
	DB	0acH
	DB	0acH
	DB	0ffH
	DB	0acH
	DB	0acH
	DB	0acH
	DB	0ffH
	DB	0acH
	DB	0acH
	DB	0acH
	DB	0ffH
	DB	0acH
	DB	0acH
	DB	0acH
	DB	0ffH
	DB	0acH
	DB	0acH
	DB	0acH
	DB	0ffH
	DB	0acH
	DB	0acH
	DB	0acH
	DB	0ffH
	DB	0acH
	DB	0acH
	DB	0acH
	DB	0ffH
	DB	0acH
	DB	0acH
	DB	0acH
	DB	0ffH
	DB	0acH
	DB	0acH
	DB	0acH
	DB	0ffH
	DB	0acH
	DB	0acH
	DB	0acH
	DB	0ffH
	DB	0acH
	DB	0acH
	DB	0acH
	DB	0ffH
	DB	0acH
	DB	0acH
	DB	0acH
	DB	0ffH
	DB	0acH
	DB	0acH
	DB	0acH
	DB	0ffH
	DB	0acH
	DB	0acH
	DB	0acH
	DB	0ffH
	DB	0acH
	DB	0acH
	DB	0acH
	DB	0ffH
	DB	0acH
	DB	0acH
	DB	0acH
	DB	0ffH
	DB	0acH
	DB	0acH
	DB	0acH
	DB	0ffH
	DB	0acH
	DB	0acH
	DB	0acH
	DB	0ffH
	DB	0acH
	DB	0acH
	DB	0acH
	DB	0ffH
	DB	0acH
	DB	0acH
	DB	0acH
	DB	0ffH
	DB	0acH
	DB	0acH
	DB	0acH
	DB	0ffH
	DB	0acH
	DB	0acH
	DB	0acH
	DB	0ffH
	DB	0acH
	DB	0acH
	DB	0acH
	DB	0ffH
	DB	0acH
	DB	0acH
	DB	0acH
	DB	0ffH
	DB	0acH
	DB	0acH
	DB	0acH
	DB	0ffH
	DB	0acH
	DB	0acH
	DB	0acH
	DB	0ffH
	DB	0acH
	DB	0acH
	DB	0acH
	DB	0ffH
	DB	0acH
	DB	0acH
	DB	0acH
	DB	0ffH
	DB	0acH
	DB	0acH
	DB	0acH
	DB	0ffH
	DB	0acH
	DB	0acH
	DB	0acH
	DB	0ffH
	DB	0acH
	DB	0acH
	DB	0acH
	DB	0ffH
	DB	0acH
	DB	0acH
	DB	0acH
	DB	0ffH
	DB	0acH
	DB	0acH
	DB	0acH
	DB	0ffH
	DB	0acH
	DB	0acH
	DB	0acH
	DB	0ffH
	DB	0acH
	DB	0acH
	DB	0acH
	DB	0ffH
	DB	0acH
	DB	0acH
	DB	0acH
	DB	0ffH
	DB	0acH
	DB	0acH
	DB	0acH
	DB	0ffH
	DB	0acH
	DB	0acH
	DB	0acH
	DB	0ffH
	DB	0acH
	DB	0acH
	DB	0acH
	DB	0ffH
	DB	0acH
	DB	0acH
	DB	0acH
	DB	0ffH
	DB	0acH
	DB	0acH
	DB	0acH
	DB	0ffH
	DB	0acH
	DB	0acH
	DB	0acH
	DB	0ffH
	DB	0acH
	DB	0acH
	DB	0acH
	DB	0ffH
	DB	0acH
	DB	0acH
	DB	0acH
	DB	0ffH
	DB	0acH
	DB	0acH
	DB	0acH
	DB	0ffH
	DB	0acH
	DB	0acH
	DB	0acH
	DB	0ffH
	DB	0acH
	DB	0acH
	DB	0acH
	DB	0ffH
	DB	0acH
	DB	0acH
	DB	0acH
	DB	0ffH
	DB	0acH
	DB	0acH
	DB	0acH
	DB	0ffH
	DB	0acH
	DB	0acH
	DB	0acH
	DB	0ffH
	DB	0acH
	DB	0acH
	DB	0acH
	DB	0ffH
	DB	0acH
	DB	0acH
	DB	0acH
	DB	0ffH
	DB	0acH
	DB	0acH
	DB	0acH
	DB	0ffH
	DB	0acH
	DB	0acH
	DB	0acH
	DB	0ffH
	DB	0acH
	DB	0acH
	DB	0acH
	DB	0ffH
	DB	0acH
	DB	0acH
	DB	0acH
	DB	0ffH
	DB	0acH
	DB	0acH
	DB	0acH
	DB	0ffH
	DB	0acH
	DB	0acH
	DB	0acH
	DB	0ffH
	DB	0acH
	DB	0acH
	DB	0acH
	DB	0ffH
	DB	0acH
	DB	0acH
	DB	0acH
	DB	0ffH
	DB	0acH
	DB	0acH
	DB	0acH
	DB	0ffH
	DB	0acH
	DB	0acH
	DB	0acH
	DB	0ffH
	DB	0acH
	DB	0acH
	DB	0acH
	DB	0ffH
	DB	0acH
	DB	0acH
	DB	0acH
	DB	0ffH
	DB	0acH
	DB	0acH
	DB	0acH
	DB	0ffH
	DB	0acH
	DB	0acH
	DB	0acH
	DB	0ffH
	DB	0acH
	DB	0acH
	DB	0acH
	DB	0ffH
	DB	0acH
	DB	0acH
	DB	0acH
	DB	0ffH
	DB	0acH
	DB	0acH
	DB	0acH
	DB	0ffH
	DB	0acH
	DB	0acH
	DB	0acH
	DB	0ffH
	DB	0acH
	DB	0acH
	DB	0acH
	DB	0ffH
	DB	0acH
	DB	0acH
	DB	0acH
	DB	0ffH
	DB	0acH
	DB	0acH
	DB	0acH
	DB	0ffH
	DB	0acH
	DB	0acH
	DB	0acH
	DB	0ffH
	DB	0acH
	DB	0acH
	DB	0acH
	DB	0ffH
	DB	0acH
	DB	0acH
	DB	0acH
	DB	0ffH
	DB	0acH
	DB	0acH
	DB	0acH
	DB	0ffH
	DB	0acH
	DB	0acH
	DB	0acH
	DB	0ffH
	DB	0acH
	DB	0acH
	DB	0acH
	DB	0ffH
	DB	0acH
	DB	0acH
	DB	0acH
	DB	0ffH
	DB	0acH
	DB	0acH
	DB	0acH
	DB	0ffH
	DB	0acH
	DB	0acH
	DB	0acH
	DB	0ffH
	DB	0acH
	DB	0acH
	DB	0acH
	DB	0ffH
	DB	0acH
	DB	0acH
	DB	0acH
	DB	0ffH
	DB	0acH
	DB	0acH
	DB	0acH
	DB	0ffH
	DB	0acH
	DB	0acH
	DB	0acH
	DB	0ffH
	DB	0acH
	DB	0acH
	DB	0acH
	DB	0ffH
	DB	0acH
	DB	0acH
	DB	0acH
	DB	0ffH
	DB	0acH
	DB	0acH
	DB	0acH
	DB	0ffH
	DB	0acH
	DB	0acH
	DB	0acH
	DB	0ffH
	DB	0acH
	DB	0acH
	DB	0acH
	DB	0ffH
	DB	0acH
	DB	0acH
	DB	0acH
	DB	0ffH
	DB	0acH
	DB	0acH
	DB	0acH
	DB	0ffH
	DB	0acH
	DB	0acH
	DB	0acH
	DB	0ffH
	DB	0acH
	DB	0acH
	DB	0acH
	DB	0ffH
	DB	0acH
	DB	0acH
	DB	0acH
	DB	0ffH
	DB	0acH
	DB	0acH
	DB	0acH
	DB	0ffH
	DB	0acH
	DB	0acH
	DB	0acH
	DB	0ffH
	DB	0acH
	DB	0acH
	DB	0acH
	DB	0ffH
	DB	0acH
	DB	0acH
	DB	0acH
	DB	0ffH
	DB	0acH
	DB	0acH
	DB	0acH
	DB	0ffH
	DB	0acH
	DB	0acH
	DB	0acH
	DB	0ffH
	DB	0acH
	DB	0acH
	DB	0acH
	DB	0ffH
	DB	0acH
	DB	0acH
	DB	0acH
	DB	0ffH
	DB	0acH
	DB	0acH
	DB	0acH
	DB	0ffH
	DB	0acH
	DB	0acH
	DB	0acH
	DB	0ffH
	DB	0acH
	DB	0acH
	DB	0acH
	DB	0ffH
	DB	0acH
	DB	0acH
	DB	0acH
	DB	0ffH
	DB	0acH
	DB	0acH
	DB	0acH
	DB	0ffH
	DB	0acH
	DB	0acH
	DB	0acH
	DB	0ffH
	DB	0acH
	DB	0acH
	DB	0acH
	DB	0ffH
	DB	0acH
	DB	0acH
	DB	0acH
	DB	0ffH
	DB	0acH
	DB	0acH
	DB	0acH
	DB	0ffH
	DB	0acH
	DB	0acH
	DB	0acH
	DB	0ffH
	DB	0acH
	DB	0acH
	DB	0acH
	DB	0ffH
	DB	0acH
	DB	0acH
	DB	0acH
	DB	0ffH
	DB	0acH
	DB	0acH
	DB	0acH
	DB	0ffH
	DB	0acH
	DB	0acH
	DB	0acH
	DB	0ffH
	DB	0acH
	DB	0acH
	DB	0acH
	DB	0ffH
	DB	0acH
	DB	0acH
	DB	0acH
	DB	0ffH
	DB	0acH
	DB	0acH
	DB	0acH
	DB	0ffH
	DB	0acH
	DB	0acH
	DB	0acH
	DB	0ffH
	DB	0acH
	DB	0acH
	DB	0acH
	DB	0ffH
	DB	0acH
	DB	0acH
	DB	0acH
	DB	0ffH
	DB	0acH
	DB	0acH
	DB	0acH
	DB	0ffH
	DB	0acH
	DB	0acH
	DB	0acH
	DB	0ffH
	DB	0acH
	DB	0acH
	DB	0acH
	DB	0ffH
	DB	0acH
	DB	0acH
	DB	0acH
	DB	0ffH
	DB	0acH
	DB	0acH
	DB	0acH
	DB	0ffH
	DB	0acH
	DB	0acH
	DB	0acH
	DB	0ffH
	DB	0acH
	DB	0acH
	DB	0acH
	DB	0ffH
	DB	0acH
	DB	0acH
	DB	0acH
	DB	0ffH
	DB	0acH
	DB	0acH
	DB	0acH
	DB	0ffH
	DB	0acH
	DB	0acH
	DB	0acH
	DB	0ffH
	DB	0acH
	DB	0acH
	DB	0acH
	DB	0ffH
	DB	0acH
	DB	0acH
	DB	0acH
	DB	0ffH
	DB	0acH
	DB	0acH
	DB	0acH
	DB	0ffH
	DB	0acH
	DB	0acH
	DB	0acH
	DB	0ffH
	DB	0acH
	DB	0acH
	DB	0acH
	DB	0ffH
	DB	0acH
	DB	0acH
	DB	0acH
	DB	0ffH
	DB	0acH
	DB	0acH
	DB	0acH
	DB	0ffH
	DB	0acH
	DB	0acH
	DB	0acH
	DB	0ffH
	DB	0acH
	DB	0acH
	DB	0acH
	DB	0ffH
	DB	0acH
	DB	0acH
	DB	0acH
	DB	0ffH
	DB	0acH
	DB	0acH
	DB	0acH
	DB	0ffH
	DB	0acH
	DB	0acH
	DB	0acH
	DB	0ffH
	DB	0acH
	DB	0acH
	DB	0acH
	DB	0ffH
	DB	0acH
	DB	0acH
	DB	0acH
	DB	0ffH
	DB	0acH
	DB	0acH
	DB	0acH
	DB	0ffH
	DB	0acH
	DB	0acH
	DB	0acH
	DB	0ffH
	DB	0acH
	DB	0acH
	DB	0acH
	DB	0ffH
	DB	0acH
	DB	0acH
	DB	0acH
	DB	0ffH
	DB	0acH
	DB	0acH
	DB	0acH
	DB	0ffH
	DB	0acH
	DB	0acH
	DB	0acH
	DB	0ffH
	DB	0acH
	DB	0acH
	DB	0acH
	DB	0ffH
	DB	0acH
	DB	0acH
	DB	0acH
	DB	0ffH
	DB	0acH
	DB	0acH
	DB	0acH
	DB	0ffH
	DB	0acH
	DB	0acH
	DB	0acH
	DB	0ffH
	DB	0acH
	DB	0acH
	DB	0acH
	DB	0ffH
	DB	0acH
	DB	0acH
	DB	0acH
	DB	0ffH
	DB	0acH
	DB	0acH
	DB	0acH
	DB	0ffH
	DB	0acH
	DB	0acH
	DB	0acH
	DB	0ffH
	DB	0acH
	DB	0acH
	DB	0acH
	DB	0ffH
	DB	0acH
	DB	0acH
	DB	0acH
	DB	0ffH
	DB	0acH
	DB	0acH
	DB	0acH
	DB	0ffH
	DB	0acH
	DB	0acH
	DB	0acH
	DB	0ffH
	DB	0acH
	DB	0acH
	DB	0acH
	DB	0ffH
	DB	0acH
	DB	0acH
	DB	0acH
	DB	0ffH
	DB	0acH
	DB	0acH
	DB	0acH
	DB	0ffH
	DB	0acH
	DB	0acH
	DB	0acH
	DB	0ffH
	DB	0acH
	DB	0acH
	DB	0acH
	DB	0ffH
	DB	0acH
	DB	0acH
	DB	0acH
	DB	0ffH
	DB	0acH
	DB	0acH
	DB	0acH
	DB	0ffH
	DB	0acH
	DB	0acH
	DB	0acH
	DB	0ffH
	DB	0acH
	DB	0acH
	DB	0acH
	DB	0ffH
	DB	0acH
	DB	0acH
	DB	0acH
	DB	0ffH
	DB	0acH
	DB	0acH
	DB	0acH
	DB	0ffH
	DB	0acH
	DB	0acH
	DB	0acH
	DB	0ffH
	DB	0acH
	DB	0acH
	DB	0acH
	DB	0ffH
	DB	0acH
	DB	0acH
	DB	0acH
	DB	0ffH
	DB	0acH
	DB	0acH
	DB	0acH
	DB	0ffH
	DB	0acH
	DB	0acH
	DB	0acH
	DB	0ffH
	DB	0acH
	DB	0acH
	DB	0acH
	DB	0ffH
	DB	0acH
	DB	0acH
	DB	0acH
	DB	0ffH
	DB	0acH
	DB	0acH
	DB	0acH
	DB	0ffH
	DB	0acH
	DB	0acH
	DB	0acH
	DB	0ffH
	DB	0acH
	DB	0acH
	DB	0acH
	DB	0ffH
	DB	0acH
	DB	0acH
	DB	0acH
	DB	0ffH
	DB	0acH
	DB	0acH
	DB	0acH
	DB	0ffH
	DB	0acH
	DB	0acH
	DB	0acH
	DB	0ffH
	DB	0acH
	DB	0acH
	DB	0acH
	DB	0ffH
	DB	0acH
	DB	0acH
	DB	0acH
	DB	0ffH
	DB	0acH
	DB	0acH
	DB	0acH
	DB	0ffH
	DB	0acH
	DB	0acH
	DB	0acH
	DB	0ffH
	DB	0acH
	DB	0acH
	DB	0acH
	DB	0ffH
	DB	0acH
	DB	0acH
	DB	0acH
	DB	0ffH
	DB	0acH
	DB	0acH
	DB	0acH
	DB	0ffH
	DB	0acH
	DB	0acH
	DB	0acH
	DB	0ffH
	DB	0acH
	DB	0acH
	DB	0acH
	DB	0ffH
	DB	0acH
	DB	0acH
	DB	0acH
	DB	0ffH
	DB	0acH
	DB	0acH
	DB	0acH
	DB	0ffH
	DB	0acH
	DB	0acH
	DB	0acH
	DB	0ffH
	DB	0acH
	DB	0acH
	DB	0acH
	DB	0ffH
	DB	0acH
	DB	0acH
	DB	0acH
	DB	0ffH
	DB	0acH
	DB	0acH
	DB	0acH
	DB	0ffH
	DB	0acH
	DB	0acH
	DB	0acH
	DB	0ffH
	DB	0acH
	DB	0acH
	DB	0acH
	DB	0ffH
	DB	0acH
	DB	0acH
	DB	0acH
	DB	0ffH
	DB	0acH
	DB	0acH
	DB	0acH
	DB	0ffH
	DB	0acH
	DB	0acH
	DB	0acH
	DB	0ffH
	DB	0acH
	DB	0acH
	DB	0acH
	DB	0ffH
	DB	0acH
	DB	0acH
	DB	0acH
	DB	0ffH
	DB	0acH
	DB	0acH
	DB	0acH
	DB	0ffH
	DB	0acH
	DB	0acH
	DB	0acH
	DB	0ffH
	DB	0acH
	DB	0acH
	DB	0acH
	DB	0ffH
	DB	0acH
	DB	0acH
	DB	0acH
	DB	0ffH
	DB	0acH
	DB	0acH
	DB	0acH
	DB	0ffH
	DB	0acH
	DB	0acH
	DB	0acH
	DB	0ffH
	DB	0acH
	DB	0acH
	DB	0acH
	DB	0ffH
	DB	0acH
	DB	0acH
	DB	0acH
	DB	0ffH
	DB	0acH
	DB	0acH
	DB	0acH
	DB	0ffH
	DB	0acH
	DB	0acH
	DB	0acH
	DB	0ffH
	DB	0acH
	DB	0acH
	DB	0acH
	DB	0ffH
	DB	0acH
	DB	0acH
	DB	0acH
	DB	0ffH
	DB	0acH
	DB	0acH
	DB	0acH
	DB	0ffH
	DB	0acH
	DB	0acH
	DB	0acH
	DB	0ffH
	DB	0acH
	DB	0acH
	DB	0acH
	DB	0ffH
	DB	0acH
	DB	0acH
	DB	0acH
	DB	0ffH
	DB	0acH
	DB	0acH
	DB	0acH
	DB	0ffH
	DB	0acH
	DB	0acH
	DB	0acH
	DB	0ffH
	DB	0acH
	DB	0acH
	DB	0acH
	DB	0ffH
	DB	0acH
	DB	0acH
	DB	0acH
	DB	0ffH
	DB	0acH
	DB	0acH
	DB	0acH
	DB	0ffH
	DB	0acH
	DB	0acH
	DB	0acH
	DB	0ffH
	DB	0acH
	DB	0acH
	DB	0acH
	DB	0ffH
	DB	0acH
	DB	0acH
	DB	0acH
	DB	0ffH
	DB	0acH
	DB	0acH
	DB	0acH
	DB	0ffH
	DB	0acH
	DB	0acH
	DB	0acH
	DB	0ffH
	DB	0acH
	DB	0acH
	DB	0acH
	DB	0ffH
	DB	0acH
	DB	0acH
	DB	0acH
	DB	0ffH
	DB	0acH
	DB	0acH
	DB	0acH
	DB	0ffH
	DB	0acH
	DB	0acH
	DB	0acH
	DB	0ffH
	DB	0acH
	DB	0acH
	DB	0acH
	DB	0ffH
	DB	0acH
	DB	0acH
	DB	0acH
	DB	0ffH
	DB	0acH
	DB	0acH
	DB	0acH
	DB	0ffH
	DB	0acH
	DB	0acH
	DB	0acH
	DB	0ffH
	DB	0acH
	DB	0acH
	DB	0acH
	DB	0ffH
	DB	0acH
	DB	0acH
	DB	0acH
	DB	0ffH
	DB	0acH
	DB	0acH
	DB	0acH
	DB	0ffH
	DB	0acH
	DB	0acH
	DB	0acH
	DB	0ffH
	DB	0acH
	DB	0acH
	DB	0acH
	DB	0ffH
	DB	0acH
	DB	0acH
	DB	0acH
	DB	0ffH
	DB	0acH
	DB	0acH
	DB	0acH
	DB	0ffH
	DB	0acH
	DB	0acH
	DB	0acH
	DB	0ffH
	DB	0acH
	DB	0acH
	DB	0acH
	DB	0ffH
	DB	0acH
	DB	0acH
	DB	0acH
	DB	0ffH
	DB	0acH
	DB	0acH
	DB	0acH
	DB	0ffH
	DB	0acH
	DB	0acH
	DB	0acH
	DB	0ffH
	DB	0acH
	DB	0acH
	DB	0acH
	DB	0ffH
	DB	0acH
	DB	0acH
	DB	0acH
	DB	0ffH
	DB	0acH
	DB	0acH
	DB	0acH
	DB	0ffH
	DB	0acH
	DB	0acH
	DB	0acH
	DB	0ffH
	DB	0acH
	DB	0acH
	DB	0acH
	DB	0ffH
	DB	0acH
	DB	0acH
	DB	0acH
	DB	0ffH
	DB	0acH
	DB	0acH
	DB	0acH
	DB	0ffH
	DB	0acH
	DB	0acH
	DB	0acH
	DB	0ffH
	DB	0acH
	DB	0acH
	DB	0acH
	DB	0ffH
	DB	0acH
	DB	0acH
	DB	0acH
	DB	0ffH
	DB	0acH
	DB	0acH
	DB	0acH
	DB	0ffH
	DB	0acH
	DB	0acH
	DB	0acH
	DB	0ffH
	DB	0acH
	DB	0acH
	DB	0acH
	DB	0ffH
	DB	0acH
	DB	0acH
	DB	0acH
	DB	0ffH
	DB	0acH
	DB	0acH
	DB	0acH
	DB	0ffH
	DB	0acH
	DB	0acH
	DB	0acH
	DB	0ffH
	DB	0acH
	DB	0acH
	DB	0acH
	DB	0ffH
	DB	0acH
	DB	0acH
	DB	0acH
	DB	0ffH
	DB	0acH
	DB	0acH
	DB	0acH
	DB	0ffH
	DB	0acH
	DB	0acH
	DB	0acH
	DB	0ffH
	DB	0acH
	DB	0acH
	DB	0acH
	DB	0ffH
	DB	0acH
	DB	0acH
	DB	0acH
	DB	0ffH
	DB	0acH
	DB	0acH
	DB	0acH
	DB	0ffH
	DB	0acH
	DB	0acH
	DB	0acH
	DB	0ffH
	DB	0acH
	DB	0acH
	DB	0acH
	DB	0ffH
	DB	0acH
	DB	0acH
	DB	0acH
	DB	0ffH
	DB	0acH
	DB	0acH
	DB	0acH
	DB	0ffH
	DB	0acH
	DB	0acH
	DB	0acH
	DB	0ffH
	DB	0acH
	DB	0acH
	DB	0acH
	DB	0ffH
	DB	0acH
	DB	0acH
	DB	0acH
	DB	0ffH
	DB	0acH
	DB	0acH
	DB	0acH
	DB	0ffH
	DB	0acH
	DB	0acH
	DB	0acH
	DB	0ffH
	DB	0acH
	DB	0acH
	DB	0acH
	DB	0ffH
	DB	0acH
	DB	0acH
	DB	0acH
	DB	0ffH
	DB	0acH
	DB	0acH
	DB	0acH
	DB	0ffH
	DB	0acH
	DB	0acH
	DB	0acH
	DB	0ffH
	DB	0acH
	DB	0acH
	DB	0acH
	DB	0ffH
	DB	0acH
	DB	0acH
	DB	0acH
	DB	0ffH
	DB	0acH
	DB	0acH
	DB	0acH
	DB	0ffH
	DB	0acH
	DB	0acH
	DB	0acH
	DB	0ffH
	DB	0acH
	DB	0acH
	DB	0acH
	DB	0ffH
	DB	0acH
	DB	0acH
	DB	0acH
	DB	0ffH
	DB	0acH
	DB	0acH
	DB	0acH
	DB	0ffH
	DB	0acH
	DB	0acH
	DB	0acH
	DB	0ffH
	DB	0acH
	DB	0acH
	DB	0acH
	DB	0ffH
	DB	0acH
	DB	0acH
	DB	0acH
	DB	0ffH
	DB	0acH
	DB	0acH
	DB	0acH
	DB	0ffH
	DB	0acH
	DB	0acH
	DB	0acH
	DB	0ffH
	DB	0acH
	DB	0acH
	DB	0acH
	DB	0ffH
	DB	0acH
	DB	0acH
	DB	0acH
	DB	0ffH
	DB	0acH
	DB	0acH
	DB	0acH
	DB	0ffH
	DB	0acH
	DB	0acH
	DB	0acH
	DB	0ffH
	DB	0acH
	DB	0acH
	DB	0acH
	DB	0ffH
	DB	0acH
	DB	0acH
	DB	0acH
	DB	0ffH
	DB	0acH
	DB	0acH
	DB	0acH
	DB	0ffH
	DB	0acH
	DB	0acH
	DB	0acH
	DB	0ffH
	DB	0acH
	DB	0acH
	DB	0acH
	DB	0ffH
	DB	0acH
	DB	0acH
	DB	0acH
	DB	0ffH
	DB	0acH
	DB	0acH
	DB	0acH
	DB	0ffH
	DB	0acH
	DB	0acH
	DB	0acH
	DB	0ffH
	DB	0acH
	DB	0acH
	DB	0acH
	DB	0ffH
	DB	0acH
	DB	0acH
	DB	0acH
	DB	0ffH
	DB	0acH
	DB	0acH
	DB	0acH
	DB	0ffH
	DB	0acH
	DB	0acH
	DB	0acH
	DB	0ffH
	DB	0acH
	DB	0acH
	DB	0acH
	DB	0ffH
	DB	0acH
	DB	0acH
	DB	0acH
	DB	0ffH
	DB	0acH
	DB	0acH
	DB	0acH
	DB	0ffH
	DB	0acH
	DB	0acH
	DB	0acH
	DB	0ffH
	DB	0acH
	DB	0acH
	DB	0acH
	DB	0ffH
	DB	0acH
	DB	0acH
	DB	0acH
	DB	0ffH
	DB	0acH
	DB	0acH
	DB	0acH
	DB	0ffH
	DB	0acH
	DB	0acH
	DB	0acH
	DB	0ffH
	DB	0acH
	DB	0acH
	DB	0acH
	DB	0ffH
	DB	0acH
	DB	0acH
	DB	0acH
	DB	0ffH
	DB	0acH
	DB	0acH
	DB	0acH
	DB	0ffH
	DB	0acH
	DB	0acH
	DB	0acH
	DB	0ffH
	DB	0acH
	DB	0acH
	DB	0acH
	DB	0ffH
	DB	0acH
	DB	0acH
	DB	0acH
	DB	0ffH
	DB	0acH
	DB	0acH
	DB	0acH
	DB	0ffH
	DB	0acH
	DB	0acH
	DB	0acH
	DB	0ffH
	DB	0acH
	DB	0acH
	DB	0acH
	DB	0ffH
	DB	0acH
	DB	0acH
	DB	0acH
	DB	0ffH
	DB	0acH
	DB	0acH
	DB	0acH
	DB	0ffH
	DB	0acH
	DB	0acH
	DB	0acH
	DB	0ffH
	DB	0acH
	DB	0acH
	DB	0acH
	DB	0ffH
	DB	0acH
	DB	0acH
	DB	0acH
	DB	0ffH
	DB	0acH
	DB	0acH
	DB	0acH
	DB	0ffH
	DB	0acH
	DB	0acH
	DB	0acH
	DB	0ffH
	DB	0acH
	DB	0acH
	DB	0acH
	DB	0ffH
	DB	0acH
	DB	0acH
	DB	0acH
	DB	0ffH
	DB	0acH
	DB	0acH
	DB	0acH
	DB	0ffH
	DB	0acH
	DB	0acH
	DB	0acH
	DB	0ffH
	DB	0acH
	DB	0acH
	DB	0acH
	DB	0ffH
	DB	0acH
	DB	0acH
	DB	0acH
	DB	0ffH
	DB	0acH
	DB	0acH
	DB	0acH
	DB	0ffH
	DB	0acH
	DB	0acH
	DB	0acH
	DB	0ffH
	DB	0acH
	DB	0acH
	DB	0acH
	DB	0ffH
	DB	0acH
	DB	0acH
	DB	0acH
	DB	0ffH
	DB	0acH
	DB	0acH
	DB	0acH
	DB	0ffH
	DB	0acH
	DB	0acH
	DB	0acH
	DB	0ffH
	DB	0acH
	DB	0acH
	DB	0acH
	DB	0ffH
	DB	0acH
	DB	0acH
	DB	0acH
	DB	0ffH
	DB	0acH
	DB	0acH
	DB	0acH
	DB	0ffH
	DB	0acH
	DB	0acH
	DB	0acH
	DB	0ffH
	DB	0acH
	DB	0acH
	DB	0acH
	DB	0ffH
	DB	0acH
	DB	0acH
	DB	0acH
	DB	0ffH
	DB	0acH
	DB	0acH
	DB	0acH
	DB	0ffH
	DB	0acH
	DB	0acH
	DB	0acH
	DB	0ffH
	DB	0acH
	DB	0acH
	DB	0acH
	DB	0ffH
	DB	0acH
	DB	0acH
	DB	0acH
	DB	0ffH
	DB	0acH
	DB	0acH
	DB	0acH
	DB	0ffH
	DB	0acH
	DB	0acH
	DB	0acH
	DB	0ffH
	DB	0acH
	DB	0acH
	DB	0acH
	DB	0ffH
	DB	0acH
	DB	0acH
	DB	0acH
	DB	0ffH
	DB	0acH
	DB	0acH
	DB	0acH
	DB	0ffH
	DB	0acH
	DB	0acH
	DB	0acH
	DB	0ffH
	DB	0acH
	DB	0acH
	DB	0acH
	DB	0ffH
	DB	0acH
	DB	0acH
	DB	0acH
	DB	0ffH
	DB	0acH
	DB	0acH
	DB	0acH
	DB	0ffH
	DB	0acH
	DB	0acH
	DB	0acH
	DB	0ffH
	DB	0acH
	DB	0acH
	DB	0acH
	DB	0ffH
	DB	0acH
	DB	0acH
	DB	0acH
	DB	0ffH
	DB	0acH
	DB	0acH
	DB	0acH
	DB	0ffH
	DB	0acH
	DB	0acH
	DB	0acH
	DB	0ffH
	DB	0acH
	DB	0acH
	DB	0acH
	DB	0ffH
	DB	0acH
	DB	0acH
	DB	0acH
	DB	0ffH
	DB	0acH
	DB	0acH
	DB	0acH
	DB	0ffH
	DB	0acH
	DB	0acH
	DB	0acH
	DB	0ffH
	DB	0acH
	DB	0acH
	DB	0acH
	DB	0ffH
	DB	0acH
	DB	0acH
	DB	0acH
	DB	0ffH
	DB	0acH
	DB	0acH
	DB	0acH
	DB	0ffH
	DB	0acH
	DB	0acH
	DB	0acH
	DB	0ffH
	DB	0acH
	DB	0acH
	DB	0acH
	DB	0ffH
	DB	0acH
	DB	0acH
	DB	0acH
	DB	0ffH
	DB	0acH
	DB	0acH
	DB	0acH
	DB	0ffH
	DB	0acH
	DB	0acH
	DB	0acH
	DB	0ffH
	DB	0acH
	DB	0acH
	DB	0acH
	DB	0ffH
	DB	0acH
	DB	0acH
	DB	0acH
	DB	0ffH
	DB	0acH
	DB	0acH
	DB	0acH
	DB	0ffH
	DB	0acH
	DB	0acH
	DB	0acH
	DB	0ffH
	DB	0acH
	DB	0acH
	DB	0acH
	DB	0ffH
	DB	0acH
	DB	0acH
	DB	0acH
	DB	0ffH
	DB	0acH
	DB	0acH
	DB	0acH
	DB	0ffH
	DB	0acH
	DB	0acH
	DB	0acH
	DB	0ffH
	DB	0acH
	DB	0acH
	DB	0acH
	DB	0ffH
	DB	0acH
	DB	0acH
	DB	0acH
	DB	0ffH
	DB	0acH
	DB	0acH
	DB	0acH
	DB	0ffH
	DB	0acH
	DB	0acH
	DB	0acH
	DB	0ffH
	DB	0acH
	DB	0acH
	DB	0acH
	DB	0ffH
	DB	0acH
	DB	0acH
	DB	0acH
	DB	0ffH
	DB	0acH
	DB	0acH
	DB	0acH
	DB	0ffH
	DB	0acH
	DB	0acH
	DB	0acH
	DB	0ffH
	DB	0acH
	DB	0acH
	DB	0acH
	DB	0ffH
	DB	0acH
	DB	0acH
	DB	0acH
	DB	0ffH
	DB	0acH
	DB	0acH
	DB	0acH
	DB	0ffH
	DB	0acH
	DB	0acH
	DB	0acH
	DB	0ffH
	DB	0acH
	DB	0acH
	DB	0acH
	DB	0ffH
	DB	0acH
	DB	0acH
	DB	0acH
	DB	0ffH
	DB	0acH
	DB	0acH
	DB	0acH
	DB	0ffH
	DB	0acH
	DB	0acH
	DB	0acH
	DB	0ffH
	DB	0acH
	DB	0acH
	DB	0acH
	DB	0ffH
	DB	0acH
	DB	0acH
	DB	0acH
	DB	0ffH
	DB	0acH
	DB	0acH
	DB	0acH
	DB	0ffH
	DB	0acH
	DB	0acH
	DB	0acH
	DB	0ffH
	DB	0acH
	DB	0acH
	DB	0acH
	DB	0ffH
	DB	0acH
	DB	0acH
	DB	0acH
	DB	0ffH
	DB	0acH
	DB	0acH
	DB	0acH
	DB	0ffH
	DB	0acH
	DB	0acH
	DB	0acH
	DB	0ffH
	DB	0acH
	DB	0acH
	DB	0acH
	DB	0ffH
	DB	0acH
	DB	0acH
	DB	0acH
	DB	0ffH
	DB	0acH
	DB	0acH
	DB	0acH
	DB	0ffH
	DB	0acH
	DB	0acH
	DB	0acH
	DB	0ffH
	DB	0acH
	DB	0acH
	DB	0acH
	DB	0ffH
	DB	0acH
	DB	0acH
	DB	0acH
	DB	0ffH
	DB	0acH
	DB	0acH
	DB	0acH
	DB	0ffH
	DB	0acH
	DB	0acH
	DB	0acH
	DB	0ffH
	DB	0acH
	DB	0acH
	DB	0acH
	DB	0ffH
	DB	0acH
	DB	0acH
	DB	0acH
	DB	0ffH
	DB	0acH
	DB	0acH
	DB	0acH
	DB	0ffH
	DB	0acH
	DB	0acH
	DB	0acH
	DB	0ffH
	DB	0acH
	DB	0acH
	DB	0acH
	DB	0ffH
	DB	0acH
	DB	0acH
	DB	0acH
	DB	0ffH
	DB	0acH
	DB	0acH
	DB	0acH
	DB	0ffH
	DB	0acH
	DB	0acH
	DB	0acH
	DB	0ffH
	DB	0acH
	DB	0acH
	DB	0acH
	DB	0ffH
	DB	0acH
	DB	0acH
	DB	0acH
	DB	0ffH
	DB	0acH
	DB	0acH
	DB	0acH
	DB	0ffH
	DB	0acH
	DB	0acH
	DB	0acH
	DB	0ffH
	DB	0acH
	DB	0acH
	DB	0acH
	DB	0ffH
	DB	0acH
	DB	0acH
	DB	0acH
	DB	0ffH
	DB	0acH
	DB	0acH
	DB	0acH
	DB	0ffH
	DB	0acH
	DB	0acH
	DB	0acH
	DB	0ffH
	DB	0acH
	DB	0acH
	DB	0acH
	DB	0ffH
	DB	0acH
	DB	0acH
	DB	0acH
	DB	0ffH
	DB	0acH
	DB	0acH
	DB	0acH
	DB	0ffH
	DB	0acH
	DB	0acH
	DB	0acH
	DB	0ffH
	DB	0acH
	DB	0acH
	DB	0acH
	DB	0ffH
	DB	0acH
	DB	0acH
	DB	0acH
	DB	0ffH
	DB	0acH
	DB	0acH
	DB	0acH
	DB	0ffH
	DB	0acH
	DB	0acH
	DB	0acH
	DB	0ffH
	DB	0acH
	DB	0acH
	DB	0acH
	DB	0ffH
	DB	0acH
	DB	0acH
	DB	0acH
	DB	0ffH
	DB	0acH
	DB	0acH
	DB	0acH
	DB	0ffH
	DB	0acH
	DB	0acH
	DB	0acH
	DB	0ffH
	DB	0acH
	DB	0acH
	DB	0acH
	DB	0ffH
	DB	0acH
	DB	0acH
	DB	0acH
	DB	0ffH
	DB	0acH
	DB	0acH
	DB	0acH
	DB	0f3H
	DB	0acH
	DB	0acH
	DB	0acH
	DB	0c7H
	DB	0acH
	DB	0acH
	DB	0acH
	DB	06eH
	DB	0acH
	DB	0acH
	DB	0acH
	DB	06H
	DB	00H
	DB	00H
	DB	00H
	DB	00H
	DB	00H
	DB	00H
	DB	00H
	DB	00H
	DB	00H
	DB	00H
	DB	00H
	DB	00H
	DB	00H
	DB	00H
	DB	00H
	DB	00H
	DB	00H
	DB	00H
	DB	00H
	DB	00H
	DB	0acH
	DB	0acH
	DB	0acH
	DB	01bH
	DB	0acH
	DB	0acH
	DB	0acH
	DB	0cfH
	DB	0acH
	DB	0acH
	DB	0acH
	DB	0ffH
	DB	0acH
	DB	0acH
	DB	0acH
	DB	0ffH
	DB	0acH
	DB	0acH
	DB	0acH
	DB	0ffH
	DB	0acH
	DB	0acH
	DB	0acH
	DB	0ffH
	DB	0acH
	DB	0acH
	DB	0acH
	DB	0ffH
	DB	0acH
	DB	0acH
	DB	0acH
	DB	0ffH
	DB	0acH
	DB	0acH
	DB	0acH
	DB	0ffH
	DB	0acH
	DB	0acH
	DB	0acH
	DB	0ffH
	DB	0acH
	DB	0acH
	DB	0acH
	DB	0ffH
	DB	0acH
	DB	0acH
	DB	0acH
	DB	0ffH
	DB	0acH
	DB	0acH
	DB	0acH
	DB	0ffH
	DB	0acH
	DB	0acH
	DB	0acH
	DB	0ffH
	DB	0acH
	DB	0acH
	DB	0acH
	DB	0ffH
	DB	0acH
	DB	0acH
	DB	0acH
	DB	0ffH
	DB	0acH
	DB	0acH
	DB	0acH
	DB	0ffH
	DB	0acH
	DB	0acH
	DB	0acH
	DB	0ffH
	DB	0acH
	DB	0acH
	DB	0acH
	DB	0ffH
	DB	0acH
	DB	0acH
	DB	0acH
	DB	0ffH
	DB	0acH
	DB	0acH
	DB	0acH
	DB	0ffH
	DB	0acH
	DB	0acH
	DB	0acH
	DB	0ffH
	DB	0acH
	DB	0acH
	DB	0acH
	DB	0ffH
	DB	0acH
	DB	0acH
	DB	0acH
	DB	0ffH
	DB	0acH
	DB	0acH
	DB	0acH
	DB	0ffH
	DB	0acH
	DB	0acH
	DB	0acH
	DB	0ffH
	DB	0acH
	DB	0acH
	DB	0acH
	DB	0ffH
	DB	0acH
	DB	0acH
	DB	0acH
	DB	0ffH
	DB	0acH
	DB	0acH
	DB	0acH
	DB	0ffH
	DB	0acH
	DB	0acH
	DB	0acH
	DB	0ffH
	DB	0acH
	DB	0acH
	DB	0acH
	DB	0ffH
	DB	0acH
	DB	0acH
	DB	0acH
	DB	0ffH
	DB	0acH
	DB	0acH
	DB	0acH
	DB	0ffH
	DB	0acH
	DB	0acH
	DB	0acH
	DB	0ffH
	DB	0acH
	DB	0acH
	DB	0acH
	DB	0ffH
	DB	0acH
	DB	0acH
	DB	0acH
	DB	0ffH
	DB	0acH
	DB	0acH
	DB	0acH
	DB	0ffH
	DB	0acH
	DB	0acH
	DB	0acH
	DB	0ffH
	DB	0acH
	DB	0acH
	DB	0acH
	DB	0ffH
	DB	0acH
	DB	0acH
	DB	0acH
	DB	0ffH
	DB	0acH
	DB	0acH
	DB	0acH
	DB	0ffH
	DB	0acH
	DB	0acH
	DB	0acH
	DB	0ffH
	DB	0acH
	DB	0acH
	DB	0acH
	DB	0ffH
	DB	0acH
	DB	0acH
	DB	0acH
	DB	0ffH
	DB	0acH
	DB	0acH
	DB	0acH
	DB	0ffH
	DB	0acH
	DB	0acH
	DB	0acH
	DB	0ffH
	DB	0acH
	DB	0acH
	DB	0acH
	DB	0ffH
	DB	0acH
	DB	0acH
	DB	0acH
	DB	0ffH
	DB	0acH
	DB	0acH
	DB	0acH
	DB	0ffH
	DB	0acH
	DB	0acH
	DB	0acH
	DB	0ffH
	DB	0acH
	DB	0acH
	DB	0acH
	DB	0ffH
	DB	0acH
	DB	0acH
	DB	0acH
	DB	0ffH
	DB	0acH
	DB	0acH
	DB	0acH
	DB	0ffH
	DB	0acH
	DB	0acH
	DB	0acH
	DB	0ffH
	DB	0acH
	DB	0acH
	DB	0acH
	DB	0ffH
	DB	0acH
	DB	0acH
	DB	0acH
	DB	0ffH
	DB	0acH
	DB	0acH
	DB	0acH
	DB	0ffH
	DB	0acH
	DB	0acH
	DB	0acH
	DB	0ffH
	DB	0acH
	DB	0acH
	DB	0acH
	DB	0ffH
	DB	0acH
	DB	0acH
	DB	0acH
	DB	0ffH
	DB	0acH
	DB	0acH
	DB	0acH
	DB	0ffH
	DB	0acH
	DB	0acH
	DB	0acH
	DB	0ffH
	DB	0acH
	DB	0acH
	DB	0acH
	DB	0ffH
	DB	0acH
	DB	0acH
	DB	0acH
	DB	0ffH
	DB	0acH
	DB	0acH
	DB	0acH
	DB	0ffH
	DB	0acH
	DB	0acH
	DB	0acH
	DB	0ffH
	DB	0acH
	DB	0acH
	DB	0acH
	DB	0ffH
	DB	0acH
	DB	0acH
	DB	0acH
	DB	0ffH
	DB	0acH
	DB	0acH
	DB	0acH
	DB	0ffH
	DB	0acH
	DB	0acH
	DB	0acH
	DB	0ffH
	DB	0acH
	DB	0acH
	DB	0acH
	DB	0ffH
	DB	0acH
	DB	0acH
	DB	0acH
	DB	0ffH
	DB	0acH
	DB	0acH
	DB	0acH
	DB	0ffH
	DB	0acH
	DB	0acH
	DB	0acH
	DB	0ffH
	DB	0acH
	DB	0acH
	DB	0acH
	DB	0ffH
	DB	0acH
	DB	0acH
	DB	0acH
	DB	0ffH
	DB	0acH
	DB	0acH
	DB	0acH
	DB	0ffH
	DB	0acH
	DB	0acH
	DB	0acH
	DB	0ffH
	DB	0acH
	DB	0acH
	DB	0acH
	DB	0ffH
	DB	0acH
	DB	0acH
	DB	0acH
	DB	0ffH
	DB	0acH
	DB	0acH
	DB	0acH
	DB	0ffH
	DB	0acH
	DB	0acH
	DB	0acH
	DB	0ffH
	DB	0acH
	DB	0acH
	DB	0acH
	DB	0ffH
	DB	0acH
	DB	0acH
	DB	0acH
	DB	0ffH
	DB	0acH
	DB	0acH
	DB	0acH
	DB	0ffH
	DB	0acH
	DB	0acH
	DB	0acH
	DB	0ffH
	DB	0acH
	DB	0acH
	DB	0acH
	DB	0ffH
	DB	0acH
	DB	0acH
	DB	0acH
	DB	0ffH
	DB	0acH
	DB	0acH
	DB	0acH
	DB	0ffH
	DB	0acH
	DB	0acH
	DB	0acH
	DB	0ffH
	DB	0acH
	DB	0acH
	DB	0acH
	DB	0ffH
	DB	0acH
	DB	0acH
	DB	0acH
	DB	0ffH
	DB	0acH
	DB	0acH
	DB	0acH
	DB	0ffH
	DB	0acH
	DB	0acH
	DB	0acH
	DB	0ffH
	DB	0acH
	DB	0acH
	DB	0acH
	DB	0ffH
	DB	0acH
	DB	0acH
	DB	0acH
	DB	0ffH
	DB	0acH
	DB	0acH
	DB	0acH
	DB	0ffH
	DB	0acH
	DB	0acH
	DB	0acH
	DB	0ffH
	DB	0acH
	DB	0acH
	DB	0acH
	DB	0ffH
	DB	0acH
	DB	0acH
	DB	0acH
	DB	0ffH
	DB	0acH
	DB	0acH
	DB	0acH
	DB	0ffH
	DB	0acH
	DB	0acH
	DB	0acH
	DB	0ffH
	DB	0acH
	DB	0acH
	DB	0acH
	DB	0ffH
	DB	0acH
	DB	0acH
	DB	0acH
	DB	0ffH
	DB	0acH
	DB	0acH
	DB	0acH
	DB	0ffH
	DB	0acH
	DB	0acH
	DB	0acH
	DB	0ffH
	DB	0acH
	DB	0acH
	DB	0acH
	DB	0ffH
	DB	0acH
	DB	0acH
	DB	0acH
	DB	0ffH
	DB	0acH
	DB	0acH
	DB	0acH
	DB	0ffH
	DB	0acH
	DB	0acH
	DB	0acH
	DB	0ffH
	DB	0acH
	DB	0acH
	DB	0acH
	DB	0ffH
	DB	0acH
	DB	0acH
	DB	0acH
	DB	0ffH
	DB	0acH
	DB	0acH
	DB	0acH
	DB	0ffH
	DB	0acH
	DB	0acH
	DB	0acH
	DB	0ffH
	DB	0acH
	DB	0acH
	DB	0acH
	DB	0ffH
	DB	0acH
	DB	0acH
	DB	0acH
	DB	0ffH
	DB	0acH
	DB	0acH
	DB	0acH
	DB	0ffH
	DB	0acH
	DB	0acH
	DB	0acH
	DB	0ffH
	DB	0acH
	DB	0acH
	DB	0acH
	DB	0ffH
	DB	0acH
	DB	0acH
	DB	0acH
	DB	0ffH
	DB	0acH
	DB	0acH
	DB	0acH
	DB	0ffH
	DB	0acH
	DB	0acH
	DB	0acH
	DB	0ffH
	DB	0acH
	DB	0acH
	DB	0acH
	DB	0ffH
	DB	0acH
	DB	0acH
	DB	0acH
	DB	0ffH
	DB	0acH
	DB	0acH
	DB	0acH
	DB	0ffH
	DB	0acH
	DB	0acH
	DB	0acH
	DB	0ffH
	DB	0acH
	DB	0acH
	DB	0acH
	DB	0ffH
	DB	0acH
	DB	0acH
	DB	0acH
	DB	0ffH
	DB	0acH
	DB	0acH
	DB	0acH
	DB	0ffH
	DB	0acH
	DB	0acH
	DB	0acH
	DB	0ffH
	DB	0acH
	DB	0acH
	DB	0acH
	DB	0ffH
	DB	0acH
	DB	0acH
	DB	0acH
	DB	0ffH
	DB	0acH
	DB	0acH
	DB	0acH
	DB	0ffH
	DB	0acH
	DB	0acH
	DB	0acH
	DB	0ffH
	DB	0acH
	DB	0acH
	DB	0acH
	DB	0ffH
	DB	0acH
	DB	0acH
	DB	0acH
	DB	0ffH
	DB	0acH
	DB	0acH
	DB	0acH
	DB	0ffH
	DB	0acH
	DB	0acH
	DB	0acH
	DB	0ffH
	DB	0acH
	DB	0acH
	DB	0acH
	DB	0ffH
	DB	0acH
	DB	0acH
	DB	0acH
	DB	0ffH
	DB	0acH
	DB	0acH
	DB	0acH
	DB	0ffH
	DB	0acH
	DB	0acH
	DB	0acH
	DB	0ffH
	DB	0acH
	DB	0acH
	DB	0acH
	DB	0ffH
	DB	0acH
	DB	0acH
	DB	0acH
	DB	0ffH
	DB	0acH
	DB	0acH
	DB	0acH
	DB	0ffH
	DB	0acH
	DB	0acH
	DB	0acH
	DB	0ffH
	DB	0acH
	DB	0acH
	DB	0acH
	DB	0ffH
	DB	0acH
	DB	0acH
	DB	0acH
	DB	0ffH
	DB	0acH
	DB	0acH
	DB	0acH
	DB	0ffH
	DB	0acH
	DB	0acH
	DB	0acH
	DB	0ffH
	DB	0acH
	DB	0acH
	DB	0acH
	DB	0ffH
	DB	0acH
	DB	0acH
	DB	0acH
	DB	0ffH
	DB	0acH
	DB	0acH
	DB	0acH
	DB	0ffH
	DB	0acH
	DB	0acH
	DB	0acH
	DB	0ffH
	DB	0acH
	DB	0acH
	DB	0acH
	DB	0ffH
	DB	0acH
	DB	0acH
	DB	0acH
	DB	0ffH
	DB	0acH
	DB	0acH
	DB	0acH
	DB	0ffH
	DB	0acH
	DB	0acH
	DB	0acH
	DB	0ffH
	DB	0acH
	DB	0acH
	DB	0acH
	DB	0ffH
	DB	0acH
	DB	0acH
	DB	0acH
	DB	0ffH
	DB	0acH
	DB	0acH
	DB	0acH
	DB	0ffH
	DB	0acH
	DB	0acH
	DB	0acH
	DB	0ffH
	DB	0acH
	DB	0acH
	DB	0acH
	DB	0ffH
	DB	0acH
	DB	0acH
	DB	0acH
	DB	0ffH
	DB	0acH
	DB	0acH
	DB	0acH
	DB	0ffH
	DB	0acH
	DB	0acH
	DB	0acH
	DB	0ffH
	DB	0acH
	DB	0acH
	DB	0acH
	DB	0ffH
	DB	0acH
	DB	0acH
	DB	0acH
	DB	0ffH
	DB	0acH
	DB	0acH
	DB	0acH
	DB	0ffH
	DB	0acH
	DB	0acH
	DB	0acH
	DB	0ffH
	DB	0acH
	DB	0acH
	DB	0acH
	DB	0ffH
	DB	0acH
	DB	0acH
	DB	0acH
	DB	0ffH
	DB	0acH
	DB	0acH
	DB	0acH
	DB	0ffH
	DB	0acH
	DB	0acH
	DB	0acH
	DB	0ffH
	DB	0acH
	DB	0acH
	DB	0acH
	DB	0ffH
	DB	0acH
	DB	0acH
	DB	0acH
	DB	0ffH
	DB	0acH
	DB	0acH
	DB	0acH
	DB	0ffH
	DB	0acH
	DB	0acH
	DB	0acH
	DB	0ffH
	DB	0acH
	DB	0acH
	DB	0acH
	DB	0ffH
	DB	0acH
	DB	0acH
	DB	0acH
	DB	0ffH
	DB	0acH
	DB	0acH
	DB	0acH
	DB	0ffH
	DB	0acH
	DB	0acH
	DB	0acH
	DB	0ffH
	DB	0acH
	DB	0acH
	DB	0acH
	DB	0ffH
	DB	0acH
	DB	0acH
	DB	0acH
	DB	0ffH
	DB	0acH
	DB	0acH
	DB	0acH
	DB	0ffH
	DB	0acH
	DB	0acH
	DB	0acH
	DB	0ffH
	DB	0acH
	DB	0acH
	DB	0acH
	DB	0ffH
	DB	0acH
	DB	0acH
	DB	0acH
	DB	0ffH
	DB	0acH
	DB	0acH
	DB	0acH
	DB	0ffH
	DB	0acH
	DB	0acH
	DB	0acH
	DB	0ffH
	DB	0acH
	DB	0acH
	DB	0acH
	DB	0ffH
	DB	0acH
	DB	0acH
	DB	0acH
	DB	0ffH
	DB	0acH
	DB	0acH
	DB	0acH
	DB	0ffH
	DB	0acH
	DB	0acH
	DB	0acH
	DB	0ffH
	DB	0acH
	DB	0acH
	DB	0acH
	DB	0ffH
	DB	0acH
	DB	0acH
	DB	0acH
	DB	0ffH
	DB	0acH
	DB	0acH
	DB	0acH
	DB	0ffH
	DB	0acH
	DB	0acH
	DB	0acH
	DB	0ffH
	DB	0acH
	DB	0acH
	DB	0acH
	DB	0ffH
	DB	0acH
	DB	0acH
	DB	0acH
	DB	0ffH
	DB	0acH
	DB	0acH
	DB	0acH
	DB	0ffH
	DB	0acH
	DB	0acH
	DB	0acH
	DB	0ffH
	DB	0acH
	DB	0acH
	DB	0acH
	DB	0ffH
	DB	0acH
	DB	0acH
	DB	0acH
	DB	0ffH
	DB	0acH
	DB	0acH
	DB	0acH
	DB	0ffH
	DB	0acH
	DB	0acH
	DB	0acH
	DB	0ffH
	DB	0acH
	DB	0acH
	DB	0acH
	DB	0ffH
	DB	0acH
	DB	0acH
	DB	0acH
	DB	0ffH
	DB	0acH
	DB	0acH
	DB	0acH
	DB	0ffH
	DB	0acH
	DB	0acH
	DB	0acH
	DB	0ffH
	DB	0acH
	DB	0acH
	DB	0acH
	DB	0ffH
	DB	0acH
	DB	0acH
	DB	0acH
	DB	0ffH
	DB	0acH
	DB	0acH
	DB	0acH
	DB	0ffH
	DB	0acH
	DB	0acH
	DB	0acH
	DB	0ffH
	DB	0acH
	DB	0acH
	DB	0acH
	DB	0ffH
	DB	0acH
	DB	0acH
	DB	0acH
	DB	0ffH
	DB	0acH
	DB	0acH
	DB	0acH
	DB	0ffH
	DB	0acH
	DB	0acH
	DB	0acH
	DB	0ffH
	DB	0acH
	DB	0acH
	DB	0acH
	DB	0ffH
	DB	0acH
	DB	0acH
	DB	0acH
	DB	0ffH
	DB	0acH
	DB	0acH
	DB	0acH
	DB	0ffH
	DB	0acH
	DB	0acH
	DB	0acH
	DB	0ffH
	DB	0acH
	DB	0acH
	DB	0acH
	DB	0ffH
	DB	0acH
	DB	0acH
	DB	0acH
	DB	0ffH
	DB	0acH
	DB	0acH
	DB	0acH
	DB	0ffH
	DB	0acH
	DB	0acH
	DB	0acH
	DB	0ffH
	DB	0acH
	DB	0acH
	DB	0acH
	DB	0ffH
	DB	0acH
	DB	0acH
	DB	0acH
	DB	0ffH
	DB	0acH
	DB	0acH
	DB	0acH
	DB	0ffH
	DB	0acH
	DB	0acH
	DB	0acH
	DB	0ffH
	DB	0acH
	DB	0acH
	DB	0acH
	DB	0ffH
	DB	0acH
	DB	0acH
	DB	0acH
	DB	0ffH
	DB	0acH
	DB	0acH
	DB	0acH
	DB	0ffH
	DB	0acH
	DB	0acH
	DB	0acH
	DB	0ffH
	DB	0acH
	DB	0acH
	DB	0acH
	DB	0ffH
	DB	0acH
	DB	0acH
	DB	0acH
	DB	0ffH
	DB	0acH
	DB	0acH
	DB	0acH
	DB	0ffH
	DB	0acH
	DB	0acH
	DB	0acH
	DB	0ffH
	DB	0acH
	DB	0acH
	DB	0acH
	DB	0ffH
	DB	0acH
	DB	0acH
	DB	0acH
	DB	0ffH
	DB	0acH
	DB	0acH
	DB	0acH
	DB	0ffH
	DB	0acH
	DB	0acH
	DB	0acH
	DB	0ffH
	DB	0acH
	DB	0acH
	DB	0acH
	DB	0ffH
	DB	0acH
	DB	0acH
	DB	0acH
	DB	0ffH
	DB	0acH
	DB	0acH
	DB	0acH
	DB	0ffH
	DB	0acH
	DB	0acH
	DB	0acH
	DB	0ffH
	DB	0acH
	DB	0acH
	DB	0acH
	DB	0ffH
	DB	0acH
	DB	0acH
	DB	0acH
	DB	0ffH
	DB	0acH
	DB	0acH
	DB	0acH
	DB	0ffH
	DB	0acH
	DB	0acH
	DB	0acH
	DB	0ffH
	DB	0acH
	DB	0acH
	DB	0acH
	DB	0ffH
	DB	0acH
	DB	0acH
	DB	0acH
	DB	0ffH
	DB	0acH
	DB	0acH
	DB	0acH
	DB	0ffH
	DB	0acH
	DB	0acH
	DB	0acH
	DB	0ffH
	DB	0acH
	DB	0acH
	DB	0acH
	DB	0ffH
	DB	0acH
	DB	0acH
	DB	0acH
	DB	0ffH
	DB	0acH
	DB	0acH
	DB	0acH
	DB	0ffH
	DB	0acH
	DB	0acH
	DB	0acH
	DB	0ffH
	DB	0acH
	DB	0acH
	DB	0acH
	DB	0ffH
	DB	0acH
	DB	0acH
	DB	0acH
	DB	0ffH
	DB	0acH
	DB	0acH
	DB	0acH
	DB	0ffH
	DB	0acH
	DB	0acH
	DB	0acH
	DB	0ffH
	DB	0acH
	DB	0acH
	DB	0acH
	DB	0ffH
	DB	0acH
	DB	0acH
	DB	0acH
	DB	0ffH
	DB	0acH
	DB	0acH
	DB	0acH
	DB	0ffH
	DB	0acH
	DB	0acH
	DB	0acH
	DB	0ffH
	DB	0acH
	DB	0acH
	DB	0acH
	DB	0ffH
	DB	0acH
	DB	0acH
	DB	0acH
	DB	0ffH
	DB	0acH
	DB	0acH
	DB	0acH
	DB	0ffH
	DB	0acH
	DB	0acH
	DB	0acH
	DB	0ffH
	DB	0acH
	DB	0acH
	DB	0acH
	DB	0ffH
	DB	0acH
	DB	0acH
	DB	0acH
	DB	0ffH
	DB	0acH
	DB	0acH
	DB	0acH
	DB	0ffH
	DB	0acH
	DB	0acH
	DB	0acH
	DB	0ffH
	DB	0acH
	DB	0acH
	DB	0acH
	DB	0ffH
	DB	0acH
	DB	0acH
	DB	0acH
	DB	0ffH
	DB	0acH
	DB	0acH
	DB	0acH
	DB	0ffH
	DB	0acH
	DB	0acH
	DB	0acH
	DB	0ffH
	DB	0acH
	DB	0acH
	DB	0acH
	DB	0ffH
	DB	0acH
	DB	0acH
	DB	0acH
	DB	0ffH
	DB	0acH
	DB	0acH
	DB	0acH
	DB	0ffH
	DB	0acH
	DB	0acH
	DB	0acH
	DB	0ffH
	DB	0acH
	DB	0acH
	DB	0acH
	DB	0ffH
	DB	0acH
	DB	0acH
	DB	0acH
	DB	0ffH
	DB	0acH
	DB	0acH
	DB	0acH
	DB	0ffH
	DB	0acH
	DB	0acH
	DB	0acH
	DB	0ffH
	DB	0acH
	DB	0acH
	DB	0acH
	DB	0ffH
	DB	0acH
	DB	0acH
	DB	0acH
	DB	0ffH
	DB	0acH
	DB	0acH
	DB	0acH
	DB	0ffH
	DB	0acH
	DB	0acH
	DB	0acH
	DB	0ffH
	DB	0acH
	DB	0acH
	DB	0acH
	DB	0ffH
	DB	0acH
	DB	0acH
	DB	0acH
	DB	0ffH
	DB	0acH
	DB	0acH
	DB	0acH
	DB	0ffH
	DB	0acH
	DB	0acH
	DB	0acH
	DB	0ffH
	DB	0acH
	DB	0acH
	DB	0acH
	DB	0ffH
	DB	0acH
	DB	0acH
	DB	0acH
	DB	0ffH
	DB	0acH
	DB	0acH
	DB	0acH
	DB	0ffH
	DB	0acH
	DB	0acH
	DB	0acH
	DB	0ffH
	DB	0acH
	DB	0acH
	DB	0acH
	DB	0ffH
	DB	0acH
	DB	0acH
	DB	0acH
	DB	0ffH
	DB	0acH
	DB	0acH
	DB	0acH
	DB	0ffH
	DB	0acH
	DB	0acH
	DB	0acH
	DB	0ffH
	DB	0acH
	DB	0acH
	DB	0acH
	DB	0ffH
	DB	0acH
	DB	0acH
	DB	0acH
	DB	0ffH
	DB	0acH
	DB	0acH
	DB	0acH
	DB	0ffH
	DB	0acH
	DB	0acH
	DB	0acH
	DB	0ffH
	DB	0acH
	DB	0acH
	DB	0acH
	DB	0ffH
	DB	0acH
	DB	0acH
	DB	0acH
	DB	0ffH
	DB	0acH
	DB	0acH
	DB	0acH
	DB	0ffH
	DB	0acH
	DB	0acH
	DB	0acH
	DB	0ffH
	DB	0acH
	DB	0acH
	DB	0acH
	DB	0ffH
	DB	0acH
	DB	0acH
	DB	0acH
	DB	0ffH
	DB	0acH
	DB	0acH
	DB	0acH
	DB	0ffH
	DB	0acH
	DB	0acH
	DB	0acH
	DB	0ffH
	DB	0acH
	DB	0acH
	DB	0acH
	DB	0ffH
	DB	0acH
	DB	0acH
	DB	0acH
	DB	0ffH
	DB	0acH
	DB	0acH
	DB	0acH
	DB	0ffH
	DB	0acH
	DB	0acH
	DB	0acH
	DB	0ffH
	DB	0acH
	DB	0acH
	DB	0acH
	DB	0ffH
	DB	0acH
	DB	0acH
	DB	0acH
	DB	0ffH
	DB	0acH
	DB	0acH
	DB	0acH
	DB	0ffH
	DB	0acH
	DB	0acH
	DB	0acH
	DB	0ffH
	DB	0acH
	DB	0acH
	DB	0acH
	DB	0ffH
	DB	0acH
	DB	0acH
	DB	0acH
	DB	0ffH
	DB	0acH
	DB	0acH
	DB	0acH
	DB	0ffH
	DB	0acH
	DB	0acH
	DB	0acH
	DB	0ffH
	DB	0acH
	DB	0acH
	DB	0acH
	DB	0ffH
	DB	0acH
	DB	0acH
	DB	0acH
	DB	0ffH
	DB	0acH
	DB	0acH
	DB	0acH
	DB	0ffH
	DB	0acH
	DB	0acH
	DB	0acH
	DB	0ffH
	DB	0acH
	DB	0acH
	DB	0acH
	DB	0ffH
	DB	0acH
	DB	0acH
	DB	0acH
	DB	0ffH
	DB	0acH
	DB	0acH
	DB	0acH
	DB	0ffH
	DB	0acH
	DB	0acH
	DB	0acH
	DB	0ffH
	DB	0acH
	DB	0acH
	DB	0acH
	DB	0ffH
	DB	0acH
	DB	0acH
	DB	0acH
	DB	0ffH
	DB	0acH
	DB	0acH
	DB	0acH
	DB	0ffH
	DB	0acH
	DB	0acH
	DB	0acH
	DB	0ffH
	DB	0acH
	DB	0acH
	DB	0acH
	DB	0ffH
	DB	0acH
	DB	0acH
	DB	0acH
	DB	0ffH
	DB	0acH
	DB	0acH
	DB	0acH
	DB	0ffH
	DB	0acH
	DB	0acH
	DB	0acH
	DB	0ffH
	DB	0acH
	DB	0acH
	DB	0acH
	DB	0ffH
	DB	0acH
	DB	0acH
	DB	0acH
	DB	0ffH
	DB	0acH
	DB	0acH
	DB	0acH
	DB	0ffH
	DB	0acH
	DB	0acH
	DB	0acH
	DB	0ffH
	DB	0acH
	DB	0acH
	DB	0acH
	DB	0ffH
	DB	0acH
	DB	0acH
	DB	0acH
	DB	0ffH
	DB	0acH
	DB	0acH
	DB	0acH
	DB	0ffH
	DB	0acH
	DB	0acH
	DB	0acH
	DB	0ffH
	DB	0acH
	DB	0acH
	DB	0acH
	DB	0ffH
	DB	0acH
	DB	0acH
	DB	0acH
	DB	0ffH
	DB	0acH
	DB	0acH
	DB	0acH
	DB	0ffH
	DB	0acH
	DB	0acH
	DB	0acH
	DB	0ffH
	DB	0acH
	DB	0acH
	DB	0acH
	DB	0ffH
	DB	0acH
	DB	0acH
	DB	0acH
	DB	0ffH
	DB	0acH
	DB	0acH
	DB	0acH
	DB	0ffH
	DB	0acH
	DB	0acH
	DB	0acH
	DB	0ffH
	DB	0acH
	DB	0acH
	DB	0acH
	DB	0ffH
	DB	0acH
	DB	0acH
	DB	0acH
	DB	0ffH
	DB	0acH
	DB	0acH
	DB	0acH
	DB	0ffH
	DB	0acH
	DB	0acH
	DB	0acH
	DB	0ffH
	DB	0acH
	DB	0acH
	DB	0acH
	DB	0ffH
	DB	0acH
	DB	0acH
	DB	0acH
	DB	0ffH
	DB	0acH
	DB	0acH
	DB	0acH
	DB	0ffH
	DB	0acH
	DB	0acH
	DB	0acH
	DB	0ffH
	DB	0acH
	DB	0acH
	DB	0acH
	DB	0ffH
	DB	0acH
	DB	0acH
	DB	0acH
	DB	0ffH
	DB	0acH
	DB	0acH
	DB	0acH
	DB	0ffH
	DB	0acH
	DB	0acH
	DB	0acH
	DB	0ffH
	DB	0acH
	DB	0acH
	DB	0acH
	DB	0ffH
	DB	0acH
	DB	0acH
	DB	0acH
	DB	0ffH
	DB	0acH
	DB	0acH
	DB	0acH
	DB	0ffH
	DB	0acH
	DB	0acH
	DB	0acH
	DB	0ffH
	DB	0acH
	DB	0acH
	DB	0acH
	DB	0ffH
	DB	0acH
	DB	0acH
	DB	0acH
	DB	0ffH
	DB	0acH
	DB	0acH
	DB	0acH
	DB	0ffH
	DB	0acH
	DB	0acH
	DB	0acH
	DB	0ffH
	DB	0acH
	DB	0acH
	DB	0acH
	DB	0ffH
	DB	0acH
	DB	0acH
	DB	0acH
	DB	0ffH
	DB	0acH
	DB	0acH
	DB	0acH
	DB	0ffH
	DB	0acH
	DB	0acH
	DB	0acH
	DB	0ffH
	DB	0acH
	DB	0acH
	DB	0acH
	DB	0ffH
	DB	0acH
	DB	0acH
	DB	0acH
	DB	0ffH
	DB	0acH
	DB	0acH
	DB	0acH
	DB	0ffH
	DB	0acH
	DB	0acH
	DB	0acH
	DB	0ffH
	DB	0acH
	DB	0acH
	DB	0acH
	DB	0ffH
	DB	0acH
	DB	0acH
	DB	0acH
	DB	0ffH
	DB	0acH
	DB	0acH
	DB	0acH
	DB	0ffH
	DB	0acH
	DB	0acH
	DB	0acH
	DB	0ffH
	DB	0acH
	DB	0acH
	DB	0acH
	DB	0ffH
	DB	0acH
	DB	0acH
	DB	0acH
	DB	0ffH
	DB	0acH
	DB	0acH
	DB	0acH
	DB	0ffH
	DB	0acH
	DB	0acH
	DB	0acH
	DB	0ffH
	DB	0acH
	DB	0acH
	DB	0acH
	DB	0ffH
	DB	0acH
	DB	0acH
	DB	0acH
	DB	0ffH
	DB	0acH
	DB	0acH
	DB	0acH
	DB	0ffH
	DB	0acH
	DB	0acH
	DB	0acH
	DB	0ffH
	DB	0acH
	DB	0acH
	DB	0acH
	DB	0ffH
	DB	0acH
	DB	0acH
	DB	0acH
	DB	0ffH
	DB	0acH
	DB	0acH
	DB	0acH
	DB	0ffH
	DB	0acH
	DB	0acH
	DB	0acH
	DB	0ffH
	DB	0acH
	DB	0acH
	DB	0acH
	DB	0ffH
	DB	0acH
	DB	0acH
	DB	0acH
	DB	0ffH
	DB	0acH
	DB	0acH
	DB	0acH
	DB	0ffH
	DB	0acH
	DB	0acH
	DB	0acH
	DB	0ffH
	DB	0acH
	DB	0acH
	DB	0acH
	DB	0ffH
	DB	0acH
	DB	0acH
	DB	0acH
	DB	0ffH
	DB	0acH
	DB	0acH
	DB	0acH
	DB	0ffH
	DB	0acH
	DB	0acH
	DB	0acH
	DB	0ffH
	DB	0acH
	DB	0acH
	DB	0acH
	DB	0ffH
	DB	0acH
	DB	0acH
	DB	0acH
	DB	0ffH
	DB	0acH
	DB	0acH
	DB	0acH
	DB	0ffH
	DB	0acH
	DB	0acH
	DB	0acH
	DB	0ffH
	DB	0acH
	DB	0acH
	DB	0acH
	DB	0ffH
	DB	0acH
	DB	0acH
	DB	0acH
	DB	0ffH
	DB	0acH
	DB	0acH
	DB	0acH
	DB	0ffH
	DB	0acH
	DB	0acH
	DB	0acH
	DB	0ffH
	DB	0acH
	DB	0acH
	DB	0acH
	DB	0ffH
	DB	0acH
	DB	0acH
	DB	0acH
	DB	0ffH
	DB	0acH
	DB	0acH
	DB	0acH
	DB	0ffH
	DB	0acH
	DB	0acH
	DB	0acH
	DB	0ffH
	DB	0acH
	DB	0acH
	DB	0acH
	DB	0ffH
	DB	0acH
	DB	0acH
	DB	0acH
	DB	0ffH
	DB	0acH
	DB	0acH
	DB	0acH
	DB	0ffH
	DB	0acH
	DB	0acH
	DB	0acH
	DB	0ffH
	DB	0acH
	DB	0acH
	DB	0acH
	DB	0ffH
	DB	0acH
	DB	0acH
	DB	0acH
	DB	0ffH
	DB	0acH
	DB	0acH
	DB	0acH
	DB	0ffH
	DB	0acH
	DB	0acH
	DB	0acH
	DB	0ffH
	DB	0acH
	DB	0acH
	DB	0acH
	DB	0ffH
	DB	0acH
	DB	0acH
	DB	0acH
	DB	0ffH
	DB	0acH
	DB	0acH
	DB	0acH
	DB	0ffH
	DB	0acH
	DB	0acH
	DB	0acH
	DB	0ffH
	DB	0acH
	DB	0acH
	DB	0acH
	DB	0ffH
	DB	0acH
	DB	0acH
	DB	0acH
	DB	0ffH
	DB	0acH
	DB	0acH
	DB	0acH
	DB	0ffH
	DB	0acH
	DB	0acH
	DB	0acH
	DB	0ffH
	DB	0acH
	DB	0acH
	DB	0acH
	DB	0ffH
	DB	0acH
	DB	0acH
	DB	0acH
	DB	0ffH
	DB	0acH
	DB	0acH
	DB	0acH
	DB	0ffH
	DB	0acH
	DB	0acH
	DB	0acH
	DB	0ffH
	DB	0acH
	DB	0acH
	DB	0acH
	DB	0ffH
	DB	0acH
	DB	0acH
	DB	0acH
	DB	0ffH
	DB	0acH
	DB	0acH
	DB	0acH
	DB	0ffH
	DB	0acH
	DB	0acH
	DB	0acH
	DB	0ffH
	DB	0acH
	DB	0acH
	DB	0acH
	DB	0ffH
	DB	0acH
	DB	0acH
	DB	0acH
	DB	0ffH
	DB	0acH
	DB	0acH
	DB	0acH
	DB	0ffH
	DB	0acH
	DB	0acH
	DB	0acH
	DB	0ffH
	DB	0acH
	DB	0acH
	DB	0acH
	DB	0ffH
	DB	0acH
	DB	0acH
	DB	0acH
	DB	0ffH
	DB	0acH
	DB	0acH
	DB	0acH
	DB	0ffH
	DB	0acH
	DB	0acH
	DB	0acH
	DB	0ffH
	DB	0acH
	DB	0acH
	DB	0acH
	DB	0ffH
	DB	0acH
	DB	0acH
	DB	0acH
	DB	0ffH
	DB	0acH
	DB	0acH
	DB	0acH
	DB	0ffH
	DB	0acH
	DB	0acH
	DB	0acH
	DB	0ffH
	DB	0acH
	DB	0acH
	DB	0acH
	DB	0ffH
	DB	0acH
	DB	0acH
	DB	0acH
	DB	0ffH
	DB	0acH
	DB	0acH
	DB	0acH
	DB	0ffH
	DB	0acH
	DB	0acH
	DB	0acH
	DB	0ffH
	DB	0acH
	DB	0acH
	DB	0acH
	DB	0ffH
	DB	0acH
	DB	0acH
	DB	0acH
	DB	0ffH
	DB	0acH
	DB	0acH
	DB	0acH
	DB	0ffH
	DB	0acH
	DB	0acH
	DB	0acH
	DB	0ffH
	DB	0acH
	DB	0acH
	DB	0acH
	DB	0ffH
	DB	0acH
	DB	0acH
	DB	0acH
	DB	0ffH
	DB	0acH
	DB	0acH
	DB	0acH
	DB	0ffH
	DB	0acH
	DB	0acH
	DB	0acH
	DB	0ffH
	DB	0acH
	DB	0acH
	DB	0acH
	DB	0ffH
	DB	0acH
	DB	0acH
	DB	0acH
	DB	0ffH
	DB	0acH
	DB	0acH
	DB	0acH
	DB	0ffH
	DB	0acH
	DB	0acH
	DB	0acH
	DB	0ffH
	DB	0acH
	DB	0acH
	DB	0acH
	DB	0ffH
	DB	0acH
	DB	0acH
	DB	0acH
	DB	0ffH
	DB	0acH
	DB	0acH
	DB	0acH
	DB	0ffH
	DB	0acH
	DB	0acH
	DB	0acH
	DB	0ffH
	DB	0acH
	DB	0acH
	DB	0acH
	DB	0ffH
	DB	0acH
	DB	0acH
	DB	0acH
	DB	0ffH
	DB	0acH
	DB	0acH
	DB	0acH
	DB	0ffH
	DB	0acH
	DB	0acH
	DB	0acH
	DB	0ffH
	DB	0acH
	DB	0acH
	DB	0acH
	DB	0ffH
	DB	0acH
	DB	0acH
	DB	0acH
	DB	0ffH
	DB	0acH
	DB	0acH
	DB	0acH
	DB	0ffH
	DB	0acH
	DB	0acH
	DB	0acH
	DB	0ffH
	DB	0acH
	DB	0acH
	DB	0acH
	DB	0ffH
	DB	0acH
	DB	0acH
	DB	0acH
	DB	0ffH
	DB	0acH
	DB	0acH
	DB	0acH
	DB	0ffH
	DB	0acH
	DB	0acH
	DB	0acH
	DB	0ffH
	DB	0acH
	DB	0acH
	DB	0acH
	DB	0ffH
	DB	0acH
	DB	0acH
	DB	0acH
	DB	0ffH
	DB	0acH
	DB	0acH
	DB	0acH
	DB	0ffH
	DB	0acH
	DB	0acH
	DB	0acH
	DB	0ffH
	DB	0acH
	DB	0acH
	DB	0acH
	DB	0ffH
	DB	0acH
	DB	0acH
	DB	0acH
	DB	0ffH
	DB	0acH
	DB	0acH
	DB	0acH
	DB	0ffH
	DB	0acH
	DB	0acH
	DB	0acH
	DB	0ffH
	DB	0acH
	DB	0acH
	DB	0acH
	DB	0ffH
	DB	0acH
	DB	0acH
	DB	0acH
	DB	0ffH
	DB	0acH
	DB	0acH
	DB	0acH
	DB	0ffH
	DB	0acH
	DB	0acH
	DB	0acH
	DB	0ffH
	DB	0acH
	DB	0acH
	DB	0acH
	DB	0ffH
	DB	0acH
	DB	0acH
	DB	0acH
	DB	0ffH
	DB	0acH
	DB	0acH
	DB	0acH
	DB	0ffH
	DB	0acH
	DB	0acH
	DB	0acH
	DB	0ffH
	DB	0acH
	DB	0acH
	DB	0acH
	DB	0ffH
	DB	0acH
	DB	0acH
	DB	0acH
	DB	0ffH
	DB	0acH
	DB	0acH
	DB	0acH
	DB	0ffH
	DB	0acH
	DB	0acH
	DB	0acH
	DB	0ffH
	DB	0acH
	DB	0acH
	DB	0acH
	DB	0ffH
	DB	0acH
	DB	0acH
	DB	0acH
	DB	0ffH
	DB	0acH
	DB	0acH
	DB	0acH
	DB	0ffH
	DB	0acH
	DB	0acH
	DB	0acH
	DB	0ffH
	DB	0acH
	DB	0acH
	DB	0acH
	DB	0ffH
	DB	0acH
	DB	0acH
	DB	0acH
	DB	0ffH
	DB	0acH
	DB	0acH
	DB	0acH
	DB	0ffH
	DB	0acH
	DB	0acH
	DB	0acH
	DB	0ffH
	DB	0acH
	DB	0acH
	DB	0acH
	DB	0ffH
	DB	0acH
	DB	0acH
	DB	0acH
	DB	0ffH
	DB	0acH
	DB	0acH
	DB	0acH
	DB	0ffH
	DB	0acH
	DB	0acH
	DB	0acH
	DB	0ffH
	DB	0acH
	DB	0acH
	DB	0acH
	DB	0ffH
	DB	0acH
	DB	0acH
	DB	0acH
	DB	0ffH
	DB	0acH
	DB	0acH
	DB	0acH
	DB	0ffH
	DB	0acH
	DB	0acH
	DB	0acH
	DB	0ffH
	DB	0acH
	DB	0acH
	DB	0acH
	DB	0ffH
	DB	0acH
	DB	0acH
	DB	0acH
	DB	0ffH
	DB	0acH
	DB	0acH
	DB	0acH
	DB	0ffH
	DB	0acH
	DB	0acH
	DB	0acH
	DB	0ffH
	DB	0acH
	DB	0acH
	DB	0acH
	DB	0ffH
	DB	0acH
	DB	0acH
	DB	0acH
	DB	0ffH
	DB	0acH
	DB	0acH
	DB	0acH
	DB	0ffH
	DB	0acH
	DB	0acH
	DB	0acH
	DB	0ffH
	DB	0acH
	DB	0acH
	DB	0acH
	DB	0ffH
	DB	0acH
	DB	0acH
	DB	0acH
	DB	0ffH
	DB	0acH
	DB	0acH
	DB	0acH
	DB	0ffH
	DB	0acH
	DB	0acH
	DB	0acH
	DB	0ffH
	DB	0acH
	DB	0acH
	DB	0acH
	DB	0ffH
	DB	0acH
	DB	0acH
	DB	0acH
	DB	0ffH
	DB	0acH
	DB	0acH
	DB	0acH
	DB	0ffH
	DB	0acH
	DB	0acH
	DB	0acH
	DB	0ffH
	DB	0acH
	DB	0acH
	DB	0acH
	DB	0ffH
	DB	0acH
	DB	0acH
	DB	0acH
	DB	0ffH
	DB	0acH
	DB	0acH
	DB	0acH
	DB	0ffH
	DB	0acH
	DB	0acH
	DB	0acH
	DB	0ffH
	DB	0acH
	DB	0acH
	DB	0acH
	DB	0ffH
	DB	0acH
	DB	0acH
	DB	0acH
	DB	0ffH
	DB	0acH
	DB	0acH
	DB	0acH
	DB	0ffH
	DB	0acH
	DB	0acH
	DB	0acH
	DB	0ffH
	DB	0acH
	DB	0acH
	DB	0acH
	DB	0ffH
	DB	0acH
	DB	0acH
	DB	0acH
	DB	0ffH
	DB	0acH
	DB	0acH
	DB	0acH
	DB	0ffH
	DB	0acH
	DB	0acH
	DB	0acH
	DB	0ffH
	DB	0acH
	DB	0acH
	DB	0acH
	DB	0ffH
	DB	0acH
	DB	0acH
	DB	0acH
	DB	0ffH
	DB	0acH
	DB	0acH
	DB	0acH
	DB	0ffH
	DB	0acH
	DB	0acH
	DB	0acH
	DB	0ffH
	DB	0acH
	DB	0acH
	DB	0acH
	DB	0ffH
	DB	0acH
	DB	0acH
	DB	0acH
	DB	0ffH
	DB	0acH
	DB	0acH
	DB	0acH
	DB	0ffH
	DB	0acH
	DB	0acH
	DB	0acH
	DB	0ffH
	DB	0acH
	DB	0acH
	DB	0acH
	DB	0ffH
	DB	0acH
	DB	0acH
	DB	0acH
	DB	0ffH
	DB	0acH
	DB	0acH
	DB	0acH
	DB	0ffH
	DB	0acH
	DB	0acH
	DB	0acH
	DB	0ffH
	DB	0acH
	DB	0acH
	DB	0acH
	DB	0ffH
	DB	0acH
	DB	0acH
	DB	0acH
	DB	0ffH
	DB	0acH
	DB	0acH
	DB	0acH
	DB	0ffH
	DB	0acH
	DB	0acH
	DB	0acH
	DB	0ffH
	DB	0acH
	DB	0acH
	DB	0acH
	DB	0ffH
	DB	0acH
	DB	0acH
	DB	0acH
	DB	0ffH
	DB	0acH
	DB	0acH
	DB	0acH
	DB	0ffH
	DB	0acH
	DB	0acH
	DB	0acH
	DB	0ffH
	DB	0acH
	DB	0acH
	DB	0acH
	DB	0ffH
	DB	0acH
	DB	0acH
	DB	0acH
	DB	0ffH
	DB	0acH
	DB	0acH
	DB	0acH
	DB	0ffH
	DB	0acH
	DB	0acH
	DB	0acH
	DB	0ffH
	DB	0acH
	DB	0acH
	DB	0acH
	DB	0ffH
	DB	0acH
	DB	0acH
	DB	0acH
	DB	0ffH
	DB	0acH
	DB	0acH
	DB	0acH
	DB	0ffH
	DB	0acH
	DB	0acH
	DB	0acH
	DB	0ffH
	DB	0acH
	DB	0acH
	DB	0acH
	DB	0ffH
	DB	0acH
	DB	0acH
	DB	0acH
	DB	0ffH
	DB	0acH
	DB	0acH
	DB	0acH
	DB	0ffH
	DB	0acH
	DB	0acH
	DB	0acH
	DB	0ffH
	DB	0acH
	DB	0acH
	DB	0acH
	DB	0ffH
	DB	0acH
	DB	0acH
	DB	0acH
	DB	0ffH
	DB	0acH
	DB	0acH
	DB	0acH
	DB	0ffH
	DB	0acH
	DB	0acH
	DB	0acH
	DB	0ffH
	DB	0acH
	DB	0acH
	DB	0acH
	DB	0ffH
	DB	0acH
	DB	0acH
	DB	0acH
	DB	0ffH
	DB	0acH
	DB	0acH
	DB	0acH
	DB	0ffH
	DB	0acH
	DB	0acH
	DB	0acH
	DB	0ffH
	DB	0acH
	DB	0acH
	DB	0acH
	DB	0ffH
	DB	0acH
	DB	0acH
	DB	0acH
	DB	0ffH
	DB	0acH
	DB	0acH
	DB	0acH
	DB	0ffH
	DB	0acH
	DB	0acH
	DB	0acH
	DB	0ffH
	DB	0acH
	DB	0acH
	DB	0acH
	DB	0ffH
	DB	0acH
	DB	0acH
	DB	0acH
	DB	0ffH
	DB	0acH
	DB	0acH
	DB	0acH
	DB	0ffH
	DB	0acH
	DB	0acH
	DB	0acH
	DB	0ffH
	DB	0acH
	DB	0acH
	DB	0acH
	DB	0ffH
	DB	0acH
	DB	0acH
	DB	0acH
	DB	0ffH
	DB	0acH
	DB	0acH
	DB	0acH
	DB	0ffH
	DB	0acH
	DB	0acH
	DB	0acH
	DB	0ffH
	DB	0acH
	DB	0acH
	DB	0acH
	DB	0ffH
	DB	0acH
	DB	0acH
	DB	0acH
	DB	0ffH
	DB	0acH
	DB	0acH
	DB	0acH
	DB	0ffH
	DB	0acH
	DB	0acH
	DB	0acH
	DB	0ffH
	DB	0acH
	DB	0acH
	DB	0acH
	DB	0ffH
	DB	0acH
	DB	0acH
	DB	0acH
	DB	0ffH
	DB	0acH
	DB	0acH
	DB	0acH
	DB	0ffH
	DB	0acH
	DB	0acH
	DB	0acH
	DB	0ffH
	DB	0acH
	DB	0acH
	DB	0acH
	DB	0ffH
	DB	0acH
	DB	0acH
	DB	0acH
	DB	0ffH
	DB	0acH
	DB	0acH
	DB	0acH
	DB	0ffH
	DB	0acH
	DB	0acH
	DB	0acH
	DB	0ffH
	DB	0acH
	DB	0acH
	DB	0acH
	DB	0ffH
	DB	0acH
	DB	0acH
	DB	0acH
	DB	0ffH
	DB	0acH
	DB	0acH
	DB	0acH
	DB	0ffH
	DB	0acH
	DB	0acH
	DB	0acH
	DB	0ffH
	DB	0acH
	DB	0acH
	DB	0acH
	DB	0ffH
	DB	0acH
	DB	0acH
	DB	0acH
	DB	0ffH
	DB	0acH
	DB	0acH
	DB	0acH
	DB	0ffH
	DB	0acH
	DB	0acH
	DB	0acH
	DB	0ffH
	DB	0acH
	DB	0acH
	DB	0acH
	DB	0ffH
	DB	0acH
	DB	0acH
	DB	0acH
	DB	0ffH
	DB	0acH
	DB	0acH
	DB	0acH
	DB	0ffH
	DB	0acH
	DB	0acH
	DB	0acH
	DB	0ffH
	DB	0acH
	DB	0acH
	DB	0acH
	DB	0ffH
	DB	0acH
	DB	0acH
	DB	0acH
	DB	0ffH
	DB	0acH
	DB	0acH
	DB	0acH
	DB	0ffH
	DB	0acH
	DB	0acH
	DB	0acH
	DB	0ffH
	DB	0acH
	DB	0acH
	DB	0acH
	DB	0ffH
	DB	0acH
	DB	0acH
	DB	0acH
	DB	0ffH
	DB	0acH
	DB	0acH
	DB	0acH
	DB	0ffH
	DB	0acH
	DB	0acH
	DB	0acH
	DB	0ffH
	DB	0acH
	DB	0acH
	DB	0acH
	DB	0ffH
	DB	0acH
	DB	0acH
	DB	0acH
	DB	0ffH
	DB	0acH
	DB	0acH
	DB	0acH
	DB	0ffH
	DB	0acH
	DB	0acH
	DB	0acH
	DB	0ffH
	DB	0acH
	DB	0acH
	DB	0acH
	DB	0ffH
	DB	0acH
	DB	0acH
	DB	0acH
	DB	0ffH
	DB	0acH
	DB	0acH
	DB	0acH
	DB	0ffH
	DB	0acH
	DB	0acH
	DB	0acH
	DB	0ffH
	DB	0acH
	DB	0acH
	DB	0acH
	DB	0ffH
	DB	0acH
	DB	0acH
	DB	0acH
	DB	0ffH
	DB	0acH
	DB	0acH
	DB	0acH
	DB	0ffH
	DB	0acH
	DB	0acH
	DB	0acH
	DB	0ffH
	DB	0acH
	DB	0acH
	DB	0acH
	DB	0ffH
	DB	0acH
	DB	0acH
	DB	0acH
	DB	0ffH
	DB	0acH
	DB	0acH
	DB	0acH
	DB	0ffH
	DB	0acH
	DB	0acH
	DB	0acH
	DB	0ffH
	DB	0acH
	DB	0acH
	DB	0acH
	DB	0ffH
	DB	0acH
	DB	0acH
	DB	0acH
	DB	0ffH
	DB	0acH
	DB	0acH
	DB	0acH
	DB	0ffH
	DB	0acH
	DB	0acH
	DB	0acH
	DB	0ffH
	DB	0acH
	DB	0acH
	DB	0acH
	DB	0ffH
	DB	0acH
	DB	0acH
	DB	0acH
	DB	0ffH
	DB	0acH
	DB	0acH
	DB	0acH
	DB	0ffH
	DB	0acH
	DB	0acH
	DB	0acH
	DB	0ffH
	DB	0acH
	DB	0acH
	DB	0acH
	DB	0ffH
	DB	0acH
	DB	0acH
	DB	0acH
	DB	0ffH
	DB	0acH
	DB	0acH
	DB	0acH
	DB	0ffH
	DB	0acH
	DB	0acH
	DB	0acH
	DB	0ffH
	DB	0acH
	DB	0acH
	DB	0acH
	DB	0cfH
	DB	0acH
	DB	0acH
	DB	0acH
	DB	01bH
	DB	00H
	DB	00H
	DB	00H
	DB	00H
	DB	00H
	DB	00H
	DB	00H
	DB	00H
	DB	00H
	DB	00H
	DB	00H
	DB	00H
	DB	0acH
	DB	0acH
	DB	0acH
	DB	06H
	DB	0acH
	DB	0acH
	DB	0acH
	DB	0cfH
	DB	0acH
	DB	0acH
	DB	0acH
	DB	0ffH
	DB	0acH
	DB	0acH
	DB	0acH
	DB	0ffH
	DB	0acH
	DB	0acH
	DB	0acH
	DB	0ffH
	DB	0acH
	DB	0acH
	DB	0acH
	DB	0ffH
	DB	0acH
	DB	0acH
	DB	0acH
	DB	0ffH
	DB	0acH
	DB	0acH
	DB	0acH
	DB	0ffH
	DB	0acH
	DB	0acH
	DB	0acH
	DB	0ffH
	DB	0acH
	DB	0acH
	DB	0acH
	DB	0ffH
	DB	0acH
	DB	0acH
	DB	0acH
	DB	0ffH
	DB	0acH
	DB	0acH
	DB	0acH
	DB	0ffH
	DB	0acH
	DB	0acH
	DB	0acH
	DB	0ffH
	DB	0acH
	DB	0acH
	DB	0acH
	DB	0ffH
	DB	0acH
	DB	0acH
	DB	0acH
	DB	0ffH
	DB	0acH
	DB	0acH
	DB	0acH
	DB	0ffH
	DB	0acH
	DB	0acH
	DB	0acH
	DB	0ffH
	DB	0acH
	DB	0acH
	DB	0acH
	DB	0ffH
	DB	0acH
	DB	0acH
	DB	0acH
	DB	0ffH
	DB	0acH
	DB	0acH
	DB	0acH
	DB	0ffH
	DB	0acH
	DB	0acH
	DB	0acH
	DB	0ffH
	DB	0acH
	DB	0acH
	DB	0acH
	DB	0ffH
	DB	0acH
	DB	0acH
	DB	0acH
	DB	0ffH
	DB	0acH
	DB	0acH
	DB	0acH
	DB	0ffH
	DB	0acH
	DB	0acH
	DB	0acH
	DB	0ffH
	DB	0acH
	DB	0acH
	DB	0acH
	DB	0ffH
	DB	0acH
	DB	0acH
	DB	0acH
	DB	0ffH
	DB	0acH
	DB	0acH
	DB	0acH
	DB	0ffH
	DB	0acH
	DB	0acH
	DB	0acH
	DB	0ffH
	DB	0acH
	DB	0acH
	DB	0acH
	DB	0ffH
	DB	0acH
	DB	0acH
	DB	0acH
	DB	0ffH
	DB	0acH
	DB	0acH
	DB	0acH
	DB	0ffH
	DB	0acH
	DB	0acH
	DB	0acH
	DB	0ffH
	DB	0acH
	DB	0acH
	DB	0acH
	DB	0ffH
	DB	0acH
	DB	0acH
	DB	0acH
	DB	0ffH
	DB	0acH
	DB	0acH
	DB	0acH
	DB	0ffH
	DB	0acH
	DB	0acH
	DB	0acH
	DB	0ffH
	DB	0acH
	DB	0acH
	DB	0acH
	DB	0ffH
	DB	0acH
	DB	0acH
	DB	0acH
	DB	0ffH
	DB	0acH
	DB	0acH
	DB	0acH
	DB	0ffH
	DB	0acH
	DB	0acH
	DB	0acH
	DB	0ffH
	DB	0acH
	DB	0acH
	DB	0acH
	DB	0ffH
	DB	0acH
	DB	0acH
	DB	0acH
	DB	0ffH
	DB	0acH
	DB	0acH
	DB	0acH
	DB	0ffH
	DB	0acH
	DB	0acH
	DB	0acH
	DB	0ffH
	DB	0acH
	DB	0acH
	DB	0acH
	DB	0ffH
	DB	0acH
	DB	0acH
	DB	0acH
	DB	0ffH
	DB	0acH
	DB	0acH
	DB	0acH
	DB	0ffH
	DB	0acH
	DB	0acH
	DB	0acH
	DB	0ffH
	DB	0acH
	DB	0acH
	DB	0acH
	DB	0ffH
	DB	0acH
	DB	0acH
	DB	0acH
	DB	0ffH
	DB	0acH
	DB	0acH
	DB	0acH
	DB	0ffH
	DB	0acH
	DB	0acH
	DB	0acH
	DB	0ffH
	DB	0acH
	DB	0acH
	DB	0acH
	DB	0ffH
	DB	0acH
	DB	0acH
	DB	0acH
	DB	0ffH
	DB	0acH
	DB	0acH
	DB	0acH
	DB	0ffH
	DB	0acH
	DB	0acH
	DB	0acH
	DB	0ffH
	DB	0acH
	DB	0acH
	DB	0acH
	DB	0ffH
	DB	0acH
	DB	0acH
	DB	0acH
	DB	0ffH
	DB	0acH
	DB	0acH
	DB	0acH
	DB	0ffH
	DB	0acH
	DB	0acH
	DB	0acH
	DB	0ffH
	DB	0acH
	DB	0acH
	DB	0acH
	DB	0ffH
	DB	0acH
	DB	0acH
	DB	0acH
	DB	0ffH
	DB	0acH
	DB	0acH
	DB	0acH
	DB	0ffH
	DB	0acH
	DB	0acH
	DB	0acH
	DB	0ffH
	DB	0acH
	DB	0acH
	DB	0acH
	DB	0ffH
	DB	0acH
	DB	0acH
	DB	0acH
	DB	0ffH
	DB	0acH
	DB	0acH
	DB	0acH
	DB	0ffH
	DB	0acH
	DB	0acH
	DB	0acH
	DB	0ffH
	DB	0acH
	DB	0acH
	DB	0acH
	DB	0ffH
	DB	0acH
	DB	0acH
	DB	0acH
	DB	0ffH
	DB	0acH
	DB	0acH
	DB	0acH
	DB	0ffH
	DB	0acH
	DB	0acH
	DB	0acH
	DB	0ffH
	DB	0acH
	DB	0acH
	DB	0acH
	DB	0ffH
	DB	0acH
	DB	0acH
	DB	0acH
	DB	0ffH
	DB	0acH
	DB	0acH
	DB	0acH
	DB	0ffH
	DB	0acH
	DB	0acH
	DB	0acH
	DB	0ffH
	DB	0acH
	DB	0acH
	DB	0acH
	DB	0ffH
	DB	0acH
	DB	0acH
	DB	0acH
	DB	0ffH
	DB	0acH
	DB	0acH
	DB	0acH
	DB	0ffH
	DB	0acH
	DB	0acH
	DB	0acH
	DB	0ffH
	DB	0acH
	DB	0acH
	DB	0acH
	DB	0ffH
	DB	0acH
	DB	0acH
	DB	0acH
	DB	0ffH
	DB	0acH
	DB	0acH
	DB	0acH
	DB	0ffH
	DB	0acH
	DB	0acH
	DB	0acH
	DB	0ffH
	DB	0acH
	DB	0acH
	DB	0acH
	DB	0ffH
	DB	0acH
	DB	0acH
	DB	0acH
	DB	0ffH
	DB	0acH
	DB	0acH
	DB	0acH
	DB	0ffH
	DB	0acH
	DB	0acH
	DB	0acH
	DB	0ffH
	DB	0acH
	DB	0acH
	DB	0acH
	DB	0ffH
	DB	0acH
	DB	0acH
	DB	0acH
	DB	0ffH
	DB	0acH
	DB	0acH
	DB	0acH
	DB	0ffH
	DB	0acH
	DB	0acH
	DB	0acH
	DB	0ffH
	DB	0acH
	DB	0acH
	DB	0acH
	DB	0ffH
	DB	0acH
	DB	0acH
	DB	0acH
	DB	0ffH
	DB	0acH
	DB	0acH
	DB	0acH
	DB	0ffH
	DB	0acH
	DB	0acH
	DB	0acH
	DB	0ffH
	DB	0acH
	DB	0acH
	DB	0acH
	DB	0ffH
	DB	0acH
	DB	0acH
	DB	0acH
	DB	0ffH
	DB	0acH
	DB	0acH
	DB	0acH
	DB	0ffH
	DB	0acH
	DB	0acH
	DB	0acH
	DB	0ffH
	DB	0acH
	DB	0acH
	DB	0acH
	DB	0ffH
	DB	0acH
	DB	0acH
	DB	0acH
	DB	0ffH
	DB	0acH
	DB	0acH
	DB	0acH
	DB	0ffH
	DB	0acH
	DB	0acH
	DB	0acH
	DB	0ffH
	DB	0acH
	DB	0acH
	DB	0acH
	DB	0ffH
	DB	0acH
	DB	0acH
	DB	0acH
	DB	0ffH
	DB	0acH
	DB	0acH
	DB	0acH
	DB	0ffH
	DB	0acH
	DB	0acH
	DB	0acH
	DB	0ffH
	DB	0acH
	DB	0acH
	DB	0acH
	DB	0ffH
	DB	0acH
	DB	0acH
	DB	0acH
	DB	0ffH
	DB	0acH
	DB	0acH
	DB	0acH
	DB	0ffH
	DB	0acH
	DB	0acH
	DB	0acH
	DB	0ffH
	DB	0acH
	DB	0acH
	DB	0acH
	DB	0ffH
	DB	0acH
	DB	0acH
	DB	0acH
	DB	0ffH
	DB	0acH
	DB	0acH
	DB	0acH
	DB	0ffH
	DB	0acH
	DB	0acH
	DB	0acH
	DB	0ffH
	DB	0acH
	DB	0acH
	DB	0acH
	DB	0ffH
	DB	0acH
	DB	0acH
	DB	0acH
	DB	0ffH
	DB	0acH
	DB	0acH
	DB	0acH
	DB	0ffH
	DB	0acH
	DB	0acH
	DB	0acH
	DB	0ffH
	DB	0acH
	DB	0acH
	DB	0acH
	DB	0ffH
	DB	0acH
	DB	0acH
	DB	0acH
	DB	0ffH
	DB	0acH
	DB	0acH
	DB	0acH
	DB	0ffH
	DB	0acH
	DB	0acH
	DB	0acH
	DB	0ffH
	DB	0acH
	DB	0acH
	DB	0acH
	DB	0ffH
	DB	0acH
	DB	0acH
	DB	0acH
	DB	0ffH
	DB	0acH
	DB	0acH
	DB	0acH
	DB	0ffH
	DB	0acH
	DB	0acH
	DB	0acH
	DB	0ffH
	DB	0acH
	DB	0acH
	DB	0acH
	DB	0ffH
	DB	0acH
	DB	0acH
	DB	0acH
	DB	0ffH
	DB	0acH
	DB	0acH
	DB	0acH
	DB	0ffH
	DB	0acH
	DB	0acH
	DB	0acH
	DB	0ffH
	DB	0acH
	DB	0acH
	DB	0acH
	DB	0ffH
	DB	0acH
	DB	0acH
	DB	0acH
	DB	0ffH
	DB	0acH
	DB	0acH
	DB	0acH
	DB	0ffH
	DB	0acH
	DB	0acH
	DB	0acH
	DB	0ffH
	DB	0acH
	DB	0acH
	DB	0acH
	DB	0ffH
	DB	0acH
	DB	0acH
	DB	0acH
	DB	0ffH
	DB	0acH
	DB	0acH
	DB	0acH
	DB	0ffH
	DB	0acH
	DB	0acH
	DB	0acH
	DB	0ffH
	DB	0acH
	DB	0acH
	DB	0acH
	DB	0ffH
	DB	0acH
	DB	0acH
	DB	0acH
	DB	0ffH
	DB	0acH
	DB	0acH
	DB	0acH
	DB	0ffH
	DB	0acH
	DB	0acH
	DB	0acH
	DB	0ffH
	DB	0acH
	DB	0acH
	DB	0acH
	DB	0ffH
	DB	0acH
	DB	0acH
	DB	0acH
	DB	0ffH
	DB	0acH
	DB	0acH
	DB	0acH
	DB	0ffH
	DB	0acH
	DB	0acH
	DB	0acH
	DB	0ffH
	DB	0acH
	DB	0acH
	DB	0acH
	DB	0ffH
	DB	0acH
	DB	0acH
	DB	0acH
	DB	0ffH
	DB	0acH
	DB	0acH
	DB	0acH
	DB	0ffH
	DB	0acH
	DB	0acH
	DB	0acH
	DB	0ffH
	DB	0acH
	DB	0acH
	DB	0acH
	DB	0ffH
	DB	0acH
	DB	0acH
	DB	0acH
	DB	0ffH
	DB	0acH
	DB	0acH
	DB	0acH
	DB	0ffH
	DB	0acH
	DB	0acH
	DB	0acH
	DB	0ffH
	DB	0acH
	DB	0acH
	DB	0acH
	DB	0ffH
	DB	0acH
	DB	0acH
	DB	0acH
	DB	0ffH
	DB	0acH
	DB	0acH
	DB	0acH
	DB	0ffH
	DB	0acH
	DB	0acH
	DB	0acH
	DB	0ffH
	DB	0acH
	DB	0acH
	DB	0acH
	DB	0ffH
	DB	0acH
	DB	0acH
	DB	0acH
	DB	0ffH
	DB	0acH
	DB	0acH
	DB	0acH
	DB	0ffH
	DB	0acH
	DB	0acH
	DB	0acH
	DB	0ffH
	DB	0acH
	DB	0acH
	DB	0acH
	DB	0ffH
	DB	0acH
	DB	0acH
	DB	0acH
	DB	0ffH
	DB	0acH
	DB	0acH
	DB	0acH
	DB	0ffH
	DB	0acH
	DB	0acH
	DB	0acH
	DB	0ffH
	DB	0acH
	DB	0acH
	DB	0acH
	DB	0ffH
	DB	0acH
	DB	0acH
	DB	0acH
	DB	0ffH
	DB	0acH
	DB	0acH
	DB	0acH
	DB	0ffH
	DB	0acH
	DB	0acH
	DB	0acH
	DB	0ffH
	DB	0acH
	DB	0acH
	DB	0acH
	DB	0ffH
	DB	0acH
	DB	0acH
	DB	0acH
	DB	0ffH
	DB	0acH
	DB	0acH
	DB	0acH
	DB	0ffH
	DB	0acH
	DB	0acH
	DB	0acH
	DB	0ffH
	DB	0acH
	DB	0acH
	DB	0acH
	DB	0ffH
	DB	0acH
	DB	0acH
	DB	0acH
	DB	0ffH
	DB	0acH
	DB	0acH
	DB	0acH
	DB	0ffH
	DB	0acH
	DB	0acH
	DB	0acH
	DB	0ffH
	DB	0acH
	DB	0acH
	DB	0acH
	DB	0ffH
	DB	0acH
	DB	0acH
	DB	0acH
	DB	0ffH
	DB	0acH
	DB	0acH
	DB	0acH
	DB	0ffH
	DB	0acH
	DB	0acH
	DB	0acH
	DB	0ffH
	DB	0acH
	DB	0acH
	DB	0acH
	DB	0ffH
	DB	0acH
	DB	0acH
	DB	0acH
	DB	0ffH
	DB	0acH
	DB	0acH
	DB	0acH
	DB	0ffH
	DB	0acH
	DB	0acH
	DB	0acH
	DB	0ffH
	DB	0acH
	DB	0acH
	DB	0acH
	DB	0ffH
	DB	0acH
	DB	0acH
	DB	0acH
	DB	0ffH
	DB	0acH
	DB	0acH
	DB	0acH
	DB	0ffH
	DB	0acH
	DB	0acH
	DB	0acH
	DB	0ffH
	DB	0acH
	DB	0acH
	DB	0acH
	DB	0ffH
	DB	0acH
	DB	0acH
	DB	0acH
	DB	0ffH
	DB	0acH
	DB	0acH
	DB	0acH
	DB	0ffH
	DB	0acH
	DB	0acH
	DB	0acH
	DB	0ffH
	DB	0acH
	DB	0acH
	DB	0acH
	DB	0ffH
	DB	0acH
	DB	0acH
	DB	0acH
	DB	0ffH
	DB	0acH
	DB	0acH
	DB	0acH
	DB	0ffH
	DB	0acH
	DB	0acH
	DB	0acH
	DB	0ffH
	DB	0acH
	DB	0acH
	DB	0acH
	DB	0ffH
	DB	0acH
	DB	0acH
	DB	0acH
	DB	0ffH
	DB	0acH
	DB	0acH
	DB	0acH
	DB	0ffH
	DB	0acH
	DB	0acH
	DB	0acH
	DB	0ffH
	DB	0acH
	DB	0acH
	DB	0acH
	DB	0ffH
	DB	0acH
	DB	0acH
	DB	0acH
	DB	0ffH
	DB	0acH
	DB	0acH
	DB	0acH
	DB	0ffH
	DB	0acH
	DB	0acH
	DB	0acH
	DB	0ffH
	DB	0acH
	DB	0acH
	DB	0acH
	DB	0ffH
	DB	0acH
	DB	0acH
	DB	0acH
	DB	0ffH
	DB	0acH
	DB	0acH
	DB	0acH
	DB	0ffH
	DB	0acH
	DB	0acH
	DB	0acH
	DB	0ffH
	DB	0acH
	DB	0acH
	DB	0acH
	DB	0ffH
	DB	0acH
	DB	0acH
	DB	0acH
	DB	0ffH
	DB	0acH
	DB	0acH
	DB	0acH
	DB	0ffH
	DB	0acH
	DB	0acH
	DB	0acH
	DB	0ffH
	DB	0acH
	DB	0acH
	DB	0acH
	DB	0ffH
	DB	0acH
	DB	0acH
	DB	0acH
	DB	0ffH
	DB	0acH
	DB	0acH
	DB	0acH
	DB	0ffH
	DB	0acH
	DB	0acH
	DB	0acH
	DB	0ffH
	DB	0acH
	DB	0acH
	DB	0acH
	DB	0ffH
	DB	0acH
	DB	0acH
	DB	0acH
	DB	0ffH
	DB	0acH
	DB	0acH
	DB	0acH
	DB	0ffH
	DB	0acH
	DB	0acH
	DB	0acH
	DB	0ffH
	DB	0acH
	DB	0acH
	DB	0acH
	DB	0ffH
	DB	0acH
	DB	0acH
	DB	0acH
	DB	0ffH
	DB	0acH
	DB	0acH
	DB	0acH
	DB	0ffH
	DB	0acH
	DB	0acH
	DB	0acH
	DB	0ffH
	DB	0acH
	DB	0acH
	DB	0acH
	DB	0ffH
	DB	0acH
	DB	0acH
	DB	0acH
	DB	0ffH
	DB	0acH
	DB	0acH
	DB	0acH
	DB	0ffH
	DB	0acH
	DB	0acH
	DB	0acH
	DB	0ffH
	DB	0acH
	DB	0acH
	DB	0acH
	DB	0ffH
	DB	0acH
	DB	0acH
	DB	0acH
	DB	0ffH
	DB	0acH
	DB	0acH
	DB	0acH
	DB	0ffH
	DB	0acH
	DB	0acH
	DB	0acH
	DB	0ffH
	DB	0acH
	DB	0acH
	DB	0acH
	DB	0ffH
	DB	0acH
	DB	0acH
	DB	0acH
	DB	0ffH
	DB	0acH
	DB	0acH
	DB	0acH
	DB	0ffH
	DB	0acH
	DB	0acH
	DB	0acH
	DB	0ffH
	DB	0acH
	DB	0acH
	DB	0acH
	DB	0ffH
	DB	0acH
	DB	0acH
	DB	0acH
	DB	0ffH
	DB	0acH
	DB	0acH
	DB	0acH
	DB	0ffH
	DB	0acH
	DB	0acH
	DB	0acH
	DB	0ffH
	DB	0acH
	DB	0acH
	DB	0acH
	DB	0ffH
	DB	0acH
	DB	0acH
	DB	0acH
	DB	0ffH
	DB	0acH
	DB	0acH
	DB	0acH
	DB	0ffH
	DB	0acH
	DB	0acH
	DB	0acH
	DB	0ffH
	DB	0acH
	DB	0acH
	DB	0acH
	DB	0ffH
	DB	0acH
	DB	0acH
	DB	0acH
	DB	0ffH
	DB	0acH
	DB	0acH
	DB	0acH
	DB	0ffH
	DB	0acH
	DB	0acH
	DB	0acH
	DB	0ffH
	DB	0acH
	DB	0acH
	DB	0acH
	DB	0ffH
	DB	0acH
	DB	0acH
	DB	0acH
	DB	0ffH
	DB	0acH
	DB	0acH
	DB	0acH
	DB	0ffH
	DB	0acH
	DB	0acH
	DB	0acH
	DB	0ffH
	DB	0acH
	DB	0acH
	DB	0acH
	DB	0ffH
	DB	0acH
	DB	0acH
	DB	0acH
	DB	0ffH
	DB	0acH
	DB	0acH
	DB	0acH
	DB	0ffH
	DB	0acH
	DB	0acH
	DB	0acH
	DB	0ffH
	DB	0acH
	DB	0acH
	DB	0acH
	DB	0ffH
	DB	0acH
	DB	0acH
	DB	0acH
	DB	0ffH
	DB	0acH
	DB	0acH
	DB	0acH
	DB	0ffH
	DB	0acH
	DB	0acH
	DB	0acH
	DB	0ffH
	DB	0acH
	DB	0acH
	DB	0acH
	DB	0ffH
	DB	0acH
	DB	0acH
	DB	0acH
	DB	0ffH
	DB	0acH
	DB	0acH
	DB	0acH
	DB	0ffH
	DB	0acH
	DB	0acH
	DB	0acH
	DB	0ffH
	DB	0acH
	DB	0acH
	DB	0acH
	DB	0ffH
	DB	0acH
	DB	0acH
	DB	0acH
	DB	0ffH
	DB	0acH
	DB	0acH
	DB	0acH
	DB	0ffH
	DB	0acH
	DB	0acH
	DB	0acH
	DB	0ffH
	DB	0acH
	DB	0acH
	DB	0acH
	DB	0ffH
	DB	0acH
	DB	0acH
	DB	0acH
	DB	0ffH
	DB	0acH
	DB	0acH
	DB	0acH
	DB	0ffH
	DB	0acH
	DB	0acH
	DB	0acH
	DB	0ffH
	DB	0acH
	DB	0acH
	DB	0acH
	DB	0ffH
	DB	0acH
	DB	0acH
	DB	0acH
	DB	0ffH
	DB	0acH
	DB	0acH
	DB	0acH
	DB	0ffH
	DB	0acH
	DB	0acH
	DB	0acH
	DB	0ffH
	DB	0acH
	DB	0acH
	DB	0acH
	DB	0ffH
	DB	0acH
	DB	0acH
	DB	0acH
	DB	0ffH
	DB	0acH
	DB	0acH
	DB	0acH
	DB	0ffH
	DB	0acH
	DB	0acH
	DB	0acH
	DB	0ffH
	DB	0acH
	DB	0acH
	DB	0acH
	DB	0ffH
	DB	0acH
	DB	0acH
	DB	0acH
	DB	0ffH
	DB	0acH
	DB	0acH
	DB	0acH
	DB	0ffH
	DB	0acH
	DB	0acH
	DB	0acH
	DB	0ffH
	DB	0acH
	DB	0acH
	DB	0acH
	DB	0ffH
	DB	0acH
	DB	0acH
	DB	0acH
	DB	0ffH
	DB	0acH
	DB	0acH
	DB	0acH
	DB	0ffH
	DB	0acH
	DB	0acH
	DB	0acH
	DB	0ffH
	DB	0acH
	DB	0acH
	DB	0acH
	DB	0ffH
	DB	0acH
	DB	0acH
	DB	0acH
	DB	0ffH
	DB	0acH
	DB	0acH
	DB	0acH
	DB	0ffH
	DB	0acH
	DB	0acH
	DB	0acH
	DB	0ffH
	DB	0acH
	DB	0acH
	DB	0acH
	DB	0ffH
	DB	0acH
	DB	0acH
	DB	0acH
	DB	0ffH
	DB	0acH
	DB	0acH
	DB	0acH
	DB	0ffH
	DB	0acH
	DB	0acH
	DB	0acH
	DB	0ffH
	DB	0acH
	DB	0acH
	DB	0acH
	DB	0ffH
	DB	0acH
	DB	0acH
	DB	0acH
	DB	0ffH
	DB	0acH
	DB	0acH
	DB	0acH
	DB	0ffH
	DB	0acH
	DB	0acH
	DB	0acH
	DB	0ffH
	DB	0acH
	DB	0acH
	DB	0acH
	DB	0ffH
	DB	0acH
	DB	0acH
	DB	0acH
	DB	0ffH
	DB	0acH
	DB	0acH
	DB	0acH
	DB	0ffH
	DB	0acH
	DB	0acH
	DB	0acH
	DB	0ffH
	DB	0acH
	DB	0acH
	DB	0acH
	DB	0ffH
	DB	0acH
	DB	0acH
	DB	0acH
	DB	0ffH
	DB	0acH
	DB	0acH
	DB	0acH
	DB	0ffH
	DB	0acH
	DB	0acH
	DB	0acH
	DB	0ffH
	DB	0acH
	DB	0acH
	DB	0acH
	DB	0ffH
	DB	0acH
	DB	0acH
	DB	0acH
	DB	0ffH
	DB	0acH
	DB	0acH
	DB	0acH
	DB	0ffH
	DB	0acH
	DB	0acH
	DB	0acH
	DB	0ffH
	DB	0acH
	DB	0acH
	DB	0acH
	DB	0ffH
	DB	0acH
	DB	0acH
	DB	0acH
	DB	0ffH
	DB	0acH
	DB	0acH
	DB	0acH
	DB	0ffH
	DB	0acH
	DB	0acH
	DB	0acH
	DB	0ffH
	DB	0acH
	DB	0acH
	DB	0acH
	DB	0ffH
	DB	0acH
	DB	0acH
	DB	0acH
	DB	0ffH
	DB	0acH
	DB	0acH
	DB	0acH
	DB	0ffH
	DB	0acH
	DB	0acH
	DB	0acH
	DB	0ffH
	DB	0acH
	DB	0acH
	DB	0acH
	DB	0ffH
	DB	0acH
	DB	0acH
	DB	0acH
	DB	0ffH
	DB	0acH
	DB	0acH
	DB	0acH
	DB	0ffH
	DB	0acH
	DB	0acH
	DB	0acH
	DB	0ffH
	DB	0acH
	DB	0acH
	DB	0acH
	DB	0ffH
	DB	0acH
	DB	0acH
	DB	0acH
	DB	0ffH
	DB	0acH
	DB	0acH
	DB	0acH
	DB	0ffH
	DB	0acH
	DB	0acH
	DB	0acH
	DB	0ffH
	DB	0acH
	DB	0acH
	DB	0acH
	DB	0ffH
	DB	0acH
	DB	0acH
	DB	0acH
	DB	0ffH
	DB	0acH
	DB	0acH
	DB	0acH
	DB	0ffH
	DB	0acH
	DB	0acH
	DB	0acH
	DB	0ffH
	DB	0acH
	DB	0acH
	DB	0acH
	DB	0ffH
	DB	0acH
	DB	0acH
	DB	0acH
	DB	0ffH
	DB	0acH
	DB	0acH
	DB	0acH
	DB	0ffH
	DB	0acH
	DB	0acH
	DB	0acH
	DB	0ffH
	DB	0acH
	DB	0acH
	DB	0acH
	DB	0ffH
	DB	0acH
	DB	0acH
	DB	0acH
	DB	0ffH
	DB	0acH
	DB	0acH
	DB	0acH
	DB	0ffH
	DB	0acH
	DB	0acH
	DB	0acH
	DB	0ffH
	DB	0acH
	DB	0acH
	DB	0acH
	DB	0ffH
	DB	0acH
	DB	0acH
	DB	0acH
	DB	0ffH
	DB	0acH
	DB	0acH
	DB	0acH
	DB	0ffH
	DB	0acH
	DB	0acH
	DB	0acH
	DB	0ffH
	DB	0acH
	DB	0acH
	DB	0acH
	DB	0ffH
	DB	0acH
	DB	0acH
	DB	0acH
	DB	0ffH
	DB	0acH
	DB	0acH
	DB	0acH
	DB	0ffH
	DB	0acH
	DB	0acH
	DB	0acH
	DB	0ffH
	DB	0acH
	DB	0acH
	DB	0acH
	DB	0ffH
	DB	0acH
	DB	0acH
	DB	0acH
	DB	0ffH
	DB	0acH
	DB	0acH
	DB	0acH
	DB	0ffH
	DB	0acH
	DB	0acH
	DB	0acH
	DB	0ffH
	DB	0acH
	DB	0acH
	DB	0acH
	DB	0ffH
	DB	0acH
	DB	0acH
	DB	0acH
	DB	0ffH
	DB	0acH
	DB	0acH
	DB	0acH
	DB	0ffH
	DB	0acH
	DB	0acH
	DB	0acH
	DB	0ffH
	DB	0acH
	DB	0acH
	DB	0acH
	DB	0ffH
	DB	0acH
	DB	0acH
	DB	0acH
	DB	0ffH
	DB	0acH
	DB	0acH
	DB	0acH
	DB	0ffH
	DB	0acH
	DB	0acH
	DB	0acH
	DB	0ffH
	DB	0acH
	DB	0acH
	DB	0acH
	DB	0ffH
	DB	0acH
	DB	0acH
	DB	0acH
	DB	0ffH
	DB	0acH
	DB	0acH
	DB	0acH
	DB	0ffH
	DB	0acH
	DB	0acH
	DB	0acH
	DB	0ffH
	DB	0acH
	DB	0acH
	DB	0acH
	DB	0ffH
	DB	0acH
	DB	0acH
	DB	0acH
	DB	0ffH
	DB	0acH
	DB	0acH
	DB	0acH
	DB	0ffH
	DB	0acH
	DB	0acH
	DB	0acH
	DB	0ffH
	DB	0acH
	DB	0acH
	DB	0acH
	DB	0ffH
	DB	0acH
	DB	0acH
	DB	0acH
	DB	0ffH
	DB	0acH
	DB	0acH
	DB	0acH
	DB	0ffH
	DB	0acH
	DB	0acH
	DB	0acH
	DB	0ffH
	DB	0acH
	DB	0acH
	DB	0acH
	DB	0ffH
	DB	0acH
	DB	0acH
	DB	0acH
	DB	0ffH
	DB	0acH
	DB	0acH
	DB	0acH
	DB	0ffH
	DB	0acH
	DB	0acH
	DB	0acH
	DB	0ffH
	DB	0acH
	DB	0acH
	DB	0acH
	DB	0ffH
	DB	0acH
	DB	0acH
	DB	0acH
	DB	0ffH
	DB	0acH
	DB	0acH
	DB	0acH
	DB	0ffH
	DB	0acH
	DB	0acH
	DB	0acH
	DB	0ffH
	DB	0acH
	DB	0acH
	DB	0acH
	DB	0ffH
	DB	0acH
	DB	0acH
	DB	0acH
	DB	0ffH
	DB	0acH
	DB	0acH
	DB	0acH
	DB	0ffH
	DB	0acH
	DB	0acH
	DB	0acH
	DB	0ffH
	DB	0acH
	DB	0acH
	DB	0acH
	DB	0ffH
	DB	0acH
	DB	0acH
	DB	0acH
	DB	0ffH
	DB	0acH
	DB	0acH
	DB	0acH
	DB	0ffH
	DB	0acH
	DB	0acH
	DB	0acH
	DB	0ffH
	DB	0acH
	DB	0acH
	DB	0acH
	DB	0ffH
	DB	0acH
	DB	0acH
	DB	0acH
	DB	0ffH
	DB	0acH
	DB	0acH
	DB	0acH
	DB	0ffH
	DB	0acH
	DB	0acH
	DB	0acH
	DB	0ffH
	DB	0acH
	DB	0acH
	DB	0acH
	DB	0ffH
	DB	0acH
	DB	0acH
	DB	0acH
	DB	0ffH
	DB	0acH
	DB	0acH
	DB	0acH
	DB	0ffH
	DB	0acH
	DB	0acH
	DB	0acH
	DB	0ffH
	DB	0acH
	DB	0acH
	DB	0acH
	DB	0ffH
	DB	0acH
	DB	0acH
	DB	0acH
	DB	0ffH
	DB	0acH
	DB	0acH
	DB	0acH
	DB	0ffH
	DB	0acH
	DB	0acH
	DB	0acH
	DB	0ffH
	DB	0acH
	DB	0acH
	DB	0acH
	DB	0ffH
	DB	0acH
	DB	0acH
	DB	0acH
	DB	0ffH
	DB	0acH
	DB	0acH
	DB	0acH
	DB	0ffH
	DB	0acH
	DB	0acH
	DB	0acH
	DB	0ffH
	DB	0acH
	DB	0acH
	DB	0acH
	DB	0ffH
	DB	0acH
	DB	0acH
	DB	0acH
	DB	0ffH
	DB	0acH
	DB	0acH
	DB	0acH
	DB	0ffH
	DB	0acH
	DB	0acH
	DB	0acH
	DB	0ffH
	DB	0acH
	DB	0acH
	DB	0acH
	DB	0ffH
	DB	0acH
	DB	0acH
	DB	0acH
	DB	0ffH
	DB	0acH
	DB	0acH
	DB	0acH
	DB	0ffH
	DB	0acH
	DB	0acH
	DB	0acH
	DB	0ffH
	DB	0acH
	DB	0acH
	DB	0acH
	DB	0ffH
	DB	0acH
	DB	0acH
	DB	0acH
	DB	0ffH
	DB	0acH
	DB	0acH
	DB	0acH
	DB	0ffH
	DB	0acH
	DB	0acH
	DB	0acH
	DB	0ffH
	DB	0acH
	DB	0acH
	DB	0acH
	DB	0ffH
	DB	0acH
	DB	0acH
	DB	0acH
	DB	0ffH
	DB	0acH
	DB	0acH
	DB	0acH
	DB	0ffH
	DB	0acH
	DB	0acH
	DB	0acH
	DB	0ffH
	DB	0acH
	DB	0acH
	DB	0acH
	DB	0ffH
	DB	0acH
	DB	0acH
	DB	0acH
	DB	0ffH
	DB	0acH
	DB	0acH
	DB	0acH
	DB	0ffH
	DB	0acH
	DB	0acH
	DB	0acH
	DB	0ffH
	DB	0acH
	DB	0acH
	DB	0acH
	DB	0ffH
	DB	0acH
	DB	0acH
	DB	0acH
	DB	0ffH
	DB	0acH
	DB	0acH
	DB	0acH
	DB	0ffH
	DB	0acH
	DB	0acH
	DB	0acH
	DB	0ffH
	DB	0acH
	DB	0acH
	DB	0acH
	DB	0ffH
	DB	0acH
	DB	0acH
	DB	0acH
	DB	0ffH
	DB	0acH
	DB	0acH
	DB	0acH
	DB	0ffH
	DB	0acH
	DB	0acH
	DB	0acH
	DB	0ffH
	DB	0acH
	DB	0acH
	DB	0acH
	DB	0ffH
	DB	0acH
	DB	0acH
	DB	0acH
	DB	0ffH
	DB	0acH
	DB	0acH
	DB	0acH
	DB	0ffH
	DB	0acH
	DB	0acH
	DB	0acH
	DB	0ffH
	DB	0acH
	DB	0acH
	DB	0acH
	DB	0ffH
	DB	0acH
	DB	0acH
	DB	0acH
	DB	0ffH
	DB	0acH
	DB	0acH
	DB	0acH
	DB	0ffH
	DB	0acH
	DB	0acH
	DB	0acH
	DB	0ffH
	DB	0acH
	DB	0acH
	DB	0acH
	DB	0ffH
	DB	0acH
	DB	0acH
	DB	0acH
	DB	0ffH
	DB	0acH
	DB	0acH
	DB	0acH
	DB	0ffH
	DB	0acH
	DB	0acH
	DB	0acH
	DB	0ffH
	DB	0acH
	DB	0acH
	DB	0acH
	DB	0ffH
	DB	0acH
	DB	0acH
	DB	0acH
	DB	0ffH
	DB	0acH
	DB	0acH
	DB	0acH
	DB	0ffH
	DB	0acH
	DB	0acH
	DB	0acH
	DB	0ffH
	DB	0acH
	DB	0acH
	DB	0acH
	DB	0ffH
	DB	0acH
	DB	0acH
	DB	0acH
	DB	0ffH
	DB	0acH
	DB	0acH
	DB	0acH
	DB	0ffH
	DB	0acH
	DB	0acH
	DB	0acH
	DB	0ffH
	DB	0acH
	DB	0acH
	DB	0acH
	DB	0ffH
	DB	0acH
	DB	0acH
	DB	0acH
	DB	0ffH
	DB	0acH
	DB	0acH
	DB	0acH
	DB	0ffH
	DB	0acH
	DB	0acH
	DB	0acH
	DB	0ffH
	DB	0acH
	DB	0acH
	DB	0acH
	DB	0ffH
	DB	0acH
	DB	0acH
	DB	0acH
	DB	0ffH
	DB	0acH
	DB	0acH
	DB	0acH
	DB	0ffH
	DB	0acH
	DB	0acH
	DB	0acH
	DB	0ffH
	DB	0acH
	DB	0acH
	DB	0acH
	DB	0ffH
	DB	0acH
	DB	0acH
	DB	0acH
	DB	0ffH
	DB	0acH
	DB	0acH
	DB	0acH
	DB	0ffH
	DB	0acH
	DB	0acH
	DB	0acH
	DB	0ffH
	DB	0acH
	DB	0acH
	DB	0acH
	DB	0ffH
	DB	0acH
	DB	0acH
	DB	0acH
	DB	0ffH
	DB	0acH
	DB	0acH
	DB	0acH
	DB	0ffH
	DB	0acH
	DB	0acH
	DB	0acH
	DB	0ffH
	DB	0acH
	DB	0acH
	DB	0acH
	DB	0ffH
	DB	0acH
	DB	0acH
	DB	0acH
	DB	0ffH
	DB	0acH
	DB	0acH
	DB	0acH
	DB	0ffH
	DB	0acH
	DB	0acH
	DB	0acH
	DB	0ffH
	DB	0acH
	DB	0acH
	DB	0acH
	DB	0ffH
	DB	0acH
	DB	0acH
	DB	0acH
	DB	0ffH
	DB	0acH
	DB	0acH
	DB	0acH
	DB	0ffH
	DB	0acH
	DB	0acH
	DB	0acH
	DB	0ffH
	DB	0acH
	DB	0acH
	DB	0acH
	DB	0ffH
	DB	0acH
	DB	0acH
	DB	0acH
	DB	0ffH
	DB	0acH
	DB	0acH
	DB	0acH
	DB	0ffH
	DB	0acH
	DB	0acH
	DB	0acH
	DB	0ffH
	DB	0acH
	DB	0acH
	DB	0acH
	DB	0ffH
	DB	0acH
	DB	0acH
	DB	0acH
	DB	0ffH
	DB	0acH
	DB	0acH
	DB	0acH
	DB	0ffH
	DB	0acH
	DB	0acH
	DB	0acH
	DB	0ffH
	DB	0acH
	DB	0acH
	DB	0acH
	DB	0ffH
	DB	0acH
	DB	0acH
	DB	0acH
	DB	0ffH
	DB	0acH
	DB	0acH
	DB	0acH
	DB	0ffH
	DB	0acH
	DB	0acH
	DB	0acH
	DB	0ffH
	DB	0acH
	DB	0acH
	DB	0acH
	DB	0ffH
	DB	0acH
	DB	0acH
	DB	0acH
	DB	0ffH
	DB	0acH
	DB	0acH
	DB	0acH
	DB	0ffH
	DB	0acH
	DB	0acH
	DB	0acH
	DB	0ffH
	DB	0acH
	DB	0acH
	DB	0acH
	DB	0ffH
	DB	0acH
	DB	0acH
	DB	0acH
	DB	0ffH
	DB	0acH
	DB	0acH
	DB	0acH
	DB	0ffH
	DB	0acH
	DB	0acH
	DB	0acH
	DB	0ffH
	DB	0acH
	DB	0acH
	DB	0acH
	DB	0ffH
	DB	0acH
	DB	0acH
	DB	0acH
	DB	0ffH
	DB	0acH
	DB	0acH
	DB	0acH
	DB	0ffH
	DB	0acH
	DB	0acH
	DB	0acH
	DB	0ffH
	DB	0acH
	DB	0acH
	DB	0acH
	DB	0ffH
	DB	0acH
	DB	0acH
	DB	0acH
	DB	0ffH
	DB	0acH
	DB	0acH
	DB	0acH
	DB	0ffH
	DB	0acH
	DB	0acH
	DB	0acH
	DB	0ffH
	DB	0acH
	DB	0acH
	DB	0acH
	DB	0ffH
	DB	0acH
	DB	0acH
	DB	0acH
	DB	0ffH
	DB	0acH
	DB	0acH
	DB	0acH
	DB	0ffH
	DB	0acH
	DB	0acH
	DB	0acH
	DB	0ffH
	DB	0acH
	DB	0acH
	DB	0acH
	DB	0ffH
	DB	0acH
	DB	0acH
	DB	0acH
	DB	0ffH
	DB	0acH
	DB	0acH
	DB	0acH
	DB	0ffH
	DB	0acH
	DB	0acH
	DB	0acH
	DB	0ffH
	DB	0acH
	DB	0acH
	DB	0acH
	DB	0ffH
	DB	0acH
	DB	0acH
	DB	0acH
	DB	0ffH
	DB	0acH
	DB	0acH
	DB	0acH
	DB	0ffH
	DB	0acH
	DB	0acH
	DB	0acH
	DB	0ffH
	DB	0acH
	DB	0acH
	DB	0acH
	DB	0ffH
	DB	0acH
	DB	0acH
	DB	0acH
	DB	0ffH
	DB	0acH
	DB	0acH
	DB	0acH
	DB	0ffH
	DB	0acH
	DB	0acH
	DB	0acH
	DB	0ffH
	DB	0acH
	DB	0acH
	DB	0acH
	DB	0ffH
	DB	0acH
	DB	0acH
	DB	0acH
	DB	0ffH
	DB	0acH
	DB	0acH
	DB	0acH
	DB	0ffH
	DB	0acH
	DB	0acH
	DB	0acH
	DB	0ffH
	DB	0acH
	DB	0acH
	DB	0acH
	DB	0ffH
	DB	0acH
	DB	0acH
	DB	0acH
	DB	0ffH
	DB	0acH
	DB	0acH
	DB	0acH
	DB	0ffH
	DB	0acH
	DB	0acH
	DB	0acH
	DB	0ffH
	DB	0acH
	DB	0acH
	DB	0acH
	DB	0ffH
	DB	0acH
	DB	0acH
	DB	0acH
	DB	0ffH
	DB	0acH
	DB	0acH
	DB	0acH
	DB	0ffH
	DB	0acH
	DB	0acH
	DB	0acH
	DB	0ffH
	DB	0acH
	DB	0acH
	DB	0acH
	DB	0ffH
	DB	0acH
	DB	0acH
	DB	0acH
	DB	0ffH
	DB	0acH
	DB	0acH
	DB	0acH
	DB	0ffH
	DB	0acH
	DB	0acH
	DB	0acH
	DB	0ffH
	DB	0acH
	DB	0acH
	DB	0acH
	DB	0ffH
	DB	0acH
	DB	0acH
	DB	0acH
	DB	0ffH
	DB	0acH
	DB	0acH
	DB	0acH
	DB	0ffH
	DB	0acH
	DB	0acH
	DB	0acH
	DB	0ffH
	DB	0acH
	DB	0acH
	DB	0acH
	DB	0ffH
	DB	0acH
	DB	0acH
	DB	0acH
	DB	0ffH
	DB	0acH
	DB	0acH
	DB	0acH
	DB	0ffH
	DB	0acH
	DB	0acH
	DB	0acH
	DB	0ffH
	DB	0acH
	DB	0acH
	DB	0acH
	DB	0ffH
	DB	0acH
	DB	0acH
	DB	0acH
	DB	0ffH
	DB	0acH
	DB	0acH
	DB	0acH
	DB	0ffH
	DB	0acH
	DB	0acH
	DB	0acH
	DB	0ffH
	DB	0acH
	DB	0acH
	DB	0acH
	DB	0ffH
	DB	0acH
	DB	0acH
	DB	0acH
	DB	0ffH
	DB	0acH
	DB	0acH
	DB	0acH
	DB	0ffH
	DB	0acH
	DB	0acH
	DB	0acH
	DB	0ffH
	DB	0acH
	DB	0acH
	DB	0acH
	DB	0ffH
	DB	0acH
	DB	0acH
	DB	0acH
	DB	0ffH
	DB	0acH
	DB	0acH
	DB	0acH
	DB	0ffH
	DB	0acH
	DB	0acH
	DB	0acH
	DB	0ffH
	DB	0acH
	DB	0acH
	DB	0acH
	DB	0ffH
	DB	0acH
	DB	0acH
	DB	0acH
	DB	0ffH
	DB	0acH
	DB	0acH
	DB	0acH
	DB	0ffH
	DB	0acH
	DB	0acH
	DB	0acH
	DB	0ffH
	DB	0acH
	DB	0acH
	DB	0acH
	DB	0ffH
	DB	0acH
	DB	0acH
	DB	0acH
	DB	0ffH
	DB	0acH
	DB	0acH
	DB	0acH
	DB	0ffH
	DB	0acH
	DB	0acH
	DB	0acH
	DB	0ffH
	DB	0acH
	DB	0acH
	DB	0acH
	DB	0ffH
	DB	0acH
	DB	0acH
	DB	0acH
	DB	0ffH
	DB	0acH
	DB	0acH
	DB	0acH
	DB	0ffH
	DB	0acH
	DB	0acH
	DB	0acH
	DB	0ffH
	DB	0acH
	DB	0acH
	DB	0acH
	DB	0ffH
	DB	0acH
	DB	0acH
	DB	0acH
	DB	0ffH
	DB	0acH
	DB	0acH
	DB	0acH
	DB	0ffH
	DB	0acH
	DB	0acH
	DB	0acH
	DB	0ffH
	DB	0acH
	DB	0acH
	DB	0acH
	DB	0ffH
	DB	0acH
	DB	0acH
	DB	0acH
	DB	0ffH
	DB	0acH
	DB	0acH
	DB	0acH
	DB	0ffH
	DB	0acH
	DB	0acH
	DB	0acH
	DB	0ffH
	DB	0acH
	DB	0acH
	DB	0acH
	DB	0ffH
	DB	0acH
	DB	0acH
	DB	0acH
	DB	0ffH
	DB	0acH
	DB	0acH
	DB	0acH
	DB	0ffH
	DB	0acH
	DB	0acH
	DB	0acH
	DB	0ffH
	DB	0acH
	DB	0acH
	DB	0acH
	DB	0ffH
	DB	0acH
	DB	0acH
	DB	0acH
	DB	0ffH
	DB	0acH
	DB	0acH
	DB	0acH
	DB	0ffH
	DB	0acH
	DB	0acH
	DB	0acH
	DB	0ffH
	DB	0acH
	DB	0acH
	DB	0acH
	DB	0ffH
	DB	0acH
	DB	0acH
	DB	0acH
	DB	0ffH
	DB	0acH
	DB	0acH
	DB	0acH
	DB	0ffH
	DB	0acH
	DB	0acH
	DB	0acH
	DB	0ffH
	DB	0acH
	DB	0acH
	DB	0acH
	DB	0ffH
	DB	0acH
	DB	0acH
	DB	0acH
	DB	0ffH
	DB	0acH
	DB	0acH
	DB	0acH
	DB	0ffH
	DB	0acH
	DB	0acH
	DB	0acH
	DB	0ffH
	DB	0acH
	DB	0acH
	DB	0acH
	DB	0ffH
	DB	0acH
	DB	0acH
	DB	0acH
	DB	0ffH
	DB	0acH
	DB	0acH
	DB	0acH
	DB	0ffH
	DB	0acH
	DB	0acH
	DB	0acH
	DB	0ffH
	DB	0acH
	DB	0acH
	DB	0acH
	DB	0ffH
	DB	0acH
	DB	0acH
	DB	0acH
	DB	0ffH
	DB	0acH
	DB	0acH
	DB	0acH
	DB	0ffH
	DB	0acH
	DB	0acH
	DB	0acH
	DB	0ffH
	DB	0acH
	DB	0acH
	DB	0acH
	DB	0ffH
	DB	0acH
	DB	0acH
	DB	0acH
	DB	0ffH
	DB	0acH
	DB	0acH
	DB	0acH
	DB	0ffH
	DB	0acH
	DB	0acH
	DB	0acH
	DB	0ffH
	DB	0acH
	DB	0acH
	DB	0acH
	DB	0ffH
	DB	0acH
	DB	0acH
	DB	0acH
	DB	0ffH
	DB	0acH
	DB	0acH
	DB	0acH
	DB	0ffH
	DB	0acH
	DB	0acH
	DB	0acH
	DB	0ffH
	DB	0acH
	DB	0acH
	DB	0acH
	DB	0ffH
	DB	0acH
	DB	0acH
	DB	0acH
	DB	0ffH
	DB	0acH
	DB	0acH
	DB	0acH
	DB	0ffH
	DB	0acH
	DB	0acH
	DB	0acH
	DB	0ffH
	DB	0acH
	DB	0acH
	DB	0acH
	DB	0ffH
	DB	0acH
	DB	0acH
	DB	0acH
	DB	0ffH
	DB	0acH
	DB	0acH
	DB	0acH
	DB	0ffH
	DB	0acH
	DB	0acH
	DB	0acH
	DB	0ffH
	DB	0acH
	DB	0acH
	DB	0acH
	DB	0ffH
	DB	0acH
	DB	0acH
	DB	0acH
	DB	0ffH
	DB	0acH
	DB	0acH
	DB	0acH
	DB	0ffH
	DB	0acH
	DB	0acH
	DB	0acH
	DB	0ffH
	DB	0acH
	DB	0acH
	DB	0acH
	DB	0ffH
	DB	0acH
	DB	0acH
	DB	0acH
	DB	0ffH
	DB	0acH
	DB	0acH
	DB	0acH
	DB	0ffH
	DB	0acH
	DB	0acH
	DB	0acH
	DB	0ffH
	DB	0acH
	DB	0acH
	DB	0acH
	DB	0ffH
	DB	0acH
	DB	0acH
	DB	0acH
	DB	0ffH
	DB	0acH
	DB	0acH
	DB	0acH
	DB	0ffH
	DB	0acH
	DB	0acH
	DB	0acH
	DB	0ffH
	DB	0acH
	DB	0acH
	DB	0acH
	DB	0ffH
	DB	0acH
	DB	0acH
	DB	0acH
	DB	0ffH
	DB	0acH
	DB	0acH
	DB	0acH
	DB	0ffH
	DB	0acH
	DB	0acH
	DB	0acH
	DB	0ffH
	DB	0acH
	DB	0acH
	DB	0acH
	DB	0ffH
	DB	0acH
	DB	0acH
	DB	0acH
	DB	0ffH
	DB	0acH
	DB	0acH
	DB	0acH
	DB	0ffH
	DB	0acH
	DB	0acH
	DB	0acH
	DB	0ffH
	DB	0acH
	DB	0acH
	DB	0acH
	DB	0ffH
	DB	0acH
	DB	0acH
	DB	0acH
	DB	0ffH
	DB	0acH
	DB	0acH
	DB	0acH
	DB	0ffH
	DB	0acH
	DB	0acH
	DB	0acH
	DB	0ffH
	DB	0acH
	DB	0acH
	DB	0acH
	DB	0ffH
	DB	0acH
	DB	0acH
	DB	0acH
	DB	0ffH
	DB	0acH
	DB	0acH
	DB	0acH
	DB	0ffH
	DB	0acH
	DB	0acH
	DB	0acH
	DB	0ffH
	DB	0acH
	DB	0acH
	DB	0acH
	DB	0ffH
	DB	0acH
	DB	0acH
	DB	0acH
	DB	0ffH
	DB	0acH
	DB	0acH
	DB	0acH
	DB	0ffH
	DB	0acH
	DB	0acH
	DB	0acH
	DB	0ffH
	DB	0acH
	DB	0acH
	DB	0acH
	DB	0ffH
	DB	0acH
	DB	0acH
	DB	0acH
	DB	0ffH
	DB	0acH
	DB	0acH
	DB	0acH
	DB	0ffH
	DB	0acH
	DB	0acH
	DB	0acH
	DB	0ffH
	DB	0acH
	DB	0acH
	DB	0acH
	DB	0ffH
	DB	0acH
	DB	0acH
	DB	0acH
	DB	0ffH
	DB	0acH
	DB	0acH
	DB	0acH
	DB	0ffH
	DB	0acH
	DB	0acH
	DB	0acH
	DB	0ffH
	DB	0acH
	DB	0acH
	DB	0acH
	DB	0ffH
	DB	0acH
	DB	0acH
	DB	0acH
	DB	0ffH
	DB	0acH
	DB	0acH
	DB	0acH
	DB	0ffH
	DB	0acH
	DB	0acH
	DB	0acH
	DB	0ffH
	DB	0acH
	DB	0acH
	DB	0acH
	DB	0ffH
	DB	0acH
	DB	0acH
	DB	0acH
	DB	0ffH
	DB	0acH
	DB	0acH
	DB	0acH
	DB	0ffH
	DB	0acH
	DB	0acH
	DB	0acH
	DB	0d0H
	DB	0acH
	DB	0acH
	DB	0acH
	DB	07H
	DB	00H
	DB	00H
	DB	00H
	DB	00H
	DB	00H
	DB	00H
	DB	00H
	DB	00H
	DB	0acH
	DB	0acH
	DB	0acH
	DB	06dH
	DB	0acH
	DB	0acH
	DB	0acH
	DB	0ffH
	DB	0acH
	DB	0acH
	DB	0acH
	DB	0ffH
	DB	0acH
	DB	0acH
	DB	0acH
	DB	0ffH
	DB	0acH
	DB	0acH
	DB	0acH
	DB	0ffH
	DB	0acH
	DB	0acH
	DB	0acH
	DB	0ffH
	DB	0acH
	DB	0acH
	DB	0acH
	DB	0ffH
	DB	0acH
	DB	0acH
	DB	0acH
	DB	0ffH
	DB	0acH
	DB	0acH
	DB	0acH
	DB	0ffH
	DB	0acH
	DB	0acH
	DB	0acH
	DB	0ffH
	DB	0acH
	DB	0acH
	DB	0acH
	DB	0ffH
	DB	0acH
	DB	0acH
	DB	0acH
	DB	0ffH
	DB	0acH
	DB	0acH
	DB	0acH
	DB	0ffH
	DB	0acH
	DB	0acH
	DB	0acH
	DB	0ffH
	DB	0acH
	DB	0acH
	DB	0acH
	DB	0ffH
	DB	0acH
	DB	0acH
	DB	0acH
	DB	0ffH
	DB	0acH
	DB	0acH
	DB	0acH
	DB	0ffH
	DB	0acH
	DB	0acH
	DB	0acH
	DB	0ffH
	DB	0acH
	DB	0acH
	DB	0acH
	DB	0ffH
	DB	0acH
	DB	0acH
	DB	0acH
	DB	0ffH
	DB	0acH
	DB	0acH
	DB	0acH
	DB	0ffH
	DB	0acH
	DB	0acH
	DB	0acH
	DB	0ffH
	DB	0acH
	DB	0acH
	DB	0acH
	DB	0ffH
	DB	0acH
	DB	0acH
	DB	0acH
	DB	0ffH
	DB	0acH
	DB	0acH
	DB	0acH
	DB	0ffH
	DB	0acH
	DB	0acH
	DB	0acH
	DB	0ffH
	DB	0acH
	DB	0acH
	DB	0acH
	DB	0ffH
	DB	0acH
	DB	0acH
	DB	0acH
	DB	0ffH
	DB	0acH
	DB	0acH
	DB	0acH
	DB	0ffH
	DB	0acH
	DB	0acH
	DB	0acH
	DB	0ffH
	DB	0acH
	DB	0acH
	DB	0acH
	DB	0ffH
	DB	0acH
	DB	0acH
	DB	0acH
	DB	0ffH
	DB	0acH
	DB	0acH
	DB	0acH
	DB	0ffH
	DB	0acH
	DB	0acH
	DB	0acH
	DB	0ffH
	DB	0acH
	DB	0acH
	DB	0acH
	DB	0ffH
	DB	0acH
	DB	0acH
	DB	0acH
	DB	0ffH
	DB	0acH
	DB	0acH
	DB	0acH
	DB	0ffH
	DB	0acH
	DB	0acH
	DB	0acH
	DB	0ffH
	DB	0acH
	DB	0acH
	DB	0acH
	DB	0ffH
	DB	0acH
	DB	0acH
	DB	0acH
	DB	0ffH
	DB	0acH
	DB	0acH
	DB	0acH
	DB	0ffH
	DB	0acH
	DB	0acH
	DB	0acH
	DB	0ffH
	DB	0acH
	DB	0acH
	DB	0acH
	DB	0ffH
	DB	0acH
	DB	0acH
	DB	0acH
	DB	0ffH
	DB	0acH
	DB	0acH
	DB	0acH
	DB	0ffH
	DB	0acH
	DB	0acH
	DB	0acH
	DB	0ffH
	DB	0acH
	DB	0acH
	DB	0acH
	DB	0ffH
	DB	0acH
	DB	0acH
	DB	0acH
	DB	0ffH
	DB	0acH
	DB	0acH
	DB	0acH
	DB	0ffH
	DB	0acH
	DB	0acH
	DB	0acH
	DB	0ffH
	DB	0acH
	DB	0acH
	DB	0acH
	DB	0ffH
	DB	0acH
	DB	0acH
	DB	0acH
	DB	0ffH
	DB	0acH
	DB	0acH
	DB	0acH
	DB	0ffH
	DB	0acH
	DB	0acH
	DB	0acH
	DB	0ffH
	DB	0acH
	DB	0acH
	DB	0acH
	DB	0ffH
	DB	0acH
	DB	0acH
	DB	0acH
	DB	0ffH
	DB	0acH
	DB	0acH
	DB	0acH
	DB	0ffH
	DB	0acH
	DB	0acH
	DB	0acH
	DB	0ffH
	DB	0acH
	DB	0acH
	DB	0acH
	DB	0ffH
	DB	0acH
	DB	0acH
	DB	0acH
	DB	0ffH
	DB	0acH
	DB	0acH
	DB	0acH
	DB	0ffH
	DB	0acH
	DB	0acH
	DB	0acH
	DB	0ffH
	DB	0acH
	DB	0acH
	DB	0acH
	DB	0ffH
	DB	0acH
	DB	0acH
	DB	0acH
	DB	0ffH
	DB	0acH
	DB	0acH
	DB	0acH
	DB	0ffH
	DB	0acH
	DB	0acH
	DB	0acH
	DB	0ffH
	DB	0acH
	DB	0acH
	DB	0acH
	DB	0ffH
	DB	0acH
	DB	0acH
	DB	0acH
	DB	0ffH
	DB	0acH
	DB	0acH
	DB	0acH
	DB	0ffH
	DB	0acH
	DB	0acH
	DB	0acH
	DB	0ffH
	DB	0acH
	DB	0acH
	DB	0acH
	DB	0ffH
	DB	0acH
	DB	0acH
	DB	0acH
	DB	0ffH
	DB	0acH
	DB	0acH
	DB	0acH
	DB	0ffH
	DB	0acH
	DB	0acH
	DB	0acH
	DB	0ffH
	DB	0acH
	DB	0acH
	DB	0acH
	DB	0ffH
	DB	0acH
	DB	0acH
	DB	0acH
	DB	0ffH
	DB	0acH
	DB	0acH
	DB	0acH
	DB	0ffH
	DB	0acH
	DB	0acH
	DB	0acH
	DB	0ffH
	DB	0acH
	DB	0acH
	DB	0acH
	DB	0ffH
	DB	0acH
	DB	0acH
	DB	0acH
	DB	0ffH
	DB	0acH
	DB	0acH
	DB	0acH
	DB	0ffH
	DB	0acH
	DB	0acH
	DB	0acH
	DB	0ffH
	DB	0acH
	DB	0acH
	DB	0acH
	DB	0ffH
	DB	0acH
	DB	0acH
	DB	0acH
	DB	0ffH
	DB	0acH
	DB	0acH
	DB	0acH
	DB	0ffH
	DB	0acH
	DB	0acH
	DB	0acH
	DB	0ffH
	DB	0acH
	DB	0acH
	DB	0acH
	DB	0ffH
	DB	0acH
	DB	0acH
	DB	0acH
	DB	0ffH
	DB	0acH
	DB	0acH
	DB	0acH
	DB	0ffH
	DB	0acH
	DB	0acH
	DB	0acH
	DB	0ffH
	DB	0acH
	DB	0acH
	DB	0acH
	DB	0ffH
	DB	0acH
	DB	0acH
	DB	0acH
	DB	0ffH
	DB	0acH
	DB	0acH
	DB	0acH
	DB	0ffH
	DB	0acH
	DB	0acH
	DB	0acH
	DB	0ffH
	DB	0acH
	DB	0acH
	DB	0acH
	DB	0ffH
	DB	0acH
	DB	0acH
	DB	0acH
	DB	0ffH
	DB	0acH
	DB	0acH
	DB	0acH
	DB	0ffH
	DB	0acH
	DB	0acH
	DB	0acH
	DB	0ffH
	DB	0acH
	DB	0acH
	DB	0acH
	DB	0ffH
	DB	0acH
	DB	0acH
	DB	0acH
	DB	0ffH
	DB	0acH
	DB	0acH
	DB	0acH
	DB	0ffH
	DB	0acH
	DB	0acH
	DB	0acH
	DB	0ffH
	DB	0acH
	DB	0acH
	DB	0acH
	DB	0ffH
	DB	0acH
	DB	0acH
	DB	0acH
	DB	0ffH
	DB	0acH
	DB	0acH
	DB	0acH
	DB	0ffH
	DB	0acH
	DB	0acH
	DB	0acH
	DB	0ffH
	DB	0acH
	DB	0acH
	DB	0acH
	DB	0ffH
	DB	0acH
	DB	0acH
	DB	0acH
	DB	0ffH
	DB	0acH
	DB	0acH
	DB	0acH
	DB	0ffH
	DB	0acH
	DB	0acH
	DB	0acH
	DB	0ffH
	DB	0acH
	DB	0acH
	DB	0acH
	DB	0ffH
	DB	0acH
	DB	0acH
	DB	0acH
	DB	0ffH
	DB	0acH
	DB	0acH
	DB	0acH
	DB	0ffH
	DB	0acH
	DB	0acH
	DB	0acH
	DB	0ffH
	DB	0acH
	DB	0acH
	DB	0acH
	DB	0ffH
	DB	0acH
	DB	0acH
	DB	0acH
	DB	0ffH
	DB	0acH
	DB	0acH
	DB	0acH
	DB	0ffH
	DB	0acH
	DB	0acH
	DB	0acH
	DB	0ffH
	DB	0acH
	DB	0acH
	DB	0acH
	DB	0ffH
	DB	0acH
	DB	0acH
	DB	0acH
	DB	0ffH
	DB	0acH
	DB	0acH
	DB	0acH
	DB	0ffH
	DB	0acH
	DB	0acH
	DB	0acH
	DB	0ffH
	DB	0acH
	DB	0acH
	DB	0acH
	DB	0ffH
	DB	0acH
	DB	0acH
	DB	0acH
	DB	0ffH
	DB	0acH
	DB	0acH
	DB	0acH
	DB	0ffH
	DB	0acH
	DB	0acH
	DB	0acH
	DB	0ffH
	DB	0acH
	DB	0acH
	DB	0acH
	DB	0ffH
	DB	0acH
	DB	0acH
	DB	0acH
	DB	0ffH
	DB	0acH
	DB	0acH
	DB	0acH
	DB	0ffH
	DB	0acH
	DB	0acH
	DB	0acH
	DB	0ffH
	DB	0acH
	DB	0acH
	DB	0acH
	DB	0ffH
	DB	0acH
	DB	0acH
	DB	0acH
	DB	0ffH
	DB	0acH
	DB	0acH
	DB	0acH
	DB	0ffH
	DB	0acH
	DB	0acH
	DB	0acH
	DB	0ffH
	DB	0acH
	DB	0acH
	DB	0acH
	DB	0ffH
	DB	0acH
	DB	0acH
	DB	0acH
	DB	0ffH
	DB	0acH
	DB	0acH
	DB	0acH
	DB	0ffH
	DB	0acH
	DB	0acH
	DB	0acH
	DB	0ffH
	DB	0acH
	DB	0acH
	DB	0acH
	DB	0ffH
	DB	0acH
	DB	0acH
	DB	0acH
	DB	0ffH
	DB	0acH
	DB	0acH
	DB	0acH
	DB	0ffH
	DB	0acH
	DB	0acH
	DB	0acH
	DB	0ffH
	DB	0acH
	DB	0acH
	DB	0acH
	DB	0ffH
	DB	0acH
	DB	0acH
	DB	0acH
	DB	0ffH
	DB	0acH
	DB	0acH
	DB	0acH
	DB	0ffH
	DB	0acH
	DB	0acH
	DB	0acH
	DB	0ffH
	DB	0acH
	DB	0acH
	DB	0acH
	DB	0ffH
	DB	0acH
	DB	0acH
	DB	0acH
	DB	0ffH
	DB	0acH
	DB	0acH
	DB	0acH
	DB	0ffH
	DB	0acH
	DB	0acH
	DB	0acH
	DB	0ffH
	DB	0acH
	DB	0acH
	DB	0acH
	DB	0ffH
	DB	0acH
	DB	0acH
	DB	0acH
	DB	0ffH
	DB	0acH
	DB	0acH
	DB	0acH
	DB	0ffH
	DB	0acH
	DB	0acH
	DB	0acH
	DB	0ffH
	DB	0acH
	DB	0acH
	DB	0acH
	DB	0ffH
	DB	0acH
	DB	0acH
	DB	0acH
	DB	0ffH
	DB	0acH
	DB	0acH
	DB	0acH
	DB	0ffH
	DB	0acH
	DB	0acH
	DB	0acH
	DB	0ffH
	DB	0acH
	DB	0acH
	DB	0acH
	DB	0ffH
	DB	0acH
	DB	0acH
	DB	0acH
	DB	0ffH
	DB	0acH
	DB	0acH
	DB	0acH
	DB	0ffH
	DB	0acH
	DB	0acH
	DB	0acH
	DB	0ffH
	DB	0acH
	DB	0acH
	DB	0acH
	DB	0ffH
	DB	0acH
	DB	0acH
	DB	0acH
	DB	0ffH
	DB	0acH
	DB	0acH
	DB	0acH
	DB	0ffH
	DB	0acH
	DB	0acH
	DB	0acH
	DB	0ffH
	DB	0acH
	DB	0acH
	DB	0acH
	DB	0ffH
	DB	0acH
	DB	0acH
	DB	0acH
	DB	0ffH
	DB	0acH
	DB	0acH
	DB	0acH
	DB	0ffH
	DB	0acH
	DB	0acH
	DB	0acH
	DB	0ffH
	DB	0acH
	DB	0acH
	DB	0acH
	DB	0ffH
	DB	0acH
	DB	0acH
	DB	0acH
	DB	0ffH
	DB	0acH
	DB	0acH
	DB	0acH
	DB	0ffH
	DB	0acH
	DB	0acH
	DB	0acH
	DB	0ffH
	DB	0acH
	DB	0acH
	DB	0acH
	DB	0ffH
	DB	0acH
	DB	0acH
	DB	0acH
	DB	0ffH
	DB	0acH
	DB	0acH
	DB	0acH
	DB	0ffH
	DB	0acH
	DB	0acH
	DB	0acH
	DB	0ffH
	DB	0acH
	DB	0acH
	DB	0acH
	DB	0ffH
	DB	0acH
	DB	0acH
	DB	0acH
	DB	0ffH
	DB	0acH
	DB	0acH
	DB	0acH
	DB	0ffH
	DB	0acH
	DB	0acH
	DB	0acH
	DB	0ffH
	DB	0acH
	DB	0acH
	DB	0acH
	DB	0ffH
	DB	0acH
	DB	0acH
	DB	0acH
	DB	0ffH
	DB	0acH
	DB	0acH
	DB	0acH
	DB	0ffH
	DB	0acH
	DB	0acH
	DB	0acH
	DB	0ffH
	DB	0acH
	DB	0acH
	DB	0acH
	DB	0ffH
	DB	0acH
	DB	0acH
	DB	0acH
	DB	0ffH
	DB	0acH
	DB	0acH
	DB	0acH
	DB	0ffH
	DB	0acH
	DB	0acH
	DB	0acH
	DB	0ffH
	DB	0acH
	DB	0acH
	DB	0acH
	DB	0ffH
	DB	0acH
	DB	0acH
	DB	0acH
	DB	0ffH
	DB	0acH
	DB	0acH
	DB	0acH
	DB	0ffH
	DB	0acH
	DB	0acH
	DB	0acH
	DB	0ffH
	DB	0acH
	DB	0acH
	DB	0acH
	DB	0ffH
	DB	0acH
	DB	0acH
	DB	0acH
	DB	0ffH
	DB	0acH
	DB	0acH
	DB	0acH
	DB	0ffH
	DB	0acH
	DB	0acH
	DB	0acH
	DB	0ffH
	DB	0acH
	DB	0acH
	DB	0acH
	DB	0ffH
	DB	0acH
	DB	0acH
	DB	0acH
	DB	0ffH
	DB	0acH
	DB	0acH
	DB	0acH
	DB	0ffH
	DB	0acH
	DB	0acH
	DB	0acH
	DB	0ffH
	DB	0acH
	DB	0acH
	DB	0acH
	DB	0ffH
	DB	0acH
	DB	0acH
	DB	0acH
	DB	0ffH
	DB	0acH
	DB	0acH
	DB	0acH
	DB	0ffH
	DB	0acH
	DB	0acH
	DB	0acH
	DB	0ffH
	DB	0acH
	DB	0acH
	DB	0acH
	DB	0ffH
	DB	0acH
	DB	0acH
	DB	0acH
	DB	0ffH
	DB	0acH
	DB	0acH
	DB	0acH
	DB	0ffH
	DB	0acH
	DB	0acH
	DB	0acH
	DB	0ffH
	DB	0acH
	DB	0acH
	DB	0acH
	DB	0ffH
	DB	0acH
	DB	0acH
	DB	0acH
	DB	0ffH
	DB	0acH
	DB	0acH
	DB	0acH
	DB	0ffH
	DB	0acH
	DB	0acH
	DB	0acH
	DB	0ffH
	DB	0acH
	DB	0acH
	DB	0acH
	DB	0ffH
	DB	0acH
	DB	0acH
	DB	0acH
	DB	0ffH
	DB	0acH
	DB	0acH
	DB	0acH
	DB	0ffH
	DB	0acH
	DB	0acH
	DB	0acH
	DB	0ffH
	DB	0acH
	DB	0acH
	DB	0acH
	DB	0ffH
	DB	0acH
	DB	0acH
	DB	0acH
	DB	0ffH
	DB	0acH
	DB	0acH
	DB	0acH
	DB	0ffH
	DB	0acH
	DB	0acH
	DB	0acH
	DB	0ffH
	DB	0acH
	DB	0acH
	DB	0acH
	DB	0ffH
	DB	0acH
	DB	0acH
	DB	0acH
	DB	0ffH
	DB	0acH
	DB	0acH
	DB	0acH
	DB	0ffH
	DB	0acH
	DB	0acH
	DB	0acH
	DB	0ffH
	DB	0acH
	DB	0acH
	DB	0acH
	DB	0ffH
	DB	0acH
	DB	0acH
	DB	0acH
	DB	0ffH
	DB	0acH
	DB	0acH
	DB	0acH
	DB	0ffH
	DB	0acH
	DB	0acH
	DB	0acH
	DB	0ffH
	DB	0acH
	DB	0acH
	DB	0acH
	DB	0ffH
	DB	0acH
	DB	0acH
	DB	0acH
	DB	0ffH
	DB	0acH
	DB	0acH
	DB	0acH
	DB	0ffH
	DB	0acH
	DB	0acH
	DB	0acH
	DB	0ffH
	DB	0acH
	DB	0acH
	DB	0acH
	DB	0ffH
	DB	0acH
	DB	0acH
	DB	0acH
	DB	0ffH
	DB	0acH
	DB	0acH
	DB	0acH
	DB	0ffH
	DB	0acH
	DB	0acH
	DB	0acH
	DB	0ffH
	DB	0acH
	DB	0acH
	DB	0acH
	DB	0ffH
	DB	0acH
	DB	0acH
	DB	0acH
	DB	0ffH
	DB	0acH
	DB	0acH
	DB	0acH
	DB	0ffH
	DB	0acH
	DB	0acH
	DB	0acH
	DB	0ffH
	DB	0acH
	DB	0acH
	DB	0acH
	DB	0ffH
	DB	0acH
	DB	0acH
	DB	0acH
	DB	0ffH
	DB	0acH
	DB	0acH
	DB	0acH
	DB	0ffH
	DB	0acH
	DB	0acH
	DB	0acH
	DB	0ffH
	DB	0acH
	DB	0acH
	DB	0acH
	DB	0ffH
	DB	0acH
	DB	0acH
	DB	0acH
	DB	0ffH
	DB	0acH
	DB	0acH
	DB	0acH
	DB	0ffH
	DB	0acH
	DB	0acH
	DB	0acH
	DB	0ffH
	DB	0acH
	DB	0acH
	DB	0acH
	DB	0ffH
	DB	0acH
	DB	0acH
	DB	0acH
	DB	0ffH
	DB	0acH
	DB	0acH
	DB	0acH
	DB	0ffH
	DB	0acH
	DB	0acH
	DB	0acH
	DB	0ffH
	DB	0acH
	DB	0acH
	DB	0acH
	DB	0ffH
	DB	0acH
	DB	0acH
	DB	0acH
	DB	0ffH
	DB	0acH
	DB	0acH
	DB	0acH
	DB	0ffH
	DB	0acH
	DB	0acH
	DB	0acH
	DB	0ffH
	DB	0acH
	DB	0acH
	DB	0acH
	DB	0ffH
	DB	0acH
	DB	0acH
	DB	0acH
	DB	0ffH
	DB	0acH
	DB	0acH
	DB	0acH
	DB	0ffH
	DB	0acH
	DB	0acH
	DB	0acH
	DB	0ffH
	DB	0acH
	DB	0acH
	DB	0acH
	DB	0ffH
	DB	0acH
	DB	0acH
	DB	0acH
	DB	0ffH
	DB	0acH
	DB	0acH
	DB	0acH
	DB	0ffH
	DB	0acH
	DB	0acH
	DB	0acH
	DB	0ffH
	DB	0acH
	DB	0acH
	DB	0acH
	DB	0ffH
	DB	0acH
	DB	0acH
	DB	0acH
	DB	0ffH
	DB	0acH
	DB	0acH
	DB	0acH
	DB	0ffH
	DB	0acH
	DB	0acH
	DB	0acH
	DB	0ffH
	DB	0acH
	DB	0acH
	DB	0acH
	DB	0ffH
	DB	0acH
	DB	0acH
	DB	0acH
	DB	0ffH
	DB	0acH
	DB	0acH
	DB	0acH
	DB	0ffH
	DB	0acH
	DB	0acH
	DB	0acH
	DB	0ffH
	DB	0acH
	DB	0acH
	DB	0acH
	DB	0ffH
	DB	0acH
	DB	0acH
	DB	0acH
	DB	0ffH
	DB	0acH
	DB	0acH
	DB	0acH
	DB	0ffH
	DB	0acH
	DB	0acH
	DB	0acH
	DB	0ffH
	DB	0acH
	DB	0acH
	DB	0acH
	DB	0ffH
	DB	0acH
	DB	0acH
	DB	0acH
	DB	0ffH
	DB	0acH
	DB	0acH
	DB	0acH
	DB	0ffH
	DB	0acH
	DB	0acH
	DB	0acH
	DB	0ffH
	DB	0acH
	DB	0acH
	DB	0acH
	DB	0ffH
	DB	0acH
	DB	0acH
	DB	0acH
	DB	0ffH
	DB	0acH
	DB	0acH
	DB	0acH
	DB	0ffH
	DB	0acH
	DB	0acH
	DB	0acH
	DB	0ffH
	DB	0acH
	DB	0acH
	DB	0acH
	DB	0ffH
	DB	0acH
	DB	0acH
	DB	0acH
	DB	0ffH
	DB	0acH
	DB	0acH
	DB	0acH
	DB	0ffH
	DB	0acH
	DB	0acH
	DB	0acH
	DB	0ffH
	DB	0acH
	DB	0acH
	DB	0acH
	DB	0ffH
	DB	0acH
	DB	0acH
	DB	0acH
	DB	0ffH
	DB	0acH
	DB	0acH
	DB	0acH
	DB	0ffH
	DB	0acH
	DB	0acH
	DB	0acH
	DB	0ffH
	DB	0acH
	DB	0acH
	DB	0acH
	DB	0ffH
	DB	0acH
	DB	0acH
	DB	0acH
	DB	0ffH
	DB	0acH
	DB	0acH
	DB	0acH
	DB	0ffH
	DB	0acH
	DB	0acH
	DB	0acH
	DB	0ffH
	DB	0acH
	DB	0acH
	DB	0acH
	DB	0ffH
	DB	0acH
	DB	0acH
	DB	0acH
	DB	0ffH
	DB	0acH
	DB	0acH
	DB	0acH
	DB	0ffH
	DB	0acH
	DB	0acH
	DB	0acH
	DB	0ffH
	DB	0acH
	DB	0acH
	DB	0acH
	DB	0ffH
	DB	0acH
	DB	0acH
	DB	0acH
	DB	0ffH
	DB	0acH
	DB	0acH
	DB	0acH
	DB	0ffH
	DB	0acH
	DB	0acH
	DB	0acH
	DB	0ffH
	DB	0acH
	DB	0acH
	DB	0acH
	DB	0ffH
	DB	0acH
	DB	0acH
	DB	0acH
	DB	0ffH
	DB	0acH
	DB	0acH
	DB	0acH
	DB	0ffH
	DB	0acH
	DB	0acH
	DB	0acH
	DB	0ffH
	DB	0acH
	DB	0acH
	DB	0acH
	DB	0ffH
	DB	0acH
	DB	0acH
	DB	0acH
	DB	0ffH
	DB	0acH
	DB	0acH
	DB	0acH
	DB	0ffH
	DB	0acH
	DB	0acH
	DB	0acH
	DB	0ffH
	DB	0acH
	DB	0acH
	DB	0acH
	DB	0ffH
	DB	0acH
	DB	0acH
	DB	0acH
	DB	0ffH
	DB	0acH
	DB	0acH
	DB	0acH
	DB	0ffH
	DB	0acH
	DB	0acH
	DB	0acH
	DB	0ffH
	DB	0acH
	DB	0acH
	DB	0acH
	DB	0ffH
	DB	0acH
	DB	0acH
	DB	0acH
	DB	0ffH
	DB	0acH
	DB	0acH
	DB	0acH
	DB	0ffH
	DB	0acH
	DB	0acH
	DB	0acH
	DB	0ffH
	DB	0acH
	DB	0acH
	DB	0acH
	DB	0ffH
	DB	0acH
	DB	0acH
	DB	0acH
	DB	0ffH
	DB	0acH
	DB	0acH
	DB	0acH
	DB	0ffH
	DB	0acH
	DB	0acH
	DB	0acH
	DB	0ffH
	DB	0acH
	DB	0acH
	DB	0acH
	DB	0ffH
	DB	0acH
	DB	0acH
	DB	0acH
	DB	0ffH
	DB	0acH
	DB	0acH
	DB	0acH
	DB	0ffH
	DB	0acH
	DB	0acH
	DB	0acH
	DB	0ffH
	DB	0acH
	DB	0acH
	DB	0acH
	DB	0ffH
	DB	0acH
	DB	0acH
	DB	0acH
	DB	0ffH
	DB	0acH
	DB	0acH
	DB	0acH
	DB	0ffH
	DB	0acH
	DB	0acH
	DB	0acH
	DB	0ffH
	DB	0acH
	DB	0acH
	DB	0acH
	DB	0ffH
	DB	0acH
	DB	0acH
	DB	0acH
	DB	0ffH
	DB	0acH
	DB	0acH
	DB	0acH
	DB	0ffH
	DB	0acH
	DB	0acH
	DB	0acH
	DB	0ffH
	DB	0acH
	DB	0acH
	DB	0acH
	DB	0ffH
	DB	0acH
	DB	0acH
	DB	0acH
	DB	0ffH
	DB	0acH
	DB	0acH
	DB	0acH
	DB	0ffH
	DB	0acH
	DB	0acH
	DB	0acH
	DB	0ffH
	DB	0acH
	DB	0acH
	DB	0acH
	DB	0ffH
	DB	0acH
	DB	0acH
	DB	0acH
	DB	0ffH
	DB	0acH
	DB	0acH
	DB	0acH
	DB	0ffH
	DB	0acH
	DB	0acH
	DB	0acH
	DB	0ffH
	DB	0acH
	DB	0acH
	DB	0acH
	DB	0ffH
	DB	0acH
	DB	0acH
	DB	0acH
	DB	0ffH
	DB	0acH
	DB	0acH
	DB	0acH
	DB	0ffH
	DB	0acH
	DB	0acH
	DB	0acH
	DB	0ffH
	DB	0acH
	DB	0acH
	DB	0acH
	DB	0ffH
	DB	0acH
	DB	0acH
	DB	0acH
	DB	0ffH
	DB	0acH
	DB	0acH
	DB	0acH
	DB	0ffH
	DB	0acH
	DB	0acH
	DB	0acH
	DB	0ffH
	DB	0acH
	DB	0acH
	DB	0acH
	DB	0ffH
	DB	0acH
	DB	0acH
	DB	0acH
	DB	0ffH
	DB	0acH
	DB	0acH
	DB	0acH
	DB	0ffH
	DB	0acH
	DB	0acH
	DB	0acH
	DB	0ffH
	DB	0acH
	DB	0acH
	DB	0acH
	DB	0ffH
	DB	0acH
	DB	0acH
	DB	0acH
	DB	0ffH
	DB	0acH
	DB	0acH
	DB	0acH
	DB	0ffH
	DB	0acH
	DB	0acH
	DB	0acH
	DB	0ffH
	DB	0acH
	DB	0acH
	DB	0acH
	DB	0ffH
	DB	0acH
	DB	0acH
	DB	0acH
	DB	0ffH
	DB	0acH
	DB	0acH
	DB	0acH
	DB	0ffH
	DB	0acH
	DB	0acH
	DB	0acH
	DB	0ffH
	DB	0acH
	DB	0acH
	DB	0acH
	DB	0ffH
	DB	0acH
	DB	0acH
	DB	0acH
	DB	0ffH
	DB	0acH
	DB	0acH
	DB	0acH
	DB	0ffH
	DB	0acH
	DB	0acH
	DB	0acH
	DB	0ffH
	DB	0acH
	DB	0acH
	DB	0acH
	DB	0ffH
	DB	0acH
	DB	0acH
	DB	0acH
	DB	0ffH
	DB	0acH
	DB	0acH
	DB	0acH
	DB	0ffH
	DB	0acH
	DB	0acH
	DB	0acH
	DB	0ffH
	DB	0acH
	DB	0acH
	DB	0acH
	DB	0ffH
	DB	0acH
	DB	0acH
	DB	0acH
	DB	0ffH
	DB	0acH
	DB	0acH
	DB	0acH
	DB	0ffH
	DB	0acH
	DB	0acH
	DB	0acH
	DB	0ffH
	DB	0acH
	DB	0acH
	DB	0acH
	DB	0ffH
	DB	0acH
	DB	0acH
	DB	0acH
	DB	0ffH
	DB	0acH
	DB	0acH
	DB	0acH
	DB	0ffH
	DB	0acH
	DB	0acH
	DB	0acH
	DB	0ffH
	DB	0acH
	DB	0acH
	DB	0acH
	DB	0ffH
	DB	0acH
	DB	0acH
	DB	0acH
	DB	0ffH
	DB	0acH
	DB	0acH
	DB	0acH
	DB	0ffH
	DB	0acH
	DB	0acH
	DB	0acH
	DB	0ffH
	DB	0acH
	DB	0acH
	DB	0acH
	DB	0ffH
	DB	0acH
	DB	0acH
	DB	0acH
	DB	0ffH
	DB	0acH
	DB	0acH
	DB	0acH
	DB	0ffH
	DB	0acH
	DB	0acH
	DB	0acH
	DB	0ffH
	DB	0acH
	DB	0acH
	DB	0acH
	DB	0ffH
	DB	0acH
	DB	0acH
	DB	0acH
	DB	0ffH
	DB	0acH
	DB	0acH
	DB	0acH
	DB	0ffH
	DB	0acH
	DB	0acH
	DB	0acH
	DB	0ffH
	DB	0acH
	DB	0acH
	DB	0acH
	DB	0ffH
	DB	0acH
	DB	0acH
	DB	0acH
	DB	0ffH
	DB	0acH
	DB	0acH
	DB	0acH
	DB	0ffH
	DB	0acH
	DB	0acH
	DB	0acH
	DB	0ffH
	DB	0acH
	DB	0acH
	DB	0acH
	DB	0ffH
	DB	0acH
	DB	0acH
	DB	0acH
	DB	0ffH
	DB	0acH
	DB	0acH
	DB	0acH
	DB	0ffH
	DB	0acH
	DB	0acH
	DB	0acH
	DB	0ffH
	DB	0acH
	DB	0acH
	DB	0acH
	DB	0ffH
	DB	0acH
	DB	0acH
	DB	0acH
	DB	0ffH
	DB	0acH
	DB	0acH
	DB	0acH
	DB	0ffH
	DB	0acH
	DB	0acH
	DB	0acH
	DB	0ffH
	DB	0acH
	DB	0acH
	DB	0acH
	DB	0ffH
	DB	0acH
	DB	0acH
	DB	0acH
	DB	0ffH
	DB	0acH
	DB	0acH
	DB	0acH
	DB	0ffH
	DB	0acH
	DB	0acH
	DB	0acH
	DB	0ffH
	DB	0acH
	DB	0acH
	DB	0acH
	DB	0ffH
	DB	0acH
	DB	0acH
	DB	0acH
	DB	0ffH
	DB	0acH
	DB	0acH
	DB	0acH
	DB	0ffH
	DB	0acH
	DB	0acH
	DB	0acH
	DB	0ffH
	DB	0acH
	DB	0acH
	DB	0acH
	DB	0ffH
	DB	0acH
	DB	0acH
	DB	0acH
	DB	0ffH
	DB	0acH
	DB	0acH
	DB	0acH
	DB	0ffH
	DB	0acH
	DB	0acH
	DB	0acH
	DB	0ffH
	DB	0acH
	DB	0acH
	DB	0acH
	DB	0ffH
	DB	0acH
	DB	0acH
	DB	0acH
	DB	0ffH
	DB	0acH
	DB	0acH
	DB	0acH
	DB	0ffH
	DB	0acH
	DB	0acH
	DB	0acH
	DB	0ffH
	DB	0acH
	DB	0acH
	DB	0acH
	DB	0ffH
	DB	0acH
	DB	0acH
	DB	0acH
	DB	0ffH
	DB	0acH
	DB	0acH
	DB	0acH
	DB	0ffH
	DB	0acH
	DB	0acH
	DB	0acH
	DB	0ffH
	DB	0acH
	DB	0acH
	DB	0acH
	DB	0ffH
	DB	0acH
	DB	0acH
	DB	0acH
	DB	0ffH
	DB	0acH
	DB	0acH
	DB	0acH
	DB	0ffH
	DB	0acH
	DB	0acH
	DB	0acH
	DB	0ffH
	DB	0acH
	DB	0acH
	DB	0acH
	DB	0ffH
	DB	0acH
	DB	0acH
	DB	0acH
	DB	0ffH
	DB	0acH
	DB	0acH
	DB	0acH
	DB	0ffH
	DB	0acH
	DB	0acH
	DB	0acH
	DB	0ffH
	DB	0acH
	DB	0acH
	DB	0acH
	DB	0ffH
	DB	0acH
	DB	0acH
	DB	0acH
	DB	0ffH
	DB	0acH
	DB	0acH
	DB	0acH
	DB	0ffH
	DB	0acH
	DB	0acH
	DB	0acH
	DB	0ffH
	DB	0acH
	DB	0acH
	DB	0acH
	DB	0ffH
	DB	0acH
	DB	0acH
	DB	0acH
	DB	0ffH
	DB	0acH
	DB	0acH
	DB	0acH
	DB	0ffH
	DB	0acH
	DB	0acH
	DB	0acH
	DB	0ffH
	DB	0acH
	DB	0acH
	DB	0acH
	DB	0ffH
	DB	0acH
	DB	0acH
	DB	0acH
	DB	0ffH
	DB	0acH
	DB	0acH
	DB	0acH
	DB	0ffH
	DB	0acH
	DB	0acH
	DB	0acH
	DB	0ffH
	DB	0acH
	DB	0acH
	DB	0acH
	DB	0ffH
	DB	0acH
	DB	0acH
	DB	0acH
	DB	0ffH
	DB	0acH
	DB	0acH
	DB	0acH
	DB	0ffH
	DB	0acH
	DB	0acH
	DB	0acH
	DB	0ffH
	DB	0acH
	DB	0acH
	DB	0acH
	DB	0ffH
	DB	0acH
	DB	0acH
	DB	0acH
	DB	0ffH
	DB	0acH
	DB	0acH
	DB	0acH
	DB	0ffH
	DB	0acH
	DB	0acH
	DB	0acH
	DB	0ffH
	DB	0acH
	DB	0acH
	DB	0acH
	DB	0ffH
	DB	0acH
	DB	0acH
	DB	0acH
	DB	0ffH
	DB	0acH
	DB	0acH
	DB	0acH
	DB	0ffH
	DB	0acH
	DB	0acH
	DB	0acH
	DB	0ffH
	DB	0acH
	DB	0acH
	DB	0acH
	DB	0ffH
	DB	0acH
	DB	0acH
	DB	0acH
	DB	0ffH
	DB	0acH
	DB	0acH
	DB	0acH
	DB	0ffH
	DB	0acH
	DB	0acH
	DB	0acH
	DB	0ffH
	DB	0acH
	DB	0acH
	DB	0acH
	DB	0ffH
	DB	0acH
	DB	0acH
	DB	0acH
	DB	0ffH
	DB	0acH
	DB	0acH
	DB	0acH
	DB	0ffH
	DB	0acH
	DB	0acH
	DB	0acH
	DB	0ffH
	DB	0acH
	DB	0acH
	DB	0acH
	DB	0ffH
	DB	0acH
	DB	0acH
	DB	0acH
	DB	0ffH
	DB	0acH
	DB	0acH
	DB	0acH
	DB	0ffH
	DB	0acH
	DB	0acH
	DB	0acH
	DB	0ffH
	DB	0acH
	DB	0acH
	DB	0acH
	DB	0ffH
	DB	0acH
	DB	0acH
	DB	0acH
	DB	0ffH
	DB	0acH
	DB	0acH
	DB	0acH
	DB	0ffH
	DB	0acH
	DB	0acH
	DB	0acH
	DB	0ffH
	DB	0acH
	DB	0acH
	DB	0acH
	DB	0ffH
	DB	0acH
	DB	0acH
	DB	0acH
	DB	0ffH
	DB	0acH
	DB	0acH
	DB	0acH
	DB	0ffH
	DB	0acH
	DB	0acH
	DB	0acH
	DB	0ffH
	DB	0acH
	DB	0acH
	DB	0acH
	DB	0ffH
	DB	0acH
	DB	0acH
	DB	0acH
	DB	0ffH
	DB	0acH
	DB	0acH
	DB	0acH
	DB	0ffH
	DB	0acH
	DB	0acH
	DB	0acH
	DB	0ffH
	DB	0acH
	DB	0acH
	DB	0acH
	DB	0ffH
	DB	0acH
	DB	0acH
	DB	0acH
	DB	0ffH
	DB	0acH
	DB	0acH
	DB	0acH
	DB	0ffH
	DB	0acH
	DB	0acH
	DB	0acH
	DB	0ffH
	DB	0acH
	DB	0acH
	DB	0acH
	DB	0ffH
	DB	0acH
	DB	0acH
	DB	0acH
	DB	0ffH
	DB	0acH
	DB	0acH
	DB	0acH
	DB	0ffH
	DB	0acH
	DB	0acH
	DB	0acH
	DB	0ffH
	DB	0acH
	DB	0acH
	DB	0acH
	DB	0ffH
	DB	0acH
	DB	0acH
	DB	0acH
	DB	0ffH
	DB	0acH
	DB	0acH
	DB	0acH
	DB	0ffH
	DB	0acH
	DB	0acH
	DB	0acH
	DB	0ffH
	DB	0acH
	DB	0acH
	DB	0acH
	DB	0ffH
	DB	0acH
	DB	0acH
	DB	0acH
	DB	0ffH
	DB	0acH
	DB	0acH
	DB	0acH
	DB	0ffH
	DB	0acH
	DB	0acH
	DB	0acH
	DB	0ffH
	DB	0acH
	DB	0acH
	DB	0acH
	DB	0ffH
	DB	0acH
	DB	0acH
	DB	0acH
	DB	0ffH
	DB	0acH
	DB	0acH
	DB	0acH
	DB	0ffH
	DB	0acH
	DB	0acH
	DB	0acH
	DB	0ffH
	DB	0acH
	DB	0acH
	DB	0acH
	DB	0ffH
	DB	0acH
	DB	0acH
	DB	0acH
	DB	0ffH
	DB	0acH
	DB	0acH
	DB	0acH
	DB	0ffH
	DB	0acH
	DB	0acH
	DB	0acH
	DB	0ffH
	DB	0acH
	DB	0acH
	DB	0acH
	DB	0ffH
	DB	0acH
	DB	0acH
	DB	0acH
	DB	0ffH
	DB	0acH
	DB	0acH
	DB	0acH
	DB	0ffH
	DB	0acH
	DB	0acH
	DB	0acH
	DB	0ffH
	DB	0acH
	DB	0acH
	DB	0acH
	DB	0ffH
	DB	0acH
	DB	0acH
	DB	0acH
	DB	0ffH
	DB	0acH
	DB	0acH
	DB	0acH
	DB	0ffH
	DB	0acH
	DB	0acH
	DB	0acH
	DB	0ffH
	DB	0acH
	DB	0acH
	DB	0acH
	DB	0ffH
	DB	0acH
	DB	0acH
	DB	0acH
	DB	0ffH
	DB	0acH
	DB	0acH
	DB	0acH
	DB	0ffH
	DB	0acH
	DB	0acH
	DB	0acH
	DB	0ffH
	DB	0acH
	DB	0acH
	DB	0acH
	DB	0ffH
	DB	0acH
	DB	0acH
	DB	0acH
	DB	0ffH
	DB	0acH
	DB	0acH
	DB	0acH
	DB	0ffH
	DB	0acH
	DB	0acH
	DB	0acH
	DB	0ffH
	DB	0acH
	DB	0acH
	DB	0acH
	DB	0ffH
	DB	0acH
	DB	0acH
	DB	0acH
	DB	0ffH
	DB	0acH
	DB	0acH
	DB	0acH
	DB	0ffH
	DB	0acH
	DB	0acH
	DB	0acH
	DB	0ffH
	DB	0acH
	DB	0acH
	DB	0acH
	DB	0ffH
	DB	0acH
	DB	0acH
	DB	0acH
	DB	0ffH
	DB	0acH
	DB	0acH
	DB	0acH
	DB	0ffH
	DB	0acH
	DB	0acH
	DB	0acH
	DB	0ffH
	DB	0acH
	DB	0acH
	DB	0acH
	DB	0ffH
	DB	0acH
	DB	0acH
	DB	0acH
	DB	0ffH
	DB	0acH
	DB	0acH
	DB	0acH
	DB	0ffH
	DB	0acH
	DB	0acH
	DB	0acH
	DB	0ffH
	DB	0acH
	DB	0acH
	DB	0acH
	DB	0ffH
	DB	0acH
	DB	0acH
	DB	0acH
	DB	0ffH
	DB	0acH
	DB	0acH
	DB	0acH
	DB	0ffH
	DB	0acH
	DB	0acH
	DB	0acH
	DB	0ffH
	DB	0acH
	DB	0acH
	DB	0acH
	DB	0ffH
	DB	0acH
	DB	0acH
	DB	0acH
	DB	0ffH
	DB	0acH
	DB	0acH
	DB	0acH
	DB	0ffH
	DB	0acH
	DB	0acH
	DB	0acH
	DB	0ffH
	DB	0acH
	DB	0acH
	DB	0acH
	DB	0ffH
	DB	0acH
	DB	0acH
	DB	0acH
	DB	0ffH
	DB	0acH
	DB	0acH
	DB	0acH
	DB	0ffH
	DB	0acH
	DB	0acH
	DB	0acH
	DB	0ffH
	DB	0acH
	DB	0acH
	DB	0acH
	DB	0ffH
	DB	0acH
	DB	0acH
	DB	0acH
	DB	0ffH
	DB	0acH
	DB	0acH
	DB	0acH
	DB	0ffH
	DB	0acH
	DB	0acH
	DB	0acH
	DB	0ffH
	DB	0acH
	DB	0acH
	DB	0acH
	DB	0ffH
	DB	0acH
	DB	0acH
	DB	0acH
	DB	0ffH
	DB	0acH
	DB	0acH
	DB	0acH
	DB	0ffH
	DB	0acH
	DB	0acH
	DB	0acH
	DB	0ffH
	DB	0acH
	DB	0acH
	DB	0acH
	DB	0ffH
	DB	0acH
	DB	0acH
	DB	0acH
	DB	0ffH
	DB	0acH
	DB	0acH
	DB	0acH
	DB	0ffH
	DB	0acH
	DB	0acH
	DB	0acH
	DB	0ffH
	DB	0acH
	DB	0acH
	DB	0acH
	DB	0ffH
	DB	0acH
	DB	0acH
	DB	0acH
	DB	0ffH
	DB	0acH
	DB	0acH
	DB	0acH
	DB	0ffH
	DB	0acH
	DB	0acH
	DB	0acH
	DB	0ffH
	DB	0acH
	DB	0acH
	DB	0acH
	DB	0ffH
	DB	0acH
	DB	0acH
	DB	0acH
	DB	0ffH
	DB	0acH
	DB	0acH
	DB	0acH
	DB	0ffH
	DB	0acH
	DB	0acH
	DB	0acH
	DB	0ffH
	DB	0acH
	DB	0acH
	DB	0acH
	DB	0ffH
	DB	0acH
	DB	0acH
	DB	0acH
	DB	0ffH
	DB	0acH
	DB	0acH
	DB	0acH
	DB	0ffH
	DB	0acH
	DB	0acH
	DB	0acH
	DB	0ffH
	DB	0acH
	DB	0acH
	DB	0acH
	DB	0ffH
	DB	0acH
	DB	0acH
	DB	0acH
	DB	0ffH
	DB	0acH
	DB	0acH
	DB	0acH
	DB	0ffH
	DB	0acH
	DB	0acH
	DB	0acH
	DB	0ffH
	DB	0acH
	DB	0acH
	DB	0acH
	DB	0ffH
	DB	0acH
	DB	0acH
	DB	0acH
	DB	0ffH
	DB	0acH
	DB	0acH
	DB	0acH
	DB	0ffH
	DB	0acH
	DB	0acH
	DB	0acH
	DB	0ffH
	DB	0acH
	DB	0acH
	DB	0acH
	DB	0ffH
	DB	0acH
	DB	0acH
	DB	0acH
	DB	0ffH
	DB	0acH
	DB	0acH
	DB	0acH
	DB	0ffH
	DB	0acH
	DB	0acH
	DB	0acH
	DB	0ffH
	DB	0acH
	DB	0acH
	DB	0acH
	DB	0ffH
	DB	0acH
	DB	0acH
	DB	0acH
	DB	0ffH
	DB	0acH
	DB	0acH
	DB	0acH
	DB	0ffH
	DB	0acH
	DB	0acH
	DB	0acH
	DB	0ffH
	DB	0acH
	DB	0acH
	DB	0acH
	DB	0ffH
	DB	0acH
	DB	0acH
	DB	0acH
	DB	0ffH
	DB	0acH
	DB	0acH
	DB	0acH
	DB	0ffH
	DB	0acH
	DB	0acH
	DB	0acH
	DB	0ffH
	DB	0acH
	DB	0acH
	DB	0acH
	DB	0ffH
	DB	0acH
	DB	0acH
	DB	0acH
	DB	0ffH
	DB	0acH
	DB	0acH
	DB	0acH
	DB	0ffH
	DB	0acH
	DB	0acH
	DB	0acH
	DB	0ffH
	DB	0acH
	DB	0acH
	DB	0acH
	DB	0ffH
	DB	0acH
	DB	0acH
	DB	0acH
	DB	0ffH
	DB	0acH
	DB	0acH
	DB	0acH
	DB	0ffH
	DB	0acH
	DB	0acH
	DB	0acH
	DB	0ffH
	DB	0acH
	DB	0acH
	DB	0acH
	DB	0ffH
	DB	0acH
	DB	0acH
	DB	0acH
	DB	0ffH
	DB	0acH
	DB	0acH
	DB	0acH
	DB	0ffH
	DB	0acH
	DB	0acH
	DB	0acH
	DB	0ffH
	DB	0acH
	DB	0acH
	DB	0acH
	DB	0ffH
	DB	0acH
	DB	0acH
	DB	0acH
	DB	0ffH
	DB	0acH
	DB	0acH
	DB	0acH
	DB	0ffH
	DB	0acH
	DB	0acH
	DB	0acH
	DB	0ffH
	DB	0acH
	DB	0acH
	DB	0acH
	DB	0ffH
	DB	0acH
	DB	0acH
	DB	0acH
	DB	0ffH
	DB	0acH
	DB	0acH
	DB	0acH
	DB	0ffH
	DB	0acH
	DB	0acH
	DB	0acH
	DB	0ffH
	DB	0acH
	DB	0acH
	DB	0acH
	DB	0ffH
	DB	0acH
	DB	0acH
	DB	0acH
	DB	0ffH
	DB	0acH
	DB	0acH
	DB	0acH
	DB	0ffH
	DB	0acH
	DB	0acH
	DB	0acH
	DB	0ffH
	DB	0acH
	DB	0acH
	DB	0acH
	DB	0ffH
	DB	0acH
	DB	0acH
	DB	0acH
	DB	0ffH
	DB	0acH
	DB	0acH
	DB	0acH
	DB	0ffH
	DB	0acH
	DB	0acH
	DB	0acH
	DB	0ffH
	DB	0acH
	DB	0acH
	DB	0acH
	DB	0ffH
	DB	0acH
	DB	0acH
	DB	0acH
	DB	0ffH
	DB	0acH
	DB	0acH
	DB	0acH
	DB	0ffH
	DB	0acH
	DB	0acH
	DB	0acH
	DB	0ffH
	DB	0acH
	DB	0acH
	DB	0acH
	DB	0ffH
	DB	0acH
	DB	0acH
	DB	0acH
	DB	0ffH
	DB	0acH
	DB	0acH
	DB	0acH
	DB	0ffH
	DB	0acH
	DB	0acH
	DB	0acH
	DB	0ffH
	DB	0acH
	DB	0acH
	DB	0acH
	DB	0ffH
	DB	0acH
	DB	0acH
	DB	0acH
	DB	0ffH
	DB	0acH
	DB	0acH
	DB	0acH
	DB	0ffH
	DB	0acH
	DB	0acH
	DB	0acH
	DB	0ffH
	DB	0acH
	DB	0acH
	DB	0acH
	DB	0ffH
	DB	0acH
	DB	0acH
	DB	0acH
	DB	0ffH
	DB	0acH
	DB	0acH
	DB	0acH
	DB	0ffH
	DB	0acH
	DB	0acH
	DB	0acH
	DB	0ffH
	DB	0acH
	DB	0acH
	DB	0acH
	DB	0ffH
	DB	0acH
	DB	0acH
	DB	0acH
	DB	0ffH
	DB	0acH
	DB	0acH
	DB	0acH
	DB	0ffH
	DB	0acH
	DB	0acH
	DB	0acH
	DB	0ffH
	DB	0acH
	DB	0acH
	DB	0acH
	DB	0ffH
	DB	0acH
	DB	0acH
	DB	0acH
	DB	0ffH
	DB	0acH
	DB	0acH
	DB	0acH
	DB	0ffH
	DB	0acH
	DB	0acH
	DB	0acH
	DB	0ffH
	DB	0acH
	DB	0acH
	DB	0acH
	DB	0ffH
	DB	0acH
	DB	0acH
	DB	0acH
	DB	0ffH
	DB	0acH
	DB	0acH
	DB	0acH
	DB	0ffH
	DB	0acH
	DB	0acH
	DB	0acH
	DB	0ffH
	DB	0acH
	DB	0acH
	DB	0acH
	DB	0ffH
	DB	0acH
	DB	0acH
	DB	0acH
	DB	0ffH
	DB	0acH
	DB	0acH
	DB	0acH
	DB	0ffH
	DB	0acH
	DB	0acH
	DB	0acH
	DB	0ffH
	DB	0acH
	DB	0acH
	DB	0acH
	DB	0ffH
	DB	0acH
	DB	0acH
	DB	0acH
	DB	0ffH
	DB	0acH
	DB	0acH
	DB	0acH
	DB	0ffH
	DB	0acH
	DB	0acH
	DB	0acH
	DB	0ffH
	DB	0acH
	DB	0acH
	DB	0acH
	DB	0ffH
	DB	0acH
	DB	0acH
	DB	0acH
	DB	0ffH
	DB	0acH
	DB	0acH
	DB	0acH
	DB	0ffH
	DB	0acH
	DB	0acH
	DB	0acH
	DB	0ffH
	DB	0acH
	DB	0acH
	DB	0acH
	DB	0ffH
	DB	0acH
	DB	0acH
	DB	0acH
	DB	0ffH
	DB	0acH
	DB	0acH
	DB	0acH
	DB	0ffH
	DB	0acH
	DB	0acH
	DB	0acH
	DB	0ffH
	DB	0acH
	DB	0acH
	DB	0acH
	DB	0ffH
	DB	0acH
	DB	0acH
	DB	0acH
	DB	0ffH
	DB	0acH
	DB	0acH
	DB	0acH
	DB	0ffH
	DB	0acH
	DB	0acH
	DB	0acH
	DB	0ffH
	DB	0acH
	DB	0acH
	DB	0acH
	DB	0ffH
	DB	0acH
	DB	0acH
	DB	0acH
	DB	0ffH
	DB	0acH
	DB	0acH
	DB	0acH
	DB	0ffH
	DB	0acH
	DB	0acH
	DB	0acH
	DB	06dH
	DB	00H
	DB	00H
	DB	00H
	DB	00H
	DB	00H
	DB	00H
	DB	00H
	DB	00H
	DB	0acH
	DB	0acH
	DB	0acH
	DB	0c7H
	DB	0acH
	DB	0acH
	DB	0acH
	DB	0ffH
	DB	0acH
	DB	0acH
	DB	0acH
	DB	0ffH
	DB	0acH
	DB	0acH
	DB	0acH
	DB	0ffH
	DB	0acH
	DB	0acH
	DB	0acH
	DB	0ffH
	DB	0acH
	DB	0acH
	DB	0acH
	DB	0ffH
	DB	0acH
	DB	0acH
	DB	0acH
	DB	0ffH
	DB	0acH
	DB	0acH
	DB	0acH
	DB	0ffH
	DB	0acH
	DB	0acH
	DB	0acH
	DB	0ffH
	DB	0acH
	DB	0acH
	DB	0acH
	DB	0ffH
	DB	0acH
	DB	0acH
	DB	0acH
	DB	0ffH
	DB	0acH
	DB	0acH
	DB	0acH
	DB	0ffH
	DB	0acH
	DB	0acH
	DB	0acH
	DB	0ffH
	DB	0acH
	DB	0acH
	DB	0acH
	DB	0ffH
	DB	0acH
	DB	0acH
	DB	0acH
	DB	0ffH
	DB	0acH
	DB	0acH
	DB	0acH
	DB	0ffH
	DB	0acH
	DB	0acH
	DB	0acH
	DB	0ffH
	DB	0acH
	DB	0acH
	DB	0acH
	DB	0ffH
	DB	0acH
	DB	0acH
	DB	0acH
	DB	0ffH
	DB	0acH
	DB	0acH
	DB	0acH
	DB	0ffH
	DB	0acH
	DB	0acH
	DB	0acH
	DB	0ffH
	DB	0acH
	DB	0acH
	DB	0acH
	DB	0ffH
	DB	0acH
	DB	0acH
	DB	0acH
	DB	0ffH
	DB	0acH
	DB	0acH
	DB	0acH
	DB	0ffH
	DB	0acH
	DB	0acH
	DB	0acH
	DB	0ffH
	DB	0acH
	DB	0acH
	DB	0acH
	DB	0ffH
	DB	0acH
	DB	0acH
	DB	0acH
	DB	0ffH
	DB	0acH
	DB	0acH
	DB	0acH
	DB	0ffH
	DB	0acH
	DB	0acH
	DB	0acH
	DB	0ffH
	DB	0acH
	DB	0acH
	DB	0acH
	DB	0ffH
	DB	0acH
	DB	0acH
	DB	0acH
	DB	0ffH
	DB	0acH
	DB	0acH
	DB	0acH
	DB	0ffH
	DB	0acH
	DB	0acH
	DB	0acH
	DB	0ffH
	DB	0acH
	DB	0acH
	DB	0acH
	DB	0ffH
	DB	0acH
	DB	0acH
	DB	0acH
	DB	0ffH
	DB	0acH
	DB	0acH
	DB	0acH
	DB	0ffH
	DB	0acH
	DB	0acH
	DB	0acH
	DB	0ffH
	DB	0acH
	DB	0acH
	DB	0acH
	DB	0ffH
	DB	0acH
	DB	0acH
	DB	0acH
	DB	0ffH
	DB	0acH
	DB	0acH
	DB	0acH
	DB	0ffH
	DB	0acH
	DB	0acH
	DB	0acH
	DB	0ffH
	DB	0acH
	DB	0acH
	DB	0acH
	DB	0ffH
	DB	0acH
	DB	0acH
	DB	0acH
	DB	0ffH
	DB	0acH
	DB	0acH
	DB	0acH
	DB	0ffH
	DB	0acH
	DB	0acH
	DB	0acH
	DB	0ffH
	DB	0acH
	DB	0acH
	DB	0acH
	DB	0ffH
	DB	0acH
	DB	0acH
	DB	0acH
	DB	0ffH
	DB	0acH
	DB	0acH
	DB	0acH
	DB	0ffH
	DB	0acH
	DB	0acH
	DB	0acH
	DB	0ffH
	DB	0acH
	DB	0acH
	DB	0acH
	DB	0ffH
	DB	0acH
	DB	0acH
	DB	0acH
	DB	0ffH
	DB	0acH
	DB	0acH
	DB	0acH
	DB	0ffH
	DB	0acH
	DB	0acH
	DB	0acH
	DB	0ffH
	DB	0acH
	DB	0acH
	DB	0acH
	DB	0ffH
	DB	0acH
	DB	0acH
	DB	0acH
	DB	0ffH
	DB	0acH
	DB	0acH
	DB	0acH
	DB	0ffH
	DB	0acH
	DB	0acH
	DB	0acH
	DB	0ffH
	DB	0acH
	DB	0acH
	DB	0acH
	DB	0ffH
	DB	0acH
	DB	0acH
	DB	0acH
	DB	0ffH
	DB	0acH
	DB	0acH
	DB	0acH
	DB	0ffH
	DB	0acH
	DB	0acH
	DB	0acH
	DB	0ffH
	DB	0acH
	DB	0acH
	DB	0acH
	DB	0ffH
	DB	0acH
	DB	0acH
	DB	0acH
	DB	0ffH
	DB	0acH
	DB	0acH
	DB	0acH
	DB	0ffH
	DB	0acH
	DB	0acH
	DB	0acH
	DB	0ffH
	DB	0acH
	DB	0acH
	DB	0acH
	DB	0ffH
	DB	0acH
	DB	0acH
	DB	0acH
	DB	0ffH
	DB	0acH
	DB	0acH
	DB	0acH
	DB	0ffH
	DB	0acH
	DB	0acH
	DB	0acH
	DB	0ffH
	DB	0acH
	DB	0acH
	DB	0acH
	DB	0ffH
	DB	0acH
	DB	0acH
	DB	0acH
	DB	0ffH
	DB	0acH
	DB	0acH
	DB	0acH
	DB	0ffH
	DB	0acH
	DB	0acH
	DB	0acH
	DB	0ffH
	DB	0acH
	DB	0acH
	DB	0acH
	DB	0ffH
	DB	0acH
	DB	0acH
	DB	0acH
	DB	0ffH
	DB	0acH
	DB	0acH
	DB	0acH
	DB	0ffH
	DB	0acH
	DB	0acH
	DB	0acH
	DB	0ffH
	DB	0acH
	DB	0acH
	DB	0acH
	DB	0ffH
	DB	0acH
	DB	0acH
	DB	0acH
	DB	0ffH
	DB	0acH
	DB	0acH
	DB	0acH
	DB	0ffH
	DB	0acH
	DB	0acH
	DB	0acH
	DB	0ffH
	DB	0acH
	DB	0acH
	DB	0acH
	DB	0ffH
	DB	0acH
	DB	0acH
	DB	0acH
	DB	0ffH
	DB	0acH
	DB	0acH
	DB	0acH
	DB	0ffH
	DB	0acH
	DB	0acH
	DB	0acH
	DB	0ffH
	DB	0acH
	DB	0acH
	DB	0acH
	DB	0ffH
	DB	0acH
	DB	0acH
	DB	0acH
	DB	0ffH
	DB	0acH
	DB	0acH
	DB	0acH
	DB	0ffH
	DB	0acH
	DB	0acH
	DB	0acH
	DB	0ffH
	DB	0acH
	DB	0acH
	DB	0acH
	DB	0ffH
	DB	0acH
	DB	0acH
	DB	0acH
	DB	0ffH
	DB	0acH
	DB	0acH
	DB	0acH
	DB	0ffH
	DB	0acH
	DB	0acH
	DB	0acH
	DB	0ffH
	DB	0acH
	DB	0acH
	DB	0acH
	DB	0ffH
	DB	0acH
	DB	0acH
	DB	0acH
	DB	0ffH
	DB	0acH
	DB	0acH
	DB	0acH
	DB	0ffH
	DB	0acH
	DB	0acH
	DB	0acH
	DB	0ffH
	DB	0acH
	DB	0acH
	DB	0acH
	DB	0ffH
	DB	0acH
	DB	0acH
	DB	0acH
	DB	0ffH
	DB	0acH
	DB	0acH
	DB	0acH
	DB	0ffH
	DB	0acH
	DB	0acH
	DB	0acH
	DB	0ffH
	DB	0acH
	DB	0acH
	DB	0acH
	DB	0ffH
	DB	0acH
	DB	0acH
	DB	0acH
	DB	0ffH
	DB	0acH
	DB	0acH
	DB	0acH
	DB	0ffH
	DB	0acH
	DB	0acH
	DB	0acH
	DB	0ffH
	DB	0acH
	DB	0acH
	DB	0acH
	DB	0ffH
	DB	0acH
	DB	0acH
	DB	0acH
	DB	0ffH
	DB	0acH
	DB	0acH
	DB	0acH
	DB	0ffH
	DB	0acH
	DB	0acH
	DB	0acH
	DB	0ffH
	DB	0acH
	DB	0acH
	DB	0acH
	DB	0ffH
	DB	0acH
	DB	0acH
	DB	0acH
	DB	0ffH
	DB	0acH
	DB	0acH
	DB	0acH
	DB	0ffH
	DB	0acH
	DB	0acH
	DB	0acH
	DB	0ffH
	DB	0acH
	DB	0acH
	DB	0acH
	DB	0ffH
	DB	0acH
	DB	0acH
	DB	0acH
	DB	0ffH
	DB	0acH
	DB	0acH
	DB	0acH
	DB	0ffH
	DB	0acH
	DB	0acH
	DB	0acH
	DB	0ffH
	DB	0acH
	DB	0acH
	DB	0acH
	DB	0ffH
	DB	0acH
	DB	0acH
	DB	0acH
	DB	0ffH
	DB	0acH
	DB	0acH
	DB	0acH
	DB	0ffH
	DB	0acH
	DB	0acH
	DB	0acH
	DB	0ffH
	DB	0acH
	DB	0acH
	DB	0acH
	DB	0ffH
	DB	0acH
	DB	0acH
	DB	0acH
	DB	0ffH
	DB	0acH
	DB	0acH
	DB	0acH
	DB	0ffH
	DB	0acH
	DB	0acH
	DB	0acH
	DB	0ffH
	DB	0acH
	DB	0acH
	DB	0acH
	DB	0ffH
	DB	0acH
	DB	0acH
	DB	0acH
	DB	0ffH
	DB	0acH
	DB	0acH
	DB	0acH
	DB	0ffH
	DB	0acH
	DB	0acH
	DB	0acH
	DB	0ffH
	DB	0acH
	DB	0acH
	DB	0acH
	DB	0ffH
	DB	0acH
	DB	0acH
	DB	0acH
	DB	0ffH
	DB	0acH
	DB	0acH
	DB	0acH
	DB	0ffH
	DB	0acH
	DB	0acH
	DB	0acH
	DB	0ffH
	DB	0acH
	DB	0acH
	DB	0acH
	DB	0ffH
	DB	0acH
	DB	0acH
	DB	0acH
	DB	0ffH
	DB	0acH
	DB	0acH
	DB	0acH
	DB	0ffH
	DB	0acH
	DB	0acH
	DB	0acH
	DB	0ffH
	DB	0acH
	DB	0acH
	DB	0acH
	DB	0ffH
	DB	0acH
	DB	0acH
	DB	0acH
	DB	0ffH
	DB	0acH
	DB	0acH
	DB	0acH
	DB	0ffH
	DB	0acH
	DB	0acH
	DB	0acH
	DB	0ffH
	DB	0acH
	DB	0acH
	DB	0acH
	DB	0ffH
	DB	0acH
	DB	0acH
	DB	0acH
	DB	0ffH
	DB	0acH
	DB	0acH
	DB	0acH
	DB	0ffH
	DB	0acH
	DB	0acH
	DB	0acH
	DB	0ffH
	DB	0acH
	DB	0acH
	DB	0acH
	DB	0ffH
	DB	0acH
	DB	0acH
	DB	0acH
	DB	0ffH
	DB	0acH
	DB	0acH
	DB	0acH
	DB	0ffH
	DB	0acH
	DB	0acH
	DB	0acH
	DB	0ffH
	DB	0acH
	DB	0acH
	DB	0acH
	DB	0ffH
	DB	0acH
	DB	0acH
	DB	0acH
	DB	0ffH
	DB	0acH
	DB	0acH
	DB	0acH
	DB	0ffH
	DB	0acH
	DB	0acH
	DB	0acH
	DB	0ffH
	DB	0acH
	DB	0acH
	DB	0acH
	DB	0ffH
	DB	0acH
	DB	0acH
	DB	0acH
	DB	0ffH
	DB	0acH
	DB	0acH
	DB	0acH
	DB	0ffH
	DB	0acH
	DB	0acH
	DB	0acH
	DB	0ffH
	DB	0acH
	DB	0acH
	DB	0acH
	DB	0ffH
	DB	0acH
	DB	0acH
	DB	0acH
	DB	0ffH
	DB	0acH
	DB	0acH
	DB	0acH
	DB	0ffH
	DB	0acH
	DB	0acH
	DB	0acH
	DB	0ffH
	DB	0acH
	DB	0acH
	DB	0acH
	DB	0ffH
	DB	0acH
	DB	0acH
	DB	0acH
	DB	0ffH
	DB	0acH
	DB	0acH
	DB	0acH
	DB	0ffH
	DB	0acH
	DB	0acH
	DB	0acH
	DB	0ffH
	DB	0acH
	DB	0acH
	DB	0acH
	DB	0ffH
	DB	0acH
	DB	0acH
	DB	0acH
	DB	0ffH
	DB	0acH
	DB	0acH
	DB	0acH
	DB	0ffH
	DB	0acH
	DB	0acH
	DB	0acH
	DB	0ffH
	DB	0acH
	DB	0acH
	DB	0acH
	DB	0ffH
	DB	0acH
	DB	0acH
	DB	0acH
	DB	0ffH
	DB	0acH
	DB	0acH
	DB	0acH
	DB	0ffH
	DB	0acH
	DB	0acH
	DB	0acH
	DB	0ffH
	DB	0acH
	DB	0acH
	DB	0acH
	DB	0ffH
	DB	0acH
	DB	0acH
	DB	0acH
	DB	0ffH
	DB	0acH
	DB	0acH
	DB	0acH
	DB	0ffH
	DB	0acH
	DB	0acH
	DB	0acH
	DB	0ffH
	DB	0acH
	DB	0acH
	DB	0acH
	DB	0ffH
	DB	0acH
	DB	0acH
	DB	0acH
	DB	0ffH
	DB	0acH
	DB	0acH
	DB	0acH
	DB	0ffH
	DB	0acH
	DB	0acH
	DB	0acH
	DB	0ffH
	DB	0acH
	DB	0acH
	DB	0acH
	DB	0ffH
	DB	0acH
	DB	0acH
	DB	0acH
	DB	0ffH
	DB	0acH
	DB	0acH
	DB	0acH
	DB	0ffH
	DB	0acH
	DB	0acH
	DB	0acH
	DB	0ffH
	DB	0acH
	DB	0acH
	DB	0acH
	DB	0ffH
	DB	0acH
	DB	0acH
	DB	0acH
	DB	0ffH
	DB	0acH
	DB	0acH
	DB	0acH
	DB	0ffH
	DB	0acH
	DB	0acH
	DB	0acH
	DB	0ffH
	DB	0acH
	DB	0acH
	DB	0acH
	DB	0ffH
	DB	0acH
	DB	0acH
	DB	0acH
	DB	0ffH
	DB	0acH
	DB	0acH
	DB	0acH
	DB	0ffH
	DB	0acH
	DB	0acH
	DB	0acH
	DB	0ffH
	DB	0acH
	DB	0acH
	DB	0acH
	DB	0ffH
	DB	0acH
	DB	0acH
	DB	0acH
	DB	0ffH
	DB	0acH
	DB	0acH
	DB	0acH
	DB	0ffH
	DB	0acH
	DB	0acH
	DB	0acH
	DB	0ffH
	DB	0acH
	DB	0acH
	DB	0acH
	DB	0ffH
	DB	0acH
	DB	0acH
	DB	0acH
	DB	0ffH
	DB	0acH
	DB	0acH
	DB	0acH
	DB	0ffH
	DB	0acH
	DB	0acH
	DB	0acH
	DB	0ffH
	DB	0acH
	DB	0acH
	DB	0acH
	DB	0ffH
	DB	0acH
	DB	0acH
	DB	0acH
	DB	0ffH
	DB	0acH
	DB	0acH
	DB	0acH
	DB	0ffH
	DB	0acH
	DB	0acH
	DB	0acH
	DB	0ffH
	DB	0acH
	DB	0acH
	DB	0acH
	DB	0ffH
	DB	0acH
	DB	0acH
	DB	0acH
	DB	0ffH
	DB	0acH
	DB	0acH
	DB	0acH
	DB	0ffH
	DB	0acH
	DB	0acH
	DB	0acH
	DB	0ffH
	DB	0acH
	DB	0acH
	DB	0acH
	DB	0ffH
	DB	0acH
	DB	0acH
	DB	0acH
	DB	0ffH
	DB	0acH
	DB	0acH
	DB	0acH
	DB	0ffH
	DB	0acH
	DB	0acH
	DB	0acH
	DB	0ffH
	DB	0acH
	DB	0acH
	DB	0acH
	DB	0ffH
	DB	0acH
	DB	0acH
	DB	0acH
	DB	0ffH
	DB	0acH
	DB	0acH
	DB	0acH
	DB	0ffH
	DB	0acH
	DB	0acH
	DB	0acH
	DB	0ffH
	DB	0acH
	DB	0acH
	DB	0acH
	DB	0ffH
	DB	0acH
	DB	0acH
	DB	0acH
	DB	0ffH
	DB	0acH
	DB	0acH
	DB	0acH
	DB	0ffH
	DB	0acH
	DB	0acH
	DB	0acH
	DB	0ffH
	DB	0acH
	DB	0acH
	DB	0acH
	DB	0ffH
	DB	0acH
	DB	0acH
	DB	0acH
	DB	0ffH
	DB	0acH
	DB	0acH
	DB	0acH
	DB	0ffH
	DB	0acH
	DB	0acH
	DB	0acH
	DB	0ffH
	DB	0acH
	DB	0acH
	DB	0acH
	DB	0ffH
	DB	0acH
	DB	0acH
	DB	0acH
	DB	0ffH
	DB	0acH
	DB	0acH
	DB	0acH
	DB	0ffH
	DB	0acH
	DB	0acH
	DB	0acH
	DB	0ffH
	DB	0acH
	DB	0acH
	DB	0acH
	DB	0ffH
	DB	0acH
	DB	0acH
	DB	0acH
	DB	0ffH
	DB	0acH
	DB	0acH
	DB	0acH
	DB	0ffH
	DB	0acH
	DB	0acH
	DB	0acH
	DB	0ffH
	DB	0acH
	DB	0acH
	DB	0acH
	DB	0ffH
	DB	0acH
	DB	0acH
	DB	0acH
	DB	0ffH
	DB	0acH
	DB	0acH
	DB	0acH
	DB	0ffH
	DB	0acH
	DB	0acH
	DB	0acH
	DB	0ffH
	DB	0acH
	DB	0acH
	DB	0acH
	DB	0ffH
	DB	0acH
	DB	0acH
	DB	0acH
	DB	0ffH
	DB	0acH
	DB	0acH
	DB	0acH
	DB	0ffH
	DB	0acH
	DB	0acH
	DB	0acH
	DB	0ffH
	DB	0acH
	DB	0acH
	DB	0acH
	DB	0ffH
	DB	0acH
	DB	0acH
	DB	0acH
	DB	0ffH
	DB	0acH
	DB	0acH
	DB	0acH
	DB	0ffH
	DB	0acH
	DB	0acH
	DB	0acH
	DB	0ffH
	DB	0acH
	DB	0acH
	DB	0acH
	DB	0ffH
	DB	0acH
	DB	0acH
	DB	0acH
	DB	0ffH
	DB	0acH
	DB	0acH
	DB	0acH
	DB	0ffH
	DB	0acH
	DB	0acH
	DB	0acH
	DB	0ffH
	DB	0acH
	DB	0acH
	DB	0acH
	DB	0ffH
	DB	0acH
	DB	0acH
	DB	0acH
	DB	0ffH
	DB	0acH
	DB	0acH
	DB	0acH
	DB	0ffH
	DB	0acH
	DB	0acH
	DB	0acH
	DB	0ffH
	DB	0acH
	DB	0acH
	DB	0acH
	DB	0ffH
	DB	0acH
	DB	0acH
	DB	0acH
	DB	0ffH
	DB	0acH
	DB	0acH
	DB	0acH
	DB	0ffH
	DB	0acH
	DB	0acH
	DB	0acH
	DB	0ffH
	DB	0acH
	DB	0acH
	DB	0acH
	DB	0ffH
	DB	0acH
	DB	0acH
	DB	0acH
	DB	0ffH
	DB	0acH
	DB	0acH
	DB	0acH
	DB	0ffH
	DB	0acH
	DB	0acH
	DB	0acH
	DB	0ffH
	DB	0acH
	DB	0acH
	DB	0acH
	DB	0ffH
	DB	0acH
	DB	0acH
	DB	0acH
	DB	0ffH
	DB	0acH
	DB	0acH
	DB	0acH
	DB	0ffH
	DB	0acH
	DB	0acH
	DB	0acH
	DB	0ffH
	DB	0acH
	DB	0acH
	DB	0acH
	DB	0ffH
	DB	0acH
	DB	0acH
	DB	0acH
	DB	0ffH
	DB	0acH
	DB	0acH
	DB	0acH
	DB	0ffH
	DB	0acH
	DB	0acH
	DB	0acH
	DB	0ffH
	DB	0acH
	DB	0acH
	DB	0acH
	DB	0ffH
	DB	0acH
	DB	0acH
	DB	0acH
	DB	0ffH
	DB	0acH
	DB	0acH
	DB	0acH
	DB	0ffH
	DB	0acH
	DB	0acH
	DB	0acH
	DB	0ffH
	DB	0acH
	DB	0acH
	DB	0acH
	DB	0ffH
	DB	0acH
	DB	0acH
	DB	0acH
	DB	0ffH
	DB	0acH
	DB	0acH
	DB	0acH
	DB	0ffH
	DB	0acH
	DB	0acH
	DB	0acH
	DB	0ffH
	DB	0acH
	DB	0acH
	DB	0acH
	DB	0ffH
	DB	0acH
	DB	0acH
	DB	0acH
	DB	0ffH
	DB	0acH
	DB	0acH
	DB	0acH
	DB	0ffH
	DB	0acH
	DB	0acH
	DB	0acH
	DB	0ffH
	DB	0acH
	DB	0acH
	DB	0acH
	DB	0ffH
	DB	0acH
	DB	0acH
	DB	0acH
	DB	0ffH
	DB	0acH
	DB	0acH
	DB	0acH
	DB	0ffH
	DB	0acH
	DB	0acH
	DB	0acH
	DB	0ffH
	DB	0acH
	DB	0acH
	DB	0acH
	DB	0ffH
	DB	0acH
	DB	0acH
	DB	0acH
	DB	0ffH
	DB	0acH
	DB	0acH
	DB	0acH
	DB	0ffH
	DB	0acH
	DB	0acH
	DB	0acH
	DB	0ffH
	DB	0acH
	DB	0acH
	DB	0acH
	DB	0ffH
	DB	0acH
	DB	0acH
	DB	0acH
	DB	0ffH
	DB	0acH
	DB	0acH
	DB	0acH
	DB	0ffH
	DB	0acH
	DB	0acH
	DB	0acH
	DB	0ffH
	DB	0acH
	DB	0acH
	DB	0acH
	DB	0ffH
	DB	0acH
	DB	0acH
	DB	0acH
	DB	0ffH
	DB	0acH
	DB	0acH
	DB	0acH
	DB	0ffH
	DB	0acH
	DB	0acH
	DB	0acH
	DB	0ffH
	DB	0acH
	DB	0acH
	DB	0acH
	DB	0ffH
	DB	0acH
	DB	0acH
	DB	0acH
	DB	0ffH
	DB	0acH
	DB	0acH
	DB	0acH
	DB	0ffH
	DB	0acH
	DB	0acH
	DB	0acH
	DB	0ffH
	DB	0acH
	DB	0acH
	DB	0acH
	DB	0ffH
	DB	0acH
	DB	0acH
	DB	0acH
	DB	0ffH
	DB	0acH
	DB	0acH
	DB	0acH
	DB	0ffH
	DB	0acH
	DB	0acH
	DB	0acH
	DB	0ffH
	DB	0acH
	DB	0acH
	DB	0acH
	DB	0ffH
	DB	0acH
	DB	0acH
	DB	0acH
	DB	0ffH
	DB	0acH
	DB	0acH
	DB	0acH
	DB	0ffH
	DB	0acH
	DB	0acH
	DB	0acH
	DB	0ffH
	DB	0acH
	DB	0acH
	DB	0acH
	DB	0ffH
	DB	0acH
	DB	0acH
	DB	0acH
	DB	0ffH
	DB	0acH
	DB	0acH
	DB	0acH
	DB	0ffH
	DB	0acH
	DB	0acH
	DB	0acH
	DB	0ffH
	DB	0acH
	DB	0acH
	DB	0acH
	DB	0ffH
	DB	0acH
	DB	0acH
	DB	0acH
	DB	0ffH
	DB	0acH
	DB	0acH
	DB	0acH
	DB	0ffH
	DB	0acH
	DB	0acH
	DB	0acH
	DB	0ffH
	DB	0acH
	DB	0acH
	DB	0acH
	DB	0ffH
	DB	0acH
	DB	0acH
	DB	0acH
	DB	0ffH
	DB	0acH
	DB	0acH
	DB	0acH
	DB	0ffH
	DB	0acH
	DB	0acH
	DB	0acH
	DB	0ffH
	DB	0acH
	DB	0acH
	DB	0acH
	DB	0ffH
	DB	0acH
	DB	0acH
	DB	0acH
	DB	0ffH
	DB	0acH
	DB	0acH
	DB	0acH
	DB	0ffH
	DB	0acH
	DB	0acH
	DB	0acH
	DB	0ffH
	DB	0acH
	DB	0acH
	DB	0acH
	DB	0ffH
	DB	0acH
	DB	0acH
	DB	0acH
	DB	0ffH
	DB	0acH
	DB	0acH
	DB	0acH
	DB	0ffH
	DB	0acH
	DB	0acH
	DB	0acH
	DB	0ffH
	DB	0acH
	DB	0acH
	DB	0acH
	DB	0ffH
	DB	0acH
	DB	0acH
	DB	0acH
	DB	0ffH
	DB	0acH
	DB	0acH
	DB	0acH
	DB	0ffH
	DB	0acH
	DB	0acH
	DB	0acH
	DB	0ffH
	DB	0acH
	DB	0acH
	DB	0acH
	DB	0ffH
	DB	0acH
	DB	0acH
	DB	0acH
	DB	0ffH
	DB	0acH
	DB	0acH
	DB	0acH
	DB	0ffH
	DB	0acH
	DB	0acH
	DB	0acH
	DB	0ffH
	DB	0acH
	DB	0acH
	DB	0acH
	DB	0ffH
	DB	0acH
	DB	0acH
	DB	0acH
	DB	0ffH
	DB	0acH
	DB	0acH
	DB	0acH
	DB	0ffH
	DB	0acH
	DB	0acH
	DB	0acH
	DB	0ffH
	DB	0acH
	DB	0acH
	DB	0acH
	DB	0ffH
	DB	0acH
	DB	0acH
	DB	0acH
	DB	0ffH
	DB	0acH
	DB	0acH
	DB	0acH
	DB	0ffH
	DB	0acH
	DB	0acH
	DB	0acH
	DB	0ffH
	DB	0acH
	DB	0acH
	DB	0acH
	DB	0ffH
	DB	0acH
	DB	0acH
	DB	0acH
	DB	0ffH
	DB	0acH
	DB	0acH
	DB	0acH
	DB	0ffH
	DB	0acH
	DB	0acH
	DB	0acH
	DB	0ffH
	DB	0acH
	DB	0acH
	DB	0acH
	DB	0ffH
	DB	0acH
	DB	0acH
	DB	0acH
	DB	0ffH
	DB	0acH
	DB	0acH
	DB	0acH
	DB	0ffH
	DB	0acH
	DB	0acH
	DB	0acH
	DB	0ffH
	DB	0acH
	DB	0acH
	DB	0acH
	DB	0ffH
	DB	0acH
	DB	0acH
	DB	0acH
	DB	0ffH
	DB	0acH
	DB	0acH
	DB	0acH
	DB	0ffH
	DB	0acH
	DB	0acH
	DB	0acH
	DB	0ffH
	DB	0acH
	DB	0acH
	DB	0acH
	DB	0ffH
	DB	0acH
	DB	0acH
	DB	0acH
	DB	0ffH
	DB	0acH
	DB	0acH
	DB	0acH
	DB	0ffH
	DB	0acH
	DB	0acH
	DB	0acH
	DB	0ffH
	DB	0acH
	DB	0acH
	DB	0acH
	DB	0ffH
	DB	0acH
	DB	0acH
	DB	0acH
	DB	0ffH
	DB	0acH
	DB	0acH
	DB	0acH
	DB	0ffH
	DB	0acH
	DB	0acH
	DB	0acH
	DB	0ffH
	DB	0acH
	DB	0acH
	DB	0acH
	DB	0ffH
	DB	0acH
	DB	0acH
	DB	0acH
	DB	0ffH
	DB	0acH
	DB	0acH
	DB	0acH
	DB	0ffH
	DB	0acH
	DB	0acH
	DB	0acH
	DB	0ffH
	DB	0acH
	DB	0acH
	DB	0acH
	DB	0ffH
	DB	0acH
	DB	0acH
	DB	0acH
	DB	0ffH
	DB	0acH
	DB	0acH
	DB	0acH
	DB	0ffH
	DB	0acH
	DB	0acH
	DB	0acH
	DB	0ffH
	DB	0acH
	DB	0acH
	DB	0acH
	DB	0ffH
	DB	0acH
	DB	0acH
	DB	0acH
	DB	0ffH
	DB	0acH
	DB	0acH
	DB	0acH
	DB	0ffH
	DB	0acH
	DB	0acH
	DB	0acH
	DB	0ffH
	DB	0acH
	DB	0acH
	DB	0acH
	DB	0ffH
	DB	0acH
	DB	0acH
	DB	0acH
	DB	0ffH
	DB	0acH
	DB	0acH
	DB	0acH
	DB	0ffH
	DB	0acH
	DB	0acH
	DB	0acH
	DB	0ffH
	DB	0acH
	DB	0acH
	DB	0acH
	DB	0ffH
	DB	0acH
	DB	0acH
	DB	0acH
	DB	0ffH
	DB	0acH
	DB	0acH
	DB	0acH
	DB	0ffH
	DB	0acH
	DB	0acH
	DB	0acH
	DB	0ffH
	DB	0acH
	DB	0acH
	DB	0acH
	DB	0ffH
	DB	0acH
	DB	0acH
	DB	0acH
	DB	0ffH
	DB	0acH
	DB	0acH
	DB	0acH
	DB	0ffH
	DB	0acH
	DB	0acH
	DB	0acH
	DB	0ffH
	DB	0acH
	DB	0acH
	DB	0acH
	DB	0ffH
	DB	0acH
	DB	0acH
	DB	0acH
	DB	0ffH
	DB	0acH
	DB	0acH
	DB	0acH
	DB	0ffH
	DB	0acH
	DB	0acH
	DB	0acH
	DB	0ffH
	DB	0acH
	DB	0acH
	DB	0acH
	DB	0ffH
	DB	0acH
	DB	0acH
	DB	0acH
	DB	0ffH
	DB	0acH
	DB	0acH
	DB	0acH
	DB	0ffH
	DB	0acH
	DB	0acH
	DB	0acH
	DB	0ffH
	DB	0acH
	DB	0acH
	DB	0acH
	DB	0ffH
	DB	0acH
	DB	0acH
	DB	0acH
	DB	0ffH
	DB	0acH
	DB	0acH
	DB	0acH
	DB	0ffH
	DB	0acH
	DB	0acH
	DB	0acH
	DB	0ffH
	DB	0acH
	DB	0acH
	DB	0acH
	DB	0ffH
	DB	0acH
	DB	0acH
	DB	0acH
	DB	0ffH
	DB	0acH
	DB	0acH
	DB	0acH
	DB	0ffH
	DB	0acH
	DB	0acH
	DB	0acH
	DB	0ffH
	DB	0acH
	DB	0acH
	DB	0acH
	DB	0ffH
	DB	0acH
	DB	0acH
	DB	0acH
	DB	0ffH
	DB	0acH
	DB	0acH
	DB	0acH
	DB	0ffH
	DB	0acH
	DB	0acH
	DB	0acH
	DB	0ffH
	DB	0acH
	DB	0acH
	DB	0acH
	DB	0ffH
	DB	0acH
	DB	0acH
	DB	0acH
	DB	0ffH
	DB	0acH
	DB	0acH
	DB	0acH
	DB	0ffH
	DB	0acH
	DB	0acH
	DB	0acH
	DB	0ffH
	DB	0acH
	DB	0acH
	DB	0acH
	DB	0ffH
	DB	0acH
	DB	0acH
	DB	0acH
	DB	0ffH
	DB	0acH
	DB	0acH
	DB	0acH
	DB	0ffH
	DB	0acH
	DB	0acH
	DB	0acH
	DB	0ffH
	DB	0acH
	DB	0acH
	DB	0acH
	DB	0ffH
	DB	0acH
	DB	0acH
	DB	0acH
	DB	0ffH
	DB	0acH
	DB	0acH
	DB	0acH
	DB	0ffH
	DB	0acH
	DB	0acH
	DB	0acH
	DB	0ffH
	DB	0acH
	DB	0acH
	DB	0acH
	DB	0ffH
	DB	0acH
	DB	0acH
	DB	0acH
	DB	0ffH
	DB	0acH
	DB	0acH
	DB	0acH
	DB	0ffH
	DB	0acH
	DB	0acH
	DB	0acH
	DB	0ffH
	DB	0acH
	DB	0acH
	DB	0acH
	DB	0ffH
	DB	0acH
	DB	0acH
	DB	0acH
	DB	0ffH
	DB	0acH
	DB	0acH
	DB	0acH
	DB	0ffH
	DB	0acH
	DB	0acH
	DB	0acH
	DB	0ffH
	DB	0acH
	DB	0acH
	DB	0acH
	DB	0ffH
	DB	0acH
	DB	0acH
	DB	0acH
	DB	0ffH
	DB	0acH
	DB	0acH
	DB	0acH
	DB	0ffH
	DB	0acH
	DB	0acH
	DB	0acH
	DB	0ffH
	DB	0acH
	DB	0acH
	DB	0acH
	DB	0ffH
	DB	0acH
	DB	0acH
	DB	0acH
	DB	0ffH
	DB	0acH
	DB	0acH
	DB	0acH
	DB	0ffH
	DB	0acH
	DB	0acH
	DB	0acH
	DB	0ffH
	DB	0acH
	DB	0acH
	DB	0acH
	DB	0ffH
	DB	0acH
	DB	0acH
	DB	0acH
	DB	0ffH
	DB	0acH
	DB	0acH
	DB	0acH
	DB	0ffH
	DB	0acH
	DB	0acH
	DB	0acH
	DB	0ffH
	DB	0acH
	DB	0acH
	DB	0acH
	DB	0ffH
	DB	0acH
	DB	0acH
	DB	0acH
	DB	0ffH
	DB	0acH
	DB	0acH
	DB	0acH
	DB	0ffH
	DB	0acH
	DB	0acH
	DB	0acH
	DB	0ffH
	DB	0acH
	DB	0acH
	DB	0acH
	DB	0ffH
	DB	0acH
	DB	0acH
	DB	0acH
	DB	0ffH
	DB	0acH
	DB	0acH
	DB	0acH
	DB	0ffH
	DB	0acH
	DB	0acH
	DB	0acH
	DB	0ffH
	DB	0acH
	DB	0acH
	DB	0acH
	DB	0ffH
	DB	0acH
	DB	0acH
	DB	0acH
	DB	0ffH
	DB	0acH
	DB	0acH
	DB	0acH
	DB	0ffH
	DB	0acH
	DB	0acH
	DB	0acH
	DB	0ffH
	DB	0acH
	DB	0acH
	DB	0acH
	DB	0ffH
	DB	0acH
	DB	0acH
	DB	0acH
	DB	0ffH
	DB	0acH
	DB	0acH
	DB	0acH
	DB	0ffH
	DB	0acH
	DB	0acH
	DB	0acH
	DB	0ffH
	DB	0acH
	DB	0acH
	DB	0acH
	DB	0ffH
	DB	0acH
	DB	0acH
	DB	0acH
	DB	0ffH
	DB	0acH
	DB	0acH
	DB	0acH
	DB	0ffH
	DB	0acH
	DB	0acH
	DB	0acH
	DB	0ffH
	DB	0acH
	DB	0acH
	DB	0acH
	DB	0ffH
	DB	0acH
	DB	0acH
	DB	0acH
	DB	0ffH
	DB	0acH
	DB	0acH
	DB	0acH
	DB	0ffH
	DB	0acH
	DB	0acH
	DB	0acH
	DB	0ffH
	DB	0acH
	DB	0acH
	DB	0acH
	DB	0ffH
	DB	0acH
	DB	0acH
	DB	0acH
	DB	0ffH
	DB	0acH
	DB	0acH
	DB	0acH
	DB	0ffH
	DB	0acH
	DB	0acH
	DB	0acH
	DB	0ffH
	DB	0acH
	DB	0acH
	DB	0acH
	DB	0ffH
	DB	0acH
	DB	0acH
	DB	0acH
	DB	0ffH
	DB	0acH
	DB	0acH
	DB	0acH
	DB	0ffH
	DB	0acH
	DB	0acH
	DB	0acH
	DB	0ffH
	DB	0acH
	DB	0acH
	DB	0acH
	DB	0ffH
	DB	0acH
	DB	0acH
	DB	0acH
	DB	0ffH
	DB	0acH
	DB	0acH
	DB	0acH
	DB	0ffH
	DB	0acH
	DB	0acH
	DB	0acH
	DB	0ffH
	DB	0acH
	DB	0acH
	DB	0acH
	DB	0ffH
	DB	0acH
	DB	0acH
	DB	0acH
	DB	0ffH
	DB	0acH
	DB	0acH
	DB	0acH
	DB	0ffH
	DB	0acH
	DB	0acH
	DB	0acH
	DB	0ffH
	DB	0acH
	DB	0acH
	DB	0acH
	DB	0ffH
	DB	0acH
	DB	0acH
	DB	0acH
	DB	0ffH
	DB	0acH
	DB	0acH
	DB	0acH
	DB	0ffH
	DB	0acH
	DB	0acH
	DB	0acH
	DB	0ffH
	DB	0acH
	DB	0acH
	DB	0acH
	DB	0ffH
	DB	0acH
	DB	0acH
	DB	0acH
	DB	0ffH
	DB	0acH
	DB	0acH
	DB	0acH
	DB	0ffH
	DB	0acH
	DB	0acH
	DB	0acH
	DB	0ffH
	DB	0acH
	DB	0acH
	DB	0acH
	DB	0ffH
	DB	0acH
	DB	0acH
	DB	0acH
	DB	0ffH
	DB	0acH
	DB	0acH
	DB	0acH
	DB	0ffH
	DB	0acH
	DB	0acH
	DB	0acH
	DB	0ffH
	DB	0acH
	DB	0acH
	DB	0acH
	DB	0ffH
	DB	0acH
	DB	0acH
	DB	0acH
	DB	0ffH
	DB	0acH
	DB	0acH
	DB	0acH
	DB	0ffH
	DB	0acH
	DB	0acH
	DB	0acH
	DB	0ffH
	DB	0acH
	DB	0acH
	DB	0acH
	DB	0ffH
	DB	0acH
	DB	0acH
	DB	0acH
	DB	0ffH
	DB	0acH
	DB	0acH
	DB	0acH
	DB	0ffH
	DB	0acH
	DB	0acH
	DB	0acH
	DB	0ffH
	DB	0acH
	DB	0acH
	DB	0acH
	DB	0ffH
	DB	0acH
	DB	0acH
	DB	0acH
	DB	0ffH
	DB	0acH
	DB	0acH
	DB	0acH
	DB	0ffH
	DB	0acH
	DB	0acH
	DB	0acH
	DB	0ffH
	DB	0acH
	DB	0acH
	DB	0acH
	DB	0ffH
	DB	0acH
	DB	0acH
	DB	0acH
	DB	0ffH
	DB	0acH
	DB	0acH
	DB	0acH
	DB	0ffH
	DB	0acH
	DB	0acH
	DB	0acH
	DB	0ffH
	DB	0acH
	DB	0acH
	DB	0acH
	DB	0ffH
	DB	0acH
	DB	0acH
	DB	0acH
	DB	0ffH
	DB	0acH
	DB	0acH
	DB	0acH
	DB	0ffH
	DB	0acH
	DB	0acH
	DB	0acH
	DB	0ffH
	DB	0acH
	DB	0acH
	DB	0acH
	DB	0ffH
	DB	0acH
	DB	0acH
	DB	0acH
	DB	0ffH
	DB	0acH
	DB	0acH
	DB	0acH
	DB	0ffH
	DB	0acH
	DB	0acH
	DB	0acH
	DB	0ffH
	DB	0acH
	DB	0acH
	DB	0acH
	DB	0ffH
	DB	0acH
	DB	0acH
	DB	0acH
	DB	0ffH
	DB	0acH
	DB	0acH
	DB	0acH
	DB	0ffH
	DB	0acH
	DB	0acH
	DB	0acH
	DB	0ffH
	DB	0acH
	DB	0acH
	DB	0acH
	DB	0ffH
	DB	0acH
	DB	0acH
	DB	0acH
	DB	0ffH
	DB	0acH
	DB	0acH
	DB	0acH
	DB	0ffH
	DB	0acH
	DB	0acH
	DB	0acH
	DB	0ffH
	DB	0acH
	DB	0acH
	DB	0acH
	DB	0ffH
	DB	0acH
	DB	0acH
	DB	0acH
	DB	0ffH
	DB	0acH
	DB	0acH
	DB	0acH
	DB	0ffH
	DB	0acH
	DB	0acH
	DB	0acH
	DB	0ffH
	DB	0acH
	DB	0acH
	DB	0acH
	DB	0ffH
	DB	0acH
	DB	0acH
	DB	0acH
	DB	0ffH
	DB	0acH
	DB	0acH
	DB	0acH
	DB	0ffH
	DB	0acH
	DB	0acH
	DB	0acH
	DB	0ffH
	DB	0acH
	DB	0acH
	DB	0acH
	DB	0ffH
	DB	0acH
	DB	0acH
	DB	0acH
	DB	0ffH
	DB	0acH
	DB	0acH
	DB	0acH
	DB	0ffH
	DB	0acH
	DB	0acH
	DB	0acH
	DB	0ffH
	DB	0acH
	DB	0acH
	DB	0acH
	DB	0ffH
	DB	0acH
	DB	0acH
	DB	0acH
	DB	0ffH
	DB	0acH
	DB	0acH
	DB	0acH
	DB	0ffH
	DB	0acH
	DB	0acH
	DB	0acH
	DB	0ffH
	DB	0acH
	DB	0acH
	DB	0acH
	DB	0ffH
	DB	0acH
	DB	0acH
	DB	0acH
	DB	0ffH
	DB	0acH
	DB	0acH
	DB	0acH
	DB	0ffH
	DB	0acH
	DB	0acH
	DB	0acH
	DB	0ffH
	DB	0acH
	DB	0acH
	DB	0acH
	DB	0ffH
	DB	0acH
	DB	0acH
	DB	0acH
	DB	0ffH
	DB	0acH
	DB	0acH
	DB	0acH
	DB	0ffH
	DB	0acH
	DB	0acH
	DB	0acH
	DB	0ffH
	DB	0acH
	DB	0acH
	DB	0acH
	DB	0ffH
	DB	0acH
	DB	0acH
	DB	0acH
	DB	0ffH
	DB	0acH
	DB	0acH
	DB	0acH
	DB	0ffH
	DB	0acH
	DB	0acH
	DB	0acH
	DB	0ffH
	DB	0acH
	DB	0acH
	DB	0acH
	DB	0ffH
	DB	0acH
	DB	0acH
	DB	0acH
	DB	0ffH
	DB	0acH
	DB	0acH
	DB	0acH
	DB	0ffH
	DB	0acH
	DB	0acH
	DB	0acH
	DB	0ffH
	DB	0acH
	DB	0acH
	DB	0acH
	DB	0ffH
	DB	0acH
	DB	0acH
	DB	0acH
	DB	0ffH
	DB	0acH
	DB	0acH
	DB	0acH
	DB	0ffH
	DB	0acH
	DB	0acH
	DB	0acH
	DB	0ffH
	DB	0acH
	DB	0acH
	DB	0acH
	DB	0ffH
	DB	0acH
	DB	0acH
	DB	0acH
	DB	0ffH
	DB	0acH
	DB	0acH
	DB	0acH
	DB	0ffH
	DB	0acH
	DB	0acH
	DB	0acH
	DB	0ffH
	DB	0acH
	DB	0acH
	DB	0acH
	DB	0ffH
	DB	0acH
	DB	0acH
	DB	0acH
	DB	0ffH
	DB	0acH
	DB	0acH
	DB	0acH
	DB	0ffH
	DB	0acH
	DB	0acH
	DB	0acH
	DB	0ffH
	DB	0acH
	DB	0acH
	DB	0acH
	DB	0ffH
	DB	0acH
	DB	0acH
	DB	0acH
	DB	0ffH
	DB	0acH
	DB	0acH
	DB	0acH
	DB	0ffH
	DB	0acH
	DB	0acH
	DB	0acH
	DB	0ffH
	DB	0acH
	DB	0acH
	DB	0acH
	DB	0ffH
	DB	0acH
	DB	0acH
	DB	0acH
	DB	0ffH
	DB	0acH
	DB	0acH
	DB	0acH
	DB	0ffH
	DB	0acH
	DB	0acH
	DB	0acH
	DB	0ffH
	DB	0acH
	DB	0acH
	DB	0acH
	DB	0ffH
	DB	0acH
	DB	0acH
	DB	0acH
	DB	0ffH
	DB	0acH
	DB	0acH
	DB	0acH
	DB	0ffH
	DB	0acH
	DB	0acH
	DB	0acH
	DB	0ffH
	DB	0acH
	DB	0acH
	DB	0acH
	DB	0ffH
	DB	0acH
	DB	0acH
	DB	0acH
	DB	0ffH
	DB	0acH
	DB	0acH
	DB	0acH
	DB	0ffH
	DB	0acH
	DB	0acH
	DB	0acH
	DB	0ffH
	DB	0acH
	DB	0acH
	DB	0acH
	DB	0ffH
	DB	0acH
	DB	0acH
	DB	0acH
	DB	0ffH
	DB	0acH
	DB	0acH
	DB	0acH
	DB	0ffH
	DB	0acH
	DB	0acH
	DB	0acH
	DB	0ffH
	DB	0acH
	DB	0acH
	DB	0acH
	DB	0ffH
	DB	0acH
	DB	0acH
	DB	0acH
	DB	0ffH
	DB	0acH
	DB	0acH
	DB	0acH
	DB	0ffH
	DB	0acH
	DB	0acH
	DB	0acH
	DB	0ffH
	DB	0acH
	DB	0acH
	DB	0acH
	DB	0ffH
	DB	0acH
	DB	0acH
	DB	0acH
	DB	0ffH
	DB	0acH
	DB	0acH
	DB	0acH
	DB	0ffH
	DB	0acH
	DB	0acH
	DB	0acH
	DB	0ffH
	DB	0acH
	DB	0acH
	DB	0acH
	DB	0ffH
	DB	0acH
	DB	0acH
	DB	0acH
	DB	0ffH
	DB	0acH
	DB	0acH
	DB	0acH
	DB	0ffH
	DB	0acH
	DB	0acH
	DB	0acH
	DB	0ffH
	DB	0acH
	DB	0acH
	DB	0acH
	DB	0ffH
	DB	0acH
	DB	0acH
	DB	0acH
	DB	0ffH
	DB	0acH
	DB	0acH
	DB	0acH
	DB	0ffH
	DB	0acH
	DB	0acH
	DB	0acH
	DB	0ffH
	DB	0acH
	DB	0acH
	DB	0acH
	DB	0ffH
	DB	0acH
	DB	0acH
	DB	0acH
	DB	0ffH
	DB	0acH
	DB	0acH
	DB	0acH
	DB	0ffH
	DB	0acH
	DB	0acH
	DB	0acH
	DB	0ffH
	DB	0acH
	DB	0acH
	DB	0acH
	DB	0ffH
	DB	0acH
	DB	0acH
	DB	0acH
	DB	0ffH
	DB	0acH
	DB	0acH
	DB	0acH
	DB	0ffH
	DB	0acH
	DB	0acH
	DB	0acH
	DB	0ffH
	DB	0acH
	DB	0acH
	DB	0acH
	DB	0ffH
	DB	0acH
	DB	0acH
	DB	0acH
	DB	0ffH
	DB	0acH
	DB	0acH
	DB	0acH
	DB	0ffH
	DB	0acH
	DB	0acH
	DB	0acH
	DB	0ffH
	DB	0acH
	DB	0acH
	DB	0acH
	DB	0ffH
	DB	0acH
	DB	0acH
	DB	0acH
	DB	0ffH
	DB	0acH
	DB	0acH
	DB	0acH
	DB	0ffH
	DB	0acH
	DB	0acH
	DB	0acH
	DB	0ffH
	DB	0acH
	DB	0acH
	DB	0acH
	DB	0ffH
	DB	0acH
	DB	0acH
	DB	0acH
	DB	0ffH
	DB	0acH
	DB	0acH
	DB	0acH
	DB	0ffH
	DB	0acH
	DB	0acH
	DB	0acH
	DB	0ffH
	DB	0acH
	DB	0acH
	DB	0acH
	DB	0ffH
	DB	0acH
	DB	0acH
	DB	0acH
	DB	0ffH
	DB	0acH
	DB	0acH
	DB	0acH
	DB	0ffH
	DB	0acH
	DB	0acH
	DB	0acH
	DB	0ffH
	DB	0acH
	DB	0acH
	DB	0acH
	DB	0ffH
	DB	0acH
	DB	0acH
	DB	0acH
	DB	0ffH
	DB	0acH
	DB	0acH
	DB	0acH
	DB	0ffH
	DB	0acH
	DB	0acH
	DB	0acH
	DB	0ffH
	DB	0acH
	DB	0acH
	DB	0acH
	DB	0ffH
	DB	0acH
	DB	0acH
	DB	0acH
	DB	0ffH
	DB	0acH
	DB	0acH
	DB	0acH
	DB	0ffH
	DB	0acH
	DB	0acH
	DB	0acH
	DB	0ffH
	DB	0acH
	DB	0acH
	DB	0acH
	DB	0ffH
	DB	0acH
	DB	0acH
	DB	0acH
	DB	0ffH
	DB	0acH
	DB	0acH
	DB	0acH
	DB	0ffH
	DB	0acH
	DB	0acH
	DB	0acH
	DB	0ffH
	DB	0acH
	DB	0acH
	DB	0acH
	DB	0ffH
	DB	0acH
	DB	0acH
	DB	0acH
	DB	0ffH
	DB	0acH
	DB	0acH
	DB	0acH
	DB	0ffH
	DB	0acH
	DB	0acH
	DB	0acH
	DB	0ffH
	DB	0acH
	DB	0acH
	DB	0acH
	DB	0ffH
	DB	0acH
	DB	0acH
	DB	0acH
	DB	0ffH
	DB	0acH
	DB	0acH
	DB	0acH
	DB	0ffH
	DB	0acH
	DB	0acH
	DB	0acH
	DB	0ffH
	DB	0acH
	DB	0acH
	DB	0acH
	DB	0ffH
	DB	0acH
	DB	0acH
	DB	0acH
	DB	0ffH
	DB	0acH
	DB	0acH
	DB	0acH
	DB	0ffH
	DB	0acH
	DB	0acH
	DB	0acH
	DB	0ffH
	DB	0acH
	DB	0acH
	DB	0acH
	DB	0ffH
	DB	0acH
	DB	0acH
	DB	0acH
	DB	0ffH
	DB	0acH
	DB	0acH
	DB	0acH
	DB	0ffH
	DB	0acH
	DB	0acH
	DB	0acH
	DB	0ffH
	DB	0acH
	DB	0acH
	DB	0acH
	DB	0ffH
	DB	0acH
	DB	0acH
	DB	0acH
	DB	0ffH
	DB	0acH
	DB	0acH
	DB	0acH
	DB	0ffH
	DB	0acH
	DB	0acH
	DB	0acH
	DB	0ffH
	DB	0acH
	DB	0acH
	DB	0acH
	DB	0ffH
	DB	0acH
	DB	0acH
	DB	0acH
	DB	0ffH
	DB	0acH
	DB	0acH
	DB	0acH
	DB	0ffH
	DB	0acH
	DB	0acH
	DB	0acH
	DB	0ffH
	DB	0acH
	DB	0acH
	DB	0acH
	DB	0ffH
	DB	0acH
	DB	0acH
	DB	0acH
	DB	0ffH
	DB	0acH
	DB	0acH
	DB	0acH
	DB	0ffH
	DB	0acH
	DB	0acH
	DB	0acH
	DB	0ffH
	DB	0acH
	DB	0acH
	DB	0acH
	DB	0c7H
	DB	00H
	DB	00H
	DB	00H
	DB	00H
	DB	00H
	DB	00H
	DB	00H
	DB	00H
	DB	0acH
	DB	0acH
	DB	0acH
	DB	0f9H
	DB	0acH
	DB	0acH
	DB	0acH
	DB	0ffH
	DB	0acH
	DB	0acH
	DB	0acH
	DB	0ffH
	DB	0acH
	DB	0acH
	DB	0acH
	DB	0ffH
	DB	0acH
	DB	0acH
	DB	0acH
	DB	0ffH
	DB	0acH
	DB	0acH
	DB	0acH
	DB	0ffH
	DB	0acH
	DB	0acH
	DB	0acH
	DB	0ffH
	DB	0acH
	DB	0acH
	DB	0acH
	DB	0ffH
	DB	0acH
	DB	0acH
	DB	0acH
	DB	0ffH
	DB	0acH
	DB	0acH
	DB	0acH
	DB	0ffH
	DB	0acH
	DB	0acH
	DB	0acH
	DB	0ffH
	DB	0acH
	DB	0acH
	DB	0acH
	DB	0ffH
	DB	0acH
	DB	0acH
	DB	0acH
	DB	0ffH
	DB	0acH
	DB	0acH
	DB	0acH
	DB	0ffH
	DB	0acH
	DB	0acH
	DB	0acH
	DB	0ffH
	DB	0acH
	DB	0acH
	DB	0acH
	DB	0ffH
	DB	0acH
	DB	0acH
	DB	0acH
	DB	0ffH
	DB	0acH
	DB	0acH
	DB	0acH
	DB	0ffH
	DB	0acH
	DB	0acH
	DB	0acH
	DB	0ffH
	DB	0acH
	DB	0acH
	DB	0acH
	DB	0ffH
	DB	0acH
	DB	0acH
	DB	0acH
	DB	0ffH
	DB	0acH
	DB	0acH
	DB	0acH
	DB	0ffH
	DB	0acH
	DB	0acH
	DB	0acH
	DB	0ffH
	DB	0acH
	DB	0acH
	DB	0acH
	DB	0ffH
	DB	0acH
	DB	0acH
	DB	0acH
	DB	0ffH
	DB	0acH
	DB	0acH
	DB	0acH
	DB	0ffH
	DB	0acH
	DB	0acH
	DB	0acH
	DB	0ffH
	DB	0acH
	DB	0acH
	DB	0acH
	DB	0ffH
	DB	0acH
	DB	0acH
	DB	0acH
	DB	0ffH
	DB	0acH
	DB	0acH
	DB	0acH
	DB	0ffH
	DB	0acH
	DB	0acH
	DB	0acH
	DB	0ffH
	DB	0acH
	DB	0acH
	DB	0acH
	DB	0ffH
	DB	0acH
	DB	0acH
	DB	0acH
	DB	0ffH
	DB	0acH
	DB	0acH
	DB	0acH
	DB	0ffH
	DB	0acH
	DB	0acH
	DB	0acH
	DB	0ffH
	DB	0acH
	DB	0acH
	DB	0acH
	DB	0ffH
	DB	0acH
	DB	0acH
	DB	0acH
	DB	0ffH
	DB	0acH
	DB	0acH
	DB	0acH
	DB	0ffH
	DB	0acH
	DB	0acH
	DB	0acH
	DB	0ffH
	DB	0acH
	DB	0acH
	DB	0acH
	DB	0ffH
	DB	0acH
	DB	0acH
	DB	0acH
	DB	0ffH
	DB	0acH
	DB	0acH
	DB	0acH
	DB	0ffH
	DB	0acH
	DB	0acH
	DB	0acH
	DB	0ffH
	DB	0acH
	DB	0acH
	DB	0acH
	DB	0ffH
	DB	0acH
	DB	0acH
	DB	0acH
	DB	0ffH
	DB	0acH
	DB	0acH
	DB	0acH
	DB	0ffH
	DB	0acH
	DB	0acH
	DB	0acH
	DB	0ffH
	DB	0acH
	DB	0acH
	DB	0acH
	DB	0ffH
	DB	0acH
	DB	0acH
	DB	0acH
	DB	0ffH
	DB	0acH
	DB	0acH
	DB	0acH
	DB	0ffH
	DB	0acH
	DB	0acH
	DB	0acH
	DB	0ffH
	DB	0acH
	DB	0acH
	DB	0acH
	DB	0ffH
	DB	0acH
	DB	0acH
	DB	0acH
	DB	0ffH
	DB	0acH
	DB	0acH
	DB	0acH
	DB	0ffH
	DB	0acH
	DB	0acH
	DB	0acH
	DB	0ffH
	DB	0acH
	DB	0acH
	DB	0acH
	DB	0ffH
	DB	0acH
	DB	0acH
	DB	0acH
	DB	0ffH
	DB	0acH
	DB	0acH
	DB	0acH
	DB	0ffH
	DB	0acH
	DB	0acH
	DB	0acH
	DB	0ffH
	DB	0acH
	DB	0acH
	DB	0acH
	DB	0ffH
	DB	0acH
	DB	0acH
	DB	0acH
	DB	0ffH
	DB	0acH
	DB	0acH
	DB	0acH
	DB	0ffH
	DB	0acH
	DB	0acH
	DB	0acH
	DB	0ffH
	DB	0acH
	DB	0acH
	DB	0acH
	DB	0ffH
	DB	0acH
	DB	0acH
	DB	0acH
	DB	0ffH
	DB	0acH
	DB	0acH
	DB	0acH
	DB	0ffH
	DB	0acH
	DB	0acH
	DB	0acH
	DB	0ffH
	DB	0acH
	DB	0acH
	DB	0acH
	DB	0ffH
	DB	0acH
	DB	0acH
	DB	0acH
	DB	0ffH
	DB	0acH
	DB	0acH
	DB	0acH
	DB	0ffH
	DB	0acH
	DB	0acH
	DB	0acH
	DB	0ffH
	DB	0acH
	DB	0acH
	DB	0acH
	DB	0ffH
	DB	0acH
	DB	0acH
	DB	0acH
	DB	0ffH
	DB	0acH
	DB	0acH
	DB	0acH
	DB	0ffH
	DB	0acH
	DB	0acH
	DB	0acH
	DB	0ffH
	DB	0acH
	DB	0acH
	DB	0acH
	DB	0ffH
	DB	0acH
	DB	0acH
	DB	0acH
	DB	0ffH
	DB	0acH
	DB	0acH
	DB	0acH
	DB	0ffH
	DB	0acH
	DB	0acH
	DB	0acH
	DB	0ffH
	DB	0acH
	DB	0acH
	DB	0acH
	DB	0ffH
	DB	0acH
	DB	0acH
	DB	0acH
	DB	0ffH
	DB	0acH
	DB	0acH
	DB	0acH
	DB	0ffH
	DB	0acH
	DB	0acH
	DB	0acH
	DB	0ffH
	DB	0acH
	DB	0acH
	DB	0acH
	DB	0ffH
	DB	0acH
	DB	0acH
	DB	0acH
	DB	0ffH
	DB	0acH
	DB	0acH
	DB	0acH
	DB	0ffH
	DB	0acH
	DB	0acH
	DB	0acH
	DB	0ffH
	DB	0acH
	DB	0acH
	DB	0acH
	DB	0ffH
	DB	0acH
	DB	0acH
	DB	0acH
	DB	0ffH
	DB	0acH
	DB	0acH
	DB	0acH
	DB	0ffH
	DB	0acH
	DB	0acH
	DB	0acH
	DB	0ffH
	DB	0acH
	DB	0acH
	DB	0acH
	DB	0ffH
	DB	0acH
	DB	0acH
	DB	0acH
	DB	0ffH
	DB	0acH
	DB	0acH
	DB	0acH
	DB	0ffH
	DB	0acH
	DB	0acH
	DB	0acH
	DB	0ffH
	DB	0acH
	DB	0acH
	DB	0acH
	DB	0ffH
	DB	0acH
	DB	0acH
	DB	0acH
	DB	0ffH
	DB	0acH
	DB	0acH
	DB	0acH
	DB	0ffH
	DB	0acH
	DB	0acH
	DB	0acH
	DB	0ffH
	DB	0acH
	DB	0acH
	DB	0acH
	DB	0ffH
	DB	0acH
	DB	0acH
	DB	0acH
	DB	0ffH
	DB	0acH
	DB	0acH
	DB	0acH
	DB	0ffH
	DB	0acH
	DB	0acH
	DB	0acH
	DB	0ffH
	DB	0acH
	DB	0acH
	DB	0acH
	DB	0ffH
	DB	0acH
	DB	0acH
	DB	0acH
	DB	0ffH
	DB	0acH
	DB	0acH
	DB	0acH
	DB	0ffH
	DB	0acH
	DB	0acH
	DB	0acH
	DB	0ffH
	DB	0acH
	DB	0acH
	DB	0acH
	DB	0ffH
	DB	0acH
	DB	0acH
	DB	0acH
	DB	0ffH
	DB	0acH
	DB	0acH
	DB	0acH
	DB	0ffH
	DB	0acH
	DB	0acH
	DB	0acH
	DB	0ffH
	DB	0acH
	DB	0acH
	DB	0acH
	DB	0ffH
	DB	0acH
	DB	0acH
	DB	0acH
	DB	0ffH
	DB	0acH
	DB	0acH
	DB	0acH
	DB	0ffH
	DB	0acH
	DB	0acH
	DB	0acH
	DB	0ffH
	DB	0acH
	DB	0acH
	DB	0acH
	DB	0ffH
	DB	0acH
	DB	0acH
	DB	0acH
	DB	0ffH
	DB	0acH
	DB	0acH
	DB	0acH
	DB	0ffH
	DB	0acH
	DB	0acH
	DB	0acH
	DB	0ffH
	DB	0acH
	DB	0acH
	DB	0acH
	DB	0ffH
	DB	0acH
	DB	0acH
	DB	0acH
	DB	0ffH
	DB	0acH
	DB	0acH
	DB	0acH
	DB	0ffH
	DB	0acH
	DB	0acH
	DB	0acH
	DB	0ffH
	DB	0acH
	DB	0acH
	DB	0acH
	DB	0ffH
	DB	0acH
	DB	0acH
	DB	0acH
	DB	0ffH
	DB	0acH
	DB	0acH
	DB	0acH
	DB	0ffH
	DB	0acH
	DB	0acH
	DB	0acH
	DB	0ffH
	DB	0acH
	DB	0acH
	DB	0acH
	DB	0ffH
	DB	0acH
	DB	0acH
	DB	0acH
	DB	0ffH
	DB	0acH
	DB	0acH
	DB	0acH
	DB	0ffH
	DB	0acH
	DB	0acH
	DB	0acH
	DB	0ffH
	DB	0acH
	DB	0acH
	DB	0acH
	DB	0ffH
	DB	0acH
	DB	0acH
	DB	0acH
	DB	0ffH
	DB	0acH
	DB	0acH
	DB	0acH
	DB	0ffH
	DB	0acH
	DB	0acH
	DB	0acH
	DB	0ffH
	DB	0acH
	DB	0acH
	DB	0acH
	DB	0ffH
	DB	0acH
	DB	0acH
	DB	0acH
	DB	0ffH
	DB	0acH
	DB	0acH
	DB	0acH
	DB	0ffH
	DB	0acH
	DB	0acH
	DB	0acH
	DB	0ffH
	DB	0acH
	DB	0acH
	DB	0acH
	DB	0ffH
	DB	0acH
	DB	0acH
	DB	0acH
	DB	0ffH
	DB	0acH
	DB	0acH
	DB	0acH
	DB	0ffH
	DB	0acH
	DB	0acH
	DB	0acH
	DB	0ffH
	DB	0acH
	DB	0acH
	DB	0acH
	DB	0ffH
	DB	0acH
	DB	0acH
	DB	0acH
	DB	0ffH
	DB	0acH
	DB	0acH
	DB	0acH
	DB	0ffH
	DB	0acH
	DB	0acH
	DB	0acH
	DB	0ffH
	DB	0acH
	DB	0acH
	DB	0acH
	DB	0ffH
	DB	0acH
	DB	0acH
	DB	0acH
	DB	0ffH
	DB	0acH
	DB	0acH
	DB	0acH
	DB	0ffH
	DB	0acH
	DB	0acH
	DB	0acH
	DB	0ffH
	DB	0acH
	DB	0acH
	DB	0acH
	DB	0ffH
	DB	0acH
	DB	0acH
	DB	0acH
	DB	0ffH
	DB	0acH
	DB	0acH
	DB	0acH
	DB	0ffH
	DB	0acH
	DB	0acH
	DB	0acH
	DB	0ffH
	DB	0acH
	DB	0acH
	DB	0acH
	DB	0ffH
	DB	0acH
	DB	0acH
	DB	0acH
	DB	0ffH
	DB	0acH
	DB	0acH
	DB	0acH
	DB	0ffH
	DB	0acH
	DB	0acH
	DB	0acH
	DB	0ffH
	DB	0acH
	DB	0acH
	DB	0acH
	DB	0ffH
	DB	0acH
	DB	0acH
	DB	0acH
	DB	0ffH
	DB	0acH
	DB	0acH
	DB	0acH
	DB	0ffH
	DB	0acH
	DB	0acH
	DB	0acH
	DB	0ffH
	DB	0acH
	DB	0acH
	DB	0acH
	DB	0ffH
	DB	0acH
	DB	0acH
	DB	0acH
	DB	0ffH
	DB	0acH
	DB	0acH
	DB	0acH
	DB	0ffH
	DB	0acH
	DB	0acH
	DB	0acH
	DB	0ffH
	DB	0acH
	DB	0acH
	DB	0acH
	DB	0ffH
	DB	0acH
	DB	0acH
	DB	0acH
	DB	0ffH
	DB	0acH
	DB	0acH
	DB	0acH
	DB	0ffH
	DB	0acH
	DB	0acH
	DB	0acH
	DB	0ffH
	DB	0acH
	DB	0acH
	DB	0acH
	DB	0ffH
	DB	0acH
	DB	0acH
	DB	0acH
	DB	0ffH
	DB	0acH
	DB	0acH
	DB	0acH
	DB	0ffH
	DB	0acH
	DB	0acH
	DB	0acH
	DB	0ffH
	DB	0acH
	DB	0acH
	DB	0acH
	DB	0ffH
	DB	0acH
	DB	0acH
	DB	0acH
	DB	0ffH
	DB	0acH
	DB	0acH
	DB	0acH
	DB	0ffH
	DB	0acH
	DB	0acH
	DB	0acH
	DB	0ffH
	DB	0acH
	DB	0acH
	DB	0acH
	DB	0ffH
	DB	0acH
	DB	0acH
	DB	0acH
	DB	0ffH
	DB	0acH
	DB	0acH
	DB	0acH
	DB	0ffH
	DB	0acH
	DB	0acH
	DB	0acH
	DB	0ffH
	DB	0acH
	DB	0acH
	DB	0acH
	DB	0ffH
	DB	0acH
	DB	0acH
	DB	0acH
	DB	0ffH
	DB	0acH
	DB	0acH
	DB	0acH
	DB	0ffH
	DB	0acH
	DB	0acH
	DB	0acH
	DB	0ffH
	DB	0acH
	DB	0acH
	DB	0acH
	DB	0ffH
	DB	0acH
	DB	0acH
	DB	0acH
	DB	0ffH
	DB	0acH
	DB	0acH
	DB	0acH
	DB	0ffH
	DB	0acH
	DB	0acH
	DB	0acH
	DB	0ffH
	DB	0acH
	DB	0acH
	DB	0acH
	DB	0ffH
	DB	0acH
	DB	0acH
	DB	0acH
	DB	0ffH
	DB	0acH
	DB	0acH
	DB	0acH
	DB	0ffH
	DB	0acH
	DB	0acH
	DB	0acH
	DB	0ffH
	DB	0acH
	DB	0acH
	DB	0acH
	DB	0ffH
	DB	0acH
	DB	0acH
	DB	0acH
	DB	0ffH
	DB	0acH
	DB	0acH
	DB	0acH
	DB	0ffH
	DB	0acH
	DB	0acH
	DB	0acH
	DB	0ffH
	DB	0acH
	DB	0acH
	DB	0acH
	DB	0ffH
	DB	0acH
	DB	0acH
	DB	0acH
	DB	0ffH
	DB	0acH
	DB	0acH
	DB	0acH
	DB	0ffH
	DB	0acH
	DB	0acH
	DB	0acH
	DB	0ffH
	DB	0acH
	DB	0acH
	DB	0acH
	DB	0ffH
	DB	0acH
	DB	0acH
	DB	0acH
	DB	0ffH
	DB	0acH
	DB	0acH
	DB	0acH
	DB	0ffH
	DB	0acH
	DB	0acH
	DB	0acH
	DB	0ffH
	DB	0acH
	DB	0acH
	DB	0acH
	DB	0ffH
	DB	0acH
	DB	0acH
	DB	0acH
	DB	0ffH
	DB	0acH
	DB	0acH
	DB	0acH
	DB	0ffH
	DB	0acH
	DB	0acH
	DB	0acH
	DB	0ffH
	DB	0acH
	DB	0acH
	DB	0acH
	DB	0ffH
	DB	0acH
	DB	0acH
	DB	0acH
	DB	0ffH
	DB	0acH
	DB	0acH
	DB	0acH
	DB	0ffH
	DB	0acH
	DB	0acH
	DB	0acH
	DB	0ffH
	DB	0acH
	DB	0acH
	DB	0acH
	DB	0ffH
	DB	0acH
	DB	0acH
	DB	0acH
	DB	0ffH
	DB	0acH
	DB	0acH
	DB	0acH
	DB	0ffH
	DB	0acH
	DB	0acH
	DB	0acH
	DB	0ffH
	DB	0acH
	DB	0acH
	DB	0acH
	DB	0ffH
	DB	0acH
	DB	0acH
	DB	0acH
	DB	0ffH
	DB	0acH
	DB	0acH
	DB	0acH
	DB	0ffH
	DB	0acH
	DB	0acH
	DB	0acH
	DB	0ffH
	DB	0acH
	DB	0acH
	DB	0acH
	DB	0ffH
	DB	0acH
	DB	0acH
	DB	0acH
	DB	0ffH
	DB	0acH
	DB	0acH
	DB	0acH
	DB	0ffH
	DB	0acH
	DB	0acH
	DB	0acH
	DB	0ffH
	DB	0acH
	DB	0acH
	DB	0acH
	DB	0ffH
	DB	0acH
	DB	0acH
	DB	0acH
	DB	0ffH
	DB	0acH
	DB	0acH
	DB	0acH
	DB	0ffH
	DB	0acH
	DB	0acH
	DB	0acH
	DB	0ffH
	DB	0acH
	DB	0acH
	DB	0acH
	DB	0ffH
	DB	0acH
	DB	0acH
	DB	0acH
	DB	0ffH
	DB	0acH
	DB	0acH
	DB	0acH
	DB	0ffH
	DB	0acH
	DB	0acH
	DB	0acH
	DB	0ffH
	DB	0acH
	DB	0acH
	DB	0acH
	DB	0ffH
	DB	0acH
	DB	0acH
	DB	0acH
	DB	0ffH
	DB	0acH
	DB	0acH
	DB	0acH
	DB	0ffH
	DB	0acH
	DB	0acH
	DB	0acH
	DB	0ffH
	DB	0acH
	DB	0acH
	DB	0acH
	DB	0ffH
	DB	0acH
	DB	0acH
	DB	0acH
	DB	0ffH
	DB	0acH
	DB	0acH
	DB	0acH
	DB	0ffH
	DB	0acH
	DB	0acH
	DB	0acH
	DB	0ffH
	DB	0acH
	DB	0acH
	DB	0acH
	DB	0ffH
	DB	0acH
	DB	0acH
	DB	0acH
	DB	0ffH
	DB	0acH
	DB	0acH
	DB	0acH
	DB	0ffH
	DB	0acH
	DB	0acH
	DB	0acH
	DB	0ffH
	DB	0acH
	DB	0acH
	DB	0acH
	DB	0ffH
	DB	0acH
	DB	0acH
	DB	0acH
	DB	0ffH
	DB	0acH
	DB	0acH
	DB	0acH
	DB	0ffH
	DB	0acH
	DB	0acH
	DB	0acH
	DB	0ffH
	DB	0acH
	DB	0acH
	DB	0acH
	DB	0ffH
	DB	0acH
	DB	0acH
	DB	0acH
	DB	0ffH
	DB	0acH
	DB	0acH
	DB	0acH
	DB	0ffH
	DB	0acH
	DB	0acH
	DB	0acH
	DB	0ffH
	DB	0acH
	DB	0acH
	DB	0acH
	DB	0ffH
	DB	0acH
	DB	0acH
	DB	0acH
	DB	0ffH
	DB	0acH
	DB	0acH
	DB	0acH
	DB	0ffH
	DB	0acH
	DB	0acH
	DB	0acH
	DB	0ffH
	DB	0acH
	DB	0acH
	DB	0acH
	DB	0ffH
	DB	0acH
	DB	0acH
	DB	0acH
	DB	0ffH
	DB	0acH
	DB	0acH
	DB	0acH
	DB	0ffH
	DB	0acH
	DB	0acH
	DB	0acH
	DB	0ffH
	DB	0acH
	DB	0acH
	DB	0acH
	DB	0ffH
	DB	0acH
	DB	0acH
	DB	0acH
	DB	0ffH
	DB	0acH
	DB	0acH
	DB	0acH
	DB	0ffH
	DB	0acH
	DB	0acH
	DB	0acH
	DB	0ffH
	DB	0acH
	DB	0acH
	DB	0acH
	DB	0ffH
	DB	0acH
	DB	0acH
	DB	0acH
	DB	0ffH
	DB	0acH
	DB	0acH
	DB	0acH
	DB	0ffH
	DB	0acH
	DB	0acH
	DB	0acH
	DB	0ffH
	DB	0acH
	DB	0acH
	DB	0acH
	DB	0ffH
	DB	0acH
	DB	0acH
	DB	0acH
	DB	0ffH
	DB	0acH
	DB	0acH
	DB	0acH
	DB	0ffH
	DB	0acH
	DB	0acH
	DB	0acH
	DB	0ffH
	DB	0acH
	DB	0acH
	DB	0acH
	DB	0ffH
	DB	0acH
	DB	0acH
	DB	0acH
	DB	0ffH
	DB	0acH
	DB	0acH
	DB	0acH
	DB	0ffH
	DB	0acH
	DB	0acH
	DB	0acH
	DB	0ffH
	DB	0acH
	DB	0acH
	DB	0acH
	DB	0ffH
	DB	0acH
	DB	0acH
	DB	0acH
	DB	0ffH
	DB	0acH
	DB	0acH
	DB	0acH
	DB	0ffH
	DB	0acH
	DB	0acH
	DB	0acH
	DB	0ffH
	DB	0acH
	DB	0acH
	DB	0acH
	DB	0ffH
	DB	0acH
	DB	0acH
	DB	0acH
	DB	0ffH
	DB	0acH
	DB	0acH
	DB	0acH
	DB	0ffH
	DB	0acH
	DB	0acH
	DB	0acH
	DB	0ffH
	DB	0acH
	DB	0acH
	DB	0acH
	DB	0ffH
	DB	0acH
	DB	0acH
	DB	0acH
	DB	0ffH
	DB	0acH
	DB	0acH
	DB	0acH
	DB	0ffH
	DB	0acH
	DB	0acH
	DB	0acH
	DB	0ffH
	DB	0acH
	DB	0acH
	DB	0acH
	DB	0ffH
	DB	0acH
	DB	0acH
	DB	0acH
	DB	0ffH
	DB	0acH
	DB	0acH
	DB	0acH
	DB	0ffH
	DB	0acH
	DB	0acH
	DB	0acH
	DB	0ffH
	DB	0acH
	DB	0acH
	DB	0acH
	DB	0ffH
	DB	0acH
	DB	0acH
	DB	0acH
	DB	0ffH
	DB	0acH
	DB	0acH
	DB	0acH
	DB	0ffH
	DB	0acH
	DB	0acH
	DB	0acH
	DB	0ffH
	DB	0acH
	DB	0acH
	DB	0acH
	DB	0ffH
	DB	0acH
	DB	0acH
	DB	0acH
	DB	0ffH
	DB	0acH
	DB	0acH
	DB	0acH
	DB	0ffH
	DB	0acH
	DB	0acH
	DB	0acH
	DB	0ffH
	DB	0acH
	DB	0acH
	DB	0acH
	DB	0ffH
	DB	0acH
	DB	0acH
	DB	0acH
	DB	0ffH
	DB	0acH
	DB	0acH
	DB	0acH
	DB	0ffH
	DB	0acH
	DB	0acH
	DB	0acH
	DB	0ffH
	DB	0acH
	DB	0acH
	DB	0acH
	DB	0ffH
	DB	0acH
	DB	0acH
	DB	0acH
	DB	0ffH
	DB	0acH
	DB	0acH
	DB	0acH
	DB	0ffH
	DB	0acH
	DB	0acH
	DB	0acH
	DB	0ffH
	DB	0acH
	DB	0acH
	DB	0acH
	DB	0ffH
	DB	0acH
	DB	0acH
	DB	0acH
	DB	0ffH
	DB	0acH
	DB	0acH
	DB	0acH
	DB	0ffH
	DB	0acH
	DB	0acH
	DB	0acH
	DB	0ffH
	DB	0acH
	DB	0acH
	DB	0acH
	DB	0ffH
	DB	0acH
	DB	0acH
	DB	0acH
	DB	0ffH
	DB	0acH
	DB	0acH
	DB	0acH
	DB	0ffH
	DB	0acH
	DB	0acH
	DB	0acH
	DB	0ffH
	DB	0acH
	DB	0acH
	DB	0acH
	DB	0ffH
	DB	0acH
	DB	0acH
	DB	0acH
	DB	0ffH
	DB	0acH
	DB	0acH
	DB	0acH
	DB	0ffH
	DB	0acH
	DB	0acH
	DB	0acH
	DB	0ffH
	DB	0acH
	DB	0acH
	DB	0acH
	DB	0ffH
	DB	0acH
	DB	0acH
	DB	0acH
	DB	0ffH
	DB	0acH
	DB	0acH
	DB	0acH
	DB	0ffH
	DB	0acH
	DB	0acH
	DB	0acH
	DB	0ffH
	DB	0acH
	DB	0acH
	DB	0acH
	DB	0ffH
	DB	0acH
	DB	0acH
	DB	0acH
	DB	0ffH
	DB	0acH
	DB	0acH
	DB	0acH
	DB	0ffH
	DB	0acH
	DB	0acH
	DB	0acH
	DB	0ffH
	DB	0acH
	DB	0acH
	DB	0acH
	DB	0ffH
	DB	0acH
	DB	0acH
	DB	0acH
	DB	0ffH
	DB	0acH
	DB	0acH
	DB	0acH
	DB	0ffH
	DB	0acH
	DB	0acH
	DB	0acH
	DB	0ffH
	DB	0acH
	DB	0acH
	DB	0acH
	DB	0ffH
	DB	0acH
	DB	0acH
	DB	0acH
	DB	0ffH
	DB	0acH
	DB	0acH
	DB	0acH
	DB	0ffH
	DB	0acH
	DB	0acH
	DB	0acH
	DB	0ffH
	DB	0acH
	DB	0acH
	DB	0acH
	DB	0ffH
	DB	0acH
	DB	0acH
	DB	0acH
	DB	0ffH
	DB	0acH
	DB	0acH
	DB	0acH
	DB	0ffH
	DB	0acH
	DB	0acH
	DB	0acH
	DB	0ffH
	DB	0acH
	DB	0acH
	DB	0acH
	DB	0ffH
	DB	0acH
	DB	0acH
	DB	0acH
	DB	0ffH
	DB	0acH
	DB	0acH
	DB	0acH
	DB	0ffH
	DB	0acH
	DB	0acH
	DB	0acH
	DB	0ffH
	DB	0acH
	DB	0acH
	DB	0acH
	DB	0ffH
	DB	0acH
	DB	0acH
	DB	0acH
	DB	0ffH
	DB	0acH
	DB	0acH
	DB	0acH
	DB	0ffH
	DB	0acH
	DB	0acH
	DB	0acH
	DB	0ffH
	DB	0acH
	DB	0acH
	DB	0acH
	DB	0ffH
	DB	0acH
	DB	0acH
	DB	0acH
	DB	0ffH
	DB	0acH
	DB	0acH
	DB	0acH
	DB	0ffH
	DB	0acH
	DB	0acH
	DB	0acH
	DB	0ffH
	DB	0acH
	DB	0acH
	DB	0acH
	DB	0ffH
	DB	0acH
	DB	0acH
	DB	0acH
	DB	0ffH
	DB	0acH
	DB	0acH
	DB	0acH
	DB	0ffH
	DB	0acH
	DB	0acH
	DB	0acH
	DB	0ffH
	DB	0acH
	DB	0acH
	DB	0acH
	DB	0ffH
	DB	0acH
	DB	0acH
	DB	0acH
	DB	0ffH
	DB	0acH
	DB	0acH
	DB	0acH
	DB	0ffH
	DB	0acH
	DB	0acH
	DB	0acH
	DB	0ffH
	DB	0acH
	DB	0acH
	DB	0acH
	DB	0ffH
	DB	0acH
	DB	0acH
	DB	0acH
	DB	0ffH
	DB	0acH
	DB	0acH
	DB	0acH
	DB	0ffH
	DB	0acH
	DB	0acH
	DB	0acH
	DB	0ffH
	DB	0acH
	DB	0acH
	DB	0acH
	DB	0ffH
	DB	0acH
	DB	0acH
	DB	0acH
	DB	0ffH
	DB	0acH
	DB	0acH
	DB	0acH
	DB	0ffH
	DB	0acH
	DB	0acH
	DB	0acH
	DB	0ffH
	DB	0acH
	DB	0acH
	DB	0acH
	DB	0ffH
	DB	0acH
	DB	0acH
	DB	0acH
	DB	0ffH
	DB	0acH
	DB	0acH
	DB	0acH
	DB	0ffH
	DB	0acH
	DB	0acH
	DB	0acH
	DB	0ffH
	DB	0acH
	DB	0acH
	DB	0acH
	DB	0ffH
	DB	0acH
	DB	0acH
	DB	0acH
	DB	0ffH
	DB	0acH
	DB	0acH
	DB	0acH
	DB	0ffH
	DB	0acH
	DB	0acH
	DB	0acH
	DB	0ffH
	DB	0acH
	DB	0acH
	DB	0acH
	DB	0ffH
	DB	0acH
	DB	0acH
	DB	0acH
	DB	0ffH
	DB	0acH
	DB	0acH
	DB	0acH
	DB	0ffH
	DB	0acH
	DB	0acH
	DB	0acH
	DB	0ffH
	DB	0acH
	DB	0acH
	DB	0acH
	DB	0ffH
	DB	0acH
	DB	0acH
	DB	0acH
	DB	0ffH
	DB	0acH
	DB	0acH
	DB	0acH
	DB	0ffH
	DB	0acH
	DB	0acH
	DB	0acH
	DB	0ffH
	DB	0acH
	DB	0acH
	DB	0acH
	DB	0ffH
	DB	0acH
	DB	0acH
	DB	0acH
	DB	0ffH
	DB	0acH
	DB	0acH
	DB	0acH
	DB	0ffH
	DB	0acH
	DB	0acH
	DB	0acH
	DB	0ffH
	DB	0acH
	DB	0acH
	DB	0acH
	DB	0ffH
	DB	0acH
	DB	0acH
	DB	0acH
	DB	0ffH
	DB	0acH
	DB	0acH
	DB	0acH
	DB	0ffH
	DB	0acH
	DB	0acH
	DB	0acH
	DB	0ffH
	DB	0acH
	DB	0acH
	DB	0acH
	DB	0ffH
	DB	0acH
	DB	0acH
	DB	0acH
	DB	0ffH
	DB	0acH
	DB	0acH
	DB	0acH
	DB	0ffH
	DB	0acH
	DB	0acH
	DB	0acH
	DB	0ffH
	DB	0acH
	DB	0acH
	DB	0acH
	DB	0ffH
	DB	0acH
	DB	0acH
	DB	0acH
	DB	0ffH
	DB	0acH
	DB	0acH
	DB	0acH
	DB	0ffH
	DB	0acH
	DB	0acH
	DB	0acH
	DB	0ffH
	DB	0acH
	DB	0acH
	DB	0acH
	DB	0ffH
	DB	0acH
	DB	0acH
	DB	0acH
	DB	0ffH
	DB	0acH
	DB	0acH
	DB	0acH
	DB	0ffH
	DB	0acH
	DB	0acH
	DB	0acH
	DB	0ffH
	DB	0acH
	DB	0acH
	DB	0acH
	DB	0ffH
	DB	0acH
	DB	0acH
	DB	0acH
	DB	0ffH
	DB	0acH
	DB	0acH
	DB	0acH
	DB	0ffH
	DB	0acH
	DB	0acH
	DB	0acH
	DB	0ffH
	DB	0acH
	DB	0acH
	DB	0acH
	DB	0ffH
	DB	0acH
	DB	0acH
	DB	0acH
	DB	0ffH
	DB	0acH
	DB	0acH
	DB	0acH
	DB	0ffH
	DB	0acH
	DB	0acH
	DB	0acH
	DB	0ffH
	DB	0acH
	DB	0acH
	DB	0acH
	DB	0ffH
	DB	0acH
	DB	0acH
	DB	0acH
	DB	0ffH
	DB	0acH
	DB	0acH
	DB	0acH
	DB	0ffH
	DB	0acH
	DB	0acH
	DB	0acH
	DB	0ffH
	DB	0acH
	DB	0acH
	DB	0acH
	DB	0ffH
	DB	0acH
	DB	0acH
	DB	0acH
	DB	0ffH
	DB	0acH
	DB	0acH
	DB	0acH
	DB	0ffH
	DB	0acH
	DB	0acH
	DB	0acH
	DB	0ffH
	DB	0acH
	DB	0acH
	DB	0acH
	DB	0ffH
	DB	0acH
	DB	0acH
	DB	0acH
	DB	0ffH
	DB	0acH
	DB	0acH
	DB	0acH
	DB	0ffH
	DB	0acH
	DB	0acH
	DB	0acH
	DB	0ffH
	DB	0acH
	DB	0acH
	DB	0acH
	DB	0ffH
	DB	0acH
	DB	0acH
	DB	0acH
	DB	0ffH
	DB	0acH
	DB	0acH
	DB	0acH
	DB	0ffH
	DB	0acH
	DB	0acH
	DB	0acH
	DB	0ffH
	DB	0acH
	DB	0acH
	DB	0acH
	DB	0ffH
	DB	0acH
	DB	0acH
	DB	0acH
	DB	0ffH
	DB	0acH
	DB	0acH
	DB	0acH
	DB	0ffH
	DB	0acH
	DB	0acH
	DB	0acH
	DB	0ffH
	DB	0acH
	DB	0acH
	DB	0acH
	DB	0ffH
	DB	0acH
	DB	0acH
	DB	0acH
	DB	0ffH
	DB	0acH
	DB	0acH
	DB	0acH
	DB	0ffH
	DB	0acH
	DB	0acH
	DB	0acH
	DB	0ffH
	DB	0acH
	DB	0acH
	DB	0acH
	DB	0ffH
	DB	0acH
	DB	0acH
	DB	0acH
	DB	0ffH
	DB	0acH
	DB	0acH
	DB	0acH
	DB	0ffH
	DB	0acH
	DB	0acH
	DB	0acH
	DB	0ffH
	DB	0acH
	DB	0acH
	DB	0acH
	DB	0ffH
	DB	0acH
	DB	0acH
	DB	0acH
	DB	0ffH
	DB	0acH
	DB	0acH
	DB	0acH
	DB	0ffH
	DB	0acH
	DB	0acH
	DB	0acH
	DB	0ffH
	DB	0acH
	DB	0acH
	DB	0acH
	DB	0ffH
	DB	0acH
	DB	0acH
	DB	0acH
	DB	0ffH
	DB	0acH
	DB	0acH
	DB	0acH
	DB	0ffH
	DB	0acH
	DB	0acH
	DB	0acH
	DB	0ffH
	DB	0acH
	DB	0acH
	DB	0acH
	DB	0ffH
	DB	0acH
	DB	0acH
	DB	0acH
	DB	0ffH
	DB	0acH
	DB	0acH
	DB	0acH
	DB	0ffH
	DB	0acH
	DB	0acH
	DB	0acH
	DB	0ffH
	DB	0acH
	DB	0acH
	DB	0acH
	DB	0ffH
	DB	0acH
	DB	0acH
	DB	0acH
	DB	0ffH
	DB	0acH
	DB	0acH
	DB	0acH
	DB	0ffH
	DB	0acH
	DB	0acH
	DB	0acH
	DB	0ffH
	DB	0acH
	DB	0acH
	DB	0acH
	DB	0ffH
	DB	0acH
	DB	0acH
	DB	0acH
	DB	0ffH
	DB	0acH
	DB	0acH
	DB	0acH
	DB	0ffH
	DB	0acH
	DB	0acH
	DB	0acH
	DB	0ffH
	DB	0acH
	DB	0acH
	DB	0acH
	DB	0ffH
	DB	0acH
	DB	0acH
	DB	0acH
	DB	0ffH
	DB	0acH
	DB	0acH
	DB	0acH
	DB	0ffH
	DB	0acH
	DB	0acH
	DB	0acH
	DB	0ffH
	DB	0acH
	DB	0acH
	DB	0acH
	DB	0ffH
	DB	0acH
	DB	0acH
	DB	0acH
	DB	0ffH
	DB	0acH
	DB	0acH
	DB	0acH
	DB	0ffH
	DB	0acH
	DB	0acH
	DB	0acH
	DB	0ffH
	DB	0acH
	DB	0acH
	DB	0acH
	DB	0ffH
	DB	0acH
	DB	0acH
	DB	0acH
	DB	0ffH
	DB	0acH
	DB	0acH
	DB	0acH
	DB	0ffH
	DB	0acH
	DB	0acH
	DB	0acH
	DB	0ffH
	DB	0acH
	DB	0acH
	DB	0acH
	DB	0ffH
	DB	0acH
	DB	0acH
	DB	0acH
	DB	0ffH
	DB	0acH
	DB	0acH
	DB	0acH
	DB	0ffH
	DB	0acH
	DB	0acH
	DB	0acH
	DB	0ffH
	DB	0acH
	DB	0acH
	DB	0acH
	DB	0ffH
	DB	0acH
	DB	0acH
	DB	0acH
	DB	0ffH
	DB	0acH
	DB	0acH
	DB	0acH
	DB	0ffH
	DB	0acH
	DB	0acH
	DB	0acH
	DB	0ffH
	DB	0acH
	DB	0acH
	DB	0acH
	DB	0ffH
	DB	0acH
	DB	0acH
	DB	0acH
	DB	0ffH
	DB	0acH
	DB	0acH
	DB	0acH
	DB	0ffH
	DB	0acH
	DB	0acH
	DB	0acH
	DB	0ffH
	DB	0acH
	DB	0acH
	DB	0acH
	DB	0ffH
	DB	0acH
	DB	0acH
	DB	0acH
	DB	0ffH
	DB	0acH
	DB	0acH
	DB	0acH
	DB	0ffH
	DB	0acH
	DB	0acH
	DB	0acH
	DB	0ffH
	DB	0acH
	DB	0acH
	DB	0acH
	DB	0ffH
	DB	0acH
	DB	0acH
	DB	0acH
	DB	0ffH
	DB	0acH
	DB	0acH
	DB	0acH
	DB	0ffH
	DB	0acH
	DB	0acH
	DB	0acH
	DB	0ffH
	DB	0acH
	DB	0acH
	DB	0acH
	DB	0ffH
	DB	0acH
	DB	0acH
	DB	0acH
	DB	0ffH
	DB	0acH
	DB	0acH
	DB	0acH
	DB	0ffH
	DB	0acH
	DB	0acH
	DB	0acH
	DB	0ffH
	DB	0acH
	DB	0acH
	DB	0acH
	DB	0ffH
	DB	0acH
	DB	0acH
	DB	0acH
	DB	0ffH
	DB	0acH
	DB	0acH
	DB	0acH
	DB	0ffH
	DB	0acH
	DB	0acH
	DB	0acH
	DB	0ffH
	DB	0acH
	DB	0acH
	DB	0acH
	DB	0ffH
	DB	0acH
	DB	0acH
	DB	0acH
	DB	0ffH
	DB	0acH
	DB	0acH
	DB	0acH
	DB	0ffH
	DB	0acH
	DB	0acH
	DB	0acH
	DB	0ffH
	DB	0acH
	DB	0acH
	DB	0acH
	DB	0ffH
	DB	0acH
	DB	0acH
	DB	0acH
	DB	0ffH
	DB	0acH
	DB	0acH
	DB	0acH
	DB	0ffH
	DB	0acH
	DB	0acH
	DB	0acH
	DB	0ffH
	DB	0acH
	DB	0acH
	DB	0acH
	DB	0ffH
	DB	0acH
	DB	0acH
	DB	0acH
	DB	0ffH
	DB	0acH
	DB	0acH
	DB	0acH
	DB	0ffH
	DB	0acH
	DB	0acH
	DB	0acH
	DB	0ffH
	DB	0acH
	DB	0acH
	DB	0acH
	DB	0ffH
	DB	0acH
	DB	0acH
	DB	0acH
	DB	0ffH
	DB	0acH
	DB	0acH
	DB	0acH
	DB	0ffH
	DB	0acH
	DB	0acH
	DB	0acH
	DB	0ffH
	DB	0acH
	DB	0acH
	DB	0acH
	DB	0ffH
	DB	0acH
	DB	0acH
	DB	0acH
	DB	0ffH
	DB	0acH
	DB	0acH
	DB	0acH
	DB	0ffH
	DB	0acH
	DB	0acH
	DB	0acH
	DB	0ffH
	DB	0acH
	DB	0acH
	DB	0acH
	DB	0ffH
	DB	0acH
	DB	0acH
	DB	0acH
	DB	0ffH
	DB	0acH
	DB	0acH
	DB	0acH
	DB	0ffH
	DB	0acH
	DB	0acH
	DB	0acH
	DB	0ffH
	DB	0acH
	DB	0acH
	DB	0acH
	DB	0ffH
	DB	0acH
	DB	0acH
	DB	0acH
	DB	0ffH
	DB	0acH
	DB	0acH
	DB	0acH
	DB	0ffH
	DB	0acH
	DB	0acH
	DB	0acH
	DB	0ffH
	DB	0acH
	DB	0acH
	DB	0acH
	DB	0ffH
	DB	0acH
	DB	0acH
	DB	0acH
	DB	0ffH
	DB	0acH
	DB	0acH
	DB	0acH
	DB	0ffH
	DB	0acH
	DB	0acH
	DB	0acH
	DB	0ffH
	DB	0acH
	DB	0acH
	DB	0acH
	DB	0ffH
	DB	0acH
	DB	0acH
	DB	0acH
	DB	0ffH
	DB	0acH
	DB	0acH
	DB	0acH
	DB	0ffH
	DB	0acH
	DB	0acH
	DB	0acH
	DB	0ffH
	DB	0acH
	DB	0acH
	DB	0acH
	DB	0ffH
	DB	0acH
	DB	0acH
	DB	0acH
	DB	0ffH
	DB	0acH
	DB	0acH
	DB	0acH
	DB	0ffH
	DB	0acH
	DB	0acH
	DB	0acH
	DB	0ffH
	DB	0acH
	DB	0acH
	DB	0acH
	DB	0ffH
	DB	0acH
	DB	0acH
	DB	0acH
	DB	0ffH
	DB	0acH
	DB	0acH
	DB	0acH
	DB	0ffH
	DB	0acH
	DB	0acH
	DB	0acH
	DB	0ffH
	DB	0acH
	DB	0acH
	DB	0acH
	DB	0ffH
	DB	0acH
	DB	0acH
	DB	0acH
	DB	0ffH
	DB	0acH
	DB	0acH
	DB	0acH
	DB	0ffH
	DB	0acH
	DB	0acH
	DB	0acH
	DB	0ffH
	DB	0acH
	DB	0acH
	DB	0acH
	DB	0ffH
	DB	0acH
	DB	0acH
	DB	0acH
	DB	0ffH
	DB	0acH
	DB	0acH
	DB	0acH
	DB	0ffH
	DB	0acH
	DB	0acH
	DB	0acH
	DB	0ffH
	DB	0acH
	DB	0acH
	DB	0acH
	DB	0ffH
	DB	0acH
	DB	0acH
	DB	0acH
	DB	0ffH
	DB	0acH
	DB	0acH
	DB	0acH
	DB	0ffH
	DB	0acH
	DB	0acH
	DB	0acH
	DB	0ffH
	DB	0acH
	DB	0acH
	DB	0acH
	DB	0ffH
	DB	0acH
	DB	0acH
	DB	0acH
	DB	0ffH
	DB	0acH
	DB	0acH
	DB	0acH
	DB	0ffH
	DB	0acH
	DB	0acH
	DB	0acH
	DB	0ffH
	DB	0acH
	DB	0acH
	DB	0acH
	DB	0ffH
	DB	0acH
	DB	0acH
	DB	0acH
	DB	0ffH
	DB	0acH
	DB	0acH
	DB	0acH
	DB	0ffH
	DB	0acH
	DB	0acH
	DB	0acH
	DB	0ffH
	DB	0acH
	DB	0acH
	DB	0acH
	DB	0ffH
	DB	0acH
	DB	0acH
	DB	0acH
	DB	0ffH
	DB	0acH
	DB	0acH
	DB	0acH
	DB	0ffH
	DB	0acH
	DB	0acH
	DB	0acH
	DB	0ffH
	DB	0acH
	DB	0acH
	DB	0acH
	DB	0ffH
	DB	0acH
	DB	0acH
	DB	0acH
	DB	0ffH
	DB	0acH
	DB	0acH
	DB	0acH
	DB	0ffH
	DB	0acH
	DB	0acH
	DB	0acH
	DB	0ffH
	DB	0acH
	DB	0acH
	DB	0acH
	DB	0ffH
	DB	0acH
	DB	0acH
	DB	0acH
	DB	0ffH
	DB	0acH
	DB	0acH
	DB	0acH
	DB	0ffH
	DB	0acH
	DB	0acH
	DB	0acH
	DB	0ffH
	DB	0acH
	DB	0acH
	DB	0acH
	DB	0ffH
	DB	0acH
	DB	0acH
	DB	0acH
	DB	0ffH
	DB	0acH
	DB	0acH
	DB	0acH
	DB	0ffH
	DB	0acH
	DB	0acH
	DB	0acH
	DB	0ffH
	DB	0acH
	DB	0acH
	DB	0acH
	DB	0ffH
	DB	0acH
	DB	0acH
	DB	0acH
	DB	0ffH
	DB	0acH
	DB	0acH
	DB	0acH
	DB	0ffH
	DB	0acH
	DB	0acH
	DB	0acH
	DB	0ffH
	DB	0acH
	DB	0acH
	DB	0acH
	DB	0ffH
	DB	0acH
	DB	0acH
	DB	0acH
	DB	0ffH
	DB	0acH
	DB	0acH
	DB	0acH
	DB	0ffH
	DB	0acH
	DB	0acH
	DB	0acH
	DB	0ffH
	DB	0acH
	DB	0acH
	DB	0acH
	DB	0ffH
	DB	0acH
	DB	0acH
	DB	0acH
	DB	0ffH
	DB	0acH
	DB	0acH
	DB	0acH
	DB	0ffH
	DB	0acH
	DB	0acH
	DB	0acH
	DB	0ffH
	DB	0acH
	DB	0acH
	DB	0acH
	DB	0ffH
	DB	0acH
	DB	0acH
	DB	0acH
	DB	0ffH
	DB	0acH
	DB	0acH
	DB	0acH
	DB	0ffH
	DB	0acH
	DB	0acH
	DB	0acH
	DB	0ffH
	DB	0acH
	DB	0acH
	DB	0acH
	DB	0ffH
	DB	0acH
	DB	0acH
	DB	0acH
	DB	0ffH
	DB	0acH
	DB	0acH
	DB	0acH
	DB	0ffH
	DB	0acH
	DB	0acH
	DB	0acH
	DB	0ffH
	DB	0acH
	DB	0acH
	DB	0acH
	DB	0ffH
	DB	0acH
	DB	0acH
	DB	0acH
	DB	0ffH
	DB	0acH
	DB	0acH
	DB	0acH
	DB	0ffH
	DB	0acH
	DB	0acH
	DB	0acH
	DB	0ffH
	DB	0acH
	DB	0acH
	DB	0acH
	DB	0ffH
	DB	0acH
	DB	0acH
	DB	0acH
	DB	0ffH
	DB	0acH
	DB	0acH
	DB	0acH
	DB	0ffH
	DB	0acH
	DB	0acH
	DB	0acH
	DB	0ffH
	DB	0acH
	DB	0acH
	DB	0acH
	DB	0ffH
	DB	0acH
	DB	0acH
	DB	0acH
	DB	0ffH
	DB	0acH
	DB	0acH
	DB	0acH
	DB	0ffH
	DB	0acH
	DB	0acH
	DB	0acH
	DB	0ffH
	DB	0acH
	DB	0acH
	DB	0acH
	DB	0ffH
	DB	0acH
	DB	0acH
	DB	0acH
	DB	0ffH
	DB	0acH
	DB	0acH
	DB	0acH
	DB	0ffH
	DB	0acH
	DB	0acH
	DB	0acH
	DB	0ffH
	DB	0acH
	DB	0acH
	DB	0acH
	DB	0ffH
	DB	0acH
	DB	0acH
	DB	0acH
	DB	0ffH
	DB	0acH
	DB	0acH
	DB	0acH
	DB	0ffH
	DB	0acH
	DB	0acH
	DB	0acH
	DB	0ffH
	DB	0acH
	DB	0acH
	DB	0acH
	DB	0ffH
	DB	0acH
	DB	0acH
	DB	0acH
	DB	0ffH
	DB	0acH
	DB	0acH
	DB	0acH
	DB	0ffH
	DB	0acH
	DB	0acH
	DB	0acH
	DB	0ffH
	DB	0acH
	DB	0acH
	DB	0acH
	DB	0ffH
	DB	0acH
	DB	0acH
	DB	0acH
	DB	0ffH
	DB	0acH
	DB	0acH
	DB	0acH
	DB	0ffH
	DB	0acH
	DB	0acH
	DB	0acH
	DB	0ffH
	DB	0acH
	DB	0acH
	DB	0acH
	DB	0ffH
	DB	0acH
	DB	0acH
	DB	0acH
	DB	0ffH
	DB	0acH
	DB	0acH
	DB	0acH
	DB	0ffH
	DB	0acH
	DB	0acH
	DB	0acH
	DB	0ffH
	DB	0acH
	DB	0acH
	DB	0acH
	DB	0ffH
	DB	0acH
	DB	0acH
	DB	0acH
	DB	0ffH
	DB	0acH
	DB	0acH
	DB	0acH
	DB	0ffH
	DB	0acH
	DB	0acH
	DB	0acH
	DB	0ffH
	DB	0acH
	DB	0acH
	DB	0acH
	DB	0ffH
	DB	0acH
	DB	0acH
	DB	0acH
	DB	0ffH
	DB	0acH
	DB	0acH
	DB	0acH
	DB	0ffH
	DB	0acH
	DB	0acH
	DB	0acH
	DB	0ffH
	DB	0acH
	DB	0acH
	DB	0acH
	DB	0ffH
	DB	0acH
	DB	0acH
	DB	0acH
	DB	0ffH
	DB	0acH
	DB	0acH
	DB	0acH
	DB	0ffH
	DB	0acH
	DB	0acH
	DB	0acH
	DB	0ffH
	DB	0acH
	DB	0acH
	DB	0acH
	DB	0ffH
	DB	0acH
	DB	0acH
	DB	0acH
	DB	0ffH
	DB	0acH
	DB	0acH
	DB	0acH
	DB	0ffH
	DB	0acH
	DB	0acH
	DB	0acH
	DB	0ffH
	DB	0acH
	DB	0acH
	DB	0acH
	DB	0ffH
	DB	0acH
	DB	0acH
	DB	0acH
	DB	0ffH
	DB	0acH
	DB	0acH
	DB	0acH
	DB	0ffH
	DB	0acH
	DB	0acH
	DB	0acH
	DB	0ffH
	DB	0acH
	DB	0acH
	DB	0acH
	DB	0ffH
	DB	0acH
	DB	0acH
	DB	0acH
	DB	0ffH
	DB	0acH
	DB	0acH
	DB	0acH
	DB	0ffH
	DB	0acH
	DB	0acH
	DB	0acH
	DB	0ffH
	DB	0acH
	DB	0acH
	DB	0acH
	DB	0ffH
	DB	0acH
	DB	0acH
	DB	0acH
	DB	0ffH
	DB	0acH
	DB	0acH
	DB	0acH
	DB	0ffH
	DB	0acH
	DB	0acH
	DB	0acH
	DB	0ffH
	DB	0acH
	DB	0acH
	DB	0acH
	DB	0ffH
	DB	0acH
	DB	0acH
	DB	0acH
	DB	0ffH
	DB	0acH
	DB	0acH
	DB	0acH
	DB	0ffH
	DB	0acH
	DB	0acH
	DB	0acH
	DB	0ffH
	DB	0acH
	DB	0acH
	DB	0acH
	DB	0ffH
	DB	0acH
	DB	0acH
	DB	0acH
	DB	0ffH
	DB	0acH
	DB	0acH
	DB	0acH
	DB	0f8H
	DB	00H
	DB	00H
	DB	00H
	DB	00H
	DB	00H
	DB	00H
	DB	00H
	DB	00H
	DB	0acH
	DB	0acH
	DB	0acH
	DB	0f9H
	DB	0acH
	DB	0acH
	DB	0acH
	DB	0ffH
	DB	0acH
	DB	0acH
	DB	0acH
	DB	0ffH
	DB	0acH
	DB	0acH
	DB	0acH
	DB	0ffH
	DB	0acH
	DB	0acH
	DB	0acH
	DB	0ffH
	DB	0acH
	DB	0acH
	DB	0acH
	DB	0ffH
	DB	0acH
	DB	0acH
	DB	0acH
	DB	0ffH
	DB	0acH
	DB	0acH
	DB	0acH
	DB	0ffH
	DB	0acH
	DB	0acH
	DB	0acH
	DB	0ffH
	DB	0acH
	DB	0acH
	DB	0acH
	DB	0ffH
	DB	0acH
	DB	0acH
	DB	0acH
	DB	0ffH
	DB	0acH
	DB	0acH
	DB	0acH
	DB	0ffH
	DB	0acH
	DB	0acH
	DB	0acH
	DB	0ffH
	DB	0acH
	DB	0acH
	DB	0acH
	DB	0ffH
	DB	0acH
	DB	0acH
	DB	0acH
	DB	0ffH
	DB	0acH
	DB	0acH
	DB	0acH
	DB	0ffH
	DB	0acH
	DB	0acH
	DB	0acH
	DB	0ffH
	DB	0acH
	DB	0acH
	DB	0acH
	DB	0ffH
	DB	0acH
	DB	0acH
	DB	0acH
	DB	0ffH
	DB	0acH
	DB	0acH
	DB	0acH
	DB	0ffH
	DB	0acH
	DB	0acH
	DB	0acH
	DB	0ffH
	DB	0acH
	DB	0acH
	DB	0acH
	DB	0ffH
	DB	0acH
	DB	0acH
	DB	0acH
	DB	0ffH
	DB	0acH
	DB	0acH
	DB	0acH
	DB	0ffH
	DB	0acH
	DB	0acH
	DB	0acH
	DB	0ffH
	DB	0acH
	DB	0acH
	DB	0acH
	DB	0ffH
	DB	0acH
	DB	0acH
	DB	0acH
	DB	0ffH
	DB	0acH
	DB	0acH
	DB	0acH
	DB	0ffH
	DB	0acH
	DB	0acH
	DB	0acH
	DB	0ffH
	DB	0acH
	DB	0acH
	DB	0acH
	DB	0ffH
	DB	0acH
	DB	0acH
	DB	0acH
	DB	0ffH
	DB	0acH
	DB	0acH
	DB	0acH
	DB	0ffH
	DB	0acH
	DB	0acH
	DB	0acH
	DB	0ffH
	DB	0acH
	DB	0acH
	DB	0acH
	DB	0ffH
	DB	0acH
	DB	0acH
	DB	0acH
	DB	0ffH
	DB	0acH
	DB	0acH
	DB	0acH
	DB	0ffH
	DB	0acH
	DB	0acH
	DB	0acH
	DB	0ffH
	DB	0acH
	DB	0acH
	DB	0acH
	DB	0ffH
	DB	0acH
	DB	0acH
	DB	0acH
	DB	0ffH
	DB	0acH
	DB	0acH
	DB	0acH
	DB	0ffH
	DB	0acH
	DB	0acH
	DB	0acH
	DB	0ffH
	DB	0acH
	DB	0acH
	DB	0acH
	DB	0ffH
	DB	0acH
	DB	0acH
	DB	0acH
	DB	0ffH
	DB	0acH
	DB	0acH
	DB	0acH
	DB	0ffH
	DB	0acH
	DB	0acH
	DB	0acH
	DB	0ffH
	DB	0acH
	DB	0acH
	DB	0acH
	DB	0ffH
	DB	0acH
	DB	0acH
	DB	0acH
	DB	0ffH
	DB	0acH
	DB	0acH
	DB	0acH
	DB	0ffH
	DB	0acH
	DB	0acH
	DB	0acH
	DB	0ffH
	DB	0acH
	DB	0acH
	DB	0acH
	DB	0ffH
	DB	0acH
	DB	0acH
	DB	0acH
	DB	0ffH
	DB	0acH
	DB	0acH
	DB	0acH
	DB	0ffH
	DB	0acH
	DB	0acH
	DB	0acH
	DB	0ffH
	DB	0acH
	DB	0acH
	DB	0acH
	DB	0ffH
	DB	0acH
	DB	0acH
	DB	0acH
	DB	0ffH
	DB	0acH
	DB	0acH
	DB	0acH
	DB	0ffH
	DB	0acH
	DB	0acH
	DB	0acH
	DB	0ffH
	DB	0acH
	DB	0acH
	DB	0acH
	DB	0ffH
	DB	0acH
	DB	0acH
	DB	0acH
	DB	0ffH
	DB	0acH
	DB	0acH
	DB	0acH
	DB	0ffH
	DB	0acH
	DB	0acH
	DB	0acH
	DB	0ffH
	DB	0acH
	DB	0acH
	DB	0acH
	DB	0ffH
	DB	0acH
	DB	0acH
	DB	0acH
	DB	0ffH
	DB	0acH
	DB	0acH
	DB	0acH
	DB	0ffH
	DB	0acH
	DB	0acH
	DB	0acH
	DB	0ffH
	DB	0acH
	DB	0acH
	DB	0acH
	DB	0ffH
	DB	0acH
	DB	0acH
	DB	0acH
	DB	0ffH
	DB	0acH
	DB	0acH
	DB	0acH
	DB	0ffH
	DB	0acH
	DB	0acH
	DB	0acH
	DB	0ffH
	DB	0acH
	DB	0acH
	DB	0acH
	DB	0ffH
	DB	0acH
	DB	0acH
	DB	0acH
	DB	0ffH
	DB	0acH
	DB	0acH
	DB	0acH
	DB	0ffH
	DB	0acH
	DB	0acH
	DB	0acH
	DB	0ffH
	DB	0acH
	DB	0acH
	DB	0acH
	DB	0ffH
	DB	0acH
	DB	0acH
	DB	0acH
	DB	0ffH
	DB	0acH
	DB	0acH
	DB	0acH
	DB	0ffH
	DB	0acH
	DB	0acH
	DB	0acH
	DB	0ffH
	DB	0acH
	DB	0acH
	DB	0acH
	DB	0ffH
	DB	0acH
	DB	0acH
	DB	0acH
	DB	0ffH
	DB	0acH
	DB	0acH
	DB	0acH
	DB	0ffH
	DB	0acH
	DB	0acH
	DB	0acH
	DB	0ffH
	DB	0acH
	DB	0acH
	DB	0acH
	DB	0ffH
	DB	0acH
	DB	0acH
	DB	0acH
	DB	0ffH
	DB	0acH
	DB	0acH
	DB	0acH
	DB	0ffH
	DB	0acH
	DB	0acH
	DB	0acH
	DB	0ffH
	DB	0acH
	DB	0acH
	DB	0acH
	DB	0ffH
	DB	0acH
	DB	0acH
	DB	0acH
	DB	0ffH
	DB	0acH
	DB	0acH
	DB	0acH
	DB	0ffH
	DB	0acH
	DB	0acH
	DB	0acH
	DB	0ffH
	DB	0acH
	DB	0acH
	DB	0acH
	DB	0ffH
	DB	0acH
	DB	0acH
	DB	0acH
	DB	0ffH
	DB	0acH
	DB	0acH
	DB	0acH
	DB	0ffH
	DB	0acH
	DB	0acH
	DB	0acH
	DB	0ffH
	DB	0acH
	DB	0acH
	DB	0acH
	DB	0ffH
	DB	0acH
	DB	0acH
	DB	0acH
	DB	0ffH
	DB	0acH
	DB	0acH
	DB	0acH
	DB	0ffH
	DB	0acH
	DB	0acH
	DB	0acH
	DB	0ffH
	DB	0acH
	DB	0acH
	DB	0acH
	DB	0ffH
	DB	0acH
	DB	0acH
	DB	0acH
	DB	0ffH
	DB	0acH
	DB	0acH
	DB	0acH
	DB	0ffH
	DB	0acH
	DB	0acH
	DB	0acH
	DB	0ffH
	DB	0acH
	DB	0acH
	DB	0acH
	DB	0ffH
	DB	0acH
	DB	0acH
	DB	0acH
	DB	0ffH
	DB	0acH
	DB	0acH
	DB	0acH
	DB	0ffH
	DB	0acH
	DB	0acH
	DB	0acH
	DB	0ffH
	DB	0acH
	DB	0acH
	DB	0acH
	DB	0ffH
	DB	0acH
	DB	0acH
	DB	0acH
	DB	0ffH
	DB	0acH
	DB	0acH
	DB	0acH
	DB	0ffH
	DB	0acH
	DB	0acH
	DB	0acH
	DB	0ffH
	DB	0acH
	DB	0acH
	DB	0acH
	DB	0ffH
	DB	0acH
	DB	0acH
	DB	0acH
	DB	0ffH
	DB	0acH
	DB	0acH
	DB	0acH
	DB	0ffH
	DB	0acH
	DB	0acH
	DB	0acH
	DB	0ffH
	DB	0acH
	DB	0acH
	DB	0acH
	DB	0ffH
	DB	0acH
	DB	0acH
	DB	0acH
	DB	0ffH
	DB	0acH
	DB	0acH
	DB	0acH
	DB	0ffH
	DB	0acH
	DB	0acH
	DB	0acH
	DB	0ffH
	DB	0acH
	DB	0acH
	DB	0acH
	DB	0ffH
	DB	0acH
	DB	0acH
	DB	0acH
	DB	0ffH
	DB	0acH
	DB	0acH
	DB	0acH
	DB	0ffH
	DB	0acH
	DB	0acH
	DB	0acH
	DB	0ffH
	DB	0acH
	DB	0acH
	DB	0acH
	DB	0ffH
	DB	0acH
	DB	0acH
	DB	0acH
	DB	0ffH
	DB	0acH
	DB	0acH
	DB	0acH
	DB	0ffH
	DB	0acH
	DB	0acH
	DB	0acH
	DB	0ffH
	DB	0acH
	DB	0acH
	DB	0acH
	DB	0ffH
	DB	0acH
	DB	0acH
	DB	0acH
	DB	0ffH
	DB	0acH
	DB	0acH
	DB	0acH
	DB	0ffH
	DB	0acH
	DB	0acH
	DB	0acH
	DB	0ffH
	DB	0acH
	DB	0acH
	DB	0acH
	DB	0ffH
	DB	0acH
	DB	0acH
	DB	0acH
	DB	0ffH
	DB	0acH
	DB	0acH
	DB	0acH
	DB	0ffH
	DB	0acH
	DB	0acH
	DB	0acH
	DB	0ffH
	DB	0acH
	DB	0acH
	DB	0acH
	DB	0ffH
	DB	0acH
	DB	0acH
	DB	0acH
	DB	0ffH
	DB	0acH
	DB	0acH
	DB	0acH
	DB	0ffH
	DB	0acH
	DB	0acH
	DB	0acH
	DB	0ffH
	DB	0acH
	DB	0acH
	DB	0acH
	DB	0ffH
	DB	0acH
	DB	0acH
	DB	0acH
	DB	0ffH
	DB	0acH
	DB	0acH
	DB	0acH
	DB	0ffH
	DB	0acH
	DB	0acH
	DB	0acH
	DB	0ffH
	DB	0acH
	DB	0acH
	DB	0acH
	DB	0ffH
	DB	0acH
	DB	0acH
	DB	0acH
	DB	0ffH
	DB	0acH
	DB	0acH
	DB	0acH
	DB	0ffH
	DB	0acH
	DB	0acH
	DB	0acH
	DB	0ffH
	DB	0acH
	DB	0acH
	DB	0acH
	DB	0ffH
	DB	0acH
	DB	0acH
	DB	0acH
	DB	0ffH
	DB	0acH
	DB	0acH
	DB	0acH
	DB	0ffH
	DB	0acH
	DB	0acH
	DB	0acH
	DB	0ffH
	DB	0acH
	DB	0acH
	DB	0acH
	DB	0ffH
	DB	0acH
	DB	0acH
	DB	0acH
	DB	0ffH
	DB	0acH
	DB	0acH
	DB	0acH
	DB	0ffH
	DB	0acH
	DB	0acH
	DB	0acH
	DB	0ffH
	DB	0acH
	DB	0acH
	DB	0acH
	DB	0ffH
	DB	0acH
	DB	0acH
	DB	0acH
	DB	0ffH
	DB	0acH
	DB	0acH
	DB	0acH
	DB	0ffH
	DB	0acH
	DB	0acH
	DB	0acH
	DB	0ffH
	DB	0acH
	DB	0acH
	DB	0acH
	DB	0ffH
	DB	0acH
	DB	0acH
	DB	0acH
	DB	0ffH
	DB	0acH
	DB	0acH
	DB	0acH
	DB	0ffH
	DB	0acH
	DB	0acH
	DB	0acH
	DB	0ffH
	DB	0acH
	DB	0acH
	DB	0acH
	DB	0ffH
	DB	0acH
	DB	0acH
	DB	0acH
	DB	0ffH
	DB	0acH
	DB	0acH
	DB	0acH
	DB	0ffH
	DB	0acH
	DB	0acH
	DB	0acH
	DB	0ffH
	DB	0acH
	DB	0acH
	DB	0acH
	DB	0ffH
	DB	0acH
	DB	0acH
	DB	0acH
	DB	0ffH
	DB	0acH
	DB	0acH
	DB	0acH
	DB	0ffH
	DB	0acH
	DB	0acH
	DB	0acH
	DB	0ffH
	DB	0acH
	DB	0acH
	DB	0acH
	DB	0ffH
	DB	0acH
	DB	0acH
	DB	0acH
	DB	0ffH
	DB	0acH
	DB	0acH
	DB	0acH
	DB	0ffH
	DB	0acH
	DB	0acH
	DB	0acH
	DB	0ffH
	DB	0acH
	DB	0acH
	DB	0acH
	DB	0ffH
	DB	0acH
	DB	0acH
	DB	0acH
	DB	0ffH
	DB	0acH
	DB	0acH
	DB	0acH
	DB	0ffH
	DB	0acH
	DB	0acH
	DB	0acH
	DB	0ffH
	DB	0acH
	DB	0acH
	DB	0acH
	DB	0ffH
	DB	0acH
	DB	0acH
	DB	0acH
	DB	0ffH
	DB	0acH
	DB	0acH
	DB	0acH
	DB	0ffH
	DB	0acH
	DB	0acH
	DB	0acH
	DB	0ffH
	DB	0acH
	DB	0acH
	DB	0acH
	DB	0ffH
	DB	0acH
	DB	0acH
	DB	0acH
	DB	0ffH
	DB	0acH
	DB	0acH
	DB	0acH
	DB	0ffH
	DB	0acH
	DB	0acH
	DB	0acH
	DB	0ffH
	DB	0acH
	DB	0acH
	DB	0acH
	DB	0ffH
	DB	0acH
	DB	0acH
	DB	0acH
	DB	0ffH
	DB	0acH
	DB	0acH
	DB	0acH
	DB	0ffH
	DB	0acH
	DB	0acH
	DB	0acH
	DB	0ffH
	DB	0acH
	DB	0acH
	DB	0acH
	DB	0ffH
	DB	0acH
	DB	0acH
	DB	0acH
	DB	0ffH
	DB	0acH
	DB	0acH
	DB	0acH
	DB	0ffH
	DB	0acH
	DB	0acH
	DB	0acH
	DB	0ffH
	DB	0acH
	DB	0acH
	DB	0acH
	DB	0ffH
	DB	0acH
	DB	0acH
	DB	0acH
	DB	0ffH
	DB	0acH
	DB	0acH
	DB	0acH
	DB	0ffH
	DB	0acH
	DB	0acH
	DB	0acH
	DB	0ffH
	DB	0acH
	DB	0acH
	DB	0acH
	DB	0ffH
	DB	0acH
	DB	0acH
	DB	0acH
	DB	0ffH
	DB	0acH
	DB	0acH
	DB	0acH
	DB	0ffH
	DB	0acH
	DB	0acH
	DB	0acH
	DB	0ffH
	DB	0acH
	DB	0acH
	DB	0acH
	DB	0ffH
	DB	0acH
	DB	0acH
	DB	0acH
	DB	0ffH
	DB	0acH
	DB	0acH
	DB	0acH
	DB	0ffH
	DB	0acH
	DB	0acH
	DB	0acH
	DB	0ffH
	DB	0acH
	DB	0acH
	DB	0acH
	DB	0ffH
	DB	0acH
	DB	0acH
	DB	0acH
	DB	0ffH
	DB	0acH
	DB	0acH
	DB	0acH
	DB	0ffH
	DB	0acH
	DB	0acH
	DB	0acH
	DB	0ffH
	DB	0acH
	DB	0acH
	DB	0acH
	DB	0ffH
	DB	0acH
	DB	0acH
	DB	0acH
	DB	0ffH
	DB	0acH
	DB	0acH
	DB	0acH
	DB	0ffH
	DB	0acH
	DB	0acH
	DB	0acH
	DB	0ffH
	DB	0acH
	DB	0acH
	DB	0acH
	DB	0ffH
	DB	0acH
	DB	0acH
	DB	0acH
	DB	0ffH
	DB	0acH
	DB	0acH
	DB	0acH
	DB	0ffH
	DB	0acH
	DB	0acH
	DB	0acH
	DB	0ffH
	DB	0acH
	DB	0acH
	DB	0acH
	DB	0ffH
	DB	0acH
	DB	0acH
	DB	0acH
	DB	0ffH
	DB	0acH
	DB	0acH
	DB	0acH
	DB	0ffH
	DB	0acH
	DB	0acH
	DB	0acH
	DB	0ffH
	DB	0acH
	DB	0acH
	DB	0acH
	DB	0ffH
	DB	0acH
	DB	0acH
	DB	0acH
	DB	0ffH
	DB	0acH
	DB	0acH
	DB	0acH
	DB	0ffH
	DB	0acH
	DB	0acH
	DB	0acH
	DB	0ffH
	DB	0acH
	DB	0acH
	DB	0acH
	DB	0ffH
	DB	0acH
	DB	0acH
	DB	0acH
	DB	0ffH
	DB	0acH
	DB	0acH
	DB	0acH
	DB	0ffH
	DB	0acH
	DB	0acH
	DB	0acH
	DB	0ffH
	DB	0acH
	DB	0acH
	DB	0acH
	DB	0ffH
	DB	0acH
	DB	0acH
	DB	0acH
	DB	0ffH
	DB	0acH
	DB	0acH
	DB	0acH
	DB	0ffH
	DB	0acH
	DB	0acH
	DB	0acH
	DB	0ffH
	DB	0acH
	DB	0acH
	DB	0acH
	DB	0ffH
	DB	0acH
	DB	0acH
	DB	0acH
	DB	0ffH
	DB	0acH
	DB	0acH
	DB	0acH
	DB	0ffH
	DB	0acH
	DB	0acH
	DB	0acH
	DB	0ffH
	DB	0acH
	DB	0acH
	DB	0acH
	DB	0ffH
	DB	0acH
	DB	0acH
	DB	0acH
	DB	0ffH
	DB	0acH
	DB	0acH
	DB	0acH
	DB	0ffH
	DB	0acH
	DB	0acH
	DB	0acH
	DB	0ffH
	DB	0acH
	DB	0acH
	DB	0acH
	DB	0ffH
	DB	0acH
	DB	0acH
	DB	0acH
	DB	0ffH
	DB	0acH
	DB	0acH
	DB	0acH
	DB	0ffH
	DB	0acH
	DB	0acH
	DB	0acH
	DB	0ffH
	DB	0acH
	DB	0acH
	DB	0acH
	DB	0ffH
	DB	0acH
	DB	0acH
	DB	0acH
	DB	0ffH
	DB	0acH
	DB	0acH
	DB	0acH
	DB	0ffH
	DB	0acH
	DB	0acH
	DB	0acH
	DB	0ffH
	DB	0acH
	DB	0acH
	DB	0acH
	DB	0ffH
	DB	0acH
	DB	0acH
	DB	0acH
	DB	0ffH
	DB	0acH
	DB	0acH
	DB	0acH
	DB	0ffH
	DB	0acH
	DB	0acH
	DB	0acH
	DB	0ffH
	DB	0acH
	DB	0acH
	DB	0acH
	DB	0ffH
	DB	0acH
	DB	0acH
	DB	0acH
	DB	0ffH
	DB	0acH
	DB	0acH
	DB	0acH
	DB	0ffH
	DB	0acH
	DB	0acH
	DB	0acH
	DB	0ffH
	DB	0acH
	DB	0acH
	DB	0acH
	DB	0ffH
	DB	0acH
	DB	0acH
	DB	0acH
	DB	0ffH
	DB	0acH
	DB	0acH
	DB	0acH
	DB	0ffH
	DB	0acH
	DB	0acH
	DB	0acH
	DB	0ffH
	DB	0acH
	DB	0acH
	DB	0acH
	DB	0ffH
	DB	0acH
	DB	0acH
	DB	0acH
	DB	0ffH
	DB	0acH
	DB	0acH
	DB	0acH
	DB	0ffH
	DB	0acH
	DB	0acH
	DB	0acH
	DB	0ffH
	DB	0acH
	DB	0acH
	DB	0acH
	DB	0ffH
	DB	0acH
	DB	0acH
	DB	0acH
	DB	0ffH
	DB	0acH
	DB	0acH
	DB	0acH
	DB	0ffH
	DB	0acH
	DB	0acH
	DB	0acH
	DB	0ffH
	DB	0acH
	DB	0acH
	DB	0acH
	DB	0ffH
	DB	0acH
	DB	0acH
	DB	0acH
	DB	0ffH
	DB	0acH
	DB	0acH
	DB	0acH
	DB	0ffH
	DB	0acH
	DB	0acH
	DB	0acH
	DB	0ffH
	DB	0acH
	DB	0acH
	DB	0acH
	DB	0ffH
	DB	0acH
	DB	0acH
	DB	0acH
	DB	0ffH
	DB	0acH
	DB	0acH
	DB	0acH
	DB	0ffH
	DB	0acH
	DB	0acH
	DB	0acH
	DB	0ffH
	DB	0acH
	DB	0acH
	DB	0acH
	DB	0ffH
	DB	0acH
	DB	0acH
	DB	0acH
	DB	0ffH
	DB	0acH
	DB	0acH
	DB	0acH
	DB	0ffH
	DB	0acH
	DB	0acH
	DB	0acH
	DB	0ffH
	DB	0acH
	DB	0acH
	DB	0acH
	DB	0ffH
	DB	0acH
	DB	0acH
	DB	0acH
	DB	0ffH
	DB	0acH
	DB	0acH
	DB	0acH
	DB	0ffH
	DB	0acH
	DB	0acH
	DB	0acH
	DB	0ffH
	DB	0acH
	DB	0acH
	DB	0acH
	DB	0ffH
	DB	0acH
	DB	0acH
	DB	0acH
	DB	0ffH
	DB	0acH
	DB	0acH
	DB	0acH
	DB	0ffH
	DB	0acH
	DB	0acH
	DB	0acH
	DB	0ffH
	DB	0acH
	DB	0acH
	DB	0acH
	DB	0ffH
	DB	0acH
	DB	0acH
	DB	0acH
	DB	0ffH
	DB	0acH
	DB	0acH
	DB	0acH
	DB	0ffH
	DB	0acH
	DB	0acH
	DB	0acH
	DB	0ffH
	DB	0acH
	DB	0acH
	DB	0acH
	DB	0ffH
	DB	0acH
	DB	0acH
	DB	0acH
	DB	0ffH
	DB	0acH
	DB	0acH
	DB	0acH
	DB	0ffH
	DB	0acH
	DB	0acH
	DB	0acH
	DB	0ffH
	DB	0acH
	DB	0acH
	DB	0acH
	DB	0ffH
	DB	0acH
	DB	0acH
	DB	0acH
	DB	0ffH
	DB	0acH
	DB	0acH
	DB	0acH
	DB	0ffH
	DB	0acH
	DB	0acH
	DB	0acH
	DB	0ffH
	DB	0acH
	DB	0acH
	DB	0acH
	DB	0ffH
	DB	0acH
	DB	0acH
	DB	0acH
	DB	0ffH
	DB	0acH
	DB	0acH
	DB	0acH
	DB	0ffH
	DB	0acH
	DB	0acH
	DB	0acH
	DB	0ffH
	DB	0acH
	DB	0acH
	DB	0acH
	DB	0ffH
	DB	0acH
	DB	0acH
	DB	0acH
	DB	0ffH
	DB	0acH
	DB	0acH
	DB	0acH
	DB	0ffH
	DB	0acH
	DB	0acH
	DB	0acH
	DB	0ffH
	DB	0acH
	DB	0acH
	DB	0acH
	DB	0ffH
	DB	0acH
	DB	0acH
	DB	0acH
	DB	0ffH
	DB	0acH
	DB	0acH
	DB	0acH
	DB	0ffH
	DB	0acH
	DB	0acH
	DB	0acH
	DB	0ffH
	DB	0acH
	DB	0acH
	DB	0acH
	DB	0ffH
	DB	0acH
	DB	0acH
	DB	0acH
	DB	0ffH
	DB	0acH
	DB	0acH
	DB	0acH
	DB	0ffH
	DB	0acH
	DB	0acH
	DB	0acH
	DB	0ffH
	DB	0acH
	DB	0acH
	DB	0acH
	DB	0ffH
	DB	0acH
	DB	0acH
	DB	0acH
	DB	0ffH
	DB	0acH
	DB	0acH
	DB	0acH
	DB	0ffH
	DB	0acH
	DB	0acH
	DB	0acH
	DB	0ffH
	DB	0acH
	DB	0acH
	DB	0acH
	DB	0ffH
	DB	0acH
	DB	0acH
	DB	0acH
	DB	0ffH
	DB	0acH
	DB	0acH
	DB	0acH
	DB	0ffH
	DB	0acH
	DB	0acH
	DB	0acH
	DB	0ffH
	DB	0acH
	DB	0acH
	DB	0acH
	DB	0ffH
	DB	0acH
	DB	0acH
	DB	0acH
	DB	0ffH
	DB	0acH
	DB	0acH
	DB	0acH
	DB	0ffH
	DB	0acH
	DB	0acH
	DB	0acH
	DB	0ffH
	DB	0acH
	DB	0acH
	DB	0acH
	DB	0ffH
	DB	0acH
	DB	0acH
	DB	0acH
	DB	0ffH
	DB	0acH
	DB	0acH
	DB	0acH
	DB	0ffH
	DB	0acH
	DB	0acH
	DB	0acH
	DB	0ffH
	DB	0acH
	DB	0acH
	DB	0acH
	DB	0ffH
	DB	0acH
	DB	0acH
	DB	0acH
	DB	0ffH
	DB	0acH
	DB	0acH
	DB	0acH
	DB	0ffH
	DB	0acH
	DB	0acH
	DB	0acH
	DB	0ffH
	DB	0acH
	DB	0acH
	DB	0acH
	DB	0ffH
	DB	0acH
	DB	0acH
	DB	0acH
	DB	0ffH
	DB	0acH
	DB	0acH
	DB	0acH
	DB	0ffH
	DB	0acH
	DB	0acH
	DB	0acH
	DB	0ffH
	DB	0acH
	DB	0acH
	DB	0acH
	DB	0ffH
	DB	0acH
	DB	0acH
	DB	0acH
	DB	0ffH
	DB	0acH
	DB	0acH
	DB	0acH
	DB	0ffH
	DB	0acH
	DB	0acH
	DB	0acH
	DB	0ffH
	DB	0acH
	DB	0acH
	DB	0acH
	DB	0ffH
	DB	0acH
	DB	0acH
	DB	0acH
	DB	0ffH
	DB	0acH
	DB	0acH
	DB	0acH
	DB	0ffH
	DB	0acH
	DB	0acH
	DB	0acH
	DB	0ffH
	DB	0acH
	DB	0acH
	DB	0acH
	DB	0ffH
	DB	0acH
	DB	0acH
	DB	0acH
	DB	0ffH
	DB	0acH
	DB	0acH
	DB	0acH
	DB	0ffH
	DB	0acH
	DB	0acH
	DB	0acH
	DB	0ffH
	DB	0acH
	DB	0acH
	DB	0acH
	DB	0ffH
	DB	0acH
	DB	0acH
	DB	0acH
	DB	0ffH
	DB	0acH
	DB	0acH
	DB	0acH
	DB	0ffH
	DB	0acH
	DB	0acH
	DB	0acH
	DB	0ffH
	DB	0acH
	DB	0acH
	DB	0acH
	DB	0ffH
	DB	0acH
	DB	0acH
	DB	0acH
	DB	0ffH
	DB	0acH
	DB	0acH
	DB	0acH
	DB	0ffH
	DB	0acH
	DB	0acH
	DB	0acH
	DB	0ffH
	DB	0acH
	DB	0acH
	DB	0acH
	DB	0ffH
	DB	0acH
	DB	0acH
	DB	0acH
	DB	0ffH
	DB	0acH
	DB	0acH
	DB	0acH
	DB	0ffH
	DB	0acH
	DB	0acH
	DB	0acH
	DB	0ffH
	DB	0acH
	DB	0acH
	DB	0acH
	DB	0ffH
	DB	0acH
	DB	0acH
	DB	0acH
	DB	0ffH
	DB	0acH
	DB	0acH
	DB	0acH
	DB	0ffH
	DB	0acH
	DB	0acH
	DB	0acH
	DB	0ffH
	DB	0acH
	DB	0acH
	DB	0acH
	DB	0ffH
	DB	0acH
	DB	0acH
	DB	0acH
	DB	0ffH
	DB	0acH
	DB	0acH
	DB	0acH
	DB	0ffH
	DB	0acH
	DB	0acH
	DB	0acH
	DB	0ffH
	DB	0acH
	DB	0acH
	DB	0acH
	DB	0ffH
	DB	0acH
	DB	0acH
	DB	0acH
	DB	0ffH
	DB	0acH
	DB	0acH
	DB	0acH
	DB	0ffH
	DB	0acH
	DB	0acH
	DB	0acH
	DB	0ffH
	DB	0acH
	DB	0acH
	DB	0acH
	DB	0ffH
	DB	0acH
	DB	0acH
	DB	0acH
	DB	0ffH
	DB	0acH
	DB	0acH
	DB	0acH
	DB	0ffH
	DB	0acH
	DB	0acH
	DB	0acH
	DB	0ffH
	DB	0acH
	DB	0acH
	DB	0acH
	DB	0ffH
	DB	0acH
	DB	0acH
	DB	0acH
	DB	0ffH
	DB	0acH
	DB	0acH
	DB	0acH
	DB	0ffH
	DB	0acH
	DB	0acH
	DB	0acH
	DB	0ffH
	DB	0acH
	DB	0acH
	DB	0acH
	DB	0ffH
	DB	0acH
	DB	0acH
	DB	0acH
	DB	0ffH
	DB	0acH
	DB	0acH
	DB	0acH
	DB	0ffH
	DB	0acH
	DB	0acH
	DB	0acH
	DB	0ffH
	DB	0acH
	DB	0acH
	DB	0acH
	DB	0ffH
	DB	0acH
	DB	0acH
	DB	0acH
	DB	0ffH
	DB	0acH
	DB	0acH
	DB	0acH
	DB	0ffH
	DB	0acH
	DB	0acH
	DB	0acH
	DB	0ffH
	DB	0acH
	DB	0acH
	DB	0acH
	DB	0ffH
	DB	0acH
	DB	0acH
	DB	0acH
	DB	0ffH
	DB	0acH
	DB	0acH
	DB	0acH
	DB	0ffH
	DB	0acH
	DB	0acH
	DB	0acH
	DB	0ffH
	DB	0acH
	DB	0acH
	DB	0acH
	DB	0ffH
	DB	0acH
	DB	0acH
	DB	0acH
	DB	0ffH
	DB	0acH
	DB	0acH
	DB	0acH
	DB	0ffH
	DB	0acH
	DB	0acH
	DB	0acH
	DB	0ffH
	DB	0acH
	DB	0acH
	DB	0acH
	DB	0ffH
	DB	0acH
	DB	0acH
	DB	0acH
	DB	0ffH
	DB	0acH
	DB	0acH
	DB	0acH
	DB	0ffH
	DB	0acH
	DB	0acH
	DB	0acH
	DB	0ffH
	DB	0acH
	DB	0acH
	DB	0acH
	DB	0ffH
	DB	0acH
	DB	0acH
	DB	0acH
	DB	0ffH
	DB	0acH
	DB	0acH
	DB	0acH
	DB	0ffH
	DB	0acH
	DB	0acH
	DB	0acH
	DB	0ffH
	DB	0acH
	DB	0acH
	DB	0acH
	DB	0ffH
	DB	0acH
	DB	0acH
	DB	0acH
	DB	0ffH
	DB	0acH
	DB	0acH
	DB	0acH
	DB	0ffH
	DB	0acH
	DB	0acH
	DB	0acH
	DB	0ffH
	DB	0acH
	DB	0acH
	DB	0acH
	DB	0ffH
	DB	0acH
	DB	0acH
	DB	0acH
	DB	0ffH
	DB	0acH
	DB	0acH
	DB	0acH
	DB	0ffH
	DB	0acH
	DB	0acH
	DB	0acH
	DB	0ffH
	DB	0acH
	DB	0acH
	DB	0acH
	DB	0ffH
	DB	0acH
	DB	0acH
	DB	0acH
	DB	0ffH
	DB	0acH
	DB	0acH
	DB	0acH
	DB	0ffH
	DB	0acH
	DB	0acH
	DB	0acH
	DB	0ffH
	DB	0acH
	DB	0acH
	DB	0acH
	DB	0ffH
	DB	0acH
	DB	0acH
	DB	0acH
	DB	0ffH
	DB	0acH
	DB	0acH
	DB	0acH
	DB	0ffH
	DB	0acH
	DB	0acH
	DB	0acH
	DB	0ffH
	DB	0acH
	DB	0acH
	DB	0acH
	DB	0ffH
	DB	0acH
	DB	0acH
	DB	0acH
	DB	0ffH
	DB	0acH
	DB	0acH
	DB	0acH
	DB	0ffH
	DB	0acH
	DB	0acH
	DB	0acH
	DB	0ffH
	DB	0acH
	DB	0acH
	DB	0acH
	DB	0ffH
	DB	0acH
	DB	0acH
	DB	0acH
	DB	0ffH
	DB	0acH
	DB	0acH
	DB	0acH
	DB	0ffH
	DB	0acH
	DB	0acH
	DB	0acH
	DB	0ffH
	DB	0acH
	DB	0acH
	DB	0acH
	DB	0ffH
	DB	0acH
	DB	0acH
	DB	0acH
	DB	0ffH
	DB	0acH
	DB	0acH
	DB	0acH
	DB	0ffH
	DB	0acH
	DB	0acH
	DB	0acH
	DB	0ffH
	DB	0acH
	DB	0acH
	DB	0acH
	DB	0ffH
	DB	0acH
	DB	0acH
	DB	0acH
	DB	0ffH
	DB	0acH
	DB	0acH
	DB	0acH
	DB	0ffH
	DB	0acH
	DB	0acH
	DB	0acH
	DB	0ffH
	DB	0acH
	DB	0acH
	DB	0acH
	DB	0ffH
	DB	0acH
	DB	0acH
	DB	0acH
	DB	0ffH
	DB	0acH
	DB	0acH
	DB	0acH
	DB	0ffH
	DB	0acH
	DB	0acH
	DB	0acH
	DB	0ffH
	DB	0acH
	DB	0acH
	DB	0acH
	DB	0ffH
	DB	0acH
	DB	0acH
	DB	0acH
	DB	0ffH
	DB	0acH
	DB	0acH
	DB	0acH
	DB	0ffH
	DB	0acH
	DB	0acH
	DB	0acH
	DB	0ffH
	DB	0acH
	DB	0acH
	DB	0acH
	DB	0ffH
	DB	0acH
	DB	0acH
	DB	0acH
	DB	0ffH
	DB	0acH
	DB	0acH
	DB	0acH
	DB	0ffH
	DB	0acH
	DB	0acH
	DB	0acH
	DB	0ffH
	DB	0acH
	DB	0acH
	DB	0acH
	DB	0ffH
	DB	0acH
	DB	0acH
	DB	0acH
	DB	0ffH
	DB	0acH
	DB	0acH
	DB	0acH
	DB	0ffH
	DB	0acH
	DB	0acH
	DB	0acH
	DB	0ffH
	DB	0acH
	DB	0acH
	DB	0acH
	DB	0ffH
	DB	0acH
	DB	0acH
	DB	0acH
	DB	0ffH
	DB	0acH
	DB	0acH
	DB	0acH
	DB	0ffH
	DB	0acH
	DB	0acH
	DB	0acH
	DB	0ffH
	DB	0acH
	DB	0acH
	DB	0acH
	DB	0ffH
	DB	0acH
	DB	0acH
	DB	0acH
	DB	0ffH
	DB	0acH
	DB	0acH
	DB	0acH
	DB	0ffH
	DB	0acH
	DB	0acH
	DB	0acH
	DB	0ffH
	DB	0acH
	DB	0acH
	DB	0acH
	DB	0ffH
	DB	0acH
	DB	0acH
	DB	0acH
	DB	0ffH
	DB	0acH
	DB	0acH
	DB	0acH
	DB	0ffH
	DB	0acH
	DB	0acH
	DB	0acH
	DB	0ffH
	DB	0acH
	DB	0acH
	DB	0acH
	DB	0ffH
	DB	0acH
	DB	0acH
	DB	0acH
	DB	0ffH
	DB	0acH
	DB	0acH
	DB	0acH
	DB	0ffH
	DB	0acH
	DB	0acH
	DB	0acH
	DB	0ffH
	DB	0acH
	DB	0acH
	DB	0acH
	DB	0ffH
	DB	0acH
	DB	0acH
	DB	0acH
	DB	0ffH
	DB	0acH
	DB	0acH
	DB	0acH
	DB	0ffH
	DB	0acH
	DB	0acH
	DB	0acH
	DB	0ffH
	DB	0acH
	DB	0acH
	DB	0acH
	DB	0ffH
	DB	0acH
	DB	0acH
	DB	0acH
	DB	0ffH
	DB	0acH
	DB	0acH
	DB	0acH
	DB	0ffH
	DB	0acH
	DB	0acH
	DB	0acH
	DB	0ffH
	DB	0acH
	DB	0acH
	DB	0acH
	DB	0ffH
	DB	0acH
	DB	0acH
	DB	0acH
	DB	0ffH
	DB	0acH
	DB	0acH
	DB	0acH
	DB	0ffH
	DB	0acH
	DB	0acH
	DB	0acH
	DB	0ffH
	DB	0acH
	DB	0acH
	DB	0acH
	DB	0ffH
	DB	0acH
	DB	0acH
	DB	0acH
	DB	0ffH
	DB	0acH
	DB	0acH
	DB	0acH
	DB	0ffH
	DB	0acH
	DB	0acH
	DB	0acH
	DB	0ffH
	DB	0acH
	DB	0acH
	DB	0acH
	DB	0ffH
	DB	0acH
	DB	0acH
	DB	0acH
	DB	0ffH
	DB	0acH
	DB	0acH
	DB	0acH
	DB	0ffH
	DB	0acH
	DB	0acH
	DB	0acH
	DB	0ffH
	DB	0acH
	DB	0acH
	DB	0acH
	DB	0ffH
	DB	0acH
	DB	0acH
	DB	0acH
	DB	0ffH
	DB	0acH
	DB	0acH
	DB	0acH
	DB	0ffH
	DB	0acH
	DB	0acH
	DB	0acH
	DB	0ffH
	DB	0acH
	DB	0acH
	DB	0acH
	DB	0ffH
	DB	0acH
	DB	0acH
	DB	0acH
	DB	0ffH
	DB	0acH
	DB	0acH
	DB	0acH
	DB	0ffH
	DB	0acH
	DB	0acH
	DB	0acH
	DB	0ffH
	DB	0acH
	DB	0acH
	DB	0acH
	DB	0ffH
	DB	0acH
	DB	0acH
	DB	0acH
	DB	0ffH
	DB	0acH
	DB	0acH
	DB	0acH
	DB	0ffH
	DB	0acH
	DB	0acH
	DB	0acH
	DB	0ffH
	DB	0acH
	DB	0acH
	DB	0acH
	DB	0ffH
	DB	0acH
	DB	0acH
	DB	0acH
	DB	0ffH
	DB	0acH
	DB	0acH
	DB	0acH
	DB	0ffH
	DB	0acH
	DB	0acH
	DB	0acH
	DB	0ffH
	DB	0acH
	DB	0acH
	DB	0acH
	DB	0ffH
	DB	0acH
	DB	0acH
	DB	0acH
	DB	0ffH
	DB	0acH
	DB	0acH
	DB	0acH
	DB	0ffH
	DB	0acH
	DB	0acH
	DB	0acH
	DB	0ffH
	DB	0acH
	DB	0acH
	DB	0acH
	DB	0ffH
	DB	0acH
	DB	0acH
	DB	0acH
	DB	0ffH
	DB	0acH
	DB	0acH
	DB	0acH
	DB	0ffH
	DB	0acH
	DB	0acH
	DB	0acH
	DB	0ffH
	DB	0acH
	DB	0acH
	DB	0acH
	DB	0ffH
	DB	0acH
	DB	0acH
	DB	0acH
	DB	0ffH
	DB	0acH
	DB	0acH
	DB	0acH
	DB	0ffH
	DB	0acH
	DB	0acH
	DB	0acH
	DB	0ffH
	DB	0acH
	DB	0acH
	DB	0acH
	DB	0ffH
	DB	0acH
	DB	0acH
	DB	0acH
	DB	0ffH
	DB	0acH
	DB	0acH
	DB	0acH
	DB	0ffH
	DB	0acH
	DB	0acH
	DB	0acH
	DB	0ffH
	DB	0acH
	DB	0acH
	DB	0acH
	DB	0ffH
	DB	0acH
	DB	0acH
	DB	0acH
	DB	0ffH
	DB	0acH
	DB	0acH
	DB	0acH
	DB	0ffH
	DB	0acH
	DB	0acH
	DB	0acH
	DB	0ffH
	DB	0acH
	DB	0acH
	DB	0acH
	DB	0ffH
	DB	0acH
	DB	0acH
	DB	0acH
	DB	0ffH
	DB	0acH
	DB	0acH
	DB	0acH
	DB	0ffH
	DB	0acH
	DB	0acH
	DB	0acH
	DB	0ffH
	DB	0acH
	DB	0acH
	DB	0acH
	DB	0ffH
	DB	0acH
	DB	0acH
	DB	0acH
	DB	0ffH
	DB	0acH
	DB	0acH
	DB	0acH
	DB	0ffH
	DB	0acH
	DB	0acH
	DB	0acH
	DB	0ffH
	DB	0acH
	DB	0acH
	DB	0acH
	DB	0ffH
	DB	0acH
	DB	0acH
	DB	0acH
	DB	0ffH
	DB	0acH
	DB	0acH
	DB	0acH
	DB	0ffH
	DB	0acH
	DB	0acH
	DB	0acH
	DB	0ffH
	DB	0acH
	DB	0acH
	DB	0acH
	DB	0ffH
	DB	0acH
	DB	0acH
	DB	0acH
	DB	0ffH
	DB	0acH
	DB	0acH
	DB	0acH
	DB	0ffH
	DB	0acH
	DB	0acH
	DB	0acH
	DB	0ffH
	DB	0acH
	DB	0acH
	DB	0acH
	DB	0ffH
	DB	0acH
	DB	0acH
	DB	0acH
	DB	0ffH
	DB	0acH
	DB	0acH
	DB	0acH
	DB	0ffH
	DB	0acH
	DB	0acH
	DB	0acH
	DB	0ffH
	DB	0acH
	DB	0acH
	DB	0acH
	DB	0ffH
	DB	0acH
	DB	0acH
	DB	0acH
	DB	0ffH
	DB	0acH
	DB	0acH
	DB	0acH
	DB	0ffH
	DB	0acH
	DB	0acH
	DB	0acH
	DB	0ffH
	DB	0acH
	DB	0acH
	DB	0acH
	DB	0ffH
	DB	0acH
	DB	0acH
	DB	0acH
	DB	0ffH
	DB	0acH
	DB	0acH
	DB	0acH
	DB	0ffH
	DB	0acH
	DB	0acH
	DB	0acH
	DB	0ffH
	DB	0acH
	DB	0acH
	DB	0acH
	DB	0ffH
	DB	0acH
	DB	0acH
	DB	0acH
	DB	0ffH
	DB	0acH
	DB	0acH
	DB	0acH
	DB	0ffH
	DB	0acH
	DB	0acH
	DB	0acH
	DB	0ffH
	DB	0acH
	DB	0acH
	DB	0acH
	DB	0ffH
	DB	0acH
	DB	0acH
	DB	0acH
	DB	0ffH
	DB	0acH
	DB	0acH
	DB	0acH
	DB	0ffH
	DB	0acH
	DB	0acH
	DB	0acH
	DB	0ffH
	DB	0acH
	DB	0acH
	DB	0acH
	DB	0ffH
	DB	0acH
	DB	0acH
	DB	0acH
	DB	0ffH
	DB	0acH
	DB	0acH
	DB	0acH
	DB	0ffH
	DB	0acH
	DB	0acH
	DB	0acH
	DB	0ffH
	DB	0acH
	DB	0acH
	DB	0acH
	DB	0ffH
	DB	0acH
	DB	0acH
	DB	0acH
	DB	0ffH
	DB	0acH
	DB	0acH
	DB	0acH
	DB	0ffH
	DB	0acH
	DB	0acH
	DB	0acH
	DB	0ffH
	DB	0acH
	DB	0acH
	DB	0acH
	DB	0ffH
	DB	0acH
	DB	0acH
	DB	0acH
	DB	0ffH
	DB	0acH
	DB	0acH
	DB	0acH
	DB	0ffH
	DB	0acH
	DB	0acH
	DB	0acH
	DB	0ffH
	DB	0acH
	DB	0acH
	DB	0acH
	DB	0ffH
	DB	0acH
	DB	0acH
	DB	0acH
	DB	0ffH
	DB	0acH
	DB	0acH
	DB	0acH
	DB	0ffH
	DB	0acH
	DB	0acH
	DB	0acH
	DB	0ffH
	DB	0acH
	DB	0acH
	DB	0acH
	DB	0ffH
	DB	0acH
	DB	0acH
	DB	0acH
	DB	0ffH
	DB	0acH
	DB	0acH
	DB	0acH
	DB	0ffH
	DB	0acH
	DB	0acH
	DB	0acH
	DB	0ffH
	DB	0acH
	DB	0acH
	DB	0acH
	DB	0ffH
	DB	0acH
	DB	0acH
	DB	0acH
	DB	0ffH
	DB	0acH
	DB	0acH
	DB	0acH
	DB	0ffH
	DB	0acH
	DB	0acH
	DB	0acH
	DB	0ffH
	DB	0acH
	DB	0acH
	DB	0acH
	DB	0ffH
	DB	0acH
	DB	0acH
	DB	0acH
	DB	0ffH
	DB	0acH
	DB	0acH
	DB	0acH
	DB	0ffH
	DB	0acH
	DB	0acH
	DB	0acH
	DB	0ffH
	DB	0acH
	DB	0acH
	DB	0acH
	DB	0ffH
	DB	0acH
	DB	0acH
	DB	0acH
	DB	0ffH
	DB	0acH
	DB	0acH
	DB	0acH
	DB	0ffH
	DB	0acH
	DB	0acH
	DB	0acH
	DB	0ffH
	DB	0acH
	DB	0acH
	DB	0acH
	DB	0ffH
	DB	0acH
	DB	0acH
	DB	0acH
	DB	0ffH
	DB	0acH
	DB	0acH
	DB	0acH
	DB	0ffH
	DB	0acH
	DB	0acH
	DB	0acH
	DB	0ffH
	DB	0acH
	DB	0acH
	DB	0acH
	DB	0ffH
	DB	0acH
	DB	0acH
	DB	0acH
	DB	0ffH
	DB	0acH
	DB	0acH
	DB	0acH
	DB	0ffH
	DB	0acH
	DB	0acH
	DB	0acH
	DB	0ffH
	DB	0acH
	DB	0acH
	DB	0acH
	DB	0ffH
	DB	0acH
	DB	0acH
	DB	0acH
	DB	0ffH
	DB	0acH
	DB	0acH
	DB	0acH
	DB	0ffH
	DB	0acH
	DB	0acH
	DB	0acH
	DB	0ffH
	DB	0acH
	DB	0acH
	DB	0acH
	DB	0ffH
	DB	0acH
	DB	0acH
	DB	0acH
	DB	0ffH
	DB	0acH
	DB	0acH
	DB	0acH
	DB	0ffH
	DB	0acH
	DB	0acH
	DB	0acH
	DB	0ffH
	DB	0acH
	DB	0acH
	DB	0acH
	DB	0ffH
	DB	0acH
	DB	0acH
	DB	0acH
	DB	0ffH
	DB	0acH
	DB	0acH
	DB	0acH
	DB	0ffH
	DB	0acH
	DB	0acH
	DB	0acH
	DB	0ffH
	DB	0acH
	DB	0acH
	DB	0acH
	DB	0ffH
	DB	0acH
	DB	0acH
	DB	0acH
	DB	0ffH
	DB	0acH
	DB	0acH
	DB	0acH
	DB	0ffH
	DB	0acH
	DB	0acH
	DB	0acH
	DB	0ffH
	DB	0acH
	DB	0acH
	DB	0acH
	DB	0ffH
	DB	0acH
	DB	0acH
	DB	0acH
	DB	0ffH
	DB	0acH
	DB	0acH
	DB	0acH
	DB	0ffH
	DB	0acH
	DB	0acH
	DB	0acH
	DB	0ffH
	DB	0acH
	DB	0acH
	DB	0acH
	DB	0ffH
	DB	0acH
	DB	0acH
	DB	0acH
	DB	0ffH
	DB	0acH
	DB	0acH
	DB	0acH
	DB	0ffH
	DB	0acH
	DB	0acH
	DB	0acH
	DB	0ffH
	DB	0acH
	DB	0acH
	DB	0acH
	DB	0ffH
	DB	0acH
	DB	0acH
	DB	0acH
	DB	0ffH
	DB	0acH
	DB	0acH
	DB	0acH
	DB	0ffH
	DB	0acH
	DB	0acH
	DB	0acH
	DB	0ffH
	DB	0acH
	DB	0acH
	DB	0acH
	DB	0ffH
	DB	0acH
	DB	0acH
	DB	0acH
	DB	0ffH
	DB	0acH
	DB	0acH
	DB	0acH
	DB	0ffH
	DB	0acH
	DB	0acH
	DB	0acH
	DB	0ffH
	DB	0acH
	DB	0acH
	DB	0acH
	DB	0ffH
	DB	0acH
	DB	0acH
	DB	0acH
	DB	0ffH
	DB	0acH
	DB	0acH
	DB	0acH
	DB	0ffH
	DB	0acH
	DB	0acH
	DB	0acH
	DB	0ffH
	DB	0acH
	DB	0acH
	DB	0acH
	DB	0ffH
	DB	0acH
	DB	0acH
	DB	0acH
	DB	0ffH
	DB	0acH
	DB	0acH
	DB	0acH
	DB	0ffH
	DB	0acH
	DB	0acH
	DB	0acH
	DB	0ffH
	DB	0acH
	DB	0acH
	DB	0acH
	DB	0ffH
	DB	0acH
	DB	0acH
	DB	0acH
	DB	0ffH
	DB	0acH
	DB	0acH
	DB	0acH
	DB	0ffH
	DB	0acH
	DB	0acH
	DB	0acH
	DB	0ffH
	DB	0acH
	DB	0acH
	DB	0acH
	DB	0ffH
	DB	0acH
	DB	0acH
	DB	0acH
	DB	0ffH
	DB	0acH
	DB	0acH
	DB	0acH
	DB	0ffH
	DB	0acH
	DB	0acH
	DB	0acH
	DB	0ffH
	DB	0acH
	DB	0acH
	DB	0acH
	DB	0ffH
	DB	0acH
	DB	0acH
	DB	0acH
	DB	0ffH
	DB	0acH
	DB	0acH
	DB	0acH
	DB	0ffH
	DB	0acH
	DB	0acH
	DB	0acH
	DB	0ffH
	DB	0acH
	DB	0acH
	DB	0acH
	DB	0ffH
	DB	0acH
	DB	0acH
	DB	0acH
	DB	0ffH
	DB	0acH
	DB	0acH
	DB	0acH
	DB	0ffH
	DB	0acH
	DB	0acH
	DB	0acH
	DB	0ffH
	DB	0acH
	DB	0acH
	DB	0acH
	DB	0ffH
	DB	0acH
	DB	0acH
	DB	0acH
	DB	0ffH
	DB	0acH
	DB	0acH
	DB	0acH
	DB	0ffH
	DB	0acH
	DB	0acH
	DB	0acH
	DB	0ffH
	DB	0acH
	DB	0acH
	DB	0acH
	DB	0ffH
	DB	0acH
	DB	0acH
	DB	0acH
	DB	0ffH
	DB	0acH
	DB	0acH
	DB	0acH
	DB	0ffH
	DB	0acH
	DB	0acH
	DB	0acH
	DB	0ffH
	DB	0acH
	DB	0acH
	DB	0acH
	DB	0f3H
	DB	00H
	DB	00H
	DB	00H
	DB	00H
	DB	00H
	DB	00H
	DB	00H
	DB	00H
	DB	0acH
	DB	0acH
	DB	0acH
	DB	0c7H
	DB	0acH
	DB	0acH
	DB	0acH
	DB	0ffH
	DB	0acH
	DB	0acH
	DB	0acH
	DB	0ffH
	DB	0acH
	DB	0acH
	DB	0acH
	DB	0ffH
	DB	0acH
	DB	0acH
	DB	0acH
	DB	0ffH
	DB	0acH
	DB	0acH
	DB	0acH
	DB	0ffH
	DB	0acH
	DB	0acH
	DB	0acH
	DB	0ffH
	DB	0acH
	DB	0acH
	DB	0acH
	DB	0ffH
	DB	0acH
	DB	0acH
	DB	0acH
	DB	0ffH
	DB	0acH
	DB	0acH
	DB	0acH
	DB	0ffH
	DB	0acH
	DB	0acH
	DB	0acH
	DB	0ffH
	DB	0acH
	DB	0acH
	DB	0acH
	DB	0ffH
	DB	0acH
	DB	0acH
	DB	0acH
	DB	0ffH
	DB	0acH
	DB	0acH
	DB	0acH
	DB	0ffH
	DB	0acH
	DB	0acH
	DB	0acH
	DB	0ffH
	DB	0acH
	DB	0acH
	DB	0acH
	DB	0ffH
	DB	0acH
	DB	0acH
	DB	0acH
	DB	0ffH
	DB	0acH
	DB	0acH
	DB	0acH
	DB	0ffH
	DB	0acH
	DB	0acH
	DB	0acH
	DB	0ffH
	DB	0acH
	DB	0acH
	DB	0acH
	DB	0ffH
	DB	0acH
	DB	0acH
	DB	0acH
	DB	0ffH
	DB	0acH
	DB	0acH
	DB	0acH
	DB	0ffH
	DB	0acH
	DB	0acH
	DB	0acH
	DB	0ffH
	DB	0acH
	DB	0acH
	DB	0acH
	DB	0ffH
	DB	0acH
	DB	0acH
	DB	0acH
	DB	0ffH
	DB	0acH
	DB	0acH
	DB	0acH
	DB	0ffH
	DB	0acH
	DB	0acH
	DB	0acH
	DB	0ffH
	DB	0acH
	DB	0acH
	DB	0acH
	DB	0ffH
	DB	0acH
	DB	0acH
	DB	0acH
	DB	0ffH
	DB	0acH
	DB	0acH
	DB	0acH
	DB	0ffH
	DB	0acH
	DB	0acH
	DB	0acH
	DB	0ffH
	DB	0acH
	DB	0acH
	DB	0acH
	DB	0ffH
	DB	0acH
	DB	0acH
	DB	0acH
	DB	0ffH
	DB	0acH
	DB	0acH
	DB	0acH
	DB	0ffH
	DB	0acH
	DB	0acH
	DB	0acH
	DB	0ffH
	DB	0acH
	DB	0acH
	DB	0acH
	DB	0ffH
	DB	0acH
	DB	0acH
	DB	0acH
	DB	0ffH
	DB	0acH
	DB	0acH
	DB	0acH
	DB	0ffH
	DB	0acH
	DB	0acH
	DB	0acH
	DB	0ffH
	DB	0acH
	DB	0acH
	DB	0acH
	DB	0ffH
	DB	0acH
	DB	0acH
	DB	0acH
	DB	0ffH
	DB	0acH
	DB	0acH
	DB	0acH
	DB	0ffH
	DB	0acH
	DB	0acH
	DB	0acH
	DB	0ffH
	DB	0acH
	DB	0acH
	DB	0acH
	DB	0ffH
	DB	0acH
	DB	0acH
	DB	0acH
	DB	0ffH
	DB	0acH
	DB	0acH
	DB	0acH
	DB	0ffH
	DB	0acH
	DB	0acH
	DB	0acH
	DB	0ffH
	DB	0acH
	DB	0acH
	DB	0acH
	DB	0ffH
	DB	0acH
	DB	0acH
	DB	0acH
	DB	0ffH
	DB	0acH
	DB	0acH
	DB	0acH
	DB	0ffH
	DB	0acH
	DB	0acH
	DB	0acH
	DB	0ffH
	DB	0acH
	DB	0acH
	DB	0acH
	DB	0ffH
	DB	0acH
	DB	0acH
	DB	0acH
	DB	0ffH
	DB	0acH
	DB	0acH
	DB	0acH
	DB	0ffH
	DB	0acH
	DB	0acH
	DB	0acH
	DB	0ffH
	DB	0acH
	DB	0acH
	DB	0acH
	DB	0ffH
	DB	0acH
	DB	0acH
	DB	0acH
	DB	0ffH
	DB	0acH
	DB	0acH
	DB	0acH
	DB	0ffH
	DB	0acH
	DB	0acH
	DB	0acH
	DB	0ffH
	DB	0acH
	DB	0acH
	DB	0acH
	DB	0ffH
	DB	0acH
	DB	0acH
	DB	0acH
	DB	0ffH
	DB	0acH
	DB	0acH
	DB	0acH
	DB	0ffH
	DB	0acH
	DB	0acH
	DB	0acH
	DB	0ffH
	DB	0acH
	DB	0acH
	DB	0acH
	DB	0ffH
	DB	0acH
	DB	0acH
	DB	0acH
	DB	0ffH
	DB	0acH
	DB	0acH
	DB	0acH
	DB	0ffH
	DB	0acH
	DB	0acH
	DB	0acH
	DB	0ffH
	DB	0acH
	DB	0acH
	DB	0acH
	DB	0ffH
	DB	0acH
	DB	0acH
	DB	0acH
	DB	0ffH
	DB	0acH
	DB	0acH
	DB	0acH
	DB	0ffH
	DB	0acH
	DB	0acH
	DB	0acH
	DB	0ffH
	DB	0acH
	DB	0acH
	DB	0acH
	DB	0ffH
	DB	0acH
	DB	0acH
	DB	0acH
	DB	0ffH
	DB	0acH
	DB	0acH
	DB	0acH
	DB	0ffH
	DB	0acH
	DB	0acH
	DB	0acH
	DB	0ffH
	DB	0acH
	DB	0acH
	DB	0acH
	DB	0ffH
	DB	0acH
	DB	0acH
	DB	0acH
	DB	0ffH
	DB	0acH
	DB	0acH
	DB	0acH
	DB	0ffH
	DB	0acH
	DB	0acH
	DB	0acH
	DB	0ffH
	DB	0acH
	DB	0acH
	DB	0acH
	DB	0ffH
	DB	0acH
	DB	0acH
	DB	0acH
	DB	0ffH
	DB	0acH
	DB	0acH
	DB	0acH
	DB	0ffH
	DB	0acH
	DB	0acH
	DB	0acH
	DB	0ffH
	DB	0acH
	DB	0acH
	DB	0acH
	DB	0ffH
	DB	0acH
	DB	0acH
	DB	0acH
	DB	0ffH
	DB	0acH
	DB	0acH
	DB	0acH
	DB	0ffH
	DB	0acH
	DB	0acH
	DB	0acH
	DB	0ffH
	DB	0acH
	DB	0acH
	DB	0acH
	DB	0ffH
	DB	0acH
	DB	0acH
	DB	0acH
	DB	0ffH
	DB	0acH
	DB	0acH
	DB	0acH
	DB	0ffH
	DB	0acH
	DB	0acH
	DB	0acH
	DB	0ffH
	DB	0acH
	DB	0acH
	DB	0acH
	DB	0ffH
	DB	0acH
	DB	0acH
	DB	0acH
	DB	0ffH
	DB	0acH
	DB	0acH
	DB	0acH
	DB	0ffH
	DB	0acH
	DB	0acH
	DB	0acH
	DB	0ffH
	DB	0acH
	DB	0acH
	DB	0acH
	DB	0ffH
	DB	0acH
	DB	0acH
	DB	0acH
	DB	0ffH
	DB	0acH
	DB	0acH
	DB	0acH
	DB	0ffH
	DB	0acH
	DB	0acH
	DB	0acH
	DB	0ffH
	DB	0acH
	DB	0acH
	DB	0acH
	DB	0ffH
	DB	0acH
	DB	0acH
	DB	0acH
	DB	0ffH
	DB	0acH
	DB	0acH
	DB	0acH
	DB	0ffH
	DB	0acH
	DB	0acH
	DB	0acH
	DB	0ffH
	DB	0acH
	DB	0acH
	DB	0acH
	DB	0ffH
	DB	0acH
	DB	0acH
	DB	0acH
	DB	0ffH
	DB	0acH
	DB	0acH
	DB	0acH
	DB	0ffH
	DB	0acH
	DB	0acH
	DB	0acH
	DB	0ffH
	DB	0acH
	DB	0acH
	DB	0acH
	DB	0ffH
	DB	0acH
	DB	0acH
	DB	0acH
	DB	0ffH
	DB	0acH
	DB	0acH
	DB	0acH
	DB	0ffH
	DB	0acH
	DB	0acH
	DB	0acH
	DB	0ffH
	DB	0acH
	DB	0acH
	DB	0acH
	DB	0ffH
	DB	0acH
	DB	0acH
	DB	0acH
	DB	0ffH
	DB	0acH
	DB	0acH
	DB	0acH
	DB	0ffH
	DB	0acH
	DB	0acH
	DB	0acH
	DB	0ffH
	DB	0acH
	DB	0acH
	DB	0acH
	DB	0ffH
	DB	0acH
	DB	0acH
	DB	0acH
	DB	0ffH
	DB	0acH
	DB	0acH
	DB	0acH
	DB	0ffH
	DB	0acH
	DB	0acH
	DB	0acH
	DB	0ffH
	DB	0acH
	DB	0acH
	DB	0acH
	DB	0ffH
	DB	0acH
	DB	0acH
	DB	0acH
	DB	0ffH
	DB	0acH
	DB	0acH
	DB	0acH
	DB	0ffH
	DB	0acH
	DB	0acH
	DB	0acH
	DB	0ffH
	DB	0acH
	DB	0acH
	DB	0acH
	DB	0ffH
	DB	0acH
	DB	0acH
	DB	0acH
	DB	0ffH
	DB	0acH
	DB	0acH
	DB	0acH
	DB	0ffH
	DB	0acH
	DB	0acH
	DB	0acH
	DB	0ffH
	DB	0acH
	DB	0acH
	DB	0acH
	DB	0ffH
	DB	0acH
	DB	0acH
	DB	0acH
	DB	0ffH
	DB	0acH
	DB	0acH
	DB	0acH
	DB	0ffH
	DB	0acH
	DB	0acH
	DB	0acH
	DB	0ffH
	DB	0acH
	DB	0acH
	DB	0acH
	DB	0ffH
	DB	0acH
	DB	0acH
	DB	0acH
	DB	0ffH
	DB	0acH
	DB	0acH
	DB	0acH
	DB	0ffH
	DB	0acH
	DB	0acH
	DB	0acH
	DB	0ffH
	DB	0acH
	DB	0acH
	DB	0acH
	DB	0ffH
	DB	0acH
	DB	0acH
	DB	0acH
	DB	0ffH
	DB	0acH
	DB	0acH
	DB	0acH
	DB	0ffH
	DB	0acH
	DB	0acH
	DB	0acH
	DB	0ffH
	DB	0acH
	DB	0acH
	DB	0acH
	DB	0ffH
	DB	0acH
	DB	0acH
	DB	0acH
	DB	0ffH
	DB	0acH
	DB	0acH
	DB	0acH
	DB	0ffH
	DB	0acH
	DB	0acH
	DB	0acH
	DB	0ffH
	DB	0acH
	DB	0acH
	DB	0acH
	DB	0ffH
	DB	0acH
	DB	0acH
	DB	0acH
	DB	0ffH
	DB	0acH
	DB	0acH
	DB	0acH
	DB	0ffH
	DB	0acH
	DB	0acH
	DB	0acH
	DB	0ffH
	DB	0acH
	DB	0acH
	DB	0acH
	DB	0ffH
	DB	0acH
	DB	0acH
	DB	0acH
	DB	0ffH
	DB	0acH
	DB	0acH
	DB	0acH
	DB	0ffH
	DB	0acH
	DB	0acH
	DB	0acH
	DB	0ffH
	DB	0acH
	DB	0acH
	DB	0acH
	DB	0ffH
	DB	0acH
	DB	0acH
	DB	0acH
	DB	0ffH
	DB	0acH
	DB	0acH
	DB	0acH
	DB	0ffH
	DB	0acH
	DB	0acH
	DB	0acH
	DB	0ffH
	DB	0acH
	DB	0acH
	DB	0acH
	DB	0ffH
	DB	0acH
	DB	0acH
	DB	0acH
	DB	0ffH
	DB	0acH
	DB	0acH
	DB	0acH
	DB	0ffH
	DB	0acH
	DB	0acH
	DB	0acH
	DB	0ffH
	DB	0acH
	DB	0acH
	DB	0acH
	DB	0ffH
	DB	0acH
	DB	0acH
	DB	0acH
	DB	0ffH
	DB	0acH
	DB	0acH
	DB	0acH
	DB	0ffH
	DB	0acH
	DB	0acH
	DB	0acH
	DB	0ffH
	DB	0acH
	DB	0acH
	DB	0acH
	DB	0ffH
	DB	0acH
	DB	0acH
	DB	0acH
	DB	0ffH
	DB	0acH
	DB	0acH
	DB	0acH
	DB	0ffH
	DB	0acH
	DB	0acH
	DB	0acH
	DB	0ffH
	DB	0acH
	DB	0acH
	DB	0acH
	DB	0ffH
	DB	0acH
	DB	0acH
	DB	0acH
	DB	0ffH
	DB	0acH
	DB	0acH
	DB	0acH
	DB	0ffH
	DB	0acH
	DB	0acH
	DB	0acH
	DB	0ffH
	DB	0acH
	DB	0acH
	DB	0acH
	DB	0ffH
	DB	0acH
	DB	0acH
	DB	0acH
	DB	0ffH
	DB	0acH
	DB	0acH
	DB	0acH
	DB	0ffH
	DB	0acH
	DB	0acH
	DB	0acH
	DB	0ffH
	DB	0acH
	DB	0acH
	DB	0acH
	DB	0ffH
	DB	0acH
	DB	0acH
	DB	0acH
	DB	0ffH
	DB	0acH
	DB	0acH
	DB	0acH
	DB	0ffH
	DB	0acH
	DB	0acH
	DB	0acH
	DB	0ffH
	DB	0acH
	DB	0acH
	DB	0acH
	DB	0ffH
	DB	0acH
	DB	0acH
	DB	0acH
	DB	0ffH
	DB	0acH
	DB	0acH
	DB	0acH
	DB	0ffH
	DB	0acH
	DB	0acH
	DB	0acH
	DB	0ffH
	DB	0acH
	DB	0acH
	DB	0acH
	DB	0ffH
	DB	0acH
	DB	0acH
	DB	0acH
	DB	0ffH
	DB	0acH
	DB	0acH
	DB	0acH
	DB	0ffH
	DB	0acH
	DB	0acH
	DB	0acH
	DB	0ffH
	DB	0acH
	DB	0acH
	DB	0acH
	DB	0ffH
	DB	0acH
	DB	0acH
	DB	0acH
	DB	0ffH
	DB	0acH
	DB	0acH
	DB	0acH
	DB	0ffH
	DB	0acH
	DB	0acH
	DB	0acH
	DB	0ffH
	DB	0acH
	DB	0acH
	DB	0acH
	DB	0ffH
	DB	0acH
	DB	0acH
	DB	0acH
	DB	0ffH
	DB	0acH
	DB	0acH
	DB	0acH
	DB	0ffH
	DB	0acH
	DB	0acH
	DB	0acH
	DB	0ffH
	DB	0acH
	DB	0acH
	DB	0acH
	DB	0ffH
	DB	0acH
	DB	0acH
	DB	0acH
	DB	0ffH
	DB	0acH
	DB	0acH
	DB	0acH
	DB	0ffH
	DB	0acH
	DB	0acH
	DB	0acH
	DB	0ffH
	DB	0acH
	DB	0acH
	DB	0acH
	DB	0ffH
	DB	0acH
	DB	0acH
	DB	0acH
	DB	0ffH
	DB	0acH
	DB	0acH
	DB	0acH
	DB	0ffH
	DB	0acH
	DB	0acH
	DB	0acH
	DB	0ffH
	DB	0acH
	DB	0acH
	DB	0acH
	DB	0ffH
	DB	0acH
	DB	0acH
	DB	0acH
	DB	0ffH
	DB	0acH
	DB	0acH
	DB	0acH
	DB	0ffH
	DB	0acH
	DB	0acH
	DB	0acH
	DB	0ffH
	DB	0acH
	DB	0acH
	DB	0acH
	DB	0ffH
	DB	0acH
	DB	0acH
	DB	0acH
	DB	0ffH
	DB	0acH
	DB	0acH
	DB	0acH
	DB	0ffH
	DB	0acH
	DB	0acH
	DB	0acH
	DB	0ffH
	DB	0acH
	DB	0acH
	DB	0acH
	DB	0ffH
	DB	0acH
	DB	0acH
	DB	0acH
	DB	0ffH
	DB	0acH
	DB	0acH
	DB	0acH
	DB	0ffH
	DB	0acH
	DB	0acH
	DB	0acH
	DB	0ffH
	DB	0acH
	DB	0acH
	DB	0acH
	DB	0ffH
	DB	0acH
	DB	0acH
	DB	0acH
	DB	0ffH
	DB	0acH
	DB	0acH
	DB	0acH
	DB	0ffH
	DB	0acH
	DB	0acH
	DB	0acH
	DB	0ffH
	DB	0acH
	DB	0acH
	DB	0acH
	DB	0ffH
	DB	0acH
	DB	0acH
	DB	0acH
	DB	0ffH
	DB	0acH
	DB	0acH
	DB	0acH
	DB	0ffH
	DB	0acH
	DB	0acH
	DB	0acH
	DB	0ffH
	DB	0acH
	DB	0acH
	DB	0acH
	DB	0ffH
	DB	0acH
	DB	0acH
	DB	0acH
	DB	0ffH
	DB	0acH
	DB	0acH
	DB	0acH
	DB	0ffH
	DB	0acH
	DB	0acH
	DB	0acH
	DB	0ffH
	DB	0acH
	DB	0acH
	DB	0acH
	DB	0ffH
	DB	0acH
	DB	0acH
	DB	0acH
	DB	0ffH
	DB	0acH
	DB	0acH
	DB	0acH
	DB	0ffH
	DB	0acH
	DB	0acH
	DB	0acH
	DB	0ffH
	DB	0acH
	DB	0acH
	DB	0acH
	DB	0ffH
	DB	0acH
	DB	0acH
	DB	0acH
	DB	0ffH
	DB	0acH
	DB	0acH
	DB	0acH
	DB	0ffH
	DB	0acH
	DB	0acH
	DB	0acH
	DB	0ffH
	DB	0acH
	DB	0acH
	DB	0acH
	DB	0ffH
	DB	0acH
	DB	0acH
	DB	0acH
	DB	0ffH
	DB	0acH
	DB	0acH
	DB	0acH
	DB	0ffH
	DB	0acH
	DB	0acH
	DB	0acH
	DB	0ffH
	DB	0acH
	DB	0acH
	DB	0acH
	DB	0ffH
	DB	0acH
	DB	0acH
	DB	0acH
	DB	0ffH
	DB	0acH
	DB	0acH
	DB	0acH
	DB	0ffH
	DB	0acH
	DB	0acH
	DB	0acH
	DB	0ffH
	DB	0acH
	DB	0acH
	DB	0acH
	DB	0ffH
	DB	0acH
	DB	0acH
	DB	0acH
	DB	0ffH
	DB	0acH
	DB	0acH
	DB	0acH
	DB	0ffH
	DB	0acH
	DB	0acH
	DB	0acH
	DB	0ffH
	DB	0acH
	DB	0acH
	DB	0acH
	DB	0ffH
	DB	0acH
	DB	0acH
	DB	0acH
	DB	0ffH
	DB	0acH
	DB	0acH
	DB	0acH
	DB	0ffH
	DB	0acH
	DB	0acH
	DB	0acH
	DB	0ffH
	DB	0acH
	DB	0acH
	DB	0acH
	DB	0ffH
	DB	0acH
	DB	0acH
	DB	0acH
	DB	0ffH
	DB	0acH
	DB	0acH
	DB	0acH
	DB	0ffH
	DB	0acH
	DB	0acH
	DB	0acH
	DB	0ffH
	DB	0acH
	DB	0acH
	DB	0acH
	DB	0ffH
	DB	0acH
	DB	0acH
	DB	0acH
	DB	0ffH
	DB	0acH
	DB	0acH
	DB	0acH
	DB	0ffH
	DB	0acH
	DB	0acH
	DB	0acH
	DB	0ffH
	DB	0acH
	DB	0acH
	DB	0acH
	DB	0ffH
	DB	0acH
	DB	0acH
	DB	0acH
	DB	0ffH
	DB	0acH
	DB	0acH
	DB	0acH
	DB	0ffH
	DB	0acH
	DB	0acH
	DB	0acH
	DB	0ffH
	DB	0acH
	DB	0acH
	DB	0acH
	DB	0ffH
	DB	0acH
	DB	0acH
	DB	0acH
	DB	0ffH
	DB	0acH
	DB	0acH
	DB	0acH
	DB	0ffH
	DB	0acH
	DB	0acH
	DB	0acH
	DB	0ffH
	DB	0acH
	DB	0acH
	DB	0acH
	DB	0ffH
	DB	0acH
	DB	0acH
	DB	0acH
	DB	0ffH
	DB	0acH
	DB	0acH
	DB	0acH
	DB	0ffH
	DB	0acH
	DB	0acH
	DB	0acH
	DB	0ffH
	DB	0acH
	DB	0acH
	DB	0acH
	DB	0ffH
	DB	0acH
	DB	0acH
	DB	0acH
	DB	0ffH
	DB	0acH
	DB	0acH
	DB	0acH
	DB	0ffH
	DB	0acH
	DB	0acH
	DB	0acH
	DB	0ffH
	DB	0acH
	DB	0acH
	DB	0acH
	DB	0ffH
	DB	0acH
	DB	0acH
	DB	0acH
	DB	0ffH
	DB	0acH
	DB	0acH
	DB	0acH
	DB	0ffH
	DB	0acH
	DB	0acH
	DB	0acH
	DB	0ffH
	DB	0acH
	DB	0acH
	DB	0acH
	DB	0ffH
	DB	0acH
	DB	0acH
	DB	0acH
	DB	0ffH
	DB	0acH
	DB	0acH
	DB	0acH
	DB	0ffH
	DB	0acH
	DB	0acH
	DB	0acH
	DB	0ffH
	DB	0acH
	DB	0acH
	DB	0acH
	DB	0ffH
	DB	0acH
	DB	0acH
	DB	0acH
	DB	0ffH
	DB	0acH
	DB	0acH
	DB	0acH
	DB	0ffH
	DB	0acH
	DB	0acH
	DB	0acH
	DB	0ffH
	DB	0acH
	DB	0acH
	DB	0acH
	DB	0ffH
	DB	0acH
	DB	0acH
	DB	0acH
	DB	0ffH
	DB	0acH
	DB	0acH
	DB	0acH
	DB	0ffH
	DB	0acH
	DB	0acH
	DB	0acH
	DB	0ffH
	DB	0acH
	DB	0acH
	DB	0acH
	DB	0ffH
	DB	0acH
	DB	0acH
	DB	0acH
	DB	0ffH
	DB	0acH
	DB	0acH
	DB	0acH
	DB	0ffH
	DB	0acH
	DB	0acH
	DB	0acH
	DB	0ffH
	DB	0acH
	DB	0acH
	DB	0acH
	DB	0ffH
	DB	0acH
	DB	0acH
	DB	0acH
	DB	0ffH
	DB	0acH
	DB	0acH
	DB	0acH
	DB	0ffH
	DB	0acH
	DB	0acH
	DB	0acH
	DB	0ffH
	DB	0acH
	DB	0acH
	DB	0acH
	DB	0ffH
	DB	0acH
	DB	0acH
	DB	0acH
	DB	0ffH
	DB	0acH
	DB	0acH
	DB	0acH
	DB	0ffH
	DB	0acH
	DB	0acH
	DB	0acH
	DB	0ffH
	DB	0acH
	DB	0acH
	DB	0acH
	DB	0ffH
	DB	0acH
	DB	0acH
	DB	0acH
	DB	0ffH
	DB	0acH
	DB	0acH
	DB	0acH
	DB	0ffH
	DB	0acH
	DB	0acH
	DB	0acH
	DB	0ffH
	DB	0acH
	DB	0acH
	DB	0acH
	DB	0ffH
	DB	0acH
	DB	0acH
	DB	0acH
	DB	0ffH
	DB	0acH
	DB	0acH
	DB	0acH
	DB	0ffH
	DB	0acH
	DB	0acH
	DB	0acH
	DB	0ffH
	DB	0acH
	DB	0acH
	DB	0acH
	DB	0ffH
	DB	0acH
	DB	0acH
	DB	0acH
	DB	0ffH
	DB	0acH
	DB	0acH
	DB	0acH
	DB	0ffH
	DB	0acH
	DB	0acH
	DB	0acH
	DB	0ffH
	DB	0acH
	DB	0acH
	DB	0acH
	DB	0ffH
	DB	0acH
	DB	0acH
	DB	0acH
	DB	0ffH
	DB	0acH
	DB	0acH
	DB	0acH
	DB	0ffH
	DB	0acH
	DB	0acH
	DB	0acH
	DB	0ffH
	DB	0acH
	DB	0acH
	DB	0acH
	DB	0ffH
	DB	0acH
	DB	0acH
	DB	0acH
	DB	0ffH
	DB	0acH
	DB	0acH
	DB	0acH
	DB	0ffH
	DB	0acH
	DB	0acH
	DB	0acH
	DB	0ffH
	DB	0acH
	DB	0acH
	DB	0acH
	DB	0ffH
	DB	0acH
	DB	0acH
	DB	0acH
	DB	0ffH
	DB	0acH
	DB	0acH
	DB	0acH
	DB	0ffH
	DB	0acH
	DB	0acH
	DB	0acH
	DB	0ffH
	DB	0acH
	DB	0acH
	DB	0acH
	DB	0ffH
	DB	0acH
	DB	0acH
	DB	0acH
	DB	0ffH
	DB	0acH
	DB	0acH
	DB	0acH
	DB	0ffH
	DB	0acH
	DB	0acH
	DB	0acH
	DB	0ffH
	DB	0acH
	DB	0acH
	DB	0acH
	DB	0ffH
	DB	0acH
	DB	0acH
	DB	0acH
	DB	0ffH
	DB	0acH
	DB	0acH
	DB	0acH
	DB	0ffH
	DB	0acH
	DB	0acH
	DB	0acH
	DB	0ffH
	DB	0acH
	DB	0acH
	DB	0acH
	DB	0ffH
	DB	0acH
	DB	0acH
	DB	0acH
	DB	0ffH
	DB	0acH
	DB	0acH
	DB	0acH
	DB	0ffH
	DB	0acH
	DB	0acH
	DB	0acH
	DB	0ffH
	DB	0acH
	DB	0acH
	DB	0acH
	DB	0ffH
	DB	0acH
	DB	0acH
	DB	0acH
	DB	0ffH
	DB	0acH
	DB	0acH
	DB	0acH
	DB	0ffH
	DB	0acH
	DB	0acH
	DB	0acH
	DB	0ffH
	DB	0acH
	DB	0acH
	DB	0acH
	DB	0ffH
	DB	0acH
	DB	0acH
	DB	0acH
	DB	0ffH
	DB	0acH
	DB	0acH
	DB	0acH
	DB	0ffH
	DB	0acH
	DB	0acH
	DB	0acH
	DB	0ffH
	DB	0acH
	DB	0acH
	DB	0acH
	DB	0ffH
	DB	0acH
	DB	0acH
	DB	0acH
	DB	0ffH
	DB	0acH
	DB	0acH
	DB	0acH
	DB	0ffH
	DB	0acH
	DB	0acH
	DB	0acH
	DB	0ffH
	DB	0acH
	DB	0acH
	DB	0acH
	DB	0ffH
	DB	0acH
	DB	0acH
	DB	0acH
	DB	0ffH
	DB	0acH
	DB	0acH
	DB	0acH
	DB	0ffH
	DB	0acH
	DB	0acH
	DB	0acH
	DB	0ffH
	DB	0acH
	DB	0acH
	DB	0acH
	DB	0ffH
	DB	0acH
	DB	0acH
	DB	0acH
	DB	0ffH
	DB	0acH
	DB	0acH
	DB	0acH
	DB	0ffH
	DB	0acH
	DB	0acH
	DB	0acH
	DB	0ffH
	DB	0acH
	DB	0acH
	DB	0acH
	DB	0ffH
	DB	0acH
	DB	0acH
	DB	0acH
	DB	0ffH
	DB	0acH
	DB	0acH
	DB	0acH
	DB	0ffH
	DB	0acH
	DB	0acH
	DB	0acH
	DB	0ffH
	DB	0acH
	DB	0acH
	DB	0acH
	DB	0ffH
	DB	0acH
	DB	0acH
	DB	0acH
	DB	0ffH
	DB	0acH
	DB	0acH
	DB	0acH
	DB	0ffH
	DB	0acH
	DB	0acH
	DB	0acH
	DB	0ffH
	DB	0acH
	DB	0acH
	DB	0acH
	DB	0ffH
	DB	0acH
	DB	0acH
	DB	0acH
	DB	0ffH
	DB	0acH
	DB	0acH
	DB	0acH
	DB	0ffH
	DB	0acH
	DB	0acH
	DB	0acH
	DB	0ffH
	DB	0acH
	DB	0acH
	DB	0acH
	DB	0ffH
	DB	0acH
	DB	0acH
	DB	0acH
	DB	0ffH
	DB	0acH
	DB	0acH
	DB	0acH
	DB	0ffH
	DB	0acH
	DB	0acH
	DB	0acH
	DB	0ffH
	DB	0acH
	DB	0acH
	DB	0acH
	DB	0ffH
	DB	0acH
	DB	0acH
	DB	0acH
	DB	0ffH
	DB	0acH
	DB	0acH
	DB	0acH
	DB	0ffH
	DB	0acH
	DB	0acH
	DB	0acH
	DB	0ffH
	DB	0acH
	DB	0acH
	DB	0acH
	DB	0ffH
	DB	0acH
	DB	0acH
	DB	0acH
	DB	0ffH
	DB	0acH
	DB	0acH
	DB	0acH
	DB	0ffH
	DB	0acH
	DB	0acH
	DB	0acH
	DB	0ffH
	DB	0acH
	DB	0acH
	DB	0acH
	DB	0ffH
	DB	0acH
	DB	0acH
	DB	0acH
	DB	0ffH
	DB	0acH
	DB	0acH
	DB	0acH
	DB	0ffH
	DB	0acH
	DB	0acH
	DB	0acH
	DB	0ffH
	DB	0acH
	DB	0acH
	DB	0acH
	DB	0ffH
	DB	0acH
	DB	0acH
	DB	0acH
	DB	0ffH
	DB	0acH
	DB	0acH
	DB	0acH
	DB	0ffH
	DB	0acH
	DB	0acH
	DB	0acH
	DB	0ffH
	DB	0acH
	DB	0acH
	DB	0acH
	DB	0ffH
	DB	0acH
	DB	0acH
	DB	0acH
	DB	0ffH
	DB	0acH
	DB	0acH
	DB	0acH
	DB	0ffH
	DB	0acH
	DB	0acH
	DB	0acH
	DB	0ffH
	DB	0acH
	DB	0acH
	DB	0acH
	DB	0ffH
	DB	0acH
	DB	0acH
	DB	0acH
	DB	0ffH
	DB	0acH
	DB	0acH
	DB	0acH
	DB	0ffH
	DB	0acH
	DB	0acH
	DB	0acH
	DB	0ffH
	DB	0acH
	DB	0acH
	DB	0acH
	DB	0ffH
	DB	0acH
	DB	0acH
	DB	0acH
	DB	0ffH
	DB	0acH
	DB	0acH
	DB	0acH
	DB	0ffH
	DB	0acH
	DB	0acH
	DB	0acH
	DB	0ffH
	DB	0acH
	DB	0acH
	DB	0acH
	DB	0ffH
	DB	0acH
	DB	0acH
	DB	0acH
	DB	0ffH
	DB	0acH
	DB	0acH
	DB	0acH
	DB	0ffH
	DB	0acH
	DB	0acH
	DB	0acH
	DB	0ffH
	DB	0acH
	DB	0acH
	DB	0acH
	DB	0ffH
	DB	0acH
	DB	0acH
	DB	0acH
	DB	0ffH
	DB	0acH
	DB	0acH
	DB	0acH
	DB	0ffH
	DB	0acH
	DB	0acH
	DB	0acH
	DB	0ffH
	DB	0acH
	DB	0acH
	DB	0acH
	DB	0ffH
	DB	0acH
	DB	0acH
	DB	0acH
	DB	0ffH
	DB	0acH
	DB	0acH
	DB	0acH
	DB	0ffH
	DB	0acH
	DB	0acH
	DB	0acH
	DB	0ffH
	DB	0acH
	DB	0acH
	DB	0acH
	DB	0ffH
	DB	0acH
	DB	0acH
	DB	0acH
	DB	0ffH
	DB	0acH
	DB	0acH
	DB	0acH
	DB	0ffH
	DB	0acH
	DB	0acH
	DB	0acH
	DB	0ffH
	DB	0acH
	DB	0acH
	DB	0acH
	DB	0ffH
	DB	0acH
	DB	0acH
	DB	0acH
	DB	0ffH
	DB	0acH
	DB	0acH
	DB	0acH
	DB	0ffH
	DB	0acH
	DB	0acH
	DB	0acH
	DB	0ffH
	DB	0acH
	DB	0acH
	DB	0acH
	DB	0ffH
	DB	0acH
	DB	0acH
	DB	0acH
	DB	0ffH
	DB	0acH
	DB	0acH
	DB	0acH
	DB	0ffH
	DB	0acH
	DB	0acH
	DB	0acH
	DB	0ffH
	DB	0acH
	DB	0acH
	DB	0acH
	DB	0ffH
	DB	0acH
	DB	0acH
	DB	0acH
	DB	0ffH
	DB	0acH
	DB	0acH
	DB	0acH
	DB	0ffH
	DB	0acH
	DB	0acH
	DB	0acH
	DB	0ffH
	DB	0acH
	DB	0acH
	DB	0acH
	DB	0ffH
	DB	0acH
	DB	0acH
	DB	0acH
	DB	0ffH
	DB	0acH
	DB	0acH
	DB	0acH
	DB	0ffH
	DB	0acH
	DB	0acH
	DB	0acH
	DB	0ffH
	DB	0acH
	DB	0acH
	DB	0acH
	DB	0ffH
	DB	0acH
	DB	0acH
	DB	0acH
	DB	0ffH
	DB	0acH
	DB	0acH
	DB	0acH
	DB	0ffH
	DB	0acH
	DB	0acH
	DB	0acH
	DB	0ffH
	DB	0acH
	DB	0acH
	DB	0acH
	DB	0ffH
	DB	0acH
	DB	0acH
	DB	0acH
	DB	0ffH
	DB	0acH
	DB	0acH
	DB	0acH
	DB	0ffH
	DB	0acH
	DB	0acH
	DB	0acH
	DB	0ffH
	DB	0acH
	DB	0acH
	DB	0acH
	DB	0ffH
	DB	0acH
	DB	0acH
	DB	0acH
	DB	0ffH
	DB	0acH
	DB	0acH
	DB	0acH
	DB	0ffH
	DB	0acH
	DB	0acH
	DB	0acH
	DB	0ffH
	DB	0acH
	DB	0acH
	DB	0acH
	DB	0ffH
	DB	0acH
	DB	0acH
	DB	0acH
	DB	0ffH
	DB	0acH
	DB	0acH
	DB	0acH
	DB	0ffH
	DB	0acH
	DB	0acH
	DB	0acH
	DB	0ffH
	DB	0acH
	DB	0acH
	DB	0acH
	DB	0ffH
	DB	0acH
	DB	0acH
	DB	0acH
	DB	0ffH
	DB	0acH
	DB	0acH
	DB	0acH
	DB	0ffH
	DB	0acH
	DB	0acH
	DB	0acH
	DB	0ffH
	DB	0acH
	DB	0acH
	DB	0acH
	DB	0ffH
	DB	0acH
	DB	0acH
	DB	0acH
	DB	0ffH
	DB	0acH
	DB	0acH
	DB	0acH
	DB	0ffH
	DB	0acH
	DB	0acH
	DB	0acH
	DB	0ffH
	DB	0acH
	DB	0acH
	DB	0acH
	DB	0ffH
	DB	0acH
	DB	0acH
	DB	0acH
	DB	0ffH
	DB	0acH
	DB	0acH
	DB	0acH
	DB	0ffH
	DB	0acH
	DB	0acH
	DB	0acH
	DB	0ffH
	DB	0acH
	DB	0acH
	DB	0acH
	DB	0ffH
	DB	0acH
	DB	0acH
	DB	0acH
	DB	0ffH
	DB	0acH
	DB	0acH
	DB	0acH
	DB	0ffH
	DB	0acH
	DB	0acH
	DB	0acH
	DB	0ffH
	DB	0acH
	DB	0acH
	DB	0acH
	DB	0ffH
	DB	0acH
	DB	0acH
	DB	0acH
	DB	0ffH
	DB	0acH
	DB	0acH
	DB	0acH
	DB	0ffH
	DB	0acH
	DB	0acH
	DB	0acH
	DB	0ffH
	DB	0acH
	DB	0acH
	DB	0acH
	DB	0ffH
	DB	0acH
	DB	0acH
	DB	0acH
	DB	0ffH
	DB	0acH
	DB	0acH
	DB	0acH
	DB	0ffH
	DB	0acH
	DB	0acH
	DB	0acH
	DB	0ffH
	DB	0acH
	DB	0acH
	DB	0acH
	DB	0ffH
	DB	0acH
	DB	0acH
	DB	0acH
	DB	0ffH
	DB	0acH
	DB	0acH
	DB	0acH
	DB	0ffH
	DB	0acH
	DB	0acH
	DB	0acH
	DB	0ffH
	DB	0acH
	DB	0acH
	DB	0acH
	DB	0ffH
	DB	0acH
	DB	0acH
	DB	0acH
	DB	0ffH
	DB	0acH
	DB	0acH
	DB	0acH
	DB	0ffH
	DB	0acH
	DB	0acH
	DB	0acH
	DB	0ffH
	DB	0acH
	DB	0acH
	DB	0acH
	DB	0ffH
	DB	0acH
	DB	0acH
	DB	0acH
	DB	0ffH
	DB	0acH
	DB	0acH
	DB	0acH
	DB	0ffH
	DB	0acH
	DB	0acH
	DB	0acH
	DB	0ffH
	DB	0acH
	DB	0acH
	DB	0acH
	DB	0ffH
	DB	0acH
	DB	0acH
	DB	0acH
	DB	0ffH
	DB	0acH
	DB	0acH
	DB	0acH
	DB	0ffH
	DB	0acH
	DB	0acH
	DB	0acH
	DB	0ffH
	DB	0acH
	DB	0acH
	DB	0acH
	DB	0ffH
	DB	0acH
	DB	0acH
	DB	0acH
	DB	0ffH
	DB	0acH
	DB	0acH
	DB	0acH
	DB	0ffH
	DB	0acH
	DB	0acH
	DB	0acH
	DB	0ffH
	DB	0acH
	DB	0acH
	DB	0acH
	DB	0ffH
	DB	0acH
	DB	0acH
	DB	0acH
	DB	0ffH
	DB	0acH
	DB	0acH
	DB	0acH
	DB	0ffH
	DB	0acH
	DB	0acH
	DB	0acH
	DB	0ffH
	DB	0acH
	DB	0acH
	DB	0acH
	DB	0ffH
	DB	0acH
	DB	0acH
	DB	0acH
	DB	0ffH
	DB	0acH
	DB	0acH
	DB	0acH
	DB	0ffH
	DB	0acH
	DB	0acH
	DB	0acH
	DB	0ffH
	DB	0acH
	DB	0acH
	DB	0acH
	DB	0ffH
	DB	0acH
	DB	0acH
	DB	0acH
	DB	0ffH
	DB	0acH
	DB	0acH
	DB	0acH
	DB	0ffH
	DB	0acH
	DB	0acH
	DB	0acH
	DB	0ffH
	DB	0acH
	DB	0acH
	DB	0acH
	DB	0ffH
	DB	0acH
	DB	0acH
	DB	0acH
	DB	0ffH
	DB	0acH
	DB	0acH
	DB	0acH
	DB	0ffH
	DB	0acH
	DB	0acH
	DB	0acH
	DB	0ffH
	DB	0acH
	DB	0acH
	DB	0acH
	DB	0ffH
	DB	0acH
	DB	0acH
	DB	0acH
	DB	0ffH
	DB	0acH
	DB	0acH
	DB	0acH
	DB	0ffH
	DB	0acH
	DB	0acH
	DB	0acH
	DB	0ffH
	DB	0acH
	DB	0acH
	DB	0acH
	DB	0ffH
	DB	0acH
	DB	0acH
	DB	0acH
	DB	0ffH
	DB	0acH
	DB	0acH
	DB	0acH
	DB	0ffH
	DB	0acH
	DB	0acH
	DB	0acH
	DB	0ffH
	DB	0acH
	DB	0acH
	DB	0acH
	DB	0ffH
	DB	0acH
	DB	0acH
	DB	0acH
	DB	0ffH
	DB	0acH
	DB	0acH
	DB	0acH
	DB	0ffH
	DB	0acH
	DB	0acH
	DB	0acH
	DB	0ffH
	DB	0acH
	DB	0acH
	DB	0acH
	DB	0ffH
	DB	0acH
	DB	0acH
	DB	0acH
	DB	0ffH
	DB	0acH
	DB	0acH
	DB	0acH
	DB	0ffH
	DB	0acH
	DB	0acH
	DB	0acH
	DB	0ffH
	DB	0acH
	DB	0acH
	DB	0acH
	DB	0ffH
	DB	0acH
	DB	0acH
	DB	0acH
	DB	0ffH
	DB	0acH
	DB	0acH
	DB	0acH
	DB	0ffH
	DB	0acH
	DB	0acH
	DB	0acH
	DB	0ffH
	DB	0acH
	DB	0acH
	DB	0acH
	DB	0ffH
	DB	0acH
	DB	0acH
	DB	0acH
	DB	0ffH
	DB	0acH
	DB	0acH
	DB	0acH
	DB	0ffH
	DB	0acH
	DB	0acH
	DB	0acH
	DB	0ffH
	DB	0acH
	DB	0acH
	DB	0acH
	DB	0ffH
	DB	0acH
	DB	0acH
	DB	0acH
	DB	0ffH
	DB	0acH
	DB	0acH
	DB	0acH
	DB	0ffH
	DB	0acH
	DB	0acH
	DB	0acH
	DB	0ffH
	DB	0acH
	DB	0acH
	DB	0acH
	DB	0ffH
	DB	0acH
	DB	0acH
	DB	0acH
	DB	0ffH
	DB	0acH
	DB	0acH
	DB	0acH
	DB	0ffH
	DB	0acH
	DB	0acH
	DB	0acH
	DB	0ffH
	DB	0acH
	DB	0acH
	DB	0acH
	DB	0ffH
	DB	0acH
	DB	0acH
	DB	0acH
	DB	0ffH
	DB	0acH
	DB	0acH
	DB	0acH
	DB	0ffH
	DB	0acH
	DB	0acH
	DB	0acH
	DB	0ffH
	DB	0acH
	DB	0acH
	DB	0acH
	DB	0ffH
	DB	0acH
	DB	0acH
	DB	0acH
	DB	0ffH
	DB	0acH
	DB	0acH
	DB	0acH
	DB	0ffH
	DB	0acH
	DB	0acH
	DB	0acH
	DB	0ffH
	DB	0acH
	DB	0acH
	DB	0acH
	DB	0ffH
	DB	0acH
	DB	0acH
	DB	0acH
	DB	0ffH
	DB	0acH
	DB	0acH
	DB	0acH
	DB	0ffH
	DB	0acH
	DB	0acH
	DB	0acH
	DB	0ffH
	DB	0acH
	DB	0acH
	DB	0acH
	DB	0ffH
	DB	0acH
	DB	0acH
	DB	0acH
	DB	0ffH
	DB	0acH
	DB	0acH
	DB	0acH
	DB	0ffH
	DB	0acH
	DB	0acH
	DB	0acH
	DB	0ffH
	DB	0acH
	DB	0acH
	DB	0acH
	DB	0ffH
	DB	0acH
	DB	0acH
	DB	0acH
	DB	0ffH
	DB	0acH
	DB	0acH
	DB	0acH
	DB	0ffH
	DB	0acH
	DB	0acH
	DB	0acH
	DB	0ffH
	DB	0acH
	DB	0acH
	DB	0acH
	DB	0ffH
	DB	0acH
	DB	0acH
	DB	0acH
	DB	0ffH
	DB	0acH
	DB	0acH
	DB	0acH
	DB	0ffH
	DB	0acH
	DB	0acH
	DB	0acH
	DB	0ffH
	DB	0acH
	DB	0acH
	DB	0acH
	DB	0ffH
	DB	0acH
	DB	0acH
	DB	0acH
	DB	0ffH
	DB	0acH
	DB	0acH
	DB	0acH
	DB	0ffH
	DB	0acH
	DB	0acH
	DB	0acH
	DB	0ffH
	DB	0acH
	DB	0acH
	DB	0acH
	DB	0ffH
	DB	0acH
	DB	0acH
	DB	0acH
	DB	0ffH
	DB	0acH
	DB	0acH
	DB	0acH
	DB	0ffH
	DB	0acH
	DB	0acH
	DB	0acH
	DB	0ffH
	DB	0acH
	DB	0acH
	DB	0acH
	DB	0ffH
	DB	0acH
	DB	0acH
	DB	0acH
	DB	0ffH
	DB	0acH
	DB	0acH
	DB	0acH
	DB	0ffH
	DB	0acH
	DB	0acH
	DB	0acH
	DB	0ffH
	DB	0acH
	DB	0acH
	DB	0acH
	DB	0ffH
	DB	0acH
	DB	0acH
	DB	0acH
	DB	0ffH
	DB	0acH
	DB	0acH
	DB	0acH
	DB	0ffH
	DB	0acH
	DB	0acH
	DB	0acH
	DB	0ffH
	DB	0acH
	DB	0acH
	DB	0acH
	DB	0ffH
	DB	0acH
	DB	0acH
	DB	0acH
	DB	0ffH
	DB	0acH
	DB	0acH
	DB	0acH
	DB	0ffH
	DB	0acH
	DB	0acH
	DB	0acH
	DB	0ffH
	DB	0acH
	DB	0acH
	DB	0acH
	DB	0ffH
	DB	0acH
	DB	0acH
	DB	0acH
	DB	0ffH
	DB	0acH
	DB	0acH
	DB	0acH
	DB	0ffH
	DB	0acH
	DB	0acH
	DB	0acH
	DB	0ffH
	DB	0acH
	DB	0acH
	DB	0acH
	DB	0ffH
	DB	0acH
	DB	0acH
	DB	0acH
	DB	0ffH
	DB	0acH
	DB	0acH
	DB	0acH
	DB	0ffH
	DB	0acH
	DB	0acH
	DB	0acH
	DB	0ffH
	DB	0acH
	DB	0acH
	DB	0acH
	DB	0ffH
	DB	0acH
	DB	0acH
	DB	0acH
	DB	0ffH
	DB	0acH
	DB	0acH
	DB	0acH
	DB	0ffH
	DB	0acH
	DB	0acH
	DB	0acH
	DB	0ffH
	DB	0acH
	DB	0acH
	DB	0acH
	DB	0ffH
	DB	0acH
	DB	0acH
	DB	0acH
	DB	0ffH
	DB	0acH
	DB	0acH
	DB	0acH
	DB	0ffH
	DB	0acH
	DB	0acH
	DB	0acH
	DB	0ffH
	DB	0acH
	DB	0acH
	DB	0acH
	DB	0ffH
	DB	0acH
	DB	0acH
	DB	0acH
	DB	0ffH
	DB	0acH
	DB	0acH
	DB	0acH
	DB	0ffH
	DB	0acH
	DB	0acH
	DB	0acH
	DB	0ffH
	DB	0acH
	DB	0acH
	DB	0acH
	DB	0ffH
	DB	0acH
	DB	0acH
	DB	0acH
	DB	0ffH
	DB	0acH
	DB	0acH
	DB	0acH
	DB	0ffH
	DB	0acH
	DB	0acH
	DB	0acH
	DB	0ffH
	DB	0acH
	DB	0acH
	DB	0acH
	DB	0ffH
	DB	0acH
	DB	0acH
	DB	0acH
	DB	0ffH
	DB	0acH
	DB	0acH
	DB	0acH
	DB	0ffH
	DB	0acH
	DB	0acH
	DB	0acH
	DB	0ffH
	DB	0acH
	DB	0acH
	DB	0acH
	DB	0ffH
	DB	0acH
	DB	0acH
	DB	0acH
	DB	0ffH
	DB	0acH
	DB	0acH
	DB	0acH
	DB	0ffH
	DB	0acH
	DB	0acH
	DB	0acH
	DB	0ffH
	DB	0acH
	DB	0acH
	DB	0acH
	DB	0ffH
	DB	0acH
	DB	0acH
	DB	0acH
	DB	0ffH
	DB	0acH
	DB	0acH
	DB	0acH
	DB	0ffH
	DB	0acH
	DB	0acH
	DB	0acH
	DB	0ffH
	DB	0acH
	DB	0acH
	DB	0acH
	DB	0ffH
	DB	0acH
	DB	0acH
	DB	0acH
	DB	0ffH
	DB	0acH
	DB	0acH
	DB	0acH
	DB	0ffH
	DB	0acH
	DB	0acH
	DB	0acH
	DB	0ffH
	DB	0acH
	DB	0acH
	DB	0acH
	DB	0ffH
	DB	0acH
	DB	0acH
	DB	0acH
	DB	0ffH
	DB	0acH
	DB	0acH
	DB	0acH
	DB	0ffH
	DB	0acH
	DB	0acH
	DB	0acH
	DB	0ffH
	DB	0acH
	DB	0acH
	DB	0acH
	DB	0ffH
	DB	0acH
	DB	0acH
	DB	0acH
	DB	0ffH
	DB	0acH
	DB	0acH
	DB	0acH
	DB	0ffH
	DB	0acH
	DB	0acH
	DB	0acH
	DB	0ffH
	DB	0acH
	DB	0acH
	DB	0acH
	DB	0ffH
	DB	0acH
	DB	0acH
	DB	0acH
	DB	0ffH
	DB	0acH
	DB	0acH
	DB	0acH
	DB	0ffH
	DB	0acH
	DB	0acH
	DB	0acH
	DB	0ffH
	DB	0acH
	DB	0acH
	DB	0acH
	DB	0ffH
	DB	0acH
	DB	0acH
	DB	0acH
	DB	0ffH
	DB	0acH
	DB	0acH
	DB	0acH
	DB	0ffH
	DB	0acH
	DB	0acH
	DB	0acH
	DB	0ffH
	DB	0acH
	DB	0acH
	DB	0acH
	DB	0ffH
	DB	0acH
	DB	0acH
	DB	0acH
	DB	0ffH
	DB	0acH
	DB	0acH
	DB	0acH
	DB	0ffH
	DB	0acH
	DB	0acH
	DB	0acH
	DB	0ffH
	DB	0acH
	DB	0acH
	DB	0acH
	DB	0ffH
	DB	0acH
	DB	0acH
	DB	0acH
	DB	0ffH
	DB	0acH
	DB	0acH
	DB	0acH
	DB	0ffH
	DB	0acH
	DB	0acH
	DB	0acH
	DB	0ffH
	DB	0acH
	DB	0acH
	DB	0acH
	DB	0ffH
	DB	0acH
	DB	0acH
	DB	0acH
	DB	0ffH
	DB	0acH
	DB	0acH
	DB	0acH
	DB	0ffH
	DB	0acH
	DB	0acH
	DB	0acH
	DB	0ffH
	DB	0acH
	DB	0acH
	DB	0acH
	DB	0ffH
	DB	0acH
	DB	0acH
	DB	0acH
	DB	0ffH
	DB	0acH
	DB	0acH
	DB	0acH
	DB	0ffH
	DB	0acH
	DB	0acH
	DB	0acH
	DB	0ffH
	DB	0acH
	DB	0acH
	DB	0acH
	DB	0ffH
	DB	0acH
	DB	0acH
	DB	0acH
	DB	0ffH
	DB	0acH
	DB	0acH
	DB	0acH
	DB	0ffH
	DB	0acH
	DB	0acH
	DB	0acH
	DB	0ffH
	DB	0acH
	DB	0acH
	DB	0acH
	DB	0ffH
	DB	0acH
	DB	0acH
	DB	0acH
	DB	0ffH
	DB	0acH
	DB	0acH
	DB	0acH
	DB	0ffH
	DB	0acH
	DB	0acH
	DB	0acH
	DB	0ffH
	DB	0acH
	DB	0acH
	DB	0acH
	DB	0ffH
	DB	0acH
	DB	0acH
	DB	0acH
	DB	0ffH
	DB	0acH
	DB	0acH
	DB	0acH
	DB	0c7H
	DB	00H
	DB	00H
	DB	00H
	DB	00H
	DB	00H
	DB	00H
	DB	00H
	DB	00H
	DB	0acH
	DB	0acH
	DB	0acH
	DB	06eH
	DB	0acH
	DB	0acH
	DB	0acH
	DB	0ffH
	DB	0acH
	DB	0acH
	DB	0acH
	DB	0ffH
	DB	0acH
	DB	0acH
	DB	0acH
	DB	0ffH
	DB	0acH
	DB	0acH
	DB	0acH
	DB	0ffH
	DB	0acH
	DB	0acH
	DB	0acH
	DB	0ffH
	DB	0acH
	DB	0acH
	DB	0acH
	DB	0ffH
	DB	0acH
	DB	0acH
	DB	0acH
	DB	0ffH
	DB	0acH
	DB	0acH
	DB	0acH
	DB	0ffH
	DB	0acH
	DB	0acH
	DB	0acH
	DB	0ffH
	DB	0acH
	DB	0acH
	DB	0acH
	DB	0ffH
	DB	0acH
	DB	0acH
	DB	0acH
	DB	0ffH
	DB	0acH
	DB	0acH
	DB	0acH
	DB	0ffH
	DB	0acH
	DB	0acH
	DB	0acH
	DB	0ffH
	DB	0acH
	DB	0acH
	DB	0acH
	DB	0ffH
	DB	0acH
	DB	0acH
	DB	0acH
	DB	0ffH
	DB	0acH
	DB	0acH
	DB	0acH
	DB	0ffH
	DB	0acH
	DB	0acH
	DB	0acH
	DB	0ffH
	DB	0acH
	DB	0acH
	DB	0acH
	DB	0ffH
	DB	0acH
	DB	0acH
	DB	0acH
	DB	0ffH
	DB	0acH
	DB	0acH
	DB	0acH
	DB	0ffH
	DB	0acH
	DB	0acH
	DB	0acH
	DB	0ffH
	DB	0acH
	DB	0acH
	DB	0acH
	DB	0ffH
	DB	0acH
	DB	0acH
	DB	0acH
	DB	0ffH
	DB	0acH
	DB	0acH
	DB	0acH
	DB	0ffH
	DB	0acH
	DB	0acH
	DB	0acH
	DB	0ffH
	DB	0acH
	DB	0acH
	DB	0acH
	DB	0ffH
	DB	0acH
	DB	0acH
	DB	0acH
	DB	0ffH
	DB	0acH
	DB	0acH
	DB	0acH
	DB	0ffH
	DB	0acH
	DB	0acH
	DB	0acH
	DB	0ffH
	DB	0acH
	DB	0acH
	DB	0acH
	DB	0ffH
	DB	0acH
	DB	0acH
	DB	0acH
	DB	0ffH
	DB	0acH
	DB	0acH
	DB	0acH
	DB	0ffH
	DB	0acH
	DB	0acH
	DB	0acH
	DB	0ffH
	DB	0acH
	DB	0acH
	DB	0acH
	DB	0ffH
	DB	0acH
	DB	0acH
	DB	0acH
	DB	0ffH
	DB	0acH
	DB	0acH
	DB	0acH
	DB	0ffH
	DB	0acH
	DB	0acH
	DB	0acH
	DB	0ffH
	DB	0acH
	DB	0acH
	DB	0acH
	DB	0ffH
	DB	0acH
	DB	0acH
	DB	0acH
	DB	0ffH
	DB	0acH
	DB	0acH
	DB	0acH
	DB	0ffH
	DB	0acH
	DB	0acH
	DB	0acH
	DB	0ffH
	DB	0acH
	DB	0acH
	DB	0acH
	DB	0ffH
	DB	0acH
	DB	0acH
	DB	0acH
	DB	0ffH
	DB	0acH
	DB	0acH
	DB	0acH
	DB	0ffH
	DB	0acH
	DB	0acH
	DB	0acH
	DB	0ffH
	DB	0acH
	DB	0acH
	DB	0acH
	DB	0ffH
	DB	0acH
	DB	0acH
	DB	0acH
	DB	0ffH
	DB	0acH
	DB	0acH
	DB	0acH
	DB	0ffH
	DB	0acH
	DB	0acH
	DB	0acH
	DB	0ffH
	DB	0acH
	DB	0acH
	DB	0acH
	DB	0ffH
	DB	0acH
	DB	0acH
	DB	0acH
	DB	0ffH
	DB	0acH
	DB	0acH
	DB	0acH
	DB	0ffH
	DB	0acH
	DB	0acH
	DB	0acH
	DB	0ffH
	DB	0acH
	DB	0acH
	DB	0acH
	DB	0ffH
	DB	0acH
	DB	0acH
	DB	0acH
	DB	0ffH
	DB	0acH
	DB	0acH
	DB	0acH
	DB	0ffH
	DB	0acH
	DB	0acH
	DB	0acH
	DB	0ffH
	DB	0acH
	DB	0acH
	DB	0acH
	DB	0ffH
	DB	0acH
	DB	0acH
	DB	0acH
	DB	0ffH
	DB	0acH
	DB	0acH
	DB	0acH
	DB	0ffH
	DB	0acH
	DB	0acH
	DB	0acH
	DB	0ffH
	DB	0acH
	DB	0acH
	DB	0acH
	DB	0ffH
	DB	0acH
	DB	0acH
	DB	0acH
	DB	0ffH
	DB	0acH
	DB	0acH
	DB	0acH
	DB	0ffH
	DB	0acH
	DB	0acH
	DB	0acH
	DB	0ffH
	DB	0acH
	DB	0acH
	DB	0acH
	DB	0ffH
	DB	0acH
	DB	0acH
	DB	0acH
	DB	0ffH
	DB	0acH
	DB	0acH
	DB	0acH
	DB	0ffH
	DB	0acH
	DB	0acH
	DB	0acH
	DB	0ffH
	DB	0acH
	DB	0acH
	DB	0acH
	DB	0ffH
	DB	0acH
	DB	0acH
	DB	0acH
	DB	0ffH
	DB	0acH
	DB	0acH
	DB	0acH
	DB	0ffH
	DB	0acH
	DB	0acH
	DB	0acH
	DB	0ffH
	DB	0acH
	DB	0acH
	DB	0acH
	DB	0ffH
	DB	0acH
	DB	0acH
	DB	0acH
	DB	0ffH
	DB	0acH
	DB	0acH
	DB	0acH
	DB	0ffH
	DB	0acH
	DB	0acH
	DB	0acH
	DB	0ffH
	DB	0acH
	DB	0acH
	DB	0acH
	DB	0ffH
	DB	0acH
	DB	0acH
	DB	0acH
	DB	0ffH
	DB	0acH
	DB	0acH
	DB	0acH
	DB	0ffH
	DB	0acH
	DB	0acH
	DB	0acH
	DB	0ffH
	DB	0acH
	DB	0acH
	DB	0acH
	DB	0ffH
	DB	0acH
	DB	0acH
	DB	0acH
	DB	0ffH
	DB	0acH
	DB	0acH
	DB	0acH
	DB	0ffH
	DB	0acH
	DB	0acH
	DB	0acH
	DB	0ffH
	DB	0acH
	DB	0acH
	DB	0acH
	DB	0ffH
	DB	0acH
	DB	0acH
	DB	0acH
	DB	0ffH
	DB	0acH
	DB	0acH
	DB	0acH
	DB	0ffH
	DB	0acH
	DB	0acH
	DB	0acH
	DB	0ffH
	DB	0acH
	DB	0acH
	DB	0acH
	DB	0ffH
	DB	0acH
	DB	0acH
	DB	0acH
	DB	0ffH
	DB	0acH
	DB	0acH
	DB	0acH
	DB	0ffH
	DB	0acH
	DB	0acH
	DB	0acH
	DB	0ffH
	DB	0acH
	DB	0acH
	DB	0acH
	DB	0ffH
	DB	0acH
	DB	0acH
	DB	0acH
	DB	0ffH
	DB	0acH
	DB	0acH
	DB	0acH
	DB	0ffH
	DB	0acH
	DB	0acH
	DB	0acH
	DB	0ffH
	DB	0acH
	DB	0acH
	DB	0acH
	DB	0ffH
	DB	0acH
	DB	0acH
	DB	0acH
	DB	0ffH
	DB	0acH
	DB	0acH
	DB	0acH
	DB	0ffH
	DB	0acH
	DB	0acH
	DB	0acH
	DB	0ffH
	DB	0acH
	DB	0acH
	DB	0acH
	DB	0ffH
	DB	0acH
	DB	0acH
	DB	0acH
	DB	0ffH
	DB	0acH
	DB	0acH
	DB	0acH
	DB	0ffH
	DB	0acH
	DB	0acH
	DB	0acH
	DB	0ffH
	DB	0acH
	DB	0acH
	DB	0acH
	DB	0ffH
	DB	0acH
	DB	0acH
	DB	0acH
	DB	0ffH
	DB	0acH
	DB	0acH
	DB	0acH
	DB	0ffH
	DB	0acH
	DB	0acH
	DB	0acH
	DB	0ffH
	DB	0acH
	DB	0acH
	DB	0acH
	DB	0ffH
	DB	0acH
	DB	0acH
	DB	0acH
	DB	0ffH
	DB	0acH
	DB	0acH
	DB	0acH
	DB	0ffH
	DB	0acH
	DB	0acH
	DB	0acH
	DB	0ffH
	DB	0acH
	DB	0acH
	DB	0acH
	DB	0ffH
	DB	0acH
	DB	0acH
	DB	0acH
	DB	0ffH
	DB	0acH
	DB	0acH
	DB	0acH
	DB	0ffH
	DB	0acH
	DB	0acH
	DB	0acH
	DB	0ffH
	DB	0acH
	DB	0acH
	DB	0acH
	DB	0ffH
	DB	0acH
	DB	0acH
	DB	0acH
	DB	0ffH
	DB	0acH
	DB	0acH
	DB	0acH
	DB	0ffH
	DB	0acH
	DB	0acH
	DB	0acH
	DB	0ffH
	DB	0acH
	DB	0acH
	DB	0acH
	DB	0ffH
	DB	0acH
	DB	0acH
	DB	0acH
	DB	0ffH
	DB	0acH
	DB	0acH
	DB	0acH
	DB	0ffH
	DB	0acH
	DB	0acH
	DB	0acH
	DB	0ffH
	DB	0acH
	DB	0acH
	DB	0acH
	DB	0ffH
	DB	0acH
	DB	0acH
	DB	0acH
	DB	0ffH
	DB	0acH
	DB	0acH
	DB	0acH
	DB	0ffH
	DB	0acH
	DB	0acH
	DB	0acH
	DB	0ffH
	DB	0acH
	DB	0acH
	DB	0acH
	DB	0ffH
	DB	0acH
	DB	0acH
	DB	0acH
	DB	0ffH
	DB	0acH
	DB	0acH
	DB	0acH
	DB	0ffH
	DB	0acH
	DB	0acH
	DB	0acH
	DB	0ffH
	DB	0acH
	DB	0acH
	DB	0acH
	DB	0ffH
	DB	0acH
	DB	0acH
	DB	0acH
	DB	0ffH
	DB	0acH
	DB	0acH
	DB	0acH
	DB	0ffH
	DB	0acH
	DB	0acH
	DB	0acH
	DB	0ffH
	DB	0acH
	DB	0acH
	DB	0acH
	DB	0ffH
	DB	0acH
	DB	0acH
	DB	0acH
	DB	0ffH
	DB	0acH
	DB	0acH
	DB	0acH
	DB	0ffH
	DB	0acH
	DB	0acH
	DB	0acH
	DB	0ffH
	DB	0acH
	DB	0acH
	DB	0acH
	DB	0ffH
	DB	0acH
	DB	0acH
	DB	0acH
	DB	0ffH
	DB	0acH
	DB	0acH
	DB	0acH
	DB	0ffH
	DB	0acH
	DB	0acH
	DB	0acH
	DB	0ffH
	DB	0acH
	DB	0acH
	DB	0acH
	DB	0ffH
	DB	0acH
	DB	0acH
	DB	0acH
	DB	0ffH
	DB	0acH
	DB	0acH
	DB	0acH
	DB	0ffH
	DB	0acH
	DB	0acH
	DB	0acH
	DB	0ffH
	DB	0acH
	DB	0acH
	DB	0acH
	DB	0ffH
	DB	0acH
	DB	0acH
	DB	0acH
	DB	0ffH
	DB	0acH
	DB	0acH
	DB	0acH
	DB	0ffH
	DB	0acH
	DB	0acH
	DB	0acH
	DB	0ffH
	DB	0acH
	DB	0acH
	DB	0acH
	DB	0ffH
	DB	0acH
	DB	0acH
	DB	0acH
	DB	0ffH
	DB	0acH
	DB	0acH
	DB	0acH
	DB	0ffH
	DB	0acH
	DB	0acH
	DB	0acH
	DB	0ffH
	DB	0acH
	DB	0acH
	DB	0acH
	DB	0ffH
	DB	0acH
	DB	0acH
	DB	0acH
	DB	0ffH
	DB	0acH
	DB	0acH
	DB	0acH
	DB	0ffH
	DB	0acH
	DB	0acH
	DB	0acH
	DB	0ffH
	DB	0acH
	DB	0acH
	DB	0acH
	DB	0ffH
	DB	0acH
	DB	0acH
	DB	0acH
	DB	0ffH
	DB	0acH
	DB	0acH
	DB	0acH
	DB	0ffH
	DB	0acH
	DB	0acH
	DB	0acH
	DB	0ffH
	DB	0acH
	DB	0acH
	DB	0acH
	DB	0ffH
	DB	0acH
	DB	0acH
	DB	0acH
	DB	0ffH
	DB	0acH
	DB	0acH
	DB	0acH
	DB	0ffH
	DB	0acH
	DB	0acH
	DB	0acH
	DB	0ffH
	DB	0acH
	DB	0acH
	DB	0acH
	DB	0ffH
	DB	0acH
	DB	0acH
	DB	0acH
	DB	0ffH
	DB	0acH
	DB	0acH
	DB	0acH
	DB	0ffH
	DB	0acH
	DB	0acH
	DB	0acH
	DB	0ffH
	DB	0acH
	DB	0acH
	DB	0acH
	DB	0ffH
	DB	0acH
	DB	0acH
	DB	0acH
	DB	0ffH
	DB	0acH
	DB	0acH
	DB	0acH
	DB	0ffH
	DB	0acH
	DB	0acH
	DB	0acH
	DB	0ffH
	DB	0acH
	DB	0acH
	DB	0acH
	DB	0ffH
	DB	0acH
	DB	0acH
	DB	0acH
	DB	0ffH
	DB	0acH
	DB	0acH
	DB	0acH
	DB	0ffH
	DB	0acH
	DB	0acH
	DB	0acH
	DB	0ffH
	DB	0acH
	DB	0acH
	DB	0acH
	DB	0ffH
	DB	0acH
	DB	0acH
	DB	0acH
	DB	0ffH
	DB	0acH
	DB	0acH
	DB	0acH
	DB	0ffH
	DB	0acH
	DB	0acH
	DB	0acH
	DB	0ffH
	DB	0acH
	DB	0acH
	DB	0acH
	DB	0ffH
	DB	0acH
	DB	0acH
	DB	0acH
	DB	0ffH
	DB	0acH
	DB	0acH
	DB	0acH
	DB	0ffH
	DB	0acH
	DB	0acH
	DB	0acH
	DB	0ffH
	DB	0acH
	DB	0acH
	DB	0acH
	DB	0ffH
	DB	0acH
	DB	0acH
	DB	0acH
	DB	0ffH
	DB	0acH
	DB	0acH
	DB	0acH
	DB	0ffH
	DB	0acH
	DB	0acH
	DB	0acH
	DB	0ffH
	DB	0acH
	DB	0acH
	DB	0acH
	DB	0ffH
	DB	0acH
	DB	0acH
	DB	0acH
	DB	0ffH
	DB	0acH
	DB	0acH
	DB	0acH
	DB	0ffH
	DB	0acH
	DB	0acH
	DB	0acH
	DB	0ffH
	DB	0acH
	DB	0acH
	DB	0acH
	DB	0ffH
	DB	0acH
	DB	0acH
	DB	0acH
	DB	0ffH
	DB	0acH
	DB	0acH
	DB	0acH
	DB	0ffH
	DB	0acH
	DB	0acH
	DB	0acH
	DB	0ffH
	DB	0acH
	DB	0acH
	DB	0acH
	DB	0ffH
	DB	0acH
	DB	0acH
	DB	0acH
	DB	0ffH
	DB	0acH
	DB	0acH
	DB	0acH
	DB	0ffH
	DB	0acH
	DB	0acH
	DB	0acH
	DB	0ffH
	DB	0acH
	DB	0acH
	DB	0acH
	DB	0ffH
	DB	0acH
	DB	0acH
	DB	0acH
	DB	0ffH
	DB	0acH
	DB	0acH
	DB	0acH
	DB	0ffH
	DB	0acH
	DB	0acH
	DB	0acH
	DB	0ffH
	DB	0acH
	DB	0acH
	DB	0acH
	DB	0ffH
	DB	0acH
	DB	0acH
	DB	0acH
	DB	0ffH
	DB	0acH
	DB	0acH
	DB	0acH
	DB	0ffH
	DB	0acH
	DB	0acH
	DB	0acH
	DB	0ffH
	DB	0acH
	DB	0acH
	DB	0acH
	DB	0ffH
	DB	0acH
	DB	0acH
	DB	0acH
	DB	0ffH
	DB	0acH
	DB	0acH
	DB	0acH
	DB	0ffH
	DB	0acH
	DB	0acH
	DB	0acH
	DB	0ffH
	DB	0acH
	DB	0acH
	DB	0acH
	DB	0ffH
	DB	0acH
	DB	0acH
	DB	0acH
	DB	0ffH
	DB	0acH
	DB	0acH
	DB	0acH
	DB	0ffH
	DB	0acH
	DB	0acH
	DB	0acH
	DB	0ffH
	DB	0acH
	DB	0acH
	DB	0acH
	DB	0ffH
	DB	0acH
	DB	0acH
	DB	0acH
	DB	0ffH
	DB	0acH
	DB	0acH
	DB	0acH
	DB	0ffH
	DB	0acH
	DB	0acH
	DB	0acH
	DB	0ffH
	DB	0acH
	DB	0acH
	DB	0acH
	DB	0ffH
	DB	0acH
	DB	0acH
	DB	0acH
	DB	0ffH
	DB	0acH
	DB	0acH
	DB	0acH
	DB	0ffH
	DB	0acH
	DB	0acH
	DB	0acH
	DB	0ffH
	DB	0acH
	DB	0acH
	DB	0acH
	DB	0ffH
	DB	0acH
	DB	0acH
	DB	0acH
	DB	0ffH
	DB	0acH
	DB	0acH
	DB	0acH
	DB	0ffH
	DB	0acH
	DB	0acH
	DB	0acH
	DB	0ffH
	DB	0acH
	DB	0acH
	DB	0acH
	DB	0ffH
	DB	0acH
	DB	0acH
	DB	0acH
	DB	0ffH
	DB	0acH
	DB	0acH
	DB	0acH
	DB	0ffH
	DB	0acH
	DB	0acH
	DB	0acH
	DB	0ffH
	DB	0acH
	DB	0acH
	DB	0acH
	DB	0ffH
	DB	0acH
	DB	0acH
	DB	0acH
	DB	0ffH
	DB	0acH
	DB	0acH
	DB	0acH
	DB	0ffH
	DB	0acH
	DB	0acH
	DB	0acH
	DB	0ffH
	DB	0acH
	DB	0acH
	DB	0acH
	DB	0ffH
	DB	0acH
	DB	0acH
	DB	0acH
	DB	0ffH
	DB	0acH
	DB	0acH
	DB	0acH
	DB	0ffH
	DB	0acH
	DB	0acH
	DB	0acH
	DB	0ffH
	DB	0acH
	DB	0acH
	DB	0acH
	DB	0ffH
	DB	0acH
	DB	0acH
	DB	0acH
	DB	0ffH
	DB	0acH
	DB	0acH
	DB	0acH
	DB	0ffH
	DB	0acH
	DB	0acH
	DB	0acH
	DB	0ffH
	DB	0acH
	DB	0acH
	DB	0acH
	DB	0ffH
	DB	0acH
	DB	0acH
	DB	0acH
	DB	0ffH
	DB	0acH
	DB	0acH
	DB	0acH
	DB	0ffH
	DB	0acH
	DB	0acH
	DB	0acH
	DB	0ffH
	DB	0acH
	DB	0acH
	DB	0acH
	DB	0ffH
	DB	0acH
	DB	0acH
	DB	0acH
	DB	0ffH
	DB	0acH
	DB	0acH
	DB	0acH
	DB	0ffH
	DB	0acH
	DB	0acH
	DB	0acH
	DB	0ffH
	DB	0acH
	DB	0acH
	DB	0acH
	DB	0ffH
	DB	0acH
	DB	0acH
	DB	0acH
	DB	0ffH
	DB	0acH
	DB	0acH
	DB	0acH
	DB	0ffH
	DB	0acH
	DB	0acH
	DB	0acH
	DB	0ffH
	DB	0acH
	DB	0acH
	DB	0acH
	DB	0ffH
	DB	0acH
	DB	0acH
	DB	0acH
	DB	0ffH
	DB	0acH
	DB	0acH
	DB	0acH
	DB	0ffH
	DB	0acH
	DB	0acH
	DB	0acH
	DB	0ffH
	DB	0acH
	DB	0acH
	DB	0acH
	DB	0ffH
	DB	0acH
	DB	0acH
	DB	0acH
	DB	0ffH
	DB	0acH
	DB	0acH
	DB	0acH
	DB	0ffH
	DB	0acH
	DB	0acH
	DB	0acH
	DB	0ffH
	DB	0acH
	DB	0acH
	DB	0acH
	DB	0ffH
	DB	0acH
	DB	0acH
	DB	0acH
	DB	0ffH
	DB	0acH
	DB	0acH
	DB	0acH
	DB	0ffH
	DB	0acH
	DB	0acH
	DB	0acH
	DB	0ffH
	DB	0acH
	DB	0acH
	DB	0acH
	DB	0ffH
	DB	0acH
	DB	0acH
	DB	0acH
	DB	0ffH
	DB	0acH
	DB	0acH
	DB	0acH
	DB	0ffH
	DB	0acH
	DB	0acH
	DB	0acH
	DB	0ffH
	DB	0acH
	DB	0acH
	DB	0acH
	DB	0ffH
	DB	0acH
	DB	0acH
	DB	0acH
	DB	0ffH
	DB	0acH
	DB	0acH
	DB	0acH
	DB	0ffH
	DB	0acH
	DB	0acH
	DB	0acH
	DB	0ffH
	DB	0acH
	DB	0acH
	DB	0acH
	DB	0ffH
	DB	0acH
	DB	0acH
	DB	0acH
	DB	0ffH
	DB	0acH
	DB	0acH
	DB	0acH
	DB	0ffH
	DB	0acH
	DB	0acH
	DB	0acH
	DB	0ffH
	DB	0acH
	DB	0acH
	DB	0acH
	DB	0ffH
	DB	0acH
	DB	0acH
	DB	0acH
	DB	0ffH
	DB	0acH
	DB	0acH
	DB	0acH
	DB	0ffH
	DB	0acH
	DB	0acH
	DB	0acH
	DB	0ffH
	DB	0acH
	DB	0acH
	DB	0acH
	DB	0ffH
	DB	0acH
	DB	0acH
	DB	0acH
	DB	0ffH
	DB	0acH
	DB	0acH
	DB	0acH
	DB	0ffH
	DB	0acH
	DB	0acH
	DB	0acH
	DB	0ffH
	DB	0acH
	DB	0acH
	DB	0acH
	DB	0ffH
	DB	0acH
	DB	0acH
	DB	0acH
	DB	0ffH
	DB	0acH
	DB	0acH
	DB	0acH
	DB	0ffH
	DB	0acH
	DB	0acH
	DB	0acH
	DB	0ffH
	DB	0acH
	DB	0acH
	DB	0acH
	DB	0ffH
	DB	0acH
	DB	0acH
	DB	0acH
	DB	0ffH
	DB	0acH
	DB	0acH
	DB	0acH
	DB	0ffH
	DB	0acH
	DB	0acH
	DB	0acH
	DB	0ffH
	DB	0acH
	DB	0acH
	DB	0acH
	DB	0ffH
	DB	0acH
	DB	0acH
	DB	0acH
	DB	0ffH
	DB	0acH
	DB	0acH
	DB	0acH
	DB	0ffH
	DB	0acH
	DB	0acH
	DB	0acH
	DB	0ffH
	DB	0acH
	DB	0acH
	DB	0acH
	DB	0ffH
	DB	0acH
	DB	0acH
	DB	0acH
	DB	0ffH
	DB	0acH
	DB	0acH
	DB	0acH
	DB	0ffH
	DB	0acH
	DB	0acH
	DB	0acH
	DB	0ffH
	DB	0acH
	DB	0acH
	DB	0acH
	DB	0ffH
	DB	0acH
	DB	0acH
	DB	0acH
	DB	0ffH
	DB	0acH
	DB	0acH
	DB	0acH
	DB	0ffH
	DB	0acH
	DB	0acH
	DB	0acH
	DB	0ffH
	DB	0acH
	DB	0acH
	DB	0acH
	DB	0ffH
	DB	0acH
	DB	0acH
	DB	0acH
	DB	0ffH
	DB	0acH
	DB	0acH
	DB	0acH
	DB	0ffH
	DB	0acH
	DB	0acH
	DB	0acH
	DB	0ffH
	DB	0acH
	DB	0acH
	DB	0acH
	DB	0ffH
	DB	0acH
	DB	0acH
	DB	0acH
	DB	0ffH
	DB	0acH
	DB	0acH
	DB	0acH
	DB	0ffH
	DB	0acH
	DB	0acH
	DB	0acH
	DB	0ffH
	DB	0acH
	DB	0acH
	DB	0acH
	DB	0ffH
	DB	0acH
	DB	0acH
	DB	0acH
	DB	0ffH
	DB	0acH
	DB	0acH
	DB	0acH
	DB	0ffH
	DB	0acH
	DB	0acH
	DB	0acH
	DB	0ffH
	DB	0acH
	DB	0acH
	DB	0acH
	DB	0ffH
	DB	0acH
	DB	0acH
	DB	0acH
	DB	0ffH
	DB	0acH
	DB	0acH
	DB	0acH
	DB	0ffH
	DB	0acH
	DB	0acH
	DB	0acH
	DB	0ffH
	DB	0acH
	DB	0acH
	DB	0acH
	DB	0ffH
	DB	0acH
	DB	0acH
	DB	0acH
	DB	0ffH
	DB	0acH
	DB	0acH
	DB	0acH
	DB	0ffH
	DB	0acH
	DB	0acH
	DB	0acH
	DB	0ffH
	DB	0acH
	DB	0acH
	DB	0acH
	DB	0ffH
	DB	0acH
	DB	0acH
	DB	0acH
	DB	0ffH
	DB	0acH
	DB	0acH
	DB	0acH
	DB	0ffH
	DB	0acH
	DB	0acH
	DB	0acH
	DB	0ffH
	DB	0acH
	DB	0acH
	DB	0acH
	DB	0ffH
	DB	0acH
	DB	0acH
	DB	0acH
	DB	0ffH
	DB	0acH
	DB	0acH
	DB	0acH
	DB	0ffH
	DB	0acH
	DB	0acH
	DB	0acH
	DB	0ffH
	DB	0acH
	DB	0acH
	DB	0acH
	DB	0ffH
	DB	0acH
	DB	0acH
	DB	0acH
	DB	0ffH
	DB	0acH
	DB	0acH
	DB	0acH
	DB	0ffH
	DB	0acH
	DB	0acH
	DB	0acH
	DB	0ffH
	DB	0acH
	DB	0acH
	DB	0acH
	DB	0ffH
	DB	0acH
	DB	0acH
	DB	0acH
	DB	0ffH
	DB	0acH
	DB	0acH
	DB	0acH
	DB	0ffH
	DB	0acH
	DB	0acH
	DB	0acH
	DB	0ffH
	DB	0acH
	DB	0acH
	DB	0acH
	DB	0ffH
	DB	0acH
	DB	0acH
	DB	0acH
	DB	0ffH
	DB	0acH
	DB	0acH
	DB	0acH
	DB	0ffH
	DB	0acH
	DB	0acH
	DB	0acH
	DB	0ffH
	DB	0acH
	DB	0acH
	DB	0acH
	DB	0ffH
	DB	0acH
	DB	0acH
	DB	0acH
	DB	0ffH
	DB	0acH
	DB	0acH
	DB	0acH
	DB	0ffH
	DB	0acH
	DB	0acH
	DB	0acH
	DB	0ffH
	DB	0acH
	DB	0acH
	DB	0acH
	DB	0ffH
	DB	0acH
	DB	0acH
	DB	0acH
	DB	0ffH
	DB	0acH
	DB	0acH
	DB	0acH
	DB	0ffH
	DB	0acH
	DB	0acH
	DB	0acH
	DB	0ffH
	DB	0acH
	DB	0acH
	DB	0acH
	DB	0ffH
	DB	0acH
	DB	0acH
	DB	0acH
	DB	0ffH
	DB	0acH
	DB	0acH
	DB	0acH
	DB	0ffH
	DB	0acH
	DB	0acH
	DB	0acH
	DB	0ffH
	DB	0acH
	DB	0acH
	DB	0acH
	DB	0ffH
	DB	0acH
	DB	0acH
	DB	0acH
	DB	0ffH
	DB	0acH
	DB	0acH
	DB	0acH
	DB	0ffH
	DB	0acH
	DB	0acH
	DB	0acH
	DB	0ffH
	DB	0acH
	DB	0acH
	DB	0acH
	DB	0ffH
	DB	0acH
	DB	0acH
	DB	0acH
	DB	0ffH
	DB	0acH
	DB	0acH
	DB	0acH
	DB	0ffH
	DB	0acH
	DB	0acH
	DB	0acH
	DB	0ffH
	DB	0acH
	DB	0acH
	DB	0acH
	DB	0ffH
	DB	0acH
	DB	0acH
	DB	0acH
	DB	0ffH
	DB	0acH
	DB	0acH
	DB	0acH
	DB	0ffH
	DB	0acH
	DB	0acH
	DB	0acH
	DB	0ffH
	DB	0acH
	DB	0acH
	DB	0acH
	DB	0ffH
	DB	0acH
	DB	0acH
	DB	0acH
	DB	0ffH
	DB	0acH
	DB	0acH
	DB	0acH
	DB	0ffH
	DB	0acH
	DB	0acH
	DB	0acH
	DB	0ffH
	DB	0acH
	DB	0acH
	DB	0acH
	DB	0ffH
	DB	0acH
	DB	0acH
	DB	0acH
	DB	0ffH
	DB	0acH
	DB	0acH
	DB	0acH
	DB	0ffH
	DB	0acH
	DB	0acH
	DB	0acH
	DB	0ffH
	DB	0acH
	DB	0acH
	DB	0acH
	DB	0ffH
	DB	0acH
	DB	0acH
	DB	0acH
	DB	0ffH
	DB	0acH
	DB	0acH
	DB	0acH
	DB	0ffH
	DB	0acH
	DB	0acH
	DB	0acH
	DB	0ffH
	DB	0acH
	DB	0acH
	DB	0acH
	DB	0ffH
	DB	0acH
	DB	0acH
	DB	0acH
	DB	0ffH
	DB	0acH
	DB	0acH
	DB	0acH
	DB	0ffH
	DB	0acH
	DB	0acH
	DB	0acH
	DB	0ffH
	DB	0acH
	DB	0acH
	DB	0acH
	DB	0ffH
	DB	0acH
	DB	0acH
	DB	0acH
	DB	0ffH
	DB	0acH
	DB	0acH
	DB	0acH
	DB	0ffH
	DB	0acH
	DB	0acH
	DB	0acH
	DB	0ffH
	DB	0acH
	DB	0acH
	DB	0acH
	DB	0ffH
	DB	0acH
	DB	0acH
	DB	0acH
	DB	0ffH
	DB	0acH
	DB	0acH
	DB	0acH
	DB	0ffH
	DB	0acH
	DB	0acH
	DB	0acH
	DB	0ffH
	DB	0acH
	DB	0acH
	DB	0acH
	DB	0ffH
	DB	0acH
	DB	0acH
	DB	0acH
	DB	0ffH
	DB	0acH
	DB	0acH
	DB	0acH
	DB	0ffH
	DB	0acH
	DB	0acH
	DB	0acH
	DB	0ffH
	DB	0acH
	DB	0acH
	DB	0acH
	DB	0ffH
	DB	0acH
	DB	0acH
	DB	0acH
	DB	0ffH
	DB	0acH
	DB	0acH
	DB	0acH
	DB	0ffH
	DB	0acH
	DB	0acH
	DB	0acH
	DB	0ffH
	DB	0acH
	DB	0acH
	DB	0acH
	DB	0ffH
	DB	0acH
	DB	0acH
	DB	0acH
	DB	0ffH
	DB	0acH
	DB	0acH
	DB	0acH
	DB	0ffH
	DB	0acH
	DB	0acH
	DB	0acH
	DB	0ffH
	DB	0acH
	DB	0acH
	DB	0acH
	DB	0ffH
	DB	0acH
	DB	0acH
	DB	0acH
	DB	0ffH
	DB	0acH
	DB	0acH
	DB	0acH
	DB	0ffH
	DB	0acH
	DB	0acH
	DB	0acH
	DB	0ffH
	DB	0acH
	DB	0acH
	DB	0acH
	DB	0ffH
	DB	0acH
	DB	0acH
	DB	0acH
	DB	0ffH
	DB	0acH
	DB	0acH
	DB	0acH
	DB	0ffH
	DB	0acH
	DB	0acH
	DB	0acH
	DB	0ffH
	DB	0acH
	DB	0acH
	DB	0acH
	DB	0ffH
	DB	0acH
	DB	0acH
	DB	0acH
	DB	0ffH
	DB	0acH
	DB	0acH
	DB	0acH
	DB	0ffH
	DB	0acH
	DB	0acH
	DB	0acH
	DB	0ffH
	DB	0acH
	DB	0acH
	DB	0acH
	DB	0ffH
	DB	0acH
	DB	0acH
	DB	0acH
	DB	0ffH
	DB	0acH
	DB	0acH
	DB	0acH
	DB	0ffH
	DB	0acH
	DB	0acH
	DB	0acH
	DB	0ffH
	DB	0acH
	DB	0acH
	DB	0acH
	DB	0ffH
	DB	0acH
	DB	0acH
	DB	0acH
	DB	0ffH
	DB	0acH
	DB	0acH
	DB	0acH
	DB	0ffH
	DB	0acH
	DB	0acH
	DB	0acH
	DB	0ffH
	DB	0acH
	DB	0acH
	DB	0acH
	DB	0ffH
	DB	0acH
	DB	0acH
	DB	0acH
	DB	0ffH
	DB	0acH
	DB	0acH
	DB	0acH
	DB	0ffH
	DB	0acH
	DB	0acH
	DB	0acH
	DB	0ffH
	DB	0acH
	DB	0acH
	DB	0acH
	DB	0ffH
	DB	0acH
	DB	0acH
	DB	0acH
	DB	0ffH
	DB	0acH
	DB	0acH
	DB	0acH
	DB	0ffH
	DB	0acH
	DB	0acH
	DB	0acH
	DB	0ffH
	DB	0acH
	DB	0acH
	DB	0acH
	DB	0ffH
	DB	0acH
	DB	0acH
	DB	0acH
	DB	0ffH
	DB	0acH
	DB	0acH
	DB	0acH
	DB	0ffH
	DB	0acH
	DB	0acH
	DB	0acH
	DB	0ffH
	DB	0acH
	DB	0acH
	DB	0acH
	DB	0ffH
	DB	0acH
	DB	0acH
	DB	0acH
	DB	0ffH
	DB	0acH
	DB	0acH
	DB	0acH
	DB	0ffH
	DB	0acH
	DB	0acH
	DB	0acH
	DB	0ffH
	DB	0acH
	DB	0acH
	DB	0acH
	DB	0ffH
	DB	0acH
	DB	0acH
	DB	0acH
	DB	0ffH
	DB	0acH
	DB	0acH
	DB	0acH
	DB	0ffH
	DB	0acH
	DB	0acH
	DB	0acH
	DB	0ffH
	DB	0acH
	DB	0acH
	DB	0acH
	DB	0ffH
	DB	0acH
	DB	0acH
	DB	0acH
	DB	0ffH
	DB	0acH
	DB	0acH
	DB	0acH
	DB	0ffH
	DB	0acH
	DB	0acH
	DB	0acH
	DB	0ffH
	DB	0acH
	DB	0acH
	DB	0acH
	DB	0ffH
	DB	0acH
	DB	0acH
	DB	0acH
	DB	0ffH
	DB	0acH
	DB	0acH
	DB	0acH
	DB	0ffH
	DB	0acH
	DB	0acH
	DB	0acH
	DB	0ffH
	DB	0acH
	DB	0acH
	DB	0acH
	DB	0ffH
	DB	0acH
	DB	0acH
	DB	0acH
	DB	0ffH
	DB	0acH
	DB	0acH
	DB	0acH
	DB	0ffH
	DB	0acH
	DB	0acH
	DB	0acH
	DB	0ffH
	DB	0acH
	DB	0acH
	DB	0acH
	DB	0ffH
	DB	0acH
	DB	0acH
	DB	0acH
	DB	0ffH
	DB	0acH
	DB	0acH
	DB	0acH
	DB	0ffH
	DB	0acH
	DB	0acH
	DB	0acH
	DB	0ffH
	DB	0acH
	DB	0acH
	DB	0acH
	DB	0ffH
	DB	0acH
	DB	0acH
	DB	0acH
	DB	0ffH
	DB	0acH
	DB	0acH
	DB	0acH
	DB	0ffH
	DB	0acH
	DB	0acH
	DB	0acH
	DB	0ffH
	DB	0acH
	DB	0acH
	DB	0acH
	DB	0ffH
	DB	0acH
	DB	0acH
	DB	0acH
	DB	0ffH
	DB	0acH
	DB	0acH
	DB	0acH
	DB	0ffH
	DB	0acH
	DB	0acH
	DB	0acH
	DB	0ffH
	DB	0acH
	DB	0acH
	DB	0acH
	DB	0ffH
	DB	0acH
	DB	0acH
	DB	0acH
	DB	0ffH
	DB	0acH
	DB	0acH
	DB	0acH
	DB	0ffH
	DB	0acH
	DB	0acH
	DB	0acH
	DB	0ffH
	DB	0acH
	DB	0acH
	DB	0acH
	DB	0ffH
	DB	0acH
	DB	0acH
	DB	0acH
	DB	0ffH
	DB	0acH
	DB	0acH
	DB	0acH
	DB	0ffH
	DB	0acH
	DB	0acH
	DB	0acH
	DB	0ffH
	DB	0acH
	DB	0acH
	DB	0acH
	DB	0ffH
	DB	0acH
	DB	0acH
	DB	0acH
	DB	0ffH
	DB	0acH
	DB	0acH
	DB	0acH
	DB	0ffH
	DB	0acH
	DB	0acH
	DB	0acH
	DB	0ffH
	DB	0acH
	DB	0acH
	DB	0acH
	DB	0ffH
	DB	0acH
	DB	0acH
	DB	0acH
	DB	0ffH
	DB	0acH
	DB	0acH
	DB	0acH
	DB	0ffH
	DB	0acH
	DB	0acH
	DB	0acH
	DB	0ffH
	DB	0acH
	DB	0acH
	DB	0acH
	DB	0ffH
	DB	0acH
	DB	0acH
	DB	0acH
	DB	0ffH
	DB	0acH
	DB	0acH
	DB	0acH
	DB	0ffH
	DB	0acH
	DB	0acH
	DB	0acH
	DB	0ffH
	DB	0acH
	DB	0acH
	DB	0acH
	DB	0ffH
	DB	0acH
	DB	0acH
	DB	0acH
	DB	0ffH
	DB	0acH
	DB	0acH
	DB	0acH
	DB	0ffH
	DB	0acH
	DB	0acH
	DB	0acH
	DB	0ffH
	DB	0acH
	DB	0acH
	DB	0acH
	DB	0ffH
	DB	0acH
	DB	0acH
	DB	0acH
	DB	0ffH
	DB	0acH
	DB	0acH
	DB	0acH
	DB	0ffH
	DB	0acH
	DB	0acH
	DB	0acH
	DB	0ffH
	DB	0acH
	DB	0acH
	DB	0acH
	DB	0ffH
	DB	0acH
	DB	0acH
	DB	0acH
	DB	0ffH
	DB	0acH
	DB	0acH
	DB	0acH
	DB	0ffH
	DB	0acH
	DB	0acH
	DB	0acH
	DB	0ffH
	DB	0acH
	DB	0acH
	DB	0acH
	DB	0ffH
	DB	0acH
	DB	0acH
	DB	0acH
	DB	0ffH
	DB	0acH
	DB	0acH
	DB	0acH
	DB	0ffH
	DB	0acH
	DB	0acH
	DB	0acH
	DB	0ffH
	DB	0acH
	DB	0acH
	DB	0acH
	DB	0ffH
	DB	0acH
	DB	0acH
	DB	0acH
	DB	0ffH
	DB	0acH
	DB	0acH
	DB	0acH
	DB	0ffH
	DB	0acH
	DB	0acH
	DB	0acH
	DB	0ffH
	DB	0acH
	DB	0acH
	DB	0acH
	DB	0ffH
	DB	0acH
	DB	0acH
	DB	0acH
	DB	0ffH
	DB	0acH
	DB	0acH
	DB	0acH
	DB	0ffH
	DB	0acH
	DB	0acH
	DB	0acH
	DB	0ffH
	DB	0acH
	DB	0acH
	DB	0acH
	DB	0ffH
	DB	0acH
	DB	0acH
	DB	0acH
	DB	0ffH
	DB	0acH
	DB	0acH
	DB	0acH
	DB	0ffH
	DB	0acH
	DB	0acH
	DB	0acH
	DB	0ffH
	DB	0acH
	DB	0acH
	DB	0acH
	DB	0ffH
	DB	0acH
	DB	0acH
	DB	0acH
	DB	0ffH
	DB	0acH
	DB	0acH
	DB	0acH
	DB	0ffH
	DB	0acH
	DB	0acH
	DB	0acH
	DB	0ffH
	DB	0acH
	DB	0acH
	DB	0acH
	DB	0ffH
	DB	0acH
	DB	0acH
	DB	0acH
	DB	0ffH
	DB	0acH
	DB	0acH
	DB	0acH
	DB	0ffH
	DB	0acH
	DB	0acH
	DB	0acH
	DB	0ffH
	DB	0acH
	DB	0acH
	DB	0acH
	DB	0ffH
	DB	0acH
	DB	0acH
	DB	0acH
	DB	0ffH
	DB	0acH
	DB	0acH
	DB	0acH
	DB	0ffH
	DB	0acH
	DB	0acH
	DB	0acH
	DB	0ffH
	DB	0acH
	DB	0acH
	DB	0acH
	DB	0ffH
	DB	0acH
	DB	0acH
	DB	0acH
	DB	0ffH
	DB	0acH
	DB	0acH
	DB	0acH
	DB	0ffH
	DB	0acH
	DB	0acH
	DB	0acH
	DB	0ffH
	DB	0acH
	DB	0acH
	DB	0acH
	DB	0ffH
	DB	0acH
	DB	0acH
	DB	0acH
	DB	0ffH
	DB	0acH
	DB	0acH
	DB	0acH
	DB	0ffH
	DB	0acH
	DB	0acH
	DB	0acH
	DB	0ffH
	DB	0acH
	DB	0acH
	DB	0acH
	DB	0ffH
	DB	0acH
	DB	0acH
	DB	0acH
	DB	0ffH
	DB	0acH
	DB	0acH
	DB	0acH
	DB	0ffH
	DB	0acH
	DB	0acH
	DB	0acH
	DB	0ffH
	DB	0acH
	DB	0acH
	DB	0acH
	DB	0ffH
	DB	0acH
	DB	0acH
	DB	0acH
	DB	0ffH
	DB	0acH
	DB	0acH
	DB	0acH
	DB	0ffH
	DB	0acH
	DB	0acH
	DB	0acH
	DB	0ffH
	DB	0acH
	DB	0acH
	DB	0acH
	DB	0ffH
	DB	0acH
	DB	0acH
	DB	0acH
	DB	0ffH
	DB	0acH
	DB	0acH
	DB	0acH
	DB	0ffH
	DB	0acH
	DB	0acH
	DB	0acH
	DB	0ffH
	DB	0acH
	DB	0acH
	DB	0acH
	DB	0ffH
	DB	0acH
	DB	0acH
	DB	0acH
	DB	0ffH
	DB	0acH
	DB	0acH
	DB	0acH
	DB	0ffH
	DB	0acH
	DB	0acH
	DB	0acH
	DB	0ffH
	DB	0acH
	DB	0acH
	DB	0acH
	DB	0ffH
	DB	0acH
	DB	0acH
	DB	0acH
	DB	0ffH
	DB	0acH
	DB	0acH
	DB	0acH
	DB	0ffH
	DB	0acH
	DB	0acH
	DB	0acH
	DB	0ffH
	DB	0acH
	DB	0acH
	DB	0acH
	DB	0ffH
	DB	0acH
	DB	0acH
	DB	0acH
	DB	0ffH
	DB	0acH
	DB	0acH
	DB	0acH
	DB	0ffH
	DB	0acH
	DB	0acH
	DB	0acH
	DB	0ffH
	DB	0acH
	DB	0acH
	DB	0acH
	DB	0ffH
	DB	0acH
	DB	0acH
	DB	0acH
	DB	0ffH
	DB	0acH
	DB	0acH
	DB	0acH
	DB	0ffH
	DB	0acH
	DB	0acH
	DB	0acH
	DB	0ffH
	DB	0acH
	DB	0acH
	DB	0acH
	DB	0ffH
	DB	0acH
	DB	0acH
	DB	0acH
	DB	0ffH
	DB	0acH
	DB	0acH
	DB	0acH
	DB	0ffH
	DB	0acH
	DB	0acH
	DB	0acH
	DB	0ffH
	DB	0acH
	DB	0acH
	DB	0acH
	DB	0ffH
	DB	0acH
	DB	0acH
	DB	0acH
	DB	0ffH
	DB	0acH
	DB	0acH
	DB	0acH
	DB	0ffH
	DB	0acH
	DB	0acH
	DB	0acH
	DB	0ffH
	DB	0acH
	DB	0acH
	DB	0acH
	DB	0ffH
	DB	0acH
	DB	0acH
	DB	0acH
	DB	0ffH
	DB	0acH
	DB	0acH
	DB	0acH
	DB	0ffH
	DB	0acH
	DB	0acH
	DB	0acH
	DB	0ffH
	DB	0acH
	DB	0acH
	DB	0acH
	DB	0ffH
	DB	0acH
	DB	0acH
	DB	0acH
	DB	0ffH
	DB	0acH
	DB	0acH
	DB	0acH
	DB	0ffH
	DB	0acH
	DB	0acH
	DB	0acH
	DB	0ffH
	DB	0acH
	DB	0acH
	DB	0acH
	DB	0ffH
	DB	0acH
	DB	0acH
	DB	0acH
	DB	0ffH
	DB	0acH
	DB	0acH
	DB	0acH
	DB	0ffH
	DB	0acH
	DB	0acH
	DB	0acH
	DB	0ffH
	DB	0acH
	DB	0acH
	DB	0acH
	DB	0ffH
	DB	0acH
	DB	0acH
	DB	0acH
	DB	0ffH
	DB	0acH
	DB	0acH
	DB	0acH
	DB	0ffH
	DB	0acH
	DB	0acH
	DB	0acH
	DB	0ffH
	DB	0acH
	DB	0acH
	DB	0acH
	DB	0ffH
	DB	0acH
	DB	0acH
	DB	0acH
	DB	0ffH
	DB	0acH
	DB	0acH
	DB	0acH
	DB	0ffH
	DB	0acH
	DB	0acH
	DB	0acH
	DB	0ffH
	DB	0acH
	DB	0acH
	DB	0acH
	DB	0ffH
	DB	0acH
	DB	0acH
	DB	0acH
	DB	0ffH
	DB	0acH
	DB	0acH
	DB	0acH
	DB	0ffH
	DB	0acH
	DB	0acH
	DB	0acH
	DB	0ffH
	DB	0acH
	DB	0acH
	DB	0acH
	DB	0ffH
	DB	0acH
	DB	0acH
	DB	0acH
	DB	0ffH
	DB	0acH
	DB	0acH
	DB	0acH
	DB	0ffH
	DB	0acH
	DB	0acH
	DB	0acH
	DB	0ffH
	DB	0acH
	DB	0acH
	DB	0acH
	DB	0ffH
	DB	0acH
	DB	0acH
	DB	0acH
	DB	0ffH
	DB	0acH
	DB	0acH
	DB	0acH
	DB	0ffH
	DB	0acH
	DB	0acH
	DB	0acH
	DB	0ffH
	DB	0acH
	DB	0acH
	DB	0acH
	DB	0ffH
	DB	0acH
	DB	0acH
	DB	0acH
	DB	0ffH
	DB	0acH
	DB	0acH
	DB	0acH
	DB	0ffH
	DB	0acH
	DB	0acH
	DB	0acH
	DB	0ffH
	DB	0acH
	DB	0acH
	DB	0acH
	DB	0ffH
	DB	0acH
	DB	0acH
	DB	0acH
	DB	0ffH
	DB	0acH
	DB	0acH
	DB	0acH
	DB	0ffH
	DB	0acH
	DB	0acH
	DB	0acH
	DB	0ffH
	DB	0acH
	DB	0acH
	DB	0acH
	DB	0ffH
	DB	0acH
	DB	0acH
	DB	0acH
	DB	0ffH
	DB	0acH
	DB	0acH
	DB	0acH
	DB	0ffH
	DB	0acH
	DB	0acH
	DB	0acH
	DB	0ffH
	DB	0acH
	DB	0acH
	DB	0acH
	DB	0ffH
	DB	0acH
	DB	0acH
	DB	0acH
	DB	0ffH
	DB	0acH
	DB	0acH
	DB	0acH
	DB	0ffH
	DB	0acH
	DB	0acH
	DB	0acH
	DB	0ffH
	DB	0acH
	DB	0acH
	DB	0acH
	DB	0ffH
	DB	0acH
	DB	0acH
	DB	0acH
	DB	0ffH
	DB	0acH
	DB	0acH
	DB	0acH
	DB	0ffH
	DB	0acH
	DB	0acH
	DB	0acH
	DB	0ffH
	DB	0acH
	DB	0acH
	DB	0acH
	DB	0ffH
	DB	0acH
	DB	0acH
	DB	0acH
	DB	0ffH
	DB	0acH
	DB	0acH
	DB	0acH
	DB	0ffH
	DB	0acH
	DB	0acH
	DB	0acH
	DB	0ffH
	DB	0acH
	DB	0acH
	DB	0acH
	DB	0ffH
	DB	0acH
	DB	0acH
	DB	0acH
	DB	0ffH
	DB	0acH
	DB	0acH
	DB	0acH
	DB	0ffH
	DB	0acH
	DB	0acH
	DB	0acH
	DB	0ffH
	DB	0acH
	DB	0acH
	DB	0acH
	DB	0ffH
	DB	0acH
	DB	0acH
	DB	0acH
	DB	0ffH
	DB	0acH
	DB	0acH
	DB	0acH
	DB	0ffH
	DB	0acH
	DB	0acH
	DB	0acH
	DB	0ffH
	DB	0acH
	DB	0acH
	DB	0acH
	DB	0ffH
	DB	0acH
	DB	0acH
	DB	0acH
	DB	0ffH
	DB	0acH
	DB	0acH
	DB	0acH
	DB	0ffH
	DB	0acH
	DB	0acH
	DB	0acH
	DB	0ffH
	DB	0acH
	DB	0acH
	DB	0acH
	DB	0ffH
	DB	0acH
	DB	0acH
	DB	0acH
	DB	0ffH
	DB	0acH
	DB	0acH
	DB	0acH
	DB	0ffH
	DB	0acH
	DB	0acH
	DB	0acH
	DB	0ffH
	DB	0acH
	DB	0acH
	DB	0acH
	DB	0ffH
	DB	0acH
	DB	0acH
	DB	0acH
	DB	0ffH
	DB	0acH
	DB	0acH
	DB	0acH
	DB	0ffH
	DB	0acH
	DB	0acH
	DB	0acH
	DB	0ffH
	DB	0acH
	DB	0acH
	DB	0acH
	DB	0ffH
	DB	0acH
	DB	0acH
	DB	0acH
	DB	0ffH
	DB	0acH
	DB	0acH
	DB	0acH
	DB	0ffH
	DB	0acH
	DB	0acH
	DB	0acH
	DB	0ffH
	DB	0acH
	DB	0acH
	DB	0acH
	DB	0ffH
	DB	0acH
	DB	0acH
	DB	0acH
	DB	0ffH
	DB	0acH
	DB	0acH
	DB	0acH
	DB	0ffH
	DB	0acH
	DB	0acH
	DB	0acH
	DB	0ffH
	DB	0acH
	DB	0acH
	DB	0acH
	DB	0ffH
	DB	0acH
	DB	0acH
	DB	0acH
	DB	0ffH
	DB	0acH
	DB	0acH
	DB	0acH
	DB	0ffH
	DB	0acH
	DB	0acH
	DB	0acH
	DB	06eH
	DB	00H
	DB	00H
	DB	00H
	DB	00H
	DB	00H
	DB	00H
	DB	00H
	DB	00H
	DB	0acH
	DB	0acH
	DB	0acH
	DB	07H
	DB	0acH
	DB	0acH
	DB	0acH
	DB	0d0H
	DB	0acH
	DB	0acH
	DB	0acH
	DB	0ffH
	DB	0acH
	DB	0acH
	DB	0acH
	DB	0ffH
	DB	0acH
	DB	0acH
	DB	0acH
	DB	0ffH
	DB	0acH
	DB	0acH
	DB	0acH
	DB	0ffH
	DB	0acH
	DB	0acH
	DB	0acH
	DB	0ffH
	DB	0acH
	DB	0acH
	DB	0acH
	DB	0ffH
	DB	0acH
	DB	0acH
	DB	0acH
	DB	0ffH
	DB	0acH
	DB	0acH
	DB	0acH
	DB	0ffH
	DB	0acH
	DB	0acH
	DB	0acH
	DB	0ffH
	DB	0acH
	DB	0acH
	DB	0acH
	DB	0ffH
	DB	0acH
	DB	0acH
	DB	0acH
	DB	0ffH
	DB	0acH
	DB	0acH
	DB	0acH
	DB	0ffH
	DB	0acH
	DB	0acH
	DB	0acH
	DB	0ffH
	DB	0acH
	DB	0acH
	DB	0acH
	DB	0ffH
	DB	0acH
	DB	0acH
	DB	0acH
	DB	0ffH
	DB	0acH
	DB	0acH
	DB	0acH
	DB	0ffH
	DB	0acH
	DB	0acH
	DB	0acH
	DB	0ffH
	DB	0acH
	DB	0acH
	DB	0acH
	DB	0ffH
	DB	0acH
	DB	0acH
	DB	0acH
	DB	0ffH
	DB	0acH
	DB	0acH
	DB	0acH
	DB	0ffH
	DB	0acH
	DB	0acH
	DB	0acH
	DB	0ffH
	DB	0acH
	DB	0acH
	DB	0acH
	DB	0ffH
	DB	0acH
	DB	0acH
	DB	0acH
	DB	0ffH
	DB	0acH
	DB	0acH
	DB	0acH
	DB	0ffH
	DB	0acH
	DB	0acH
	DB	0acH
	DB	0ffH
	DB	0acH
	DB	0acH
	DB	0acH
	DB	0ffH
	DB	0acH
	DB	0acH
	DB	0acH
	DB	0ffH
	DB	0acH
	DB	0acH
	DB	0acH
	DB	0ffH
	DB	0acH
	DB	0acH
	DB	0acH
	DB	0ffH
	DB	0acH
	DB	0acH
	DB	0acH
	DB	0ffH
	DB	0acH
	DB	0acH
	DB	0acH
	DB	0ffH
	DB	0acH
	DB	0acH
	DB	0acH
	DB	0ffH
	DB	0acH
	DB	0acH
	DB	0acH
	DB	0ffH
	DB	0acH
	DB	0acH
	DB	0acH
	DB	0ffH
	DB	0acH
	DB	0acH
	DB	0acH
	DB	0ffH
	DB	0acH
	DB	0acH
	DB	0acH
	DB	0ffH
	DB	0acH
	DB	0acH
	DB	0acH
	DB	0ffH
	DB	0acH
	DB	0acH
	DB	0acH
	DB	0ffH
	DB	0acH
	DB	0acH
	DB	0acH
	DB	0ffH
	DB	0acH
	DB	0acH
	DB	0acH
	DB	0ffH
	DB	0acH
	DB	0acH
	DB	0acH
	DB	0ffH
	DB	0acH
	DB	0acH
	DB	0acH
	DB	0ffH
	DB	0acH
	DB	0acH
	DB	0acH
	DB	0ffH
	DB	0acH
	DB	0acH
	DB	0acH
	DB	0ffH
	DB	0acH
	DB	0acH
	DB	0acH
	DB	0ffH
	DB	0acH
	DB	0acH
	DB	0acH
	DB	0ffH
	DB	0acH
	DB	0acH
	DB	0acH
	DB	0ffH
	DB	0acH
	DB	0acH
	DB	0acH
	DB	0ffH
	DB	0acH
	DB	0acH
	DB	0acH
	DB	0ffH
	DB	0acH
	DB	0acH
	DB	0acH
	DB	0ffH
	DB	0acH
	DB	0acH
	DB	0acH
	DB	0ffH
	DB	0acH
	DB	0acH
	DB	0acH
	DB	0ffH
	DB	0acH
	DB	0acH
	DB	0acH
	DB	0ffH
	DB	0acH
	DB	0acH
	DB	0acH
	DB	0ffH
	DB	0acH
	DB	0acH
	DB	0acH
	DB	0ffH
	DB	0acH
	DB	0acH
	DB	0acH
	DB	0ffH
	DB	0acH
	DB	0acH
	DB	0acH
	DB	0ffH
	DB	0acH
	DB	0acH
	DB	0acH
	DB	0ffH
	DB	0acH
	DB	0acH
	DB	0acH
	DB	0ffH
	DB	0acH
	DB	0acH
	DB	0acH
	DB	0ffH
	DB	0acH
	DB	0acH
	DB	0acH
	DB	0ffH
	DB	0acH
	DB	0acH
	DB	0acH
	DB	0ffH
	DB	0acH
	DB	0acH
	DB	0acH
	DB	0ffH
	DB	0acH
	DB	0acH
	DB	0acH
	DB	0ffH
	DB	0acH
	DB	0acH
	DB	0acH
	DB	0ffH
	DB	0acH
	DB	0acH
	DB	0acH
	DB	0ffH
	DB	0acH
	DB	0acH
	DB	0acH
	DB	0ffH
	DB	0acH
	DB	0acH
	DB	0acH
	DB	0ffH
	DB	0acH
	DB	0acH
	DB	0acH
	DB	0ffH
	DB	0acH
	DB	0acH
	DB	0acH
	DB	0ffH
	DB	0acH
	DB	0acH
	DB	0acH
	DB	0ffH
	DB	0acH
	DB	0acH
	DB	0acH
	DB	0ffH
	DB	0acH
	DB	0acH
	DB	0acH
	DB	0ffH
	DB	0acH
	DB	0acH
	DB	0acH
	DB	0ffH
	DB	0acH
	DB	0acH
	DB	0acH
	DB	0ffH
	DB	0acH
	DB	0acH
	DB	0acH
	DB	0ffH
	DB	0acH
	DB	0acH
	DB	0acH
	DB	0ffH
	DB	0acH
	DB	0acH
	DB	0acH
	DB	0ffH
	DB	0acH
	DB	0acH
	DB	0acH
	DB	0ffH
	DB	0acH
	DB	0acH
	DB	0acH
	DB	0ffH
	DB	0acH
	DB	0acH
	DB	0acH
	DB	0ffH
	DB	0acH
	DB	0acH
	DB	0acH
	DB	0ffH
	DB	0acH
	DB	0acH
	DB	0acH
	DB	0ffH
	DB	0acH
	DB	0acH
	DB	0acH
	DB	0ffH
	DB	0acH
	DB	0acH
	DB	0acH
	DB	0ffH
	DB	0acH
	DB	0acH
	DB	0acH
	DB	0ffH
	DB	0acH
	DB	0acH
	DB	0acH
	DB	0ffH
	DB	0acH
	DB	0acH
	DB	0acH
	DB	0ffH
	DB	0acH
	DB	0acH
	DB	0acH
	DB	0ffH
	DB	0acH
	DB	0acH
	DB	0acH
	DB	0ffH
	DB	0acH
	DB	0acH
	DB	0acH
	DB	0ffH
	DB	0acH
	DB	0acH
	DB	0acH
	DB	0ffH
	DB	0acH
	DB	0acH
	DB	0acH
	DB	0ffH
	DB	0acH
	DB	0acH
	DB	0acH
	DB	0ffH
	DB	0acH
	DB	0acH
	DB	0acH
	DB	0ffH
	DB	0acH
	DB	0acH
	DB	0acH
	DB	0ffH
	DB	0acH
	DB	0acH
	DB	0acH
	DB	0ffH
	DB	0acH
	DB	0acH
	DB	0acH
	DB	0ffH
	DB	0acH
	DB	0acH
	DB	0acH
	DB	0ffH
	DB	0acH
	DB	0acH
	DB	0acH
	DB	0ffH
	DB	0acH
	DB	0acH
	DB	0acH
	DB	0ffH
	DB	0acH
	DB	0acH
	DB	0acH
	DB	0ffH
	DB	0acH
	DB	0acH
	DB	0acH
	DB	0ffH
	DB	0acH
	DB	0acH
	DB	0acH
	DB	0ffH
	DB	0acH
	DB	0acH
	DB	0acH
	DB	0ffH
	DB	0acH
	DB	0acH
	DB	0acH
	DB	0ffH
	DB	0acH
	DB	0acH
	DB	0acH
	DB	0ffH
	DB	0acH
	DB	0acH
	DB	0acH
	DB	0ffH
	DB	0acH
	DB	0acH
	DB	0acH
	DB	0ffH
	DB	0acH
	DB	0acH
	DB	0acH
	DB	0ffH
	DB	0acH
	DB	0acH
	DB	0acH
	DB	0ffH
	DB	0acH
	DB	0acH
	DB	0acH
	DB	0ffH
	DB	0acH
	DB	0acH
	DB	0acH
	DB	0ffH
	DB	0acH
	DB	0acH
	DB	0acH
	DB	0ffH
	DB	0acH
	DB	0acH
	DB	0acH
	DB	0ffH
	DB	0acH
	DB	0acH
	DB	0acH
	DB	0ffH
	DB	0acH
	DB	0acH
	DB	0acH
	DB	0ffH
	DB	0acH
	DB	0acH
	DB	0acH
	DB	0ffH
	DB	0acH
	DB	0acH
	DB	0acH
	DB	0ffH
	DB	0acH
	DB	0acH
	DB	0acH
	DB	0ffH
	DB	0acH
	DB	0acH
	DB	0acH
	DB	0ffH
	DB	0acH
	DB	0acH
	DB	0acH
	DB	0ffH
	DB	0acH
	DB	0acH
	DB	0acH
	DB	0ffH
	DB	0acH
	DB	0acH
	DB	0acH
	DB	0ffH
	DB	0acH
	DB	0acH
	DB	0acH
	DB	0ffH
	DB	0acH
	DB	0acH
	DB	0acH
	DB	0ffH
	DB	0acH
	DB	0acH
	DB	0acH
	DB	0ffH
	DB	0acH
	DB	0acH
	DB	0acH
	DB	0ffH
	DB	0acH
	DB	0acH
	DB	0acH
	DB	0ffH
	DB	0acH
	DB	0acH
	DB	0acH
	DB	0ffH
	DB	0acH
	DB	0acH
	DB	0acH
	DB	0ffH
	DB	0acH
	DB	0acH
	DB	0acH
	DB	0ffH
	DB	0acH
	DB	0acH
	DB	0acH
	DB	0ffH
	DB	0acH
	DB	0acH
	DB	0acH
	DB	0ffH
	DB	0acH
	DB	0acH
	DB	0acH
	DB	0ffH
	DB	0acH
	DB	0acH
	DB	0acH
	DB	0ffH
	DB	0acH
	DB	0acH
	DB	0acH
	DB	0ffH
	DB	0acH
	DB	0acH
	DB	0acH
	DB	0ffH
	DB	0acH
	DB	0acH
	DB	0acH
	DB	0ffH
	DB	0acH
	DB	0acH
	DB	0acH
	DB	0ffH
	DB	0acH
	DB	0acH
	DB	0acH
	DB	0ffH
	DB	0acH
	DB	0acH
	DB	0acH
	DB	0ffH
	DB	0acH
	DB	0acH
	DB	0acH
	DB	0ffH
	DB	0acH
	DB	0acH
	DB	0acH
	DB	0ffH
	DB	0acH
	DB	0acH
	DB	0acH
	DB	0ffH
	DB	0acH
	DB	0acH
	DB	0acH
	DB	0ffH
	DB	0acH
	DB	0acH
	DB	0acH
	DB	0ffH
	DB	0acH
	DB	0acH
	DB	0acH
	DB	0ffH
	DB	0acH
	DB	0acH
	DB	0acH
	DB	0ffH
	DB	0acH
	DB	0acH
	DB	0acH
	DB	0ffH
	DB	0acH
	DB	0acH
	DB	0acH
	DB	0ffH
	DB	0acH
	DB	0acH
	DB	0acH
	DB	0ffH
	DB	0acH
	DB	0acH
	DB	0acH
	DB	0ffH
	DB	0acH
	DB	0acH
	DB	0acH
	DB	0ffH
	DB	0acH
	DB	0acH
	DB	0acH
	DB	0ffH
	DB	0acH
	DB	0acH
	DB	0acH
	DB	0ffH
	DB	0acH
	DB	0acH
	DB	0acH
	DB	0ffH
	DB	0acH
	DB	0acH
	DB	0acH
	DB	0ffH
	DB	0acH
	DB	0acH
	DB	0acH
	DB	0ffH
	DB	0acH
	DB	0acH
	DB	0acH
	DB	0ffH
	DB	0acH
	DB	0acH
	DB	0acH
	DB	0ffH
	DB	0acH
	DB	0acH
	DB	0acH
	DB	0ffH
	DB	0acH
	DB	0acH
	DB	0acH
	DB	0ffH
	DB	0acH
	DB	0acH
	DB	0acH
	DB	0ffH
	DB	0acH
	DB	0acH
	DB	0acH
	DB	0ffH
	DB	0acH
	DB	0acH
	DB	0acH
	DB	0ffH
	DB	0acH
	DB	0acH
	DB	0acH
	DB	0ffH
	DB	0acH
	DB	0acH
	DB	0acH
	DB	0ffH
	DB	0acH
	DB	0acH
	DB	0acH
	DB	0ffH
	DB	0acH
	DB	0acH
	DB	0acH
	DB	0ffH
	DB	0acH
	DB	0acH
	DB	0acH
	DB	0ffH
	DB	0acH
	DB	0acH
	DB	0acH
	DB	0ffH
	DB	0acH
	DB	0acH
	DB	0acH
	DB	0ffH
	DB	0acH
	DB	0acH
	DB	0acH
	DB	0ffH
	DB	0acH
	DB	0acH
	DB	0acH
	DB	0ffH
	DB	0acH
	DB	0acH
	DB	0acH
	DB	0ffH
	DB	0acH
	DB	0acH
	DB	0acH
	DB	0ffH
	DB	0acH
	DB	0acH
	DB	0acH
	DB	0ffH
	DB	0acH
	DB	0acH
	DB	0acH
	DB	0ffH
	DB	0acH
	DB	0acH
	DB	0acH
	DB	0ffH
	DB	0acH
	DB	0acH
	DB	0acH
	DB	0ffH
	DB	0acH
	DB	0acH
	DB	0acH
	DB	0ffH
	DB	0acH
	DB	0acH
	DB	0acH
	DB	0ffH
	DB	0acH
	DB	0acH
	DB	0acH
	DB	0ffH
	DB	0acH
	DB	0acH
	DB	0acH
	DB	0ffH
	DB	0acH
	DB	0acH
	DB	0acH
	DB	0ffH
	DB	0acH
	DB	0acH
	DB	0acH
	DB	0ffH
	DB	0acH
	DB	0acH
	DB	0acH
	DB	0ffH
	DB	0acH
	DB	0acH
	DB	0acH
	DB	0ffH
	DB	0acH
	DB	0acH
	DB	0acH
	DB	0ffH
	DB	0acH
	DB	0acH
	DB	0acH
	DB	0ffH
	DB	0acH
	DB	0acH
	DB	0acH
	DB	0ffH
	DB	0acH
	DB	0acH
	DB	0acH
	DB	0ffH
	DB	0acH
	DB	0acH
	DB	0acH
	DB	0ffH
	DB	0acH
	DB	0acH
	DB	0acH
	DB	0ffH
	DB	0acH
	DB	0acH
	DB	0acH
	DB	0ffH
	DB	0acH
	DB	0acH
	DB	0acH
	DB	0ffH
	DB	0acH
	DB	0acH
	DB	0acH
	DB	0ffH
	DB	0acH
	DB	0acH
	DB	0acH
	DB	0ffH
	DB	0acH
	DB	0acH
	DB	0acH
	DB	0ffH
	DB	0acH
	DB	0acH
	DB	0acH
	DB	0ffH
	DB	0acH
	DB	0acH
	DB	0acH
	DB	0ffH
	DB	0acH
	DB	0acH
	DB	0acH
	DB	0ffH
	DB	0acH
	DB	0acH
	DB	0acH
	DB	0ffH
	DB	0acH
	DB	0acH
	DB	0acH
	DB	0ffH
	DB	0acH
	DB	0acH
	DB	0acH
	DB	0ffH
	DB	0acH
	DB	0acH
	DB	0acH
	DB	0ffH
	DB	0acH
	DB	0acH
	DB	0acH
	DB	0ffH
	DB	0acH
	DB	0acH
	DB	0acH
	DB	0ffH
	DB	0acH
	DB	0acH
	DB	0acH
	DB	0ffH
	DB	0acH
	DB	0acH
	DB	0acH
	DB	0ffH
	DB	0acH
	DB	0acH
	DB	0acH
	DB	0ffH
	DB	0acH
	DB	0acH
	DB	0acH
	DB	0ffH
	DB	0acH
	DB	0acH
	DB	0acH
	DB	0ffH
	DB	0acH
	DB	0acH
	DB	0acH
	DB	0ffH
	DB	0acH
	DB	0acH
	DB	0acH
	DB	0ffH
	DB	0acH
	DB	0acH
	DB	0acH
	DB	0ffH
	DB	0acH
	DB	0acH
	DB	0acH
	DB	0ffH
	DB	0acH
	DB	0acH
	DB	0acH
	DB	0ffH
	DB	0acH
	DB	0acH
	DB	0acH
	DB	0ffH
	DB	0acH
	DB	0acH
	DB	0acH
	DB	0ffH
	DB	0acH
	DB	0acH
	DB	0acH
	DB	0ffH
	DB	0acH
	DB	0acH
	DB	0acH
	DB	0ffH
	DB	0acH
	DB	0acH
	DB	0acH
	DB	0ffH
	DB	0acH
	DB	0acH
	DB	0acH
	DB	0ffH
	DB	0acH
	DB	0acH
	DB	0acH
	DB	0ffH
	DB	0acH
	DB	0acH
	DB	0acH
	DB	0ffH
	DB	0acH
	DB	0acH
	DB	0acH
	DB	0ffH
	DB	0acH
	DB	0acH
	DB	0acH
	DB	0ffH
	DB	0acH
	DB	0acH
	DB	0acH
	DB	0ffH
	DB	0acH
	DB	0acH
	DB	0acH
	DB	0ffH
	DB	0acH
	DB	0acH
	DB	0acH
	DB	0ffH
	DB	0acH
	DB	0acH
	DB	0acH
	DB	0ffH
	DB	0acH
	DB	0acH
	DB	0acH
	DB	0ffH
	DB	0acH
	DB	0acH
	DB	0acH
	DB	0ffH
	DB	0acH
	DB	0acH
	DB	0acH
	DB	0ffH
	DB	0acH
	DB	0acH
	DB	0acH
	DB	0ffH
	DB	0acH
	DB	0acH
	DB	0acH
	DB	0ffH
	DB	0acH
	DB	0acH
	DB	0acH
	DB	0ffH
	DB	0acH
	DB	0acH
	DB	0acH
	DB	0ffH
	DB	0acH
	DB	0acH
	DB	0acH
	DB	0ffH
	DB	0acH
	DB	0acH
	DB	0acH
	DB	0ffH
	DB	0acH
	DB	0acH
	DB	0acH
	DB	0ffH
	DB	0acH
	DB	0acH
	DB	0acH
	DB	0ffH
	DB	0acH
	DB	0acH
	DB	0acH
	DB	0ffH
	DB	0acH
	DB	0acH
	DB	0acH
	DB	0ffH
	DB	0acH
	DB	0acH
	DB	0acH
	DB	0ffH
	DB	0acH
	DB	0acH
	DB	0acH
	DB	0ffH
	DB	0acH
	DB	0acH
	DB	0acH
	DB	0ffH
	DB	0acH
	DB	0acH
	DB	0acH
	DB	0ffH
	DB	0acH
	DB	0acH
	DB	0acH
	DB	0ffH
	DB	0acH
	DB	0acH
	DB	0acH
	DB	0ffH
	DB	0acH
	DB	0acH
	DB	0acH
	DB	0ffH
	DB	0acH
	DB	0acH
	DB	0acH
	DB	0ffH
	DB	0acH
	DB	0acH
	DB	0acH
	DB	0ffH
	DB	0acH
	DB	0acH
	DB	0acH
	DB	0ffH
	DB	0acH
	DB	0acH
	DB	0acH
	DB	0ffH
	DB	0acH
	DB	0acH
	DB	0acH
	DB	0ffH
	DB	0acH
	DB	0acH
	DB	0acH
	DB	0ffH
	DB	0acH
	DB	0acH
	DB	0acH
	DB	0ffH
	DB	0acH
	DB	0acH
	DB	0acH
	DB	0ffH
	DB	0acH
	DB	0acH
	DB	0acH
	DB	0ffH
	DB	0acH
	DB	0acH
	DB	0acH
	DB	0ffH
	DB	0acH
	DB	0acH
	DB	0acH
	DB	0ffH
	DB	0acH
	DB	0acH
	DB	0acH
	DB	0ffH
	DB	0acH
	DB	0acH
	DB	0acH
	DB	0ffH
	DB	0acH
	DB	0acH
	DB	0acH
	DB	0ffH
	DB	0acH
	DB	0acH
	DB	0acH
	DB	0ffH
	DB	0acH
	DB	0acH
	DB	0acH
	DB	0ffH
	DB	0acH
	DB	0acH
	DB	0acH
	DB	0ffH
	DB	0acH
	DB	0acH
	DB	0acH
	DB	0ffH
	DB	0acH
	DB	0acH
	DB	0acH
	DB	0ffH
	DB	0acH
	DB	0acH
	DB	0acH
	DB	0ffH
	DB	0acH
	DB	0acH
	DB	0acH
	DB	0ffH
	DB	0acH
	DB	0acH
	DB	0acH
	DB	0ffH
	DB	0acH
	DB	0acH
	DB	0acH
	DB	0ffH
	DB	0acH
	DB	0acH
	DB	0acH
	DB	0ffH
	DB	0acH
	DB	0acH
	DB	0acH
	DB	0ffH
	DB	0acH
	DB	0acH
	DB	0acH
	DB	0ffH
	DB	0acH
	DB	0acH
	DB	0acH
	DB	0ffH
	DB	0acH
	DB	0acH
	DB	0acH
	DB	0ffH
	DB	0acH
	DB	0acH
	DB	0acH
	DB	0ffH
	DB	0acH
	DB	0acH
	DB	0acH
	DB	0ffH
	DB	0acH
	DB	0acH
