; Listing generated by Microsoft (R) Optimizing Compiler Version 19.29.30037.0 

	TITLE	G:\Germany\Scanner\Firmware\Display_Board\TouchGFX\build\Debug\obj\image_image.obj
	.686P
	.XMM
	include listing.inc
	.model	flat

INCLUDELIB MSVCRTD
INCLUDELIB OLDNAMES

PUBLIC	?image_image@@3QBEB				; image_image
CONST	SEGMENT
?image_image@@3QBEB DB 07dH				; image_image
	DB	02dH
	DB	022H
	DB	07dH
	DB	02dH
	DB	022H
	DB	07dH
	DB	02dH
	DB	022H
	DB	07dH
	DB	02dH
	DB	022H
	DB	07dH
	DB	02dH
	DB	022H
	DB	07dH
	DB	02dH
	DB	022H
	DB	07dH
	DB	02dH
	DB	022H
	DB	07dH
	DB	02dH
	DB	022H
	DB	07dH
	DB	02dH
	DB	022H
	DB	07dH
	DB	02dH
	DB	022H
	DB	07dH
	DB	02dH
	DB	022H
	DB	07dH
	DB	02dH
	DB	022H
	DB	07dH
	DB	02dH
	DB	022H
	DB	07dH
	DB	02dH
	DB	022H
	DB	07dH
	DB	02dH
	DB	022H
	DB	07dH
	DB	02dH
	DB	022H
	DB	07dH
	DB	02dH
	DB	022H
	DB	07dH
	DB	02dH
	DB	022H
	DB	07dH
	DB	02dH
	DB	022H
	DB	07dH
	DB	02dH
	DB	022H
	DB	07dH
	DB	02dH
	DB	022H
	DB	07dH
	DB	02dH
	DB	022H
	DB	07dH
	DB	02dH
	DB	022H
	DB	07dH
	DB	02dH
	DB	022H
	DB	07dH
	DB	02dH
	DB	022H
	DB	07dH
	DB	02dH
	DB	022H
	DB	07dH
	DB	02dH
	DB	022H
	DB	07dH
	DB	02dH
	DB	022H
	DB	07dH
	DB	02dH
	DB	022H
	DB	07dH
	DB	02dH
	DB	022H
	DB	07dH
	DB	02dH
	DB	022H
	DB	07dH
	DB	02dH
	DB	022H
	DB	07dH
	DB	02dH
	DB	022H
	DB	07dH
	DB	02dH
	DB	022H
	DB	07dH
	DB	02dH
	DB	022H
	DB	07dH
	DB	02dH
	DB	022H
	DB	07dH
	DB	02dH
	DB	022H
	DB	07dH
	DB	02dH
	DB	022H
	DB	07dH
	DB	02dH
	DB	022H
	DB	07dH
	DB	02dH
	DB	022H
	DB	07dH
	DB	02dH
	DB	022H
	DB	07dH
	DB	02dH
	DB	022H
	DB	07dH
	DB	02dH
	DB	022H
	DB	07dH
	DB	02dH
	DB	022H
	DB	07dH
	DB	02dH
	DB	022H
	DB	07dH
	DB	02dH
	DB	022H
	DB	07dH
	DB	02dH
	DB	022H
	DB	07dH
	DB	02dH
	DB	022H
	DB	07dH
	DB	02dH
	DB	022H
	DB	07dH
	DB	02dH
	DB	022H
	DB	07dH
	DB	02dH
	DB	022H
	DB	07dH
	DB	02dH
	DB	022H
	DB	07dH
	DB	02dH
	DB	022H
	DB	07dH
	DB	02dH
	DB	022H
	DB	07dH
	DB	02dH
	DB	022H
	DB	07dH
	DB	02dH
	DB	022H
	DB	07dH
	DB	02dH
	DB	022H
	DB	07dH
	DB	02dH
	DB	022H
	DB	07dH
	DB	02dH
	DB	022H
	DB	07dH
	DB	02dH
	DB	022H
	DB	07dH
	DB	02dH
	DB	022H
	DB	07dH
	DB	02dH
	DB	022H
	DB	07dH
	DB	02dH
	DB	022H
	DB	07dH
	DB	02dH
	DB	022H
	DB	07dH
	DB	02dH
	DB	022H
	DB	07dH
	DB	02dH
	DB	022H
	DB	07dH
	DB	02dH
	DB	022H
	DB	07dH
	DB	02dH
	DB	022H
	DB	07dH
	DB	02dH
	DB	022H
	DB	07dH
	DB	02dH
	DB	022H
	DB	07dH
	DB	02dH
	DB	022H
	DB	07dH
	DB	02dH
	DB	022H
	DB	07dH
	DB	02dH
	DB	022H
	DB	07dH
	DB	02dH
	DB	022H
	DB	07dH
	DB	02dH
	DB	022H
	DB	07dH
	DB	02dH
	DB	022H
	DB	07dH
	DB	02dH
	DB	022H
	DB	07dH
	DB	02dH
	DB	022H
	DB	07dH
	DB	02dH
	DB	022H
	DB	07dH
	DB	02dH
	DB	022H
	DB	07dH
	DB	02dH
	DB	022H
	DB	07dH
	DB	02dH
	DB	022H
	DB	07dH
	DB	02dH
	DB	022H
	DB	07dH
	DB	02dH
	DB	022H
	DB	07dH
	DB	02dH
	DB	022H
	DB	07dH
	DB	02dH
	DB	022H
	DB	07dH
	DB	02dH
	DB	022H
	DB	07dH
	DB	02dH
	DB	022H
	DB	07dH
	DB	02dH
	DB	022H
	DB	07dH
	DB	02dH
	DB	022H
	DB	07dH
	DB	02dH
	DB	022H
	DB	07dH
	DB	02dH
	DB	022H
	DB	07dH
	DB	02dH
	DB	022H
	DB	07dH
	DB	02dH
	DB	022H
	DB	07dH
	DB	02dH
	DB	022H
	DB	07dH
	DB	02dH
	DB	022H
	DB	07dH
	DB	02dH
	DB	022H
	DB	07dH
	DB	02dH
	DB	022H
	DB	07dH
	DB	02dH
	DB	022H
	DB	07dH
	DB	02dH
	DB	022H
	DB	07dH
	DB	02dH
	DB	022H
	DB	07dH
	DB	02dH
	DB	022H
	DB	07dH
	DB	02dH
	DB	022H
	DB	07dH
	DB	02dH
	DB	022H
	DB	07dH
	DB	02dH
	DB	022H
	DB	07dH
	DB	02dH
	DB	022H
	DB	07dH
	DB	02dH
	DB	022H
	DB	07dH
	DB	02dH
	DB	022H
	DB	07dH
	DB	02dH
	DB	022H
	DB	07dH
	DB	02dH
	DB	022H
	DB	07dH
	DB	02dH
	DB	022H
	DB	07dH
	DB	02dH
	DB	022H
	DB	07dH
	DB	02dH
	DB	022H
	DB	07dH
	DB	02dH
	DB	022H
	DB	07dH
	DB	02dH
	DB	022H
	DB	07dH
	DB	02dH
	DB	022H
	DB	07dH
	DB	02dH
	DB	022H
	DB	07dH
	DB	02dH
	DB	022H
	DB	07dH
	DB	02dH
	DB	022H
	DB	07dH
	DB	02dH
	DB	022H
	DB	07dH
	DB	02dH
	DB	022H
	DB	07dH
	DB	02dH
	DB	022H
	DB	07dH
	DB	02dH
	DB	022H
	DB	07dH
	DB	02dH
	DB	022H
	DB	07dH
	DB	02dH
	DB	022H
	DB	07dH
	DB	02dH
	DB	022H
	DB	07dH
	DB	02dH
	DB	022H
	DB	07dH
	DB	02dH
	DB	022H
	DB	07dH
	DB	02dH
	DB	022H
	DB	07dH
	DB	02dH
	DB	022H
	DB	07dH
	DB	02dH
	DB	022H
	DB	07dH
	DB	02dH
	DB	022H
	DB	07dH
	DB	02dH
	DB	022H
	DB	07dH
	DB	02dH
	DB	022H
	DB	07dH
	DB	02dH
	DB	022H
	DB	07dH
	DB	02dH
	DB	022H
	DB	07dH
	DB	02dH
	DB	022H
	DB	07dH
	DB	02dH
	DB	022H
	DB	07dH
	DB	02dH
	DB	022H
	DB	07dH
	DB	02dH
	DB	022H
	DB	07dH
	DB	02dH
	DB	022H
	DB	07dH
	DB	02dH
	DB	022H
	DB	07dH
	DB	02dH
	DB	022H
	DB	07dH
	DB	02dH
	DB	022H
	DB	07dH
	DB	02dH
	DB	022H
	DB	07dH
	DB	02dH
	DB	022H
	DB	07dH
	DB	02dH
	DB	022H
	DB	07dH
	DB	02dH
	DB	022H
	DB	07dH
	DB	02dH
	DB	022H
	DB	07dH
	DB	02dH
	DB	022H
	DB	07dH
	DB	02dH
	DB	022H
	DB	07dH
	DB	02dH
	DB	022H
	DB	07dH
	DB	02dH
	DB	022H
	DB	07dH
	DB	02dH
	DB	022H
	DB	07dH
	DB	02dH
	DB	022H
	DB	07dH
	DB	02dH
	DB	022H
	DB	07dH
	DB	02dH
	DB	022H
	DB	07dH
	DB	02dH
	DB	022H
	DB	07dH
	DB	02dH
	DB	022H
	DB	07dH
	DB	02dH
	DB	022H
	DB	07dH
	DB	02dH
	DB	022H
	DB	07dH
	DB	02dH
	DB	022H
	DB	07dH
	DB	02dH
	DB	022H
	DB	07dH
	DB	02dH
	DB	022H
	DB	07dH
	DB	02dH
	DB	022H
	DB	07dH
	DB	02dH
	DB	022H
	DB	07dH
	DB	02dH
	DB	022H
	DB	07dH
	DB	02dH
	DB	022H
	DB	07dH
	DB	02dH
	DB	022H
	DB	07dH
	DB	02dH
	DB	022H
	DB	07dH
	DB	02dH
	DB	022H
	DB	07dH
	DB	02dH
	DB	022H
	DB	07dH
	DB	02dH
	DB	022H
	DB	07dH
	DB	02dH
	DB	022H
	DB	07dH
	DB	02dH
	DB	022H
	DB	07dH
	DB	02dH
	DB	022H
	DB	07dH
	DB	02dH
	DB	022H
	DB	07dH
	DB	02dH
	DB	022H
	DB	07dH
	DB	02dH
	DB	022H
	DB	07dH
	DB	02dH
	DB	022H
	DB	07dH
	DB	02dH
	DB	022H
	DB	07dH
	DB	02dH
	DB	022H
	DB	07dH
	DB	02dH
	DB	022H
	DB	07dH
	DB	02dH
	DB	022H
	DB	07dH
	DB	02dH
	DB	022H
	DB	07dH
	DB	02dH
	DB	022H
	DB	07dH
	DB	02dH
	DB	022H
	DB	07dH
	DB	02dH
	DB	022H
	DB	07dH
	DB	02dH
	DB	022H
	DB	07dH
	DB	02dH
	DB	022H
	DB	07dH
	DB	02dH
	DB	022H
	DB	07dH
	DB	02dH
	DB	022H
	DB	07dH
	DB	02dH
	DB	022H
	DB	07dH
	DB	02dH
	DB	022H
	DB	07dH
	DB	02dH
	DB	022H
	DB	07dH
	DB	02dH
	DB	022H
	DB	07dH
	DB	02dH
	DB	022H
	DB	07dH
	DB	02dH
	DB	022H
	DB	07dH
	DB	02dH
	DB	022H
	DB	07dH
	DB	02dH
	DB	022H
	DB	07dH
	DB	02dH
	DB	022H
	DB	07dH
	DB	02dH
	DB	022H
	DB	07dH
	DB	02dH
	DB	022H
	DB	07dH
	DB	02dH
	DB	022H
	DB	07dH
	DB	02dH
	DB	022H
	DB	07dH
	DB	02dH
	DB	022H
	DB	07dH
	DB	02dH
	DB	022H
	DB	07dH
	DB	02dH
	DB	022H
	DB	07dH
	DB	02dH
	DB	022H
	DB	07dH
	DB	02dH
	DB	022H
	DB	07dH
	DB	02dH
	DB	022H
	DB	07dH
	DB	02dH
	DB	022H
	DB	07dH
	DB	02dH
	DB	022H
	DB	07dH
	DB	02dH
	DB	022H
	DB	07dH
	DB	02dH
	DB	022H
	DB	07dH
	DB	02dH
	DB	022H
	DB	07dH
	DB	02dH
	DB	022H
	DB	07dH
	DB	02dH
	DB	022H
	DB	07dH
	DB	02dH
	DB	022H
	DB	07dH
	DB	02dH
	DB	022H
	DB	07dH
	DB	02dH
	DB	022H
	DB	07dH
	DB	02dH
	DB	022H
	DB	07dH
	DB	02dH
	DB	022H
	DB	07dH
	DB	02dH
	DB	022H
	DB	07dH
	DB	02dH
	DB	022H
	DB	07dH
	DB	02dH
	DB	022H
	DB	07dH
	DB	02dH
	DB	022H
	DB	07dH
	DB	02dH
	DB	022H
	DB	07dH
	DB	02dH
	DB	022H
	DB	07dH
	DB	02dH
	DB	022H
	DB	07dH
	DB	02dH
	DB	022H
	DB	07dH
	DB	02dH
	DB	022H
	DB	07dH
	DB	02dH
	DB	022H
	DB	07dH
	DB	02dH
	DB	022H
	DB	07dH
	DB	02dH
	DB	022H
	DB	07dH
	DB	02dH
	DB	022H
	DB	07dH
	DB	02dH
	DB	022H
	DB	07dH
	DB	02dH
	DB	022H
	DB	07dH
	DB	02dH
	DB	022H
	DB	07dH
	DB	02dH
	DB	022H
	DB	07dH
	DB	02dH
	DB	022H
	DB	07dH
	DB	02dH
	DB	022H
	DB	07dH
	DB	02dH
	DB	022H
	DB	07dH
	DB	02dH
	DB	022H
	DB	07dH
	DB	02dH
	DB	022H
	DB	07dH
	DB	02dH
	DB	022H
	DB	07dH
	DB	02dH
	DB	022H
	DB	07dH
	DB	02dH
	DB	022H
	DB	07dH
	DB	02dH
	DB	022H
	DB	07dH
	DB	02dH
	DB	022H
	DB	07dH
	DB	02dH
	DB	022H
	DB	07dH
	DB	02dH
	DB	022H
	DB	07dH
	DB	02dH
	DB	022H
	DB	07dH
	DB	02dH
	DB	022H
	DB	07dH
	DB	02dH
	DB	022H
	DB	07dH
	DB	02dH
	DB	022H
	DB	07dH
	DB	02dH
	DB	022H
	DB	07dH
	DB	02dH
	DB	022H
	DB	07dH
	DB	02dH
	DB	022H
	DB	07dH
	DB	02dH
	DB	022H
	DB	07dH
	DB	02dH
	DB	022H
	DB	07dH
	DB	02dH
	DB	022H
	DB	07dH
	DB	02dH
	DB	022H
	DB	07dH
	DB	02dH
	DB	022H
	DB	07dH
	DB	02dH
	DB	022H
	DB	07dH
	DB	02dH
	DB	022H
	DB	07dH
	DB	02dH
	DB	022H
	DB	07dH
	DB	02dH
	DB	022H
	DB	07dH
	DB	02dH
	DB	022H
	DB	07dH
	DB	02dH
	DB	022H
	DB	07dH
	DB	02dH
	DB	022H
	DB	07dH
	DB	02dH
	DB	022H
	DB	07dH
	DB	02dH
	DB	022H
	DB	07dH
	DB	02dH
	DB	022H
	DB	07dH
	DB	02dH
	DB	022H
	DB	07dH
	DB	02dH
	DB	022H
	DB	07dH
	DB	02dH
	DB	022H
	DB	07dH
	DB	02dH
	DB	022H
	DB	07dH
	DB	02dH
	DB	022H
	DB	07dH
	DB	02dH
	DB	022H
	DB	07dH
	DB	02dH
	DB	022H
	DB	07dH
	DB	02dH
	DB	022H
	DB	07dH
	DB	02dH
	DB	022H
	DB	07dH
	DB	02dH
	DB	022H
	DB	07dH
	DB	02dH
	DB	022H
	DB	07dH
	DB	02dH
	DB	022H
	DB	07dH
	DB	02dH
	DB	022H
	DB	07dH
	DB	02dH
	DB	022H
	DB	07dH
	DB	02dH
	DB	022H
	DB	07dH
	DB	02dH
	DB	022H
	DB	07dH
	DB	02dH
	DB	022H
	DB	07dH
	DB	02dH
	DB	022H
	DB	07dH
	DB	02dH
	DB	022H
	DB	07dH
	DB	02dH
	DB	022H
	DB	07dH
	DB	02dH
	DB	022H
	DB	07dH
	DB	02dH
	DB	022H
	DB	07dH
	DB	02dH
	DB	022H
	DB	07dH
	DB	02dH
	DB	022H
	DB	07dH
	DB	02dH
	DB	022H
	DB	07dH
	DB	02dH
	DB	022H
	DB	07dH
	DB	02dH
	DB	022H
	DB	07dH
	DB	02dH
	DB	022H
	DB	07dH
	DB	02dH
	DB	022H
	DB	07dH
	DB	02dH
	DB	022H
	DB	07dH
	DB	02dH
	DB	022H
	DB	07dH
	DB	02dH
	DB	022H
	DB	07dH
	DB	02dH
	DB	022H
	DB	07dH
	DB	02dH
	DB	022H
	DB	07dH
	DB	02dH
	DB	022H
	DB	07dH
	DB	02dH
	DB	022H
	DB	07dH
	DB	02dH
	DB	022H
	DB	07dH
	DB	02dH
	DB	022H
	DB	07dH
	DB	02dH
	DB	022H
	DB	07dH
	DB	02dH
	DB	022H
	DB	07dH
	DB	02dH
	DB	022H
	DB	07dH
	DB	02dH
	DB	022H
	DB	07dH
	DB	02dH
	DB	022H
	DB	07dH
	DB	02dH
	DB	022H
	DB	07dH
	DB	02dH
	DB	022H
	DB	07dH
	DB	02dH
	DB	022H
	DB	07dH
	DB	02dH
	DB	022H
	DB	07dH
	DB	02dH
	DB	022H
	DB	07dH
	DB	02dH
	DB	022H
	DB	07dH
	DB	02dH
	DB	022H
	DB	07dH
	DB	02dH
	DB	022H
	DB	07dH
	DB	02dH
	DB	022H
	DB	07dH
	DB	02dH
	DB	022H
	DB	07dH
	DB	02dH
	DB	022H
	DB	07dH
	DB	02dH
	DB	022H
	DB	07dH
	DB	02dH
	DB	022H
	DB	07dH
	DB	02dH
	DB	022H
	DB	07dH
	DB	02dH
	DB	022H
	DB	07dH
	DB	02dH
	DB	022H
	DB	07dH
	DB	02dH
	DB	022H
	DB	07dH
	DB	02dH
	DB	022H
	DB	07dH
	DB	02dH
	DB	022H
	DB	07dH
	DB	02dH
	DB	022H
	DB	07dH
	DB	02dH
	DB	022H
	DB	07dH
	DB	02dH
	DB	022H
	DB	07dH
	DB	02dH
	DB	022H
	DB	07dH
	DB	02dH
	DB	022H
	DB	07dH
	DB	02dH
	DB	022H
	DB	07dH
	DB	02dH
	DB	022H
	DB	07dH
	DB	02dH
	DB	022H
	DB	07dH
	DB	02dH
	DB	022H
	DB	07dH
	DB	02dH
	DB	022H
	DB	07dH
	DB	02dH
	DB	022H
	DB	07dH
	DB	02dH
	DB	022H
	DB	07dH
	DB	02dH
	DB	022H
	DB	07dH
	DB	02dH
	DB	022H
	DB	07dH
	DB	02dH
	DB	022H
	DB	07dH
	DB	02dH
	DB	022H
	DB	07dH
	DB	02dH
	DB	022H
	DB	07dH
	DB	02dH
	DB	022H
	DB	07dH
	DB	02dH
	DB	022H
	DB	07dH
	DB	02dH
	DB	022H
	DB	07dH
	DB	02dH
	DB	022H
	DB	07dH
	DB	02dH
	DB	022H
	DB	07dH
	DB	02dH
	DB	022H
	DB	07dH
	DB	02dH
	DB	022H
	DB	07dH
	DB	02dH
	DB	022H
	DB	07dH
	DB	02dH
	DB	022H
	DB	07dH
	DB	02dH
	DB	022H
	DB	07dH
	DB	02dH
	DB	022H
	DB	07dH
	DB	02dH
	DB	022H
	DB	07dH
	DB	02dH
	DB	022H
	DB	07dH
	DB	02dH
	DB	022H
	DB	07dH
	DB	02dH
	DB	022H
	DB	07dH
	DB	02dH
	DB	022H
	DB	07dH
	DB	02dH
	DB	022H
	DB	07dH
	DB	02dH
	DB	022H
	DB	07dH
	DB	02dH
	DB	022H
	DB	07dH
	DB	02dH
	DB	022H
	DB	07dH
	DB	02dH
	DB	022H
	DB	07dH
	DB	02dH
	DB	022H
	DB	07dH
	DB	02dH
	DB	022H
	DB	07dH
	DB	02dH
	DB	022H
	DB	07dH
	DB	02dH
	DB	022H
	DB	07dH
	DB	02dH
	DB	022H
	DB	07dH
	DB	02dH
	DB	022H
	DB	07dH
	DB	02dH
	DB	022H
	DB	07dH
	DB	02dH
	DB	022H
	DB	07dH
	DB	02dH
	DB	022H
	DB	07dH
	DB	02dH
	DB	022H
	DB	07dH
	DB	02dH
	DB	022H
	DB	07dH
	DB	02dH
	DB	022H
	DB	07dH
	DB	02dH
	DB	022H
	DB	07dH
	DB	02dH
	DB	022H
	DB	07dH
	DB	02dH
	DB	022H
	DB	07dH
	DB	02dH
	DB	022H
	DB	07dH
	DB	02dH
	DB	022H
	DB	07dH
	DB	02dH
	DB	022H
	DB	07dH
	DB	02dH
	DB	022H
	DB	07dH
	DB	02dH
	DB	022H
	DB	07dH
	DB	02dH
	DB	022H
	DB	07dH
	DB	02dH
	DB	022H
	DB	07dH
	DB	02dH
	DB	022H
	DB	07dH
	DB	02dH
	DB	022H
	DB	07dH
	DB	02dH
	DB	022H
	DB	07dH
	DB	02dH
	DB	022H
	DB	07dH
	DB	02dH
	DB	022H
	DB	07dH
	DB	02dH
	DB	022H
	DB	07dH
	DB	02dH
	DB	022H
	DB	07dH
	DB	02dH
	DB	022H
	DB	07dH
	DB	02dH
	DB	022H
	DB	07dH
	DB	02dH
	DB	022H
	DB	07dH
	DB	02dH
	DB	022H
	DB	07dH
	DB	02dH
	DB	022H
	DB	07dH
	DB	02dH
	DB	022H
	DB	07dH
	DB	02dH
	DB	022H
	DB	07dH
	DB	02dH
	DB	022H
	DB	07dH
	DB	02dH
	DB	022H
	DB	07dH
	DB	02dH
	DB	022H
	DB	07dH
	DB	02dH
	DB	022H
	DB	07dH
	DB	02dH
	DB	022H
	DB	07dH
	DB	02dH
	DB	022H
	DB	07dH
	DB	02dH
	DB	022H
	DB	07dH
	DB	02dH
	DB	022H
	DB	07dH
	DB	02dH
	DB	022H
	DB	07dH
	DB	02dH
	DB	022H
	DB	07dH
	DB	02dH
	DB	022H
	DB	07dH
	DB	02dH
	DB	022H
	DB	07dH
	DB	02dH
	DB	022H
	DB	07dH
	DB	02dH
	DB	022H
	DB	07dH
	DB	02dH
	DB	022H
	DB	07dH
	DB	02dH
	DB	022H
	DB	07dH
	DB	02dH
	DB	022H
	DB	07dH
	DB	02dH
	DB	022H
	DB	07dH
	DB	02dH
	DB	022H
	DB	07dH
	DB	02dH
	DB	022H
	DB	07dH
	DB	02dH
	DB	022H
	DB	07dH
	DB	02dH
	DB	022H
	DB	07dH
	DB	02dH
	DB	022H
	DB	07dH
	DB	02dH
	DB	022H
	DB	07dH
	DB	02dH
	DB	022H
	DB	07dH
	DB	02dH
	DB	022H
	DB	07dH
	DB	02dH
	DB	022H
	DB	07dH
	DB	02dH
	DB	022H
	DB	07dH
	DB	02dH
	DB	022H
	DB	07dH
	DB	02dH
	DB	022H
	DB	07dH
	DB	02dH
	DB	022H
	DB	07dH
	DB	02dH
	DB	022H
	DB	07dH
	DB	02dH
	DB	022H
	DB	07dH
	DB	02dH
	DB	022H
	DB	07dH
	DB	02dH
	DB	022H
	DB	07dH
	DB	02dH
	DB	022H
	DB	07dH
	DB	02dH
	DB	022H
	DB	07dH
	DB	02dH
	DB	022H
	DB	07dH
	DB	02dH
	DB	022H
	DB	07dH
	DB	02dH
	DB	022H
	DB	07dH
	DB	02dH
	DB	022H
	DB	07dH
	DB	02dH
	DB	022H
	DB	07dH
	DB	02dH
	DB	022H
	DB	07dH
	DB	02dH
	DB	022H
	DB	07dH
	DB	02dH
	DB	022H
	DB	07dH
	DB	02dH
	DB	022H
	DB	07dH
	DB	02dH
	DB	022H
	DB	07dH
	DB	02dH
	DB	022H
	DB	07dH
	DB	02dH
	DB	022H
	DB	07dH
	DB	02dH
	DB	022H
	DB	07dH
	DB	02dH
	DB	022H
	DB	07dH
	DB	02dH
	DB	022H
	DB	07dH
	DB	02dH
	DB	022H
	DB	07dH
	DB	02dH
	DB	022H
	DB	07dH
	DB	02dH
	DB	022H
	DB	07dH
	DB	02dH
	DB	022H
	DB	07dH
	DB	02dH
	DB	022H
	DB	07dH
	DB	02dH
	DB	022H
	DB	07dH
	DB	02dH
	DB	022H
	DB	07dH
	DB	02dH
	DB	022H
	DB	07dH
	DB	02dH
	DB	022H
	DB	07dH
	DB	02dH
	DB	022H
	DB	07dH
	DB	02dH
	DB	022H
	DB	07dH
	DB	02dH
	DB	022H
	DB	07dH
	DB	02dH
	DB	022H
	DB	07dH
	DB	02dH
	DB	022H
	DB	07dH
	DB	02dH
	DB	022H
	DB	07dH
	DB	02dH
	DB	022H
	DB	07dH
	DB	02dH
	DB	022H
	DB	07dH
	DB	02dH
	DB	022H
	DB	07dH
	DB	02dH
	DB	022H
	DB	07dH
	DB	02dH
	DB	022H
	DB	07dH
	DB	02dH
	DB	022H
	DB	07dH
	DB	02dH
	DB	022H
	DB	07dH
	DB	02dH
	DB	022H
	DB	07dH
	DB	02dH
	DB	022H
	DB	07dH
	DB	02dH
	DB	022H
	DB	07dH
	DB	02dH
	DB	022H
	DB	07dH
	DB	02dH
	DB	022H
	DB	07dH
	DB	02dH
	DB	022H
	DB	07dH
	DB	02dH
	DB	022H
	DB	07dH
	DB	02dH
	DB	022H
	DB	07dH
	DB	02dH
	DB	022H
	DB	07dH
	DB	02dH
	DB	022H
	DB	07dH
	DB	02dH
	DB	022H
	DB	07dH
	DB	02dH
	DB	022H
	DB	07dH
	DB	02dH
	DB	022H
	DB	07dH
	DB	02dH
	DB	022H
	DB	07dH
	DB	02dH
	DB	022H
	DB	07dH
	DB	02dH
	DB	022H
	DB	07dH
	DB	02dH
	DB	022H
	DB	07dH
	DB	02dH
	DB	022H
	DB	07dH
	DB	02dH
	DB	022H
	DB	07dH
	DB	02dH
	DB	022H
	DB	07dH
	DB	02dH
	DB	022H
	DB	07dH
	DB	02dH
	DB	022H
	DB	07dH
	DB	02dH
	DB	022H
	DB	07dH
	DB	02dH
	DB	022H
	DB	07dH
	DB	02dH
	DB	022H
	DB	07dH
	DB	02dH
	DB	022H
	DB	07dH
	DB	02dH
	DB	022H
	DB	07dH
	DB	02dH
	DB	022H
	DB	07dH
	DB	02dH
	DB	022H
	DB	07dH
	DB	02dH
	DB	022H
	DB	07dH
	DB	02dH
	DB	022H
	DB	07dH
	DB	02dH
	DB	022H
	DB	07dH
	DB	02dH
	DB	022H
	DB	07dH
	DB	02dH
	DB	022H
	DB	07dH
	DB	02dH
	DB	022H
	DB	07dH
	DB	02dH
	DB	022H
	DB	07dH
	DB	02dH
	DB	022H
	DB	07dH
	DB	02dH
	DB	022H
	DB	07dH
	DB	02dH
	DB	022H
	DB	07dH
	DB	02dH
	DB	022H
	DB	07dH
	DB	02dH
	DB	022H
	DB	07dH
	DB	02dH
	DB	022H
	DB	07dH
	DB	02dH
	DB	022H
	DB	07dH
	DB	02dH
	DB	022H
	DB	07dH
	DB	02dH
	DB	022H
	DB	07dH
	DB	02dH
	DB	022H
	DB	07dH
	DB	02dH
	DB	022H
	DB	07dH
	DB	02dH
	DB	022H
	DB	07dH
	DB	02dH
	DB	022H
	DB	07dH
	DB	02dH
	DB	022H
	DB	07dH
	DB	02dH
	DB	022H
	DB	07dH
	DB	02dH
	DB	022H
	DB	07dH
	DB	02dH
	DB	022H
	DB	07dH
	DB	02dH
	DB	022H
	DB	07dH
	DB	02dH
	DB	022H
	DB	07dH
	DB	02dH
	DB	022H
	DB	07dH
	DB	02dH
	DB	022H
	DB	07dH
	DB	02dH
	DB	022H
	DB	07dH
	DB	02dH
	DB	022H
	DB	07dH
	DB	02dH
	DB	022H
	DB	07dH
	DB	02dH
	DB	022H
	DB	07dH
	DB	02dH
	DB	022H
	DB	07dH
	DB	02dH
	DB	022H
	DB	07dH
	DB	02dH
	DB	022H
	DB	07dH
	DB	02dH
	DB	022H
	DB	07dH
	DB	02dH
	DB	022H
	DB	07dH
	DB	02dH
	DB	022H
	DB	07dH
	DB	02dH
	DB	022H
	DB	07dH
	DB	02dH
	DB	022H
	DB	07dH
	DB	02dH
	DB	022H
	DB	07dH
	DB	02dH
	DB	022H
	DB	07dH
	DB	02dH
	DB	022H
	DB	07dH
	DB	02dH
	DB	022H
	DB	07dH
	DB	02dH
	DB	022H
	DB	07dH
	DB	02dH
	DB	022H
	DB	07dH
	DB	02dH
	DB	022H
	DB	07dH
	DB	02dH
	DB	022H
	DB	07dH
	DB	02dH
	DB	022H
	DB	07dH
	DB	02dH
	DB	022H
	DB	07dH
	DB	02dH
	DB	022H
	DB	07dH
	DB	02dH
	DB	022H
	DB	07dH
	DB	02dH
	DB	022H
	DB	07dH
	DB	02dH
	DB	022H
	DB	07dH
	DB	02dH
	DB	022H
	DB	07dH
	DB	02dH
	DB	022H
	DB	07dH
	DB	02dH
	DB	022H
	DB	07dH
	DB	02dH
	DB	022H
	DB	07dH
	DB	02dH
	DB	022H
	DB	07dH
	DB	02dH
	DB	022H
	DB	07dH
	DB	02dH
	DB	022H
	DB	07dH
	DB	02dH
	DB	022H
	DB	07dH
	DB	02dH
	DB	022H
	DB	07dH
	DB	02dH
	DB	022H
	DB	07dH
	DB	02dH
	DB	022H
	DB	07dH
	DB	02dH
	DB	022H
	DB	07dH
	DB	02dH
	DB	022H
	DB	07dH
	DB	02dH
	DB	022H
	DB	07dH
	DB	02dH
	DB	022H
	DB	07dH
	DB	02dH
	DB	022H
	DB	07dH
	DB	02dH
	DB	022H
	DB	07dH
	DB	02dH
	DB	022H
	DB	07dH
	DB	02dH
	DB	022H
	DB	07dH
	DB	02dH
	DB	022H
	DB	07dH
	DB	02dH
	DB	022H
	DB	07dH
	DB	02dH
	DB	022H
	DB	07dH
	DB	02dH
	DB	022H
	DB	07dH
	DB	02dH
	DB	022H
	DB	07dH
	DB	02dH
	DB	022H
	DB	07dH
	DB	02dH
	DB	022H
	DB	07dH
	DB	02dH
	DB	022H
	DB	07dH
	DB	02dH
	DB	022H
	DB	07dH
	DB	02dH
	DB	022H
	DB	07dH
	DB	02dH
	DB	022H
	DB	07dH
	DB	02dH
	DB	022H
	DB	07dH
	DB	02dH
	DB	022H
	DB	07dH
	DB	02dH
	DB	022H
	DB	07dH
	DB	02dH
	DB	022H
	DB	07dH
	DB	02dH
	DB	022H
	DB	07dH
	DB	02dH
	DB	022H
	DB	07dH
	DB	02dH
	DB	022H
	DB	07dH
	DB	02dH
	DB	022H
	DB	07dH
	DB	02dH
	DB	022H
	DB	07dH
	DB	02dH
	DB	022H
	DB	07dH
	DB	02dH
	DB	022H
	DB	07dH
	DB	02dH
	DB	022H
	DB	07dH
	DB	02dH
	DB	022H
	DB	07dH
	DB	02dH
	DB	022H
	DB	07dH
	DB	02dH
	DB	022H
	DB	07dH
	DB	02dH
	DB	022H
	DB	07dH
	DB	02dH
	DB	022H
	DB	07dH
	DB	02dH
	DB	022H
	DB	07dH
	DB	02dH
	DB	022H
	DB	07dH
	DB	02dH
	DB	022H
	DB	07dH
	DB	02dH
	DB	022H
	DB	07dH
	DB	02dH
	DB	022H
	DB	07dH
	DB	02dH
	DB	022H
	DB	07dH
	DB	02dH
	DB	022H
	DB	07dH
	DB	02dH
	DB	022H
	DB	07dH
	DB	02dH
	DB	022H
	DB	07dH
	DB	02dH
	DB	022H
	DB	07dH
	DB	02dH
	DB	022H
	DB	07dH
	DB	02dH
	DB	022H
	DB	07dH
	DB	02dH
	DB	022H
	DB	07dH
	DB	02dH
	DB	022H
	DB	07dH
	DB	02dH
	DB	022H
	DB	07dH
	DB	02dH
	DB	022H
	DB	07dH
	DB	02dH
	DB	022H
	DB	07dH
	DB	02dH
	DB	022H
	DB	07dH
	DB	02dH
	DB	022H
	DB	07dH
	DB	02dH
	DB	022H
	DB	07dH
	DB	02dH
	DB	022H
	DB	07dH
	DB	02dH
	DB	022H
	DB	07dH
	DB	02dH
	DB	022H
	DB	07dH
	DB	02dH
	DB	022H
	DB	07dH
	DB	02dH
	DB	022H
	DB	07dH
	DB	02dH
	DB	022H
	DB	07dH
	DB	02dH
	DB	022H
	DB	07dH
	DB	02dH
	DB	022H
	DB	07dH
	DB	02dH
	DB	022H
	DB	07dH
	DB	02dH
	DB	022H
	DB	07dH
	DB	02dH
	DB	022H
	DB	07dH
	DB	02dH
	DB	022H
	DB	07dH
	DB	02dH
	DB	022H
	DB	07dH
	DB	02dH
	DB	022H
	DB	07dH
	DB	02dH
	DB	022H
	DB	07dH
	DB	02dH
	DB	022H
	DB	07dH
	DB	02dH
	DB	022H
	DB	07dH
	DB	02dH
	DB	022H
	DB	07dH
	DB	02dH
	DB	022H
	DB	07dH
	DB	02dH
	DB	022H
	DB	07dH
	DB	02dH
	DB	022H
	DB	07dH
	DB	02dH
	DB	022H
	DB	07dH
	DB	02dH
	DB	022H
	DB	07dH
	DB	02dH
	DB	022H
	DB	07dH
	DB	02dH
	DB	022H
	DB	07dH
	DB	02dH
	DB	022H
	DB	07dH
	DB	02dH
	DB	022H
	DB	07dH
	DB	02dH
	DB	022H
	DB	07dH
	DB	02dH
	DB	022H
	DB	07dH
	DB	02dH
	DB	022H
	DB	07dH
	DB	02dH
	DB	022H
	DB	07dH
	DB	02dH
	DB	022H
	DB	07dH
	DB	02dH
	DB	022H
	DB	07dH
	DB	02dH
	DB	022H
	DB	07dH
	DB	02dH
	DB	022H
	DB	07dH
	DB	02dH
	DB	022H
	DB	07dH
	DB	02dH
	DB	022H
	DB	07dH
	DB	02dH
	DB	022H
	DB	07dH
	DB	02dH
	DB	022H
	DB	07dH
	DB	02dH
	DB	022H
	DB	07dH
	DB	02dH
	DB	022H
	DB	07dH
	DB	02dH
	DB	022H
	DB	07dH
	DB	02dH
	DB	022H
	DB	07dH
	DB	02dH
	DB	022H
	DB	07dH
	DB	02dH
	DB	022H
	DB	07dH
	DB	02dH
	DB	022H
	DB	07dH
	DB	02dH
	DB	022H
	DB	07dH
	DB	02dH
	DB	022H
	DB	07dH
	DB	02dH
	DB	022H
	DB	07dH
	DB	02dH
	DB	022H
	DB	07dH
	DB	02dH
	DB	022H
	DB	07dH
	DB	02dH
	DB	022H
	DB	07dH
	DB	02dH
	DB	022H
	DB	07dH
	DB	02dH
	DB	022H
	DB	07dH
	DB	02dH
	DB	022H
	DB	07dH
	DB	02dH
	DB	022H
	DB	07dH
	DB	02dH
	DB	022H
	DB	07dH
	DB	02dH
	DB	022H
	DB	07dH
	DB	02dH
	DB	022H
	DB	07dH
	DB	02dH
	DB	022H
	DB	07dH
	DB	02dH
	DB	022H
	DB	07dH
	DB	02dH
	DB	022H
	DB	07dH
	DB	02dH
	DB	022H
	DB	07dH
	DB	02dH
	DB	022H
	DB	07dH
	DB	02dH
	DB	022H
	DB	07dH
	DB	02dH
	DB	022H
	DB	07dH
	DB	02dH
	DB	022H
	DB	07dH
	DB	02dH
	DB	022H
	DB	07dH
	DB	02dH
	DB	022H
	DB	07dH
	DB	02dH
	DB	022H
	DB	07dH
	DB	02dH
	DB	022H
	DB	07dH
	DB	02dH
	DB	022H
	DB	07dH
	DB	02dH
	DB	022H
	DB	07dH
	DB	02dH
	DB	022H
	DB	07dH
	DB	02dH
	DB	022H
	DB	07dH
	DB	02dH
	DB	022H
	DB	07dH
	DB	02dH
	DB	022H
	DB	07dH
	DB	02dH
	DB	022H
	DB	07dH
	DB	02dH
	DB	022H
	DB	07dH
	DB	02dH
	DB	022H
	DB	07dH
	DB	02dH
	DB	022H
	DB	07dH
	DB	02dH
	DB	022H
	DB	07dH
	DB	02dH
	DB	022H
	DB	07dH
	DB	02dH
	DB	022H
	DB	07dH
	DB	02dH
	DB	022H
	DB	07dH
	DB	02dH
	DB	022H
	DB	07dH
	DB	02dH
	DB	022H
	DB	07dH
	DB	02dH
	DB	022H
	DB	07dH
	DB	02dH
	DB	022H
	DB	07dH
	DB	02dH
	DB	022H
	DB	07dH
	DB	02dH
	DB	022H
	DB	07dH
	DB	02dH
	DB	022H
	DB	07dH
	DB	02dH
	DB	022H
	DB	07dH
	DB	02dH
	DB	022H
	DB	07dH
	DB	02dH
	DB	022H
	DB	07dH
	DB	02dH
	DB	022H
	DB	07dH
	DB	02dH
	DB	022H
	DB	07dH
	DB	02dH
	DB	022H
	DB	07dH
	DB	02dH
	DB	022H
	DB	07dH
	DB	02dH
	DB	022H
	DB	07dH
	DB	02dH
	DB	022H
	DB	07dH
	DB	02dH
	DB	022H
	DB	07dH
	DB	02dH
	DB	022H
	DB	07dH
	DB	02dH
	DB	022H
	DB	07dH
	DB	02dH
	DB	022H
	DB	07dH
	DB	02dH
	DB	022H
	DB	07dH
	DB	02dH
	DB	022H
	DB	07dH
	DB	02dH
	DB	022H
	DB	07dH
	DB	02dH
	DB	022H
	DB	07dH
	DB	02dH
	DB	022H
	DB	07dH
	DB	02dH
	DB	022H
	DB	07dH
	DB	02dH
	DB	022H
	DB	07dH
	DB	02dH
	DB	022H
	DB	07dH
	DB	02dH
	DB	022H
	DB	07dH
	DB	02dH
	DB	022H
	DB	07dH
	DB	02dH
	DB	022H
	DB	07dH
	DB	02dH
	DB	022H
	DB	07dH
	DB	02dH
	DB	022H
	DB	07dH
	DB	02dH
	DB	022H
	DB	07dH
	DB	02dH
	DB	022H
	DB	07dH
	DB	02dH
	DB	022H
	DB	07dH
	DB	02dH
	DB	022H
	DB	07dH
	DB	02dH
	DB	022H
	DB	07dH
	DB	02dH
	DB	022H
	DB	07dH
	DB	02dH
	DB	022H
	DB	07dH
	DB	02dH
	DB	022H
	DB	07dH
	DB	02dH
	DB	022H
	DB	07dH
	DB	02dH
	DB	022H
	DB	07dH
	DB	02dH
	DB	022H
	DB	07dH
	DB	02dH
	DB	022H
	DB	07dH
	DB	02dH
	DB	022H
	DB	07dH
	DB	02dH
	DB	022H
	DB	07dH
	DB	02dH
	DB	022H
	DB	07dH
	DB	02dH
	DB	022H
	DB	07dH
	DB	02dH
	DB	022H
	DB	07dH
	DB	02dH
	DB	022H
	DB	07dH
	DB	02dH
	DB	022H
	DB	07dH
	DB	02dH
	DB	022H
	DB	07dH
	DB	02dH
	DB	022H
	DB	07dH
	DB	02dH
	DB	022H
	DB	07dH
	DB	02dH
	DB	022H
	DB	07dH
	DB	02dH
	DB	022H
	DB	07dH
	DB	02dH
	DB	022H
	DB	07dH
	DB	02dH
	DB	022H
	DB	07dH
	DB	02dH
	DB	022H
	DB	07dH
	DB	02dH
	DB	022H
	DB	07dH
	DB	02dH
	DB	022H
	DB	07dH
	DB	02dH
	DB	022H
	DB	07dH
	DB	02dH
	DB	022H
	DB	07dH
	DB	02dH
	DB	022H
	DB	07dH
	DB	02dH
	DB	022H
	DB	07dH
	DB	02dH
	DB	022H
	DB	07dH
	DB	02dH
	DB	022H
	DB	07dH
	DB	02dH
	DB	022H
	DB	07dH
	DB	02dH
	DB	022H
	DB	07dH
	DB	02dH
	DB	022H
	DB	07dH
	DB	02dH
	DB	022H
	DB	07dH
	DB	02dH
	DB	022H
	DB	07dH
	DB	02dH
	DB	022H
	DB	07dH
	DB	02dH
	DB	022H
	DB	07dH
	DB	02dH
	DB	022H
	DB	07dH
	DB	02dH
	DB	022H
	DB	07dH
	DB	02dH
	DB	022H
	DB	07dH
	DB	02dH
	DB	022H
	DB	07dH
	DB	02dH
	DB	022H
	DB	07dH
	DB	02dH
	DB	022H
	DB	07dH
	DB	02dH
	DB	022H
	DB	07dH
	DB	02dH
	DB	022H
	DB	07dH
	DB	02dH
	DB	022H
	DB	07dH
	DB	02dH
	DB	022H
	DB	07dH
	DB	02dH
	DB	022H
	DB	07dH
	DB	02dH
	DB	022H
	DB	07dH
	DB	02dH
	DB	022H
	DB	07dH
	DB	02dH
	DB	022H
	DB	07dH
	DB	02dH
	DB	022H
	DB	07dH
	DB	02dH
	DB	022H
	DB	07dH
	DB	02dH
	DB	022H
	DB	07dH
	DB	02dH
	DB	022H
	DB	07dH
	DB	02dH
	DB	022H
	DB	07dH
	DB	02dH
	DB	022H
	DB	07dH
	DB	02dH
	DB	022H
	DB	07dH
	DB	02dH
	DB	022H
	DB	07dH
	DB	02dH
	DB	022H
	DB	07dH
	DB	02dH
	DB	022H
	DB	07dH
	DB	02dH
	DB	022H
	DB	07dH
	DB	02dH
	DB	022H
	DB	07dH
	DB	02dH
	DB	022H
	DB	07dH
	DB	02dH
	DB	022H
	DB	07dH
	DB	02dH
	DB	022H
	DB	07dH
	DB	02dH
	DB	022H
	DB	07dH
	DB	02dH
	DB	022H
	DB	07dH
	DB	02dH
	DB	022H
	DB	07dH
	DB	02dH
	DB	022H
	DB	07dH
	DB	02dH
	DB	022H
	DB	07dH
	DB	02dH
	DB	022H
	DB	07dH
	DB	02dH
	DB	022H
	DB	07dH
	DB	02dH
	DB	022H
	DB	07dH
	DB	02dH
	DB	022H
	DB	07dH
	DB	02dH
	DB	022H
	DB	07dH
	DB	02dH
	DB	022H
	DB	07dH
	DB	02dH
	DB	022H
	DB	07dH
	DB	02dH
	DB	022H
	DB	07dH
	DB	02dH
	DB	022H
	DB	07dH
	DB	02dH
	DB	022H
	DB	07dH
	DB	02dH
	DB	022H
	DB	07dH
	DB	02dH
	DB	022H
	DB	07dH
	DB	02dH
	DB	022H
	DB	07dH
	DB	02dH
	DB	022H
	DB	07dH
	DB	02dH
	DB	022H
	DB	07dH
	DB	02dH
	DB	022H
	DB	07dH
	DB	02dH
	DB	022H
	DB	07dH
	DB	02dH
	DB	022H
	DB	07dH
	DB	02dH
	DB	022H
	DB	07dH
	DB	02dH
	DB	022H
	DB	07dH
	DB	02dH
	DB	022H
	DB	07dH
	DB	02dH
	DB	022H
	DB	07dH
	DB	02dH
	DB	022H
	DB	07dH
	DB	02dH
	DB	022H
	DB	07dH
	DB	02dH
	DB	022H
	DB	07dH
	DB	02dH
	DB	022H
	DB	07dH
	DB	02dH
	DB	022H
	DB	07dH
	DB	02dH
	DB	022H
	DB	07dH
	DB	02dH
	DB	022H
	DB	07dH
	DB	02dH
	DB	022H
	DB	07dH
	DB	02dH
	DB	022H
	DB	07dH
	DB	02dH
	DB	022H
	DB	07dH
	DB	02dH
	DB	022H
	DB	07dH
	DB	02dH
	DB	022H
	DB	07dH
	DB	02dH
	DB	022H
	DB	07dH
	DB	02dH
	DB	022H
	DB	07dH
	DB	02dH
	DB	022H
	DB	07dH
	DB	02dH
	DB	022H
	DB	07dH
	DB	02dH
	DB	022H
	DB	07dH
	DB	02dH
	DB	022H
	DB	07dH
	DB	02dH
	DB	022H
	DB	07dH
	DB	02dH
	DB	022H
	DB	07dH
	DB	02dH
	DB	022H
	DB	07dH
	DB	02dH
	DB	022H
	DB	07dH
	DB	02dH
	DB	022H
	DB	07dH
	DB	02dH
	DB	022H
	DB	07dH
	DB	02dH
	DB	022H
	DB	07dH
	DB	02dH
	DB	022H
	DB	07dH
	DB	02dH
	DB	022H
	DB	07dH
	DB	02dH
	DB	022H
	DB	07dH
	DB	02dH
	DB	022H
	DB	07dH
	DB	02dH
	DB	022H
	DB	07dH
	DB	02dH
	DB	022H
	DB	07dH
	DB	02dH
	DB	022H
	DB	07dH
	DB	02dH
	DB	022H
	DB	07dH
	DB	02dH
	DB	022H
	DB	07dH
	DB	02dH
	DB	022H
	DB	07dH
	DB	02dH
	DB	022H
	DB	07dH
	DB	02dH
	DB	022H
	DB	07dH
	DB	02dH
	DB	022H
	DB	07dH
	DB	02dH
	DB	022H
	DB	07dH
	DB	02dH
	DB	022H
	DB	07dH
	DB	02dH
	DB	022H
	DB	07dH
	DB	02dH
	DB	022H
	DB	07dH
	DB	02dH
	DB	022H
	DB	07dH
	DB	02dH
	DB	022H
	DB	07dH
	DB	02dH
	DB	022H
	DB	07dH
	DB	02dH
	DB	022H
	DB	07dH
	DB	02dH
	DB	022H
	DB	07dH
	DB	02dH
	DB	022H
	DB	07dH
	DB	02dH
	DB	022H
	DB	07dH
	DB	02dH
	DB	022H
	DB	07dH
	DB	02dH
	DB	022H
	DB	07dH
	DB	02dH
	DB	022H
	DB	07dH
	DB	02dH
	DB	022H
	DB	07dH
	DB	02dH
	DB	022H
	DB	07dH
	DB	02dH
	DB	022H
	DB	07dH
	DB	02dH
	DB	022H
	DB	07dH
	DB	02dH
	DB	022H
	DB	07dH
	DB	02dH
	DB	022H
	DB	07dH
	DB	02dH
	DB	022H
	DB	07dH
	DB	02dH
	DB	022H
	DB	07dH
	DB	02dH
	DB	022H
	DB	07dH
	DB	02dH
	DB	022H
	DB	07dH
	DB	02dH
	DB	022H
	DB	07dH
	DB	02dH
	DB	022H
	DB	07dH
	DB	02dH
	DB	022H
	DB	07dH
	DB	02dH
	DB	022H
	DB	07dH
	DB	02dH
	DB	022H
	DB	07dH
	DB	02dH
	DB	022H
	DB	07dH
	DB	02dH
	DB	022H
	DB	07dH
	DB	02dH
	DB	022H
	DB	07dH
	DB	02dH
	DB	022H
	DB	07dH
	DB	02dH
	DB	022H
	DB	07dH
	DB	02dH
	DB	022H
	DB	07dH
	DB	02dH
	DB	022H
	DB	07dH
	DB	02dH
	DB	022H
	DB	07dH
	DB	02dH
	DB	022H
	DB	07dH
	DB	02dH
	DB	022H
	DB	07dH
	DB	02dH
	DB	022H
	DB	07dH
	DB	02dH
	DB	022H
	DB	07dH
	DB	02dH
	DB	022H
	DB	07dH
	DB	02dH
	DB	022H
	DB	07dH
	DB	02dH
	DB	022H
	DB	07dH
	DB	02dH
	DB	022H
	DB	07dH
	DB	02dH
	DB	022H
	DB	07dH
	DB	02dH
	DB	022H
	DB	07dH
	DB	02dH
	DB	022H
	DB	07dH
	DB	02dH
	DB	022H
	DB	07dH
	DB	02dH
	DB	022H
	DB	07dH
	DB	02dH
	DB	022H
	DB	07dH
	DB	02dH
	DB	022H
	DB	07dH
	DB	02dH
	DB	022H
	DB	07dH
	DB	02dH
	DB	022H
	DB	07dH
	DB	02dH
	DB	022H
	DB	07dH
	DB	02dH
	DB	022H
	DB	07dH
	DB	02dH
	DB	022H
	DB	07dH
	DB	02dH
	DB	022H
	DB	07dH
	DB	02dH
	DB	022H
	DB	07dH
	DB	02dH
	DB	022H
	DB	07dH
	DB	02dH
	DB	022H
	DB	07dH
	DB	02dH
	DB	022H
	DB	07dH
	DB	02dH
	DB	022H
	DB	07dH
	DB	02dH
	DB	022H
	DB	07dH
	DB	02dH
	DB	022H
	DB	07dH
	DB	02dH
	DB	022H
	DB	07dH
	DB	02dH
	DB	022H
	DB	07dH
	DB	02dH
	DB	022H
	DB	07dH
	DB	02dH
	DB	022H
	DB	07dH
	DB	02dH
	DB	022H
	DB	07dH
	DB	02dH
	DB	022H
	DB	07dH
	DB	02dH
	DB	022H
	DB	07dH
	DB	02dH
	DB	022H
	DB	07dH
	DB	02dH
	DB	022H
	DB	07dH
	DB	02dH
	DB	022H
	DB	07dH
	DB	02dH
	DB	022H
	DB	07dH
	DB	02dH
	DB	022H
	DB	07dH
	DB	02dH
	DB	022H
	DB	07dH
	DB	02dH
	DB	022H
	DB	07dH
	DB	02dH
	DB	022H
	DB	07dH
	DB	02dH
	DB	022H
	DB	07dH
	DB	02dH
	DB	022H
	DB	07dH
	DB	02dH
	DB	022H
	DB	07dH
	DB	02dH
	DB	022H
	DB	07dH
	DB	02dH
	DB	022H
	DB	07dH
	DB	02dH
	DB	022H
	DB	07dH
	DB	02dH
	DB	022H
	DB	07dH
	DB	02dH
	DB	022H
	DB	07dH
	DB	02dH
	DB	022H
	DB	07dH
	DB	02dH
	DB	022H
	DB	07dH
	DB	02dH
	DB	022H
	DB	07dH
	DB	02dH
	DB	022H
	DB	07dH
	DB	02dH
	DB	022H
	DB	07dH
	DB	02dH
	DB	022H
	DB	07dH
	DB	02dH
	DB	022H
	DB	07dH
	DB	02dH
	DB	022H
	DB	07dH
	DB	02dH
	DB	022H
	DB	07dH
	DB	02dH
	DB	022H
	DB	07dH
	DB	02dH
	DB	022H
	DB	07dH
	DB	02dH
	DB	022H
	DB	07dH
	DB	02dH
	DB	022H
	DB	07dH
	DB	02dH
	DB	022H
	DB	07dH
	DB	02dH
	DB	022H
	DB	07dH
	DB	02dH
	DB	022H
	DB	07dH
	DB	02dH
	DB	022H
	DB	07dH
	DB	02dH
	DB	022H
	DB	07dH
	DB	02dH
	DB	022H
	DB	07dH
	DB	02dH
	DB	022H
	DB	07dH
	DB	02dH
	DB	022H
	DB	07dH
	DB	02dH
	DB	022H
	DB	07dH
	DB	02dH
	DB	022H
	DB	07dH
	DB	02dH
	DB	022H
	DB	07dH
	DB	02dH
	DB	022H
	DB	07dH
	DB	02dH
	DB	022H
	DB	07dH
	DB	02dH
	DB	022H
	DB	07dH
	DB	02dH
	DB	022H
	DB	07dH
	DB	02dH
	DB	022H
	DB	07dH
	DB	02dH
	DB	022H
	DB	07dH
	DB	02dH
	DB	022H
	DB	07dH
	DB	02dH
	DB	022H
	DB	07dH
	DB	02dH
	DB	022H
	DB	07dH
	DB	02dH
	DB	022H
	DB	07dH
	DB	02dH
	DB	022H
	DB	07dH
	DB	02dH
	DB	022H
	DB	07dH
	DB	02dH
	DB	022H
	DB	07dH
	DB	02dH
	DB	022H
	DB	07dH
	DB	02dH
	DB	022H
	DB	07dH
	DB	02dH
	DB	022H
	DB	07dH
	DB	02dH
	DB	022H
	DB	07dH
	DB	02dH
	DB	022H
	DB	07dH
	DB	02dH
	DB	022H
	DB	07dH
	DB	02dH
	DB	022H
	DB	07dH
	DB	02dH
	DB	022H
	DB	07dH
	DB	02dH
	DB	022H
	DB	07dH
	DB	02dH
	DB	022H
	DB	07dH
	DB	02dH
	DB	022H
	DB	07dH
	DB	02dH
	DB	022H
	DB	07dH
	DB	02dH
	DB	022H
	DB	07dH
	DB	02dH
	DB	022H
	DB	07dH
	DB	02dH
	DB	022H
	DB	07dH
	DB	02dH
	DB	022H
	DB	07dH
	DB	02dH
	DB	022H
	DB	07dH
	DB	02dH
	DB	022H
	DB	07dH
	DB	02dH
	DB	022H
	DB	07dH
	DB	02dH
	DB	022H
	DB	07dH
	DB	02dH
	DB	022H
	DB	07dH
	DB	02dH
	DB	022H
	DB	07dH
	DB	02dH
	DB	022H
	DB	07dH
	DB	02dH
	DB	022H
	DB	07dH
	DB	02dH
	DB	022H
	DB	07dH
	DB	02dH
	DB	022H
	DB	07dH
	DB	02dH
	DB	022H
	DB	07dH
	DB	02dH
	DB	022H
	DB	07dH
	DB	02dH
	DB	022H
	DB	07dH
	DB	02dH
	DB	022H
	DB	07dH
	DB	02dH
	DB	022H
	DB	07dH
	DB	02dH
	DB	022H
	DB	07dH
	DB	02dH
	DB	022H
	DB	07dH
	DB	02dH
	DB	022H
	DB	07dH
	DB	02dH
	DB	022H
	DB	07dH
	DB	02dH
	DB	022H
	DB	07dH
	DB	02dH
	DB	022H
	DB	07dH
	DB	02dH
	DB	022H
	DB	07dH
	DB	02dH
	DB	022H
	DB	07dH
	DB	02dH
	DB	022H
	DB	07dH
	DB	02dH
	DB	022H
	DB	07dH
	DB	02dH
	DB	022H
	DB	07dH
	DB	02dH
	DB	022H
	DB	07dH
	DB	02dH
	DB	022H
	DB	07dH
	DB	02dH
	DB	022H
	DB	07dH
	DB	02dH
	DB	022H
	DB	07dH
	DB	02dH
	DB	022H
	DB	07dH
	DB	02dH
	DB	022H
	DB	07dH
	DB	02dH
	DB	022H
	DB	07dH
	DB	02dH
	DB	022H
	DB	07dH
	DB	02dH
	DB	022H
	DB	07dH
	DB	02dH
	DB	022H
	DB	07dH
	DB	02dH
	DB	022H
	DB	07dH
	DB	02dH
	DB	022H
	DB	07dH
	DB	02dH
	DB	022H
	DB	07dH
	DB	02dH
	DB	022H
	DB	07dH
	DB	02dH
	DB	022H
	DB	07dH
	DB	02dH
	DB	022H
	DB	07dH
	DB	02dH
	DB	022H
	DB	07dH
	DB	02dH
	DB	022H
	DB	07dH
	DB	02dH
	DB	022H
	DB	07dH
	DB	02dH
	DB	022H
	DB	07dH
	DB	02dH
	DB	022H
	DB	07dH
	DB	02dH
	DB	022H
	DB	07dH
	DB	02dH
	DB	022H
	DB	07dH
	DB	02dH
	DB	022H
	DB	07dH
	DB	02dH
	DB	022H
	DB	07dH
	DB	02dH
	DB	022H
	DB	07dH
	DB	02dH
	DB	022H
	DB	07dH
	DB	02dH
	DB	022H
	DB	07dH
	DB	02dH
	DB	022H
	DB	07dH
	DB	02dH
	DB	022H
	DB	07dH
	DB	02dH
	DB	022H
	DB	07dH
	DB	02dH
	DB	022H
	DB	07dH
	DB	02dH
	DB	022H
	DB	07dH
	DB	02dH
	DB	022H
	DB	07dH
	DB	02dH
	DB	022H
	DB	07dH
	DB	02dH
	DB	022H
	DB	07dH
	DB	02dH
	DB	022H
	DB	07dH
	DB	02dH
	DB	022H
	DB	07dH
	DB	02dH
	DB	022H
	DB	07dH
	DB	02dH
	DB	022H
	DB	07dH
	DB	02dH
	DB	022H
	DB	07dH
	DB	02dH
	DB	022H
	DB	07dH
	DB	02dH
	DB	022H
	DB	07dH
	DB	02dH
	DB	022H
	DB	07dH
	DB	02dH
	DB	022H
	DB	07dH
	DB	02dH
	DB	022H
	DB	07dH
	DB	02dH
	DB	022H
	DB	07dH
	DB	02dH
	DB	022H
	DB	07dH
	DB	02dH
	DB	022H
	DB	07dH
	DB	02dH
	DB	022H
	DB	07dH
	DB	02dH
	DB	022H
	DB	07dH
	DB	02dH
	DB	022H
	DB	07dH
	DB	02dH
	DB	022H
	DB	07dH
	DB	02dH
	DB	022H
	DB	07dH
	DB	02dH
	DB	022H
	DB	07dH
	DB	02dH
	DB	022H
	DB	07dH
	DB	02dH
	DB	022H
	DB	07dH
	DB	02dH
	DB	022H
	DB	07dH
	DB	02dH
	DB	022H
	DB	07dH
	DB	02dH
	DB	022H
	DB	07dH
	DB	02dH
	DB	022H
	DB	07dH
	DB	02dH
	DB	022H
	DB	07dH
	DB	02dH
	DB	022H
	DB	07dH
	DB	02dH
	DB	022H
	DB	07dH
	DB	02dH
	DB	022H
	DB	07dH
	DB	02dH
	DB	022H
	DB	07dH
	DB	02dH
	DB	022H
	DB	07dH
	DB	02dH
	DB	022H
	DB	07dH
	DB	02dH
	DB	022H
	DB	07dH
	DB	02dH
	DB	022H
	DB	07dH
	DB	02dH
	DB	022H
	DB	07dH
	DB	02dH
	DB	022H
	DB	07dH
	DB	02dH
	DB	022H
	DB	07dH
	DB	02dH
	DB	022H
	DB	07dH
	DB	02dH
	DB	022H
	DB	07dH
	DB	02dH
	DB	022H
	DB	07dH
	DB	02dH
	DB	022H
	DB	07dH
	DB	02dH
	DB	022H
	DB	07dH
	DB	02dH
	DB	022H
	DB	07dH
	DB	02dH
	DB	022H
	DB	07dH
	DB	02dH
	DB	022H
	DB	07dH
	DB	02dH
	DB	022H
	DB	07dH
	DB	02dH
	DB	022H
	DB	07dH
	DB	02dH
	DB	022H
	DB	07dH
	DB	02dH
	DB	022H
	DB	07dH
	DB	02dH
	DB	022H
	DB	07dH
	DB	02dH
	DB	022H
	DB	07dH
	DB	02dH
	DB	022H
	DB	07dH
	DB	02dH
	DB	022H
	DB	07dH
	DB	02dH
	DB	022H
	DB	07dH
	DB	02dH
	DB	022H
	DB	07dH
	DB	02dH
	DB	022H
	DB	07dH
	DB	02dH
	DB	022H
	DB	07dH
	DB	02dH
	DB	022H
	DB	07dH
	DB	02dH
	DB	022H
	DB	07dH
	DB	02dH
	DB	022H
	DB	07dH
	DB	02dH
	DB	022H
	DB	07dH
	DB	02dH
	DB	022H
	DB	07dH
	DB	02dH
	DB	022H
	DB	07dH
	DB	02dH
	DB	022H
	DB	07dH
	DB	02dH
	DB	022H
	DB	07dH
	DB	02dH
	DB	022H
	DB	07dH
	DB	02dH
	DB	022H
	DB	07dH
	DB	02dH
	DB	022H
	DB	07dH
	DB	02dH
	DB	022H
	DB	07dH
	DB	02dH
	DB	022H
	DB	07dH
	DB	02dH
	DB	022H
	DB	07dH
	DB	02dH
	DB	022H
	DB	07dH
	DB	02dH
	DB	022H
	DB	07dH
	DB	02dH
	DB	022H
	DB	07dH
	DB	02dH
	DB	022H
	DB	07dH
	DB	02dH
	DB	022H
	DB	07dH
	DB	02dH
	DB	022H
	DB	07dH
	DB	02dH
	DB	022H
	DB	07dH
	DB	02dH
	DB	022H
	DB	07dH
	DB	02dH
	DB	022H
	DB	07dH
	DB	02dH
	DB	022H
	DB	07dH
	DB	02dH
	DB	022H
	DB	07dH
	DB	02dH
	DB	022H
	DB	07dH
	DB	02dH
	DB	022H
	DB	07dH
	DB	02dH
	DB	022H
	DB	07dH
	DB	02dH
	DB	022H
	DB	07dH
	DB	02dH
	DB	022H
	DB	07dH
	DB	02dH
	DB	022H
	DB	07dH
	DB	02dH
	DB	022H
	DB	07dH
	DB	02dH
	DB	022H
	DB	07dH
	DB	02dH
	DB	022H
	DB	07dH
	DB	02dH
	DB	022H
	DB	07dH
	DB	02dH
	DB	022H
	DB	07dH
	DB	02dH
	DB	022H
	DB	07dH
	DB	02dH
	DB	022H
	DB	07dH
	DB	02dH
	DB	022H
	DB	07dH
	DB	02dH
	DB	022H
	DB	07dH
	DB	02dH
	DB	022H
	DB	07dH
	DB	02dH
	DB	022H
	DB	07dH
	DB	02dH
	DB	022H
	DB	07dH
	DB	02dH
	DB	022H
	DB	07dH
	DB	02dH
	DB	022H
	DB	07dH
	DB	02dH
	DB	022H
	DB	07dH
	DB	02dH
	DB	022H
	DB	07dH
	DB	02dH
	DB	022H
	DB	07dH
	DB	02dH
	DB	022H
	DB	07dH
	DB	02dH
	DB	022H
	DB	07dH
	DB	02dH
	DB	022H
	DB	07dH
	DB	02dH
	DB	022H
	DB	07dH
	DB	02dH
	DB	022H
	DB	07dH
	DB	02dH
	DB	022H
	DB	07dH
	DB	02dH
	DB	022H
	DB	07dH
	DB	02dH
	DB	022H
	DB	07dH
	DB	02dH
	DB	022H
	DB	07dH
	DB	02dH
	DB	022H
	DB	07dH
	DB	02dH
	DB	022H
	DB	07dH
	DB	02dH
	DB	022H
	DB	07dH
	DB	02dH
	DB	022H
	DB	07dH
	DB	02dH
	DB	022H
	DB	07dH
	DB	02dH
	DB	022H
	DB	07dH
	DB	02dH
	DB	022H
	DB	07dH
	DB	02dH
	DB	022H
	DB	07dH
	DB	02dH
	DB	022H
	DB	07dH
	DB	02dH
	DB	022H
	DB	07dH
	DB	02dH
	DB	022H
	DB	07dH
	DB	02dH
	DB	022H
	DB	07dH
	DB	02dH
	DB	022H
	DB	07dH
	DB	02dH
	DB	022H
	DB	07dH
	DB	02dH
	DB	022H
	DB	07dH
	DB	02dH
	DB	022H
	DB	07dH
	DB	02dH
	DB	022H
	DB	07dH
	DB	02dH
	DB	022H
	DB	07dH
	DB	02dH
	DB	022H
	DB	07dH
	DB	02dH
	DB	022H
	DB	07dH
	DB	02dH
	DB	022H
	DB	07dH
	DB	02dH
	DB	022H
	DB	07dH
	DB	02dH
	DB	022H
	DB	07dH
	DB	02dH
	DB	022H
	DB	07dH
	DB	02dH
	DB	022H
	DB	07dH
	DB	02dH
	DB	022H
	DB	07dH
	DB	02dH
	DB	022H
	DB	07dH
	DB	02dH
	DB	022H
	DB	07dH
	DB	02dH
	DB	022H
	DB	07dH
	DB	02dH
	DB	022H
	DB	07dH
	DB	02dH
	DB	022H
	DB	07dH
	DB	02dH
	DB	022H
	DB	07dH
	DB	02dH
	DB	022H
	DB	07dH
	DB	02dH
	DB	022H
	DB	07dH
	DB	02dH
	DB	022H
	DB	07dH
	DB	02dH
	DB	022H
	DB	07dH
	DB	02dH
	DB	022H
	DB	07dH
	DB	02dH
	DB	022H
	DB	07dH
	DB	02dH
	DB	022H
	DB	07dH
	DB	02dH
	DB	022H
	DB	07dH
	DB	02dH
	DB	022H
	DB	07dH
	DB	02dH
	DB	022H
	DB	07dH
	DB	02dH
	DB	022H
	DB	07dH
	DB	02dH
	DB	022H
	DB	07dH
	DB	02dH
	DB	022H
	DB	07dH
	DB	02dH
	DB	022H
	DB	07dH
	DB	02dH
	DB	022H
	DB	07dH
	DB	02dH
	DB	022H
	DB	07dH
	DB	02dH
	DB	022H
	DB	07dH
	DB	02dH
	DB	022H
	DB	07dH
	DB	02dH
	DB	022H
	DB	07dH
	DB	02dH
	DB	022H
	DB	07dH
	DB	02dH
	DB	022H
	DB	07dH
	DB	02dH
	DB	022H
	DB	07dH
	DB	02dH
	DB	022H
	DB	07dH
	DB	02dH
	DB	022H
	DB	07dH
	DB	02dH
	DB	022H
	DB	07dH
	DB	02dH
	DB	022H
	DB	07dH
	DB	02dH
	DB	022H
	DB	07dH
	DB	02dH
	DB	022H
	DB	07dH
	DB	02dH
	DB	022H
	DB	07dH
	DB	02dH
	DB	022H
	DB	07dH
	DB	02dH
	DB	022H
	DB	07dH
	DB	02dH
	DB	022H
	DB	07dH
	DB	02dH
	DB	022H
	DB	07dH
	DB	02dH
	DB	022H
	DB	07dH
	DB	02dH
	DB	022H
	DB	07dH
	DB	02dH
	DB	022H
	DB	07dH
	DB	02dH
	DB	022H
	DB	07dH
	DB	02dH
	DB	022H
	DB	07dH
	DB	02dH
	DB	022H
	DB	07dH
	DB	02dH
	DB	022H
	DB	07dH
	DB	02dH
	DB	022H
	DB	07dH
	DB	02dH
	DB	022H
	DB	07dH
	DB	02dH
	DB	022H
	DB	07dH
	DB	02dH
	DB	022H
	DB	07dH
	DB	02dH
	DB	022H
	DB	07dH
	DB	02dH
	DB	022H
	DB	07dH
	DB	02dH
	DB	022H
	DB	07dH
	DB	02dH
	DB	022H
	DB	07dH
	DB	02dH
	DB	022H
	DB	07dH
	DB	02dH
	DB	022H
	DB	07dH
	DB	02dH
	DB	022H
	DB	07dH
	DB	02dH
	DB	022H
	DB	07dH
	DB	02dH
	DB	022H
	DB	07dH
	DB	02dH
	DB	022H
	DB	07dH
	DB	02dH
	DB	022H
	DB	07dH
	DB	02dH
	DB	022H
	DB	07dH
	DB	02dH
	DB	022H
	DB	07dH
	DB	02dH
	DB	022H
	DB	07dH
	DB	02dH
	DB	022H
	DB	07dH
	DB	02dH
	DB	022H
	DB	07dH
	DB	02dH
	DB	022H
	DB	07dH
	DB	02dH
	DB	022H
	DB	07dH
	DB	02dH
	DB	022H
	DB	07dH
	DB	02dH
	DB	022H
	DB	07dH
	DB	02dH
	DB	022H
	DB	07dH
	DB	02dH
	DB	022H
	DB	07dH
	DB	02dH
	DB	022H
	DB	07dH
	DB	02dH
	DB	022H
	DB	07dH
	DB	02dH
	DB	022H
	DB	07dH
	DB	02dH
	DB	022H
	DB	07dH
	DB	02dH
	DB	022H
	DB	07dH
	DB	02dH
	DB	022H
	DB	07dH
	DB	02dH
	DB	022H
	DB	07dH
	DB	02dH
	DB	022H
	DB	07dH
	DB	02dH
	DB	022H
	DB	07dH
	DB	02dH
	DB	022H
	DB	07dH
	DB	02dH
	DB	022H
	DB	07dH
	DB	02dH
	DB	022H
	DB	07dH
	DB	02dH
	DB	022H
	DB	07dH
	DB	02dH
	DB	022H
	DB	07dH
	DB	02dH
	DB	022H
	DB	07dH
	DB	02dH
	DB	022H
	DB	07dH
	DB	02dH
	DB	022H
	DB	07dH
	DB	02dH
	DB	022H
	DB	07dH
	DB	02dH
	DB	022H
	DB	07dH
	DB	02dH
	DB	022H
	DB	07dH
	DB	02dH
	DB	022H
	DB	07dH
	DB	02dH
	DB	022H
	DB	07dH
	DB	02dH
	DB	022H
	DB	07dH
	DB	02dH
	DB	022H
	DB	07dH
	DB	02dH
	DB	022H
	DB	07dH
	DB	02dH
	DB	022H
	DB	07dH
	DB	02dH
	DB	022H
	DB	07dH
	DB	02dH
	DB	022H
	DB	07dH
	DB	02dH
	DB	022H
	DB	07dH
	DB	02dH
	DB	022H
	DB	07dH
	DB	02dH
	DB	022H
	DB	07dH
	DB	02dH
	DB	022H
	DB	07dH
	DB	02dH
	DB	022H
	DB	07dH
	DB	02dH
	DB	022H
	DB	07dH
	DB	02dH
	DB	022H
	DB	07dH
	DB	02dH
	DB	022H
	DB	07dH
	DB	02dH
	DB	022H
	DB	07dH
	DB	02dH
	DB	022H
	DB	07dH
	DB	02dH
	DB	022H
	DB	07dH
	DB	02dH
	DB	022H
	DB	07dH
	DB	02dH
	DB	022H
	DB	07dH
	DB	02dH
	DB	022H
	DB	07dH
	DB	02dH
	DB	022H
	DB	07dH
	DB	02dH
	DB	022H
	DB	07dH
	DB	02dH
	DB	022H
	DB	07dH
	DB	02dH
	DB	022H
	DB	07dH
	DB	02dH
	DB	022H
	DB	07dH
	DB	02dH
	DB	022H
	DB	07dH
	DB	02dH
	DB	022H
	DB	07dH
	DB	02dH
	DB	022H
	DB	07dH
	DB	02dH
	DB	022H
	DB	07dH
	DB	02dH
	DB	022H
	DB	07dH
	DB	02dH
	DB	022H
	DB	07dH
	DB	02dH
	DB	022H
	DB	07dH
	DB	02dH
	DB	022H
	DB	07dH
	DB	02dH
	DB	022H
	DB	07dH
	DB	02dH
	DB	022H
	DB	07dH
	DB	02dH
	DB	022H
	DB	07dH
	DB	02dH
	DB	022H
	DB	07dH
	DB	02dH
	DB	022H
	DB	07dH
	DB	02dH
	DB	022H
	DB	07dH
	DB	02dH
	DB	022H
	DB	07dH
	DB	02dH
	DB	022H
	DB	07dH
	DB	02dH
	DB	022H
	DB	07dH
	DB	02dH
	DB	022H
	DB	07dH
	DB	02dH
	DB	022H
	DB	07dH
	DB	02dH
	DB	022H
	DB	07dH
	DB	02dH
	DB	022H
	DB	07dH
	DB	02dH
	DB	022H
	DB	07dH
	DB	02dH
	DB	022H
	DB	07dH
	DB	02dH
	DB	022H
	DB	07dH
	DB	02dH
	DB	022H
	DB	07dH
	DB	02dH
	DB	022H
	DB	07dH
	DB	02dH
	DB	022H
	DB	07dH
	DB	02dH
	DB	022H
	DB	07dH
	DB	02dH
	DB	022H
	DB	07dH
	DB	02dH
	DB	022H
	DB	07dH
	DB	02dH
	DB	022H
	DB	07dH
	DB	02dH
	DB	022H
	DB	07dH
	DB	02dH
	DB	022H
	DB	07dH
	DB	02dH
	DB	022H
	DB	07dH
	DB	02dH
	DB	022H
	DB	07dH
	DB	02dH
	DB	022H
	DB	07dH
	DB	02dH
	DB	022H
	DB	07dH
	DB	02dH
	DB	022H
	DB	07dH
	DB	02dH
	DB	022H
	DB	07dH
	DB	02dH
	DB	022H
	DB	07dH
	DB	02dH
	DB	022H
	DB	07dH
	DB	02dH
	DB	022H
	DB	07dH
	DB	02dH
	DB	022H
	DB	07dH
	DB	02dH
	DB	022H
	DB	07dH
	DB	02dH
	DB	022H
	DB	07dH
	DB	02dH
	DB	022H
	DB	07dH
	DB	02dH
	DB	022H
	DB	07dH
	DB	02dH
	DB	022H
	DB	07dH
	DB	02dH
	DB	022H
	DB	07dH
	DB	02dH
	DB	022H
	DB	07dH
	DB	02dH
	DB	022H
	DB	07dH
	DB	02dH
	DB	022H
	DB	07dH
	DB	02dH
	DB	022H
	DB	07dH
	DB	02dH
	DB	022H
	DB	07dH
	DB	02dH
	DB	022H
	DB	07dH
	DB	02dH
	DB	022H
	DB	07dH
	DB	02dH
	DB	022H
	DB	07dH
	DB	02dH
	DB	022H
	DB	07dH
	DB	02dH
	DB	022H
	DB	07dH
	DB	02dH
	DB	022H
	DB	07dH
	DB	02dH
	DB	022H
	DB	07dH
	DB	02dH
	DB	022H
	DB	07dH
	DB	02dH
	DB	022H
	DB	07dH
	DB	02dH
	DB	022H
	DB	07dH
	DB	02dH
	DB	022H
	DB	07dH
	DB	02dH
	DB	022H
	DB	07dH
	DB	02dH
	DB	022H
	DB	07dH
	DB	02dH
	DB	022H
	DB	07dH
	DB	02dH
	DB	022H
	DB	07dH
	DB	02dH
	DB	022H
	DB	07dH
	DB	02dH
	DB	022H
	DB	07dH
	DB	02dH
	DB	022H
	DB	07dH
	DB	02dH
	DB	022H
	DB	07dH
	DB	02dH
	DB	022H
	DB	07dH
	DB	02dH
	DB	022H
	DB	07dH
	DB	02dH
	DB	022H
	DB	07dH
	DB	02dH
	DB	022H
	DB	07dH
	DB	02dH
	DB	022H
	DB	07dH
	DB	02dH
	DB	022H
	DB	07dH
	DB	02dH
	DB	022H
	DB	07dH
	DB	02dH
	DB	022H
	DB	07dH
	DB	02dH
	DB	022H
	DB	07dH
	DB	02dH
	DB	022H
	DB	07dH
	DB	02dH
	DB	022H
	DB	07dH
	DB	02dH
	DB	022H
	DB	07dH
	DB	02dH
	DB	022H
	DB	07dH
	DB	02dH
	DB	022H
	DB	07dH
	DB	02dH
	DB	022H
	DB	07dH
	DB	02dH
	DB	022H
	DB	07dH
	DB	02dH
	DB	022H
	DB	07dH
	DB	02dH
	DB	022H
	DB	07dH
	DB	02dH
	DB	022H
	DB	07dH
	DB	02dH
	DB	022H
	DB	07dH
	DB	02dH
	DB	022H
	DB	07dH
	DB	02dH
	DB	022H
	DB	07dH
	DB	02dH
	DB	022H
	DB	07dH
	DB	02dH
	DB	022H
	DB	07dH
	DB	02dH
	DB	022H
	DB	07dH
	DB	02dH
	DB	022H
	DB	07dH
	DB	02dH
	DB	022H
	DB	07dH
	DB	02dH
	DB	022H
	DB	07dH
	DB	02dH
	DB	022H
	DB	07dH
	DB	02dH
	DB	022H
	DB	07dH
	DB	02dH
	DB	022H
	DB	07dH
	DB	02dH
	DB	022H
	DB	07dH
	DB	02dH
	DB	022H
	DB	07dH
	DB	02dH
	DB	022H
	DB	07dH
	DB	02dH
	DB	022H
	DB	07dH
	DB	02dH
	DB	022H
	DB	07dH
	DB	02dH
	DB	022H
	DB	07dH
	DB	02dH
	DB	022H
	DB	07dH
	DB	02dH
	DB	022H
	DB	07dH
	DB	02dH
	DB	022H
	DB	07dH
	DB	02dH
	DB	022H
	DB	07dH
	DB	02dH
	DB	022H
	DB	07dH
	DB	02dH
	DB	022H
	DB	07dH
	DB	02dH
	DB	022H
	DB	07dH
	DB	02dH
	DB	022H
	DB	07dH
	DB	02dH
	DB	022H
	DB	07dH
	DB	02dH
	DB	022H
	DB	07dH
	DB	02dH
	DB	022H
	DB	07dH
	DB	02dH
	DB	022H
	DB	07dH
	DB	02dH
	DB	022H
	DB	07dH
	DB	02dH
	DB	022H
	DB	07dH
	DB	02dH
	DB	022H
	DB	07dH
	DB	02dH
	DB	022H
	DB	07dH
	DB	02dH
	DB	022H
	DB	07dH
	DB	02dH
	DB	022H
	DB	07dH
	DB	02dH
	DB	022H
	DB	07dH
	DB	02dH
	DB	022H
	DB	07dH
	DB	02dH
	DB	022H
	DB	07dH
	DB	02dH
	DB	022H
	DB	07dH
	DB	02dH
	DB	022H
	DB	07dH
	DB	02dH
	DB	022H
	DB	07dH
	DB	02dH
	DB	022H
	DB	07dH
	DB	02dH
	DB	022H
	DB	07dH
	DB	02dH
	DB	022H
	DB	07dH
	DB	02dH
	DB	022H
	DB	07dH
	DB	02dH
	DB	022H
	DB	07dH
	DB	02dH
	DB	022H
	DB	07dH
	DB	02dH
	DB	022H
	DB	07dH
	DB	02dH
	DB	022H
	DB	07dH
	DB	02dH
	DB	022H
	DB	07dH
	DB	02dH
	DB	022H
	DB	07dH
	DB	02dH
	DB	022H
	DB	07dH
	DB	02dH
	DB	022H
	DB	07dH
	DB	02dH
	DB	022H
	DB	07dH
	DB	02dH
	DB	022H
	DB	07dH
	DB	02dH
	DB	022H
	DB	07dH
	DB	02dH
	DB	022H
	DB	07dH
	DB	02dH
	DB	022H
	DB	07dH
	DB	02dH
	DB	022H
	DB	07dH
	DB	02dH
	DB	022H
	DB	07dH
	DB	02dH
	DB	022H
	DB	07dH
	DB	02dH
	DB	022H
	DB	07dH
	DB	02dH
	DB	022H
	DB	07dH
	DB	02dH
	DB	022H
	DB	07dH
	DB	02dH
	DB	022H
	DB	07dH
	DB	02dH
	DB	022H
	DB	07dH
	DB	02dH
	DB	022H
	DB	07dH
	DB	02dH
	DB	022H
	DB	07dH
	DB	02dH
	DB	022H
	DB	07dH
	DB	02dH
	DB	022H
	DB	07dH
	DB	02dH
	DB	022H
	DB	07dH
	DB	02dH
	DB	022H
	DB	07dH
	DB	02dH
	DB	022H
	DB	07dH
	DB	02dH
	DB	022H
	DB	07dH
	DB	02dH
	DB	022H
	DB	07dH
	DB	02dH
	DB	022H
	DB	07dH
	DB	02dH
	DB	022H
	DB	07dH
	DB	02dH
	DB	022H
	DB	07dH
	DB	02dH
	DB	022H
	DB	07dH
	DB	02dH
	DB	022H
	DB	07dH
	DB	02dH
	DB	022H
	DB	07dH
	DB	02dH
	DB	022H
	DB	07dH
	DB	02dH
	DB	022H
	DB	07dH
	DB	02dH
	DB	022H
	DB	07dH
	DB	02dH
	DB	022H
	DB	07dH
	DB	02dH
	DB	022H
	DB	07dH
	DB	02dH
	DB	022H
	DB	07dH
	DB	02dH
	DB	022H
	DB	07dH
	DB	02dH
	DB	022H
	DB	07dH
	DB	02dH
	DB	022H
	DB	07dH
	DB	02dH
	DB	022H
	DB	07dH
	DB	02dH
	DB	022H
	DB	07dH
	DB	02dH
	DB	022H
	DB	07dH
	DB	02dH
	DB	022H
	DB	07dH
	DB	02dH
	DB	022H
	DB	07dH
	DB	02dH
	DB	022H
	DB	07dH
	DB	02dH
	DB	022H
	DB	07dH
	DB	02dH
	DB	022H
	DB	07dH
	DB	02dH
	DB	022H
	DB	07dH
	DB	02dH
	DB	022H
	DB	07dH
	DB	02dH
	DB	022H
	DB	07dH
	DB	02dH
	DB	022H
	DB	07dH
	DB	02dH
	DB	022H
	DB	07dH
	DB	02dH
	DB	022H
	DB	07dH
	DB	02dH
	DB	022H
	DB	07dH
	DB	02dH
	DB	022H
	DB	07dH
	DB	02dH
	DB	022H
	DB	07dH
	DB	02dH
	DB	022H
	DB	07dH
	DB	02dH
	DB	022H
	DB	07dH
	DB	02dH
	DB	022H
	DB	07dH
	DB	02dH
	DB	022H
	DB	07dH
	DB	02dH
	DB	022H
	DB	07dH
	DB	02dH
	DB	022H
	DB	07dH
	DB	02dH
	DB	022H
	DB	07dH
	DB	02dH
	DB	022H
	DB	07dH
	DB	02dH
	DB	022H
	DB	07dH
	DB	02dH
	DB	022H
	DB	07dH
	DB	02dH
	DB	022H
	DB	07dH
	DB	02dH
	DB	022H
	DB	07dH
	DB	02dH
	DB	022H
	DB	07dH
	DB	02dH
	DB	022H
	DB	07dH
	DB	02dH
	DB	022H
	DB	07dH
	DB	02dH
	DB	022H
	DB	07dH
	DB	02dH
	DB	022H
	DB	07dH
	DB	02dH
	DB	022H
	DB	07dH
	DB	02dH
	DB	022H
	DB	07dH
	DB	02dH
	DB	022H
	DB	07dH
	DB	02dH
	DB	022H
	DB	07dH
	DB	02dH
	DB	022H
	DB	07dH
	DB	02dH
	DB	022H
	DB	07dH
	DB	02dH
	DB	022H
	DB	07dH
	DB	02dH
	DB	022H
	DB	07dH
	DB	02dH
	DB	022H
	DB	07dH
	DB	02dH
	DB	022H
	DB	07dH
	DB	02dH
	DB	022H
	DB	07dH
	DB	02dH
	DB	022H
	DB	07dH
	DB	02dH
	DB	022H
	DB	07dH
	DB	02dH
	DB	022H
	DB	07dH
	DB	02dH
	DB	022H
	DB	07dH
	DB	02dH
	DB	022H
	DB	07dH
	DB	02dH
	DB	022H
	DB	07dH
	DB	02dH
	DB	022H
	DB	07dH
	DB	02dH
	DB	022H
	DB	07dH
	DB	02dH
	DB	022H
	DB	07dH
	DB	02dH
	DB	022H
	DB	07dH
	DB	02dH
	DB	022H
	DB	07dH
	DB	02dH
	DB	022H
	DB	07dH
	DB	02dH
	DB	022H
	DB	07dH
	DB	02dH
	DB	022H
	DB	07dH
	DB	02dH
	DB	022H
	DB	07dH
	DB	02dH
	DB	022H
	DB	07dH
	DB	02dH
	DB	022H
	DB	07dH
	DB	02dH
	DB	022H
	DB	07dH
	DB	02dH
	DB	022H
	DB	07dH
	DB	02dH
	DB	022H
	DB	07dH
	DB	02dH
	DB	022H
	DB	07dH
	DB	02dH
	DB	022H
	DB	07dH
	DB	02dH
	DB	022H
	DB	07dH
	DB	02dH
	DB	022H
	DB	07dH
	DB	02dH
	DB	022H
	DB	07dH
	DB	02dH
	DB	022H
	DB	07dH
	DB	02dH
	DB	022H
	DB	07dH
	DB	02dH
	DB	022H
	DB	07dH
	DB	02dH
	DB	022H
	DB	07dH
	DB	02dH
	DB	022H
	DB	07dH
	DB	02dH
	DB	022H
	DB	07dH
	DB	02dH
	DB	022H
	DB	07dH
	DB	02dH
	DB	022H
	DB	07dH
	DB	02dH
	DB	022H
	DB	07dH
	DB	02dH
	DB	022H
	DB	07dH
	DB	02dH
	DB	022H
	DB	07dH
	DB	02dH
	DB	022H
	DB	07dH
	DB	02dH
	DB	022H
	DB	07dH
	DB	02dH
	DB	022H
	DB	07dH
	DB	02dH
	DB	022H
	DB	07dH
	DB	02dH
	DB	022H
	DB	07dH
	DB	02dH
	DB	022H
	DB	07dH
	DB	02dH
	DB	022H
	DB	07dH
	DB	02dH
	DB	022H
	DB	07dH
	DB	02dH
	DB	022H
	DB	07dH
	DB	02dH
	DB	022H
	DB	07dH
	DB	02dH
	DB	022H
	DB	07dH
	DB	02dH
	DB	022H
	DB	07dH
	DB	02dH
	DB	022H
	DB	07dH
	DB	02dH
	DB	022H
	DB	07dH
	DB	02dH
	DB	022H
	DB	07dH
	DB	02dH
	DB	022H
	DB	07dH
	DB	02dH
	DB	022H
	DB	07dH
	DB	02dH
	DB	022H
	DB	07dH
	DB	02dH
	DB	022H
	DB	07dH
	DB	02dH
	DB	022H
	DB	07dH
	DB	02dH
	DB	022H
	DB	07dH
	DB	02dH
	DB	022H
	DB	07dH
	DB	02dH
	DB	022H
	DB	07dH
	DB	02dH
	DB	022H
	DB	07dH
	DB	02dH
	DB	022H
	DB	07dH
	DB	02dH
	DB	022H
	DB	07dH
	DB	02dH
	DB	022H
	DB	07dH
	DB	02dH
	DB	022H
	DB	07dH
	DB	02dH
	DB	022H
	DB	07dH
	DB	02dH
	DB	022H
	DB	07dH
	DB	02dH
	DB	022H
	DB	07dH
	DB	02dH
	DB	022H
	DB	07dH
	DB	02dH
	DB	022H
	DB	07dH
	DB	02dH
	DB	022H
	DB	07dH
	DB	02dH
	DB	022H
	DB	07dH
	DB	02dH
	DB	022H
	DB	07dH
	DB	02dH
	DB	022H
	DB	07dH
	DB	02dH
	DB	022H
	DB	07dH
	DB	02dH
	DB	022H
	DB	07dH
	DB	02dH
	DB	022H
	DB	07dH
	DB	02dH
	DB	022H
	DB	07dH
	DB	02dH
	DB	022H
	DB	07dH
	DB	02dH
	DB	022H
	DB	07dH
	DB	02dH
	DB	022H
	DB	07dH
	DB	02dH
	DB	022H
	DB	07dH
	DB	02dH
	DB	022H
	DB	07dH
	DB	02dH
	DB	022H
	DB	07dH
	DB	02dH
	DB	022H
	DB	07dH
	DB	02dH
	DB	022H
	DB	07dH
	DB	02dH
	DB	022H
	DB	07dH
	DB	02dH
	DB	022H
	DB	07dH
	DB	02dH
	DB	022H
	DB	07dH
	DB	02dH
	DB	022H
	DB	07dH
	DB	02dH
	DB	022H
	DB	07dH
	DB	02dH
	DB	022H
	DB	07dH
	DB	02dH
	DB	022H
	DB	07dH
	DB	02dH
	DB	022H
	DB	07dH
	DB	02dH
	DB	022H
	DB	07dH
	DB	02dH
	DB	022H
	DB	07dH
	DB	02dH
	DB	022H
	DB	07dH
	DB	02dH
	DB	022H
	DB	07dH
	DB	02dH
	DB	022H
	DB	07dH
	DB	02dH
	DB	022H
	DB	07dH
	DB	02dH
	DB	022H
	DB	07dH
	DB	02dH
	DB	022H
	DB	07dH
	DB	02dH
	DB	022H
	DB	07dH
	DB	02dH
	DB	022H
	DB	07dH
	DB	02dH
	DB	022H
	DB	07dH
	DB	02dH
	DB	022H
	DB	07dH
	DB	02dH
	DB	022H
	DB	07dH
	DB	02dH
	DB	022H
	DB	07dH
	DB	02dH
	DB	022H
	DB	07dH
	DB	02dH
	DB	022H
	DB	07dH
	DB	02dH
	DB	022H
	DB	07dH
	DB	02dH
	DB	022H
	DB	07dH
	DB	02dH
	DB	022H
	DB	07dH
	DB	02dH
	DB	022H
	DB	07dH
	DB	02dH
	DB	022H
	DB	07dH
	DB	02dH
	DB	022H
	DB	07dH
	DB	02dH
	DB	022H
	DB	07dH
	DB	02dH
	DB	022H
	DB	07dH
	DB	02dH
	DB	022H
	DB	07dH
	DB	02dH
	DB	022H
	DB	07dH
	DB	02dH
	DB	022H
	DB	07dH
	DB	02dH
	DB	022H
	DB	07dH
	DB	02dH
	DB	022H
	DB	07dH
	DB	02dH
	DB	022H
	DB	07dH
	DB	02dH
	DB	022H
	DB	07dH
	DB	02dH
	DB	022H
	DB	07dH
	DB	02dH
	DB	022H
	DB	07dH
	DB	02dH
	DB	022H
	DB	07dH
	DB	02dH
	DB	022H
	DB	07dH
	DB	02dH
	DB	022H
	DB	07dH
	DB	02dH
	DB	022H
	DB	07dH
	DB	02dH
	DB	022H
	DB	07dH
	DB	02dH
	DB	022H
	DB	07dH
	DB	02dH
	DB	022H
	DB	07dH
	DB	02dH
	DB	022H
	DB	07dH
	DB	02dH
	DB	022H
	DB	07dH
	DB	02dH
	DB	022H
	DB	07dH
	DB	02dH
	DB	022H
	DB	07dH
	DB	02dH
	DB	022H
	DB	07dH
	DB	02dH
	DB	022H
	DB	07dH
	DB	02dH
	DB	022H
	DB	07dH
	DB	02dH
	DB	022H
	DB	07dH
	DB	02dH
	DB	022H
	DB	07dH
	DB	02dH
	DB	022H
	DB	07dH
	DB	02dH
	DB	022H
	DB	07dH
	DB	02dH
	DB	022H
	DB	07dH
	DB	02dH
	DB	022H
	DB	07dH
	DB	02dH
	DB	022H
	DB	07dH
	DB	02dH
	DB	022H
	DB	07dH
	DB	02dH
	DB	022H
	DB	07dH
	DB	02dH
	DB	022H
	DB	07dH
	DB	02dH
	DB	022H
	DB	07dH
	DB	02dH
	DB	022H
	DB	07dH
	DB	02dH
	DB	022H
	DB	07dH
	DB	02dH
	DB	022H
	DB	07dH
	DB	02dH
	DB	022H
	DB	07dH
	DB	02dH
	DB	022H
	DB	07dH
	DB	02dH
	DB	022H
	DB	07dH
	DB	02dH
	DB	022H
	DB	07dH
	DB	02dH
	DB	022H
	DB	07dH
	DB	02dH
	DB	022H
	DB	07dH
	DB	02dH
	DB	022H
	DB	07dH
	DB	02dH
	DB	022H
	DB	07dH
	DB	02dH
	DB	022H
	DB	07dH
	DB	02dH
	DB	022H
	DB	07dH
	DB	02dH
	DB	022H
	DB	07dH
	DB	02dH
	DB	022H
	DB	07dH
	DB	02dH
	DB	022H
	DB	07dH
	DB	02dH
	DB	022H
	DB	07dH
	DB	02dH
	DB	022H
	DB	07dH
	DB	02dH
	DB	022H
	DB	07dH
	DB	02dH
	DB	022H
	DB	07dH
	DB	02dH
	DB	022H
	DB	07dH
	DB	02dH
	DB	022H
	DB	07dH
	DB	02dH
	DB	022H
	DB	07dH
	DB	02dH
	DB	022H
	DB	07dH
	DB	02dH
	DB	022H
	DB	07dH
	DB	02dH
	DB	022H
	DB	07dH
	DB	02dH
	DB	022H
	DB	07dH
	DB	02dH
	DB	022H
	DB	07dH
	DB	02dH
	DB	022H
	DB	07dH
	DB	02dH
	DB	022H
	DB	07dH
	DB	02dH
	DB	022H
	DB	07dH
	DB	02dH
	DB	022H
	DB	07dH
	DB	02dH
	DB	022H
	DB	07dH
	DB	02dH
	DB	022H
	DB	07dH
	DB	02dH
	DB	022H
	DB	07dH
	DB	02dH
	DB	022H
	DB	07dH
	DB	02dH
	DB	022H
	DB	07dH
	DB	02dH
	DB	022H
	DB	07dH
	DB	02dH
	DB	022H
	DB	07dH
	DB	02dH
	DB	022H
	DB	07dH
	DB	02dH
	DB	022H
	DB	07dH
	DB	02dH
	DB	022H
	DB	07dH
	DB	02dH
	DB	022H
	DB	07dH
	DB	02dH
	DB	022H
	DB	07dH
	DB	02dH
	DB	022H
	DB	07dH
	DB	02dH
	DB	022H
	DB	07dH
	DB	02dH
	DB	022H
	DB	07dH
	DB	02dH
	DB	022H
	DB	07dH
	DB	02dH
	DB	022H
	DB	07dH
	DB	02dH
	DB	022H
	DB	07dH
	DB	02dH
	DB	022H
	DB	07dH
	DB	02dH
	DB	022H
	DB	07dH
	DB	02dH
	DB	022H
	DB	07dH
	DB	02dH
	DB	022H
	DB	07dH
	DB	02dH
	DB	022H
	DB	07dH
	DB	02dH
	DB	022H
	DB	07dH
	DB	02dH
	DB	022H
	DB	07dH
	DB	02dH
	DB	022H
	DB	07dH
	DB	02dH
	DB	022H
	DB	07dH
	DB	02dH
	DB	022H
	DB	07dH
	DB	02dH
	DB	022H
	DB	07dH
	DB	02dH
	DB	022H
	DB	07dH
	DB	02dH
	DB	022H
	DB	07dH
	DB	02dH
	DB	022H
	DB	07dH
	DB	02dH
	DB	022H
	DB	07dH
	DB	02dH
	DB	022H
	DB	07dH
	DB	02dH
	DB	022H
	DB	07dH
	DB	02dH
	DB	022H
	DB	07dH
	DB	02dH
	DB	022H
	DB	07dH
	DB	02dH
	DB	022H
	DB	07dH
	DB	02dH
	DB	022H
	DB	07dH
	DB	02dH
	DB	022H
	DB	07dH
	DB	02dH
	DB	022H
	DB	07dH
	DB	02dH
	DB	022H
	DB	07dH
	DB	02dH
	DB	022H
	DB	07dH
	DB	02dH
	DB	022H
	DB	07dH
	DB	02dH
	DB	022H
	DB	07dH
	DB	02dH
	DB	022H
	DB	07dH
	DB	02dH
	DB	022H
	DB	07dH
	DB	02dH
	DB	022H
	DB	07dH
	DB	02dH
	DB	022H
	DB	07dH
	DB	02dH
	DB	022H
	DB	07dH
	DB	02dH
	DB	022H
	DB	07dH
	DB	02dH
	DB	022H
	DB	07dH
	DB	02dH
	DB	022H
	DB	07dH
	DB	02dH
	DB	022H
	DB	07dH
	DB	02dH
	DB	022H
	DB	07dH
	DB	02dH
	DB	022H
	DB	07dH
	DB	02dH
	DB	022H
	DB	07dH
	DB	02dH
	DB	022H
	DB	07dH
	DB	02dH
	DB	022H
	DB	07dH
	DB	02dH
	DB	022H
	DB	07dH
	DB	02dH
	DB	022H
	DB	07dH
	DB	02dH
	DB	022H
	DB	07dH
	DB	02dH
	DB	022H
	DB	07dH
	DB	02dH
	DB	022H
	DB	07dH
	DB	02dH
	DB	022H
	DB	07dH
	DB	02dH
	DB	022H
	DB	07dH
	DB	02dH
	DB	022H
	DB	07dH
	DB	02dH
	DB	022H
	DB	07dH
	DB	02dH
	DB	022H
	DB	07dH
	DB	02dH
	DB	022H
	DB	07dH
	DB	02dH
	DB	022H
	DB	07dH
	DB	02dH
	DB	022H
	DB	07dH
	DB	02dH
	DB	022H
	DB	07dH
	DB	02dH
	DB	022H
	DB	07dH
	DB	02dH
	DB	022H
	DB	07dH
	DB	02dH
	DB	022H
	DB	07dH
	DB	02dH
	DB	022H
	DB	07dH
	DB	02dH
	DB	022H
	DB	07dH
	DB	02dH
	DB	022H
	DB	07dH
	DB	02dH
	DB	022H
	DB	07dH
	DB	02dH
	DB	022H
	DB	07dH
	DB	02dH
	DB	022H
	DB	07dH
	DB	02dH
	DB	022H
	DB	07dH
	DB	02dH
	DB	022H
	DB	07dH
	DB	02dH
	DB	022H
	DB	07dH
	DB	02dH
	DB	022H
	DB	07dH
	DB	02dH
	DB	022H
	DB	07dH
	DB	02dH
	DB	022H
	DB	07dH
	DB	02dH
	DB	022H
	DB	07dH
	DB	02dH
	DB	022H
	DB	07dH
	DB	02dH
	DB	022H
	DB	07dH
	DB	02dH
	DB	022H
	DB	07dH
	DB	02dH
	DB	022H
	DB	07dH
	DB	02dH
	DB	022H
	DB	07dH
	DB	02dH
	DB	022H
	DB	07dH
	DB	02dH
	DB	022H
	DB	07dH
	DB	02dH
	DB	022H
	DB	07dH
	DB	02dH
	DB	022H
	DB	07dH
	DB	02dH
	DB	022H
	DB	07dH
	DB	02dH
	DB	022H
	DB	07dH
	DB	02dH
	DB	022H
	DB	07dH
	DB	02dH
	DB	022H
	DB	07dH
	DB	02dH
	DB	022H
	DB	07dH
	DB	02dH
	DB	022H
	DB	07dH
	DB	02dH
	DB	022H
	DB	07dH
	DB	02dH
	DB	022H
	DB	07dH
	DB	02dH
	DB	022H
	DB	07dH
	DB	02dH
	DB	022H
	DB	07dH
	DB	02dH
	DB	022H
	DB	07dH
	DB	02dH
	DB	022H
	DB	07dH
	DB	02dH
	DB	022H
	DB	07dH
	DB	02dH
	DB	022H
	DB	07dH
	DB	02dH
	DB	022H
	DB	07dH
	DB	02dH
	DB	022H
	DB	07dH
	DB	02dH
	DB	022H
	DB	07dH
	DB	02dH
	DB	022H
	DB	07dH
	DB	02dH
	DB	022H
	DB	07dH
	DB	02dH
	DB	022H
	DB	07dH
	DB	02dH
	DB	022H
	DB	07dH
	DB	02dH
	DB	022H
	DB	07dH
	DB	02dH
	DB	022H
	DB	07dH
	DB	02dH
	DB	022H
	DB	07dH
	DB	02dH
	DB	022H
	DB	07dH
	DB	02dH
	DB	022H
	DB	07dH
	DB	02dH
	DB	022H
	DB	07dH
	DB	02dH
	DB	022H
	DB	07dH
	DB	02dH
	DB	022H
	DB	07dH
	DB	02dH
	DB	022H
	DB	07dH
	DB	02dH
	DB	022H
	DB	07dH
	DB	02dH
	DB	022H
	DB	07dH
	DB	02dH
	DB	022H
	DB	07dH
	DB	02dH
	DB	022H
	DB	07dH
	DB	02dH
	DB	022H
	DB	07dH
	DB	02dH
	DB	022H
	DB	07dH
	DB	02dH
	DB	022H
	DB	07dH
	DB	02dH
	DB	022H
	DB	07dH
	DB	02dH
	DB	022H
	DB	07dH
	DB	02dH
	DB	022H
	DB	07dH
	DB	02dH
	DB	022H
	DB	07dH
	DB	02dH
	DB	022H
	DB	07dH
	DB	02dH
	DB	022H
	DB	07dH
	DB	02dH
	DB	022H
	DB	07dH
	DB	02dH
	DB	022H
	DB	07dH
	DB	02dH
	DB	022H
	DB	07dH
	DB	02dH
	DB	022H
	DB	07dH
	DB	02dH
	DB	022H
	DB	07dH
	DB	02dH
	DB	022H
	DB	07dH
	DB	02dH
	DB	022H
	DB	07dH
	DB	02dH
	DB	022H
	DB	07dH
	DB	02dH
	DB	022H
	DB	07dH
	DB	02dH
	DB	022H
	DB	07dH
	DB	02dH
	DB	022H
	DB	07dH
	DB	02dH
	DB	022H
	DB	07dH
	DB	02dH
	DB	022H
	DB	07dH
	DB	02dH
	DB	022H
	DB	07dH
	DB	02dH
	DB	022H
	DB	07dH
	DB	02dH
	DB	022H
	DB	07dH
	DB	02dH
	DB	022H
	DB	07dH
	DB	02dH
	DB	022H
	DB	07dH
	DB	02dH
	DB	022H
	DB	07dH
	DB	02dH
	DB	022H
	DB	07dH
	DB	02dH
	DB	022H
	DB	07dH
	DB	02dH
	DB	022H
	DB	07dH
	DB	02dH
	DB	022H
	DB	07dH
	DB	02dH
	DB	022H
	DB	07dH
	DB	02dH
	DB	022H
	DB	07dH
	DB	02dH
	DB	022H
	DB	07dH
	DB	02dH
	DB	022H
	DB	07dH
	DB	02dH
	DB	022H
	DB	07dH
	DB	02dH
	DB	022H
	DB	07dH
	DB	02dH
	DB	022H
	DB	07dH
	DB	02dH
	DB	022H
	DB	07dH
	DB	02dH
	DB	022H
	DB	07dH
	DB	02dH
	DB	022H
	DB	07dH
	DB	02dH
	DB	022H
	DB	07dH
	DB	02dH
	DB	022H
	DB	07dH
	DB	02dH
	DB	022H
	DB	07dH
	DB	02dH
	DB	022H
	DB	07dH
	DB	02dH
	DB	022H
	DB	07dH
	DB	02dH
	DB	022H
	DB	07dH
	DB	02dH
	DB	022H
	DB	07dH
	DB	02dH
	DB	022H
	DB	07dH
	DB	02dH
	DB	022H
	DB	07dH
	DB	02dH
	DB	022H
	DB	07dH
	DB	02dH
	DB	022H
	DB	07dH
	DB	02dH
	DB	022H
	DB	07dH
	DB	02dH
	DB	022H
	DB	07dH
	DB	02dH
	DB	022H
	DB	07dH
	DB	02dH
	DB	022H
	DB	07dH
	DB	02dH
	DB	022H
	DB	07dH
	DB	02dH
	DB	022H
	DB	07dH
	DB	02dH
	DB	022H
	DB	07dH
	DB	02dH
	DB	022H
	DB	07dH
	DB	02dH
	DB	022H
	DB	07dH
	DB	02dH
	DB	022H
	DB	07dH
	DB	02dH
	DB	022H
	DB	07dH
	DB	02dH
	DB	022H
	DB	07dH
	DB	02dH
	DB	022H
	DB	07dH
	DB	02dH
	DB	022H
	DB	07dH
	DB	02dH
	DB	022H
	DB	07dH
	DB	02dH
	DB	022H
	DB	07dH
	DB	02dH
	DB	022H
	DB	07dH
	DB	02dH
	DB	022H
	DB	07dH
	DB	02dH
	DB	022H
	DB	07dH
	DB	02dH
	DB	022H
	DB	07dH
	DB	02dH
	DB	022H
	DB	07dH
	DB	02dH
	DB	022H
	DB	07dH
	DB	02dH
	DB	022H
	DB	07dH
	DB	02dH
	DB	022H
	DB	07dH
	DB	02dH
	DB	022H
	DB	07dH
	DB	02dH
	DB	022H
	DB	07dH
	DB	02dH
	DB	022H
	DB	07dH
	DB	02dH
	DB	022H
	DB	07dH
	DB	02dH
	DB	022H
	DB	07dH
	DB	02dH
	DB	022H
	DB	07dH
	DB	02dH
	DB	022H
	DB	07dH
	DB	02dH
	DB	022H
	DB	07dH
	DB	02dH
	DB	022H
	DB	07dH
	DB	02dH
	DB	022H
	DB	07dH
	DB	02dH
	DB	022H
	DB	07dH
	DB	02dH
	DB	022H
	DB	07dH
	DB	02dH
	DB	022H
	DB	07dH
	DB	02dH
	DB	022H
	DB	07dH
	DB	02dH
	DB	022H
	DB	07dH
	DB	02dH
	DB	022H
	DB	07dH
	DB	02dH
	DB	022H
	DB	07dH
	DB	02dH
	DB	022H
	DB	07dH
	DB	02dH
	DB	022H
	DB	07dH
	DB	02dH
	DB	022H
	DB	07dH
	DB	02dH
	DB	022H
	DB	07dH
	DB	02dH
	DB	022H
	DB	07dH
	DB	02dH
	DB	022H
	DB	07dH
	DB	02dH
	DB	022H
	DB	07dH
	DB	02dH
	DB	022H
	DB	07dH
	DB	02dH
	DB	022H
	DB	07dH
	DB	02dH
	DB	022H
	DB	07dH
	DB	02dH
	DB	022H
	DB	07dH
	DB	02dH
	DB	022H
	DB	07dH
	DB	02dH
	DB	022H
	DB	07dH
	DB	02dH
	DB	022H
	DB	07dH
	DB	02dH
	DB	022H
	DB	07dH
	DB	02dH
	DB	022H
	DB	07dH
	DB	02dH
	DB	022H
	DB	07dH
	DB	02dH
	DB	022H
	DB	07dH
	DB	02dH
	DB	022H
	DB	07dH
	DB	02dH
	DB	022H
	DB	07dH
	DB	02dH
	DB	022H
	DB	07dH
	DB	02dH
	DB	022H
	DB	07dH
	DB	02dH
	DB	022H
	DB	07dH
	DB	02dH
	DB	022H
	DB	07dH
	DB	02dH
	DB	022H
	DB	07dH
	DB	02dH
	DB	022H
	DB	07dH
	DB	02dH
	DB	022H
	DB	07dH
	DB	02dH
	DB	022H
	DB	07dH
	DB	02dH
	DB	022H
	DB	07dH
	DB	02dH
	DB	022H
	DB	07dH
	DB	02dH
	DB	022H
	DB	07dH
	DB	02dH
	DB	022H
	DB	07dH
	DB	02dH
	DB	022H
	DB	07dH
	DB	02dH
	DB	022H
	DB	07dH
	DB	02dH
	DB	022H
	DB	07dH
	DB	02dH
	DB	022H
	DB	07dH
	DB	02dH
	DB	022H
	DB	07dH
	DB	02dH
	DB	022H
	DB	07dH
	DB	02dH
	DB	022H
	DB	07dH
	DB	02dH
	DB	022H
	DB	07dH
	DB	02dH
	DB	022H
	DB	07dH
	DB	02dH
	DB	022H
	DB	07dH
	DB	02dH
	DB	022H
	DB	07dH
	DB	02dH
	DB	022H
	DB	07dH
	DB	02dH
	DB	022H
	DB	07dH
	DB	02dH
	DB	022H
	DB	07dH
	DB	02dH
	DB	022H
	DB	07dH
	DB	02dH
	DB	022H
	DB	07dH
	DB	02dH
	DB	022H
	DB	07dH
	DB	02dH
	DB	022H
	DB	07dH
	DB	02dH
	DB	022H
	DB	07dH
	DB	02dH
	DB	022H
	DB	07dH
	DB	02dH
	DB	022H
	DB	07dH
	DB	02dH
	DB	022H
	DB	07dH
	DB	02dH
	DB	022H
	DB	07dH
	DB	02dH
	DB	022H
	DB	07dH
	DB	02dH
	DB	022H
	DB	07dH
	DB	02dH
	DB	022H
	DB	07dH
	DB	02dH
	DB	022H
	DB	07dH
	DB	02dH
	DB	022H
	DB	07dH
	DB	02dH
	DB	022H
	DB	07dH
	DB	02dH
	DB	022H
	DB	07dH
	DB	02dH
	DB	022H
	DB	07dH
	DB	02dH
	DB	022H
	DB	07dH
	DB	02dH
	DB	022H
	DB	07dH
	DB	02dH
	DB	022H
	DB	07dH
	DB	02dH
	DB	022H
	DB	07dH
	DB	02dH
	DB	022H
	DB	07dH
	DB	02dH
	DB	022H
	DB	07dH
	DB	02dH
	DB	022H
	DB	07dH
	DB	02dH
	DB	022H
	DB	07dH
	DB	02dH
	DB	022H
	DB	07dH
	DB	02dH
	DB	022H
	DB	07dH
	DB	02dH
	DB	022H
	DB	07dH
	DB	02dH
	DB	022H
	DB	07dH
	DB	02dH
	DB	022H
	DB	07dH
	DB	02dH
	DB	022H
	DB	07dH
	DB	02dH
	DB	022H
	DB	07dH
	DB	02dH
	DB	022H
	DB	07dH
	DB	02dH
	DB	022H
	DB	07dH
	DB	02dH
	DB	022H
	DB	07dH
	DB	02dH
	DB	022H
	DB	07dH
	DB	02dH
	DB	022H
	DB	07dH
	DB	02dH
	DB	022H
	DB	07dH
	DB	02dH
	DB	022H
	DB	07dH
	DB	02dH
	DB	022H
	DB	07dH
	DB	02dH
	DB	022H
	DB	07dH
	DB	02dH
	DB	022H
	DB	07dH
	DB	02dH
	DB	022H
	DB	07dH
	DB	02dH
	DB	022H
	DB	07dH
	DB	02dH
	DB	022H
	DB	07dH
	DB	02dH
	DB	022H
	DB	07dH
	DB	02dH
	DB	022H
	DB	07dH
	DB	02dH
	DB	022H
	DB	07dH
	DB	02dH
	DB	022H
	DB	07dH
	DB	02dH
	DB	022H
	DB	07dH
	DB	02dH
	DB	022H
	DB	07dH
	DB	02dH
	DB	022H
	DB	07dH
	DB	02dH
	DB	022H
	DB	07dH
	DB	02dH
	DB	022H
	DB	07dH
	DB	02dH
	DB	022H
	DB	07dH
	DB	02dH
	DB	022H
	DB	07dH
	DB	02dH
	DB	022H
	DB	07dH
	DB	02dH
	DB	022H
	DB	07dH
	DB	02dH
	DB	022H
	DB	07dH
	DB	02dH
	DB	022H
	DB	07dH
	DB	02dH
	DB	022H
	DB	07dH
	DB	02dH
	DB	022H
	DB	07dH
	DB	02dH
	DB	022H
	DB	07dH
	DB	02dH
	DB	022H
	DB	07dH
	DB	02dH
	DB	022H
	DB	07dH
	DB	02dH
	DB	022H
	DB	07dH
	DB	02dH
	DB	022H
	DB	07dH
	DB	02dH
	DB	022H
	DB	07dH
	DB	02dH
	DB	022H
	DB	07dH
	DB	02dH
	DB	022H
	DB	07dH
	DB	02dH
	DB	022H
	DB	07dH
	DB	02dH
	DB	022H
	DB	07dH
	DB	02dH
	DB	022H
	DB	07dH
	DB	02dH
	DB	022H
	DB	07dH
	DB	02dH
	DB	022H
	DB	07dH
	DB	02dH
	DB	022H
	DB	07dH
	DB	02dH
	DB	022H
	DB	07dH
	DB	02dH
	DB	022H
	DB	07dH
	DB	02dH
	DB	022H
	DB	07dH
	DB	02dH
	DB	022H
	DB	07dH
	DB	02dH
	DB	022H
	DB	07dH
	DB	02dH
	DB	022H
	DB	07dH
	DB	02dH
	DB	022H
	DB	07dH
	DB	02dH
	DB	022H
	DB	07dH
	DB	02dH
	DB	022H
	DB	07dH
	DB	02dH
	DB	022H
	DB	07dH
	DB	02dH
	DB	022H
	DB	07dH
	DB	02dH
	DB	022H
	DB	07dH
	DB	02dH
	DB	022H
	DB	07dH
	DB	02dH
	DB	022H
	DB	07dH
	DB	02dH
	DB	022H
	DB	07dH
	DB	02dH
	DB	022H
	DB	07dH
	DB	02dH
	DB	022H
	DB	07dH
	DB	02dH
	DB	022H
	DB	07dH
	DB	02dH
	DB	022H
	DB	07dH
	DB	02dH
	DB	022H
	DB	07dH
	DB	02dH
	DB	022H
	DB	07dH
	DB	02dH
	DB	022H
	DB	07dH
	DB	02dH
	DB	022H
	DB	07dH
	DB	02dH
	DB	022H
	DB	07dH
	DB	02dH
	DB	022H
	DB	07dH
	DB	02dH
	DB	022H
	DB	07dH
	DB	02dH
	DB	022H
	DB	07dH
	DB	02dH
	DB	022H
	DB	07dH
	DB	02dH
	DB	022H
	DB	07dH
	DB	02dH
	DB	022H
	DB	07dH
	DB	02dH
	DB	022H
	DB	07dH
	DB	02dH
	DB	022H
	DB	07dH
	DB	02dH
	DB	022H
	DB	07dH
	DB	02dH
	DB	022H
	DB	07dH
	DB	02dH
	DB	022H
	DB	07dH
	DB	02dH
	DB	022H
	DB	07dH
	DB	02dH
	DB	022H
	DB	07dH
	DB	02dH
	DB	022H
	DB	07dH
	DB	02dH
	DB	022H
	DB	07dH
	DB	02dH
	DB	022H
	DB	07dH
	DB	02dH
	DB	022H
	DB	07dH
	DB	02dH
	DB	022H
	DB	07dH
	DB	02dH
	DB	022H
	DB	07dH
	DB	02dH
	DB	022H
	DB	07dH
	DB	02dH
	DB	022H
	DB	07dH
	DB	02dH
	DB	022H
	DB	07dH
	DB	02dH
	DB	022H
	DB	07dH
	DB	02dH
	DB	022H
	DB	07dH
	DB	02dH
	DB	022H
	DB	07dH
	DB	02dH
	DB	022H
	DB	07dH
	DB	02dH
	DB	022H
	DB	07dH
	DB	02dH
	DB	022H
	DB	07dH
	DB	02dH
	DB	022H
	DB	07dH
	DB	02dH
	DB	022H
	DB	07dH
	DB	02dH
	DB	022H
	DB	07dH
	DB	02dH
	DB	022H
	DB	07dH
	DB	02dH
	DB	022H
	DB	07dH
	DB	02dH
	DB	022H
	DB	07dH
	DB	02dH
	DB	022H
	DB	07dH
	DB	02dH
	DB	022H
	DB	07dH
	DB	02dH
	DB	022H
	DB	07dH
	DB	02dH
	DB	022H
	DB	07dH
	DB	02dH
	DB	022H
	DB	07dH
	DB	02dH
	DB	022H
	DB	07dH
	DB	02dH
	DB	022H
	DB	07dH
	DB	02dH
	DB	022H
	DB	07dH
	DB	02dH
	DB	022H
	DB	07dH
	DB	02dH
	DB	022H
	DB	07dH
	DB	02dH
	DB	022H
	DB	07dH
	DB	02dH
	DB	022H
	DB	07dH
	DB	02dH
	DB	022H
	DB	07dH
	DB	02dH
	DB	022H
	DB	07dH
	DB	02dH
	DB	022H
	DB	07dH
	DB	02dH
	DB	022H
	DB	07dH
	DB	02dH
	DB	022H
	DB	07dH
	DB	02dH
	DB	022H
	DB	07dH
	DB	02dH
	DB	022H
	DB	07dH
	DB	02dH
	DB	022H
	DB	07dH
	DB	02dH
	DB	022H
	DB	07dH
	DB	02dH
	DB	022H
	DB	07dH
	DB	02dH
	DB	022H
	DB	07dH
	DB	02dH
	DB	022H
	DB	07dH
	DB	02dH
	DB	022H
	DB	07dH
	DB	02dH
	DB	022H
	DB	07dH
	DB	02dH
	DB	022H
	DB	07dH
	DB	02dH
	DB	022H
	DB	07dH
	DB	02dH
	DB	022H
	DB	07dH
	DB	02dH
	DB	022H
	DB	07dH
	DB	02dH
	DB	022H
	DB	07dH
	DB	02dH
	DB	022H
	DB	07dH
	DB	02dH
	DB	022H
	DB	07dH
	DB	02dH
	DB	022H
	DB	07dH
	DB	02dH
	DB	022H
	DB	07dH
	DB	02dH
	DB	022H
	DB	07dH
	DB	02dH
	DB	022H
	DB	07dH
	DB	02dH
	DB	022H
	DB	07dH
	DB	02dH
	DB	022H
	DB	07dH
	DB	02dH
	DB	022H
	DB	07dH
	DB	02dH
	DB	022H
	DB	07dH
	DB	02dH
	DB	022H
	DB	07dH
	DB	02dH
	DB	022H
	DB	07dH
	DB	02dH
	DB	022H
	DB	07dH
	DB	02dH
	DB	022H
	DB	07dH
	DB	02dH
	DB	022H
	DB	07dH
	DB	02dH
	DB	022H
	DB	07dH
	DB	02dH
	DB	022H
	DB	07dH
	DB	02dH
	DB	022H
	DB	07dH
	DB	02dH
	DB	022H
	DB	07dH
	DB	02dH
	DB	022H
	DB	07dH
	DB	02dH
	DB	022H
	DB	07dH
	DB	02dH
	DB	022H
	DB	07dH
	DB	02dH
	DB	022H
	DB	07dH
	DB	02dH
	DB	022H
	DB	07dH
	DB	02dH
	DB	022H
	DB	07dH
	DB	02dH
	DB	022H
	DB	07dH
	DB	02dH
	DB	022H
	DB	07dH
	DB	02dH
	DB	022H
	DB	07dH
	DB	02dH
	DB	022H
	DB	07dH
	DB	02dH
	DB	022H
	DB	07dH
	DB	02dH
	DB	022H
	DB	07dH
	DB	02dH
	DB	022H
	DB	07dH
	DB	02dH
	DB	022H
	DB	07dH
	DB	02dH
	DB	022H
	DB	07dH
	DB	02dH
	DB	022H
	DB	07dH
	DB	02dH
	DB	022H
	DB	07dH
	DB	02dH
	DB	022H
	DB	07dH
	DB	02dH
	DB	022H
	DB	07dH
	DB	02dH
	DB	022H
	DB	07dH
	DB	02dH
	DB	022H
	DB	07dH
	DB	02dH
	DB	022H
	DB	07dH
	DB	02dH
	DB	022H
	DB	07dH
	DB	02dH
	DB	022H
	DB	07dH
	DB	02dH
	DB	022H
	DB	07dH
	DB	02dH
	DB	022H
	DB	07dH
	DB	02dH
	DB	022H
	DB	07dH
	DB	02dH
	DB	022H
	DB	07dH
	DB	02dH
	DB	022H
	DB	07dH
	DB	02dH
	DB	022H
	DB	07dH
	DB	02dH
	DB	022H
	DB	07dH
	DB	02dH
	DB	022H
	DB	07dH
	DB	02dH
	DB	022H
	DB	07dH
	DB	02dH
	DB	022H
	DB	07dH
	DB	02dH
	DB	022H
	DB	07dH
	DB	02dH
	DB	022H
	DB	07dH
	DB	02dH
	DB	022H
	DB	07dH
	DB	02dH
	DB	022H
	DB	07dH
	DB	02dH
	DB	022H
	DB	07dH
	DB	02dH
	DB	022H
	DB	07dH
	DB	02dH
	DB	022H
	DB	07dH
	DB	02dH
	DB	022H
	DB	07dH
	DB	02dH
	DB	022H
	DB	07dH
	DB	02dH
	DB	022H
	DB	07dH
	DB	02dH
	DB	022H
	DB	07dH
	DB	02dH
	DB	022H
	DB	07dH
	DB	02dH
	DB	022H
	DB	07dH
	DB	02dH
	DB	022H
	DB	07dH
	DB	02dH
	DB	022H
	DB	07dH
	DB	02dH
	DB	022H
	DB	07dH
	DB	02dH
	DB	022H
	DB	07dH
	DB	02dH
	DB	022H
	DB	07dH
	DB	02dH
	DB	022H
	DB	07dH
	DB	02dH
	DB	022H
	DB	07dH
	DB	02dH
	DB	022H
	DB	07dH
	DB	02dH
	DB	022H
	DB	07dH
	DB	02dH
	DB	022H
	DB	07dH
	DB	02dH
	DB	022H
	DB	07dH
	DB	02dH
	DB	022H
	DB	07dH
	DB	02dH
	DB	022H
	DB	07dH
	DB	02dH
	DB	022H
	DB	07dH
	DB	02dH
	DB	022H
	DB	07dH
	DB	02dH
	DB	022H
	DB	07dH
	DB	02dH
	DB	022H
	DB	07dH
	DB	02dH
	DB	022H
	DB	07dH
	DB	02dH
	DB	022H
	DB	07dH
	DB	02dH
	DB	022H
	DB	07dH
	DB	02dH
	DB	022H
	DB	07dH
	DB	02dH
	DB	022H
	DB	07dH
	DB	02dH
	DB	022H
	DB	07dH
	DB	02dH
	DB	022H
	DB	07dH
	DB	02dH
	DB	022H
	DB	07dH
	DB	02dH
	DB	022H
	DB	07dH
	DB	02dH
	DB	022H
	DB	07dH
	DB	02dH
	DB	022H
	DB	07dH
	DB	02dH
	DB	022H
	DB	07dH
	DB	02dH
	DB	022H
	DB	07dH
	DB	02dH
	DB	022H
	DB	07dH
	DB	02dH
	DB	022H
	DB	07dH
	DB	02dH
	DB	022H
	DB	07dH
	DB	02dH
	DB	022H
	DB	07dH
	DB	02dH
	DB	022H
	DB	07dH
	DB	02dH
	DB	022H
	DB	07dH
	DB	02dH
	DB	022H
	DB	07dH
	DB	02dH
	DB	022H
	DB	07dH
	DB	02dH
	DB	022H
	DB	07dH
	DB	02dH
	DB	022H
	DB	07dH
	DB	02dH
	DB	022H
	DB	07dH
	DB	02dH
	DB	022H
	DB	07dH
	DB	02dH
	DB	022H
	DB	07dH
	DB	02dH
	DB	022H
	DB	07dH
	DB	02dH
	DB	022H
	DB	07dH
	DB	02dH
	DB	022H
	DB	07dH
	DB	02dH
	DB	022H
	DB	07dH
	DB	02dH
	DB	022H
	DB	07dH
	DB	02dH
	DB	022H
	DB	07dH
	DB	02dH
	DB	022H
	DB	07dH
	DB	02dH
	DB	022H
	DB	07dH
	DB	02dH
	DB	022H
	DB	07dH
	DB	02dH
	DB	022H
	DB	07dH
	DB	02dH
	DB	022H
	DB	07dH
	DB	02dH
	DB	022H
	DB	07dH
	DB	02dH
	DB	022H
	DB	07dH
	DB	02dH
	DB	022H
	DB	07dH
	DB	02dH
	DB	022H
	DB	07dH
	DB	02dH
	DB	022H
	DB	07dH
	DB	02dH
	DB	022H
	DB	07dH
	DB	02dH
	DB	022H
	DB	07dH
	DB	02dH
	DB	022H
	DB	07dH
	DB	02dH
	DB	022H
	DB	07dH
	DB	02dH
	DB	022H
	DB	07dH
	DB	02dH
	DB	022H
	DB	07dH
	DB	02dH
	DB	022H
	DB	07dH
	DB	02dH
	DB	022H
	DB	07dH
	DB	02dH
	DB	022H
	DB	07dH
	DB	02dH
	DB	022H
	DB	07dH
	DB	02dH
	DB	022H
	DB	07dH
	DB	02dH
	DB	022H
	DB	07dH
	DB	02dH
	DB	022H
	DB	07dH
	DB	02dH
	DB	022H
	DB	07dH
	DB	02dH
	DB	022H
	DB	07dH
	DB	02dH
	DB	022H
	DB	07dH
	DB	02dH
	DB	022H
	DB	07dH
	DB	02dH
	DB	022H
	DB	07dH
	DB	02dH
	DB	022H
	DB	07dH
	DB	02dH
	DB	022H
	DB	07dH
	DB	02dH
	DB	022H
	DB	07dH
	DB	02dH
	DB	022H
	DB	07dH
	DB	02dH
	DB	022H
	DB	07dH
	DB	02dH
	DB	022H
	DB	07dH
	DB	02dH
	DB	022H
	DB	07dH
	DB	02dH
	DB	022H
	DB	07dH
	DB	02dH
	DB	022H
	DB	07dH
	DB	02dH
	DB	022H
	DB	07dH
	DB	02dH
	DB	022H
	DB	07dH
	DB	02dH
	DB	022H
	DB	07dH
	DB	02dH
	DB	022H
	DB	07dH
	DB	02dH
	DB	022H
	DB	07dH
	DB	02dH
	DB	022H
	DB	07dH
	DB	02dH
	DB	022H
	DB	07dH
	DB	02dH
	DB	022H
	DB	07dH
	DB	02dH
	DB	022H
	DB	07dH
	DB	02dH
	DB	022H
	DB	07dH
	DB	02dH
	DB	022H
	DB	07dH
	DB	02dH
	DB	022H
	DB	07dH
	DB	02dH
	DB	022H
	DB	07dH
	DB	02dH
	DB	022H
	DB	07dH
	DB	02dH
	DB	022H
	DB	07dH
	DB	02dH
	DB	022H
	DB	07dH
	DB	02dH
	DB	022H
	DB	07dH
	DB	02dH
	DB	022H
	DB	07dH
	DB	02dH
	DB	022H
	DB	07dH
	DB	02dH
	DB	022H
	DB	07dH
	DB	02dH
	DB	022H
	DB	07dH
	DB	02dH
	DB	022H
	DB	07dH
	DB	02dH
	DB	022H
	DB	07dH
	DB	02dH
	DB	022H
	DB	07dH
	DB	02dH
	DB	022H
	DB	07dH
	DB	02dH
	DB	022H
	DB	07dH
	DB	02dH
	DB	022H
	DB	07dH
	DB	02dH
	DB	022H
	DB	07dH
	DB	02dH
	DB	022H
	DB	07dH
	DB	02dH
	DB	022H
	DB	07dH
	DB	02dH
	DB	022H
	DB	07dH
	DB	02dH
	DB	022H
	DB	07dH
	DB	02dH
	DB	022H
	DB	07dH
	DB	02dH
	DB	022H
	DB	07dH
	DB	02dH
	DB	022H
	DB	07dH
	DB	02dH
	DB	022H
	DB	07dH
	DB	02dH
	DB	022H
	DB	07dH
	DB	02dH
	DB	022H
	DB	07dH
	DB	02dH
	DB	022H
	DB	07dH
	DB	02dH
	DB	022H
	DB	07dH
	DB	02dH
	DB	022H
	DB	07dH
	DB	02dH
	DB	022H
	DB	07dH
	DB	02dH
	DB	022H
	DB	07dH
	DB	02dH
	DB	022H
	DB	07dH
	DB	02dH
	DB	022H
	DB	07dH
	DB	02dH
	DB	022H
	DB	07dH
	DB	02dH
	DB	022H
	DB	07dH
	DB	02dH
	DB	022H
	DB	07dH
	DB	02dH
	DB	022H
	DB	07dH
	DB	02dH
	DB	022H
	DB	07dH
	DB	02dH
	DB	022H
	DB	07dH
	DB	02dH
	DB	022H
	DB	07dH
	DB	02dH
	DB	022H
	DB	07dH
	DB	02dH
	DB	022H
	DB	07dH
	DB	02dH
	DB	022H
	DB	07dH
	DB	02dH
	DB	022H
	DB	07dH
	DB	02dH
	DB	022H
	DB	07dH
	DB	02dH
	DB	022H
	DB	07dH
	DB	02dH
	DB	022H
	DB	07dH
	DB	02dH
	DB	022H
	DB	07dH
	DB	02dH
	DB	022H
	DB	07dH
	DB	02dH
	DB	022H
	DB	07dH
	DB	02dH
	DB	022H
	DB	07dH
	DB	02dH
	DB	022H
	DB	07dH
	DB	02dH
	DB	022H
	DB	07dH
	DB	02dH
	DB	022H
	DB	07dH
	DB	02dH
	DB	022H
	DB	07dH
	DB	02dH
	DB	022H
	DB	07dH
	DB	02dH
	DB	022H
	DB	07dH
	DB	02dH
	DB	022H
	DB	07dH
	DB	02dH
	DB	022H
	DB	07dH
	DB	02dH
	DB	022H
	DB	07dH
	DB	02dH
	DB	022H
	DB	07dH
	DB	02dH
	DB	022H
	DB	07dH
	DB	02dH
	DB	022H
	DB	07dH
	DB	02dH
	DB	022H
	DB	07dH
	DB	02dH
	DB	022H
	DB	07dH
	DB	02dH
	DB	022H
	DB	07dH
	DB	02dH
	DB	022H
	DB	07dH
	DB	02dH
	DB	022H
	DB	07dH
	DB	02dH
	DB	022H
	DB	07dH
	DB	02dH
	DB	022H
	DB	07dH
	DB	02dH
	DB	022H
	DB	07dH
	DB	02dH
	DB	022H
	DB	07dH
	DB	02dH
	DB	022H
	DB	07dH
	DB	02dH
	DB	022H
	DB	07dH
	DB	02dH
	DB	022H
	DB	07dH
	DB	02dH
	DB	022H
	DB	07dH
	DB	02dH
	DB	022H
	DB	07dH
	DB	02dH
	DB	022H
	DB	07dH
	DB	02dH
	DB	022H
	DB	07dH
	DB	02dH
	DB	022H
	DB	07dH
	DB	02dH
	DB	022H
	DB	07dH
	DB	02dH
	DB	022H
	DB	07dH
	DB	02dH
	DB	022H
	DB	07dH
	DB	02dH
	DB	022H
	DB	07dH
	DB	02dH
	DB	022H
	DB	07dH
	DB	02dH
	DB	022H
	DB	07dH
	DB	02dH
	DB	022H
	DB	07dH
	DB	02dH
	DB	022H
	DB	07dH
	DB	02dH
	DB	022H
	DB	07dH
	DB	02dH
	DB	022H
	DB	07dH
	DB	02dH
	DB	022H
	DB	07dH
	DB	02dH
	DB	022H
	DB	07dH
	DB	02dH
	DB	022H
	DB	07dH
	DB	02dH
	DB	022H
	DB	07dH
	DB	02dH
	DB	022H
	DB	07dH
	DB	02dH
	DB	022H
	DB	07dH
	DB	02dH
	DB	022H
	DB	07dH
	DB	02dH
	DB	022H
	DB	07dH
	DB	02dH
	DB	022H
	DB	07dH
	DB	02dH
	DB	022H
	DB	07dH
	DB	02dH
	DB	022H
	DB	07dH
	DB	02dH
	DB	022H
	DB	07dH
	DB	02dH
	DB	022H
	DB	07dH
	DB	02dH
	DB	022H
	DB	07dH
	DB	02dH
	DB	022H
	DB	07dH
	DB	02dH
	DB	022H
	DB	07dH
	DB	02dH
	DB	022H
	DB	07dH
	DB	02dH
	DB	022H
	DB	07dH
	DB	02dH
	DB	022H
	DB	07dH
	DB	02dH
	DB	022H
	DB	07dH
	DB	02dH
	DB	022H
	DB	07dH
	DB	02dH
	DB	022H
	DB	07dH
	DB	02dH
	DB	022H
	DB	07dH
	DB	02dH
	DB	022H
	DB	07dH
	DB	02dH
	DB	022H
	DB	07dH
	DB	02dH
	DB	022H
	DB	07dH
	DB	02dH
	DB	022H
	DB	07dH
	DB	02dH
	DB	022H
	DB	07dH
	DB	02dH
	DB	022H
	DB	07dH
	DB	02dH
	DB	022H
	DB	07dH
	DB	02dH
	DB	022H
	DB	07dH
	DB	02dH
	DB	022H
	DB	07dH
	DB	02dH
	DB	022H
	DB	07dH
	DB	02dH
	DB	022H
	DB	07dH
	DB	02dH
	DB	022H
	DB	07dH
	DB	02dH
	DB	022H
	DB	07dH
	DB	02dH
	DB	022H
	DB	07dH
	DB	02dH
	DB	022H
	DB	07dH
	DB	02dH
	DB	022H
	DB	07dH
	DB	02dH
	DB	022H
	DB	07dH
	DB	02dH
	DB	022H
	DB	07dH
	DB	02dH
	DB	022H
	DB	07dH
	DB	02dH
	DB	022H
	DB	07dH
	DB	02dH
	DB	022H
	DB	07dH
	DB	02dH
	DB	022H
	DB	07dH
	DB	02dH
	DB	022H
	DB	07dH
	DB	02dH
	DB	022H
	DB	07dH
	DB	02dH
	DB	022H
	DB	07dH
	DB	02dH
	DB	022H
	DB	07dH
	DB	02dH
	DB	022H
	DB	07dH
	DB	02dH
	DB	022H
	DB	07dH
	DB	02dH
	DB	022H
	DB	07dH
	DB	02dH
	DB	022H
	DB	07dH
	DB	02dH
	DB	022H
	DB	07dH
	DB	02dH
	DB	022H
	DB	07dH
	DB	02dH
	DB	022H
	DB	07dH
	DB	02dH
	DB	022H
	DB	07dH
	DB	02dH
	DB	022H
	DB	07dH
	DB	02dH
	DB	022H
	DB	07dH
	DB	02dH
	DB	022H
	DB	07dH
	DB	02dH
	DB	022H
	DB	07dH
	DB	02dH
	DB	022H
	DB	07dH
	DB	02dH
	DB	022H
	DB	07dH
	DB	02dH
	DB	022H
	DB	07dH
	DB	02dH
	DB	022H
	DB	07dH
	DB	02dH
	DB	022H
	DB	07dH
	DB	02dH
	DB	022H
	DB	07dH
	DB	02dH
	DB	022H
	DB	07dH
	DB	02dH
	DB	022H
	DB	07dH
	DB	02dH
	DB	022H
	DB	07dH
	DB	02dH
	DB	022H
	DB	07dH
	DB	02dH
	DB	022H
	DB	07dH
	DB	02dH
	DB	022H
	DB	07dH
	DB	02dH
	DB	022H
	DB	07dH
	DB	02dH
	DB	022H
	DB	07dH
	DB	02dH
	DB	022H
	DB	07dH
	DB	02dH
	DB	022H
	DB	07dH
	DB	02dH
	DB	022H
	DB	07dH
	DB	02dH
	DB	022H
	DB	07dH
	DB	02dH
	DB	022H
	DB	07dH
	DB	02dH
	DB	022H
	DB	07dH
	DB	02dH
	DB	022H
	DB	07dH
	DB	02dH
	DB	022H
	DB	07dH
	DB	02dH
	DB	022H
	DB	07dH
	DB	02dH
	DB	022H
	DB	07dH
	DB	02dH
	DB	022H
	DB	07dH
	DB	02dH
	DB	022H
	DB	07dH
	DB	02dH
	DB	022H
	DB	07dH
	DB	02dH
	DB	022H
	DB	07dH
	DB	02dH
	DB	022H
	DB	07dH
	DB	02dH
	DB	022H
	DB	07dH
	DB	02dH
	DB	022H
	DB	07dH
	DB	02dH
	DB	022H
	DB	07dH
	DB	02dH
	DB	022H
	DB	07dH
	DB	02dH
	DB	022H
	DB	07dH
	DB	02dH
	DB	022H
	DB	07dH
	DB	02dH
	DB	022H
	DB	07dH
	DB	02dH
	DB	022H
	DB	07dH
	DB	02dH
	DB	022H
	DB	07dH
	DB	02dH
	DB	022H
	DB	07dH
	DB	02dH
	DB	022H
	DB	07dH
	DB	02dH
	DB	022H
	DB	07dH
	DB	02dH
	DB	022H
	DB	07dH
	DB	02dH
	DB	022H
	DB	07dH
	DB	02dH
	DB	022H
	DB	07dH
	DB	02dH
	DB	022H
	DB	07dH
	DB	02dH
	DB	022H
	DB	07dH
	DB	02dH
	DB	022H
	DB	07dH
	DB	02dH
	DB	022H
	DB	07dH
	DB	02dH
	DB	022H
	DB	07dH
	DB	02dH
	DB	022H
	DB	07dH
	DB	02dH
	DB	022H
	DB	07dH
	DB	02dH
	DB	022H
	DB	07dH
	DB	02dH
	DB	022H
	DB	07dH
	DB	02dH
	DB	022H
	DB	07dH
	DB	02dH
	DB	022H
	DB	07dH
	DB	02dH
	DB	022H
	DB	07dH
	DB	02dH
	DB	022H
	DB	07dH
	DB	02dH
	DB	022H
	DB	07dH
	DB	02dH
	DB	022H
	DB	07dH
	DB	02dH
	DB	022H
	DB	07dH
	DB	02dH
	DB	022H
	DB	07dH
	DB	02dH
	DB	022H
	DB	07dH
	DB	02dH
	DB	022H
	DB	07dH
	DB	02dH
	DB	022H
	DB	07dH
	DB	02dH
	DB	022H
	DB	07dH
	DB	02dH
	DB	022H
	DB	07dH
	DB	02dH
	DB	022H
	DB	07dH
	DB	02dH
	DB	022H
	DB	07dH
	DB	02dH
	DB	022H
	DB	07dH
	DB	02dH
	DB	022H
	DB	07dH
	DB	02dH
	DB	022H
	DB	07dH
	DB	02dH
	DB	022H
	DB	07dH
	DB	02dH
	DB	022H
	DB	07dH
	DB	02dH
	DB	022H
	DB	07dH
	DB	02dH
	DB	022H
	DB	07dH
	DB	02dH
	DB	022H
	DB	07dH
	DB	02dH
	DB	022H
	DB	07dH
	DB	02dH
	DB	022H
	DB	07dH
	DB	02dH
	DB	022H
	DB	07dH
	DB	02dH
	DB	022H
	DB	07dH
	DB	02dH
	DB	022H
	DB	07dH
	DB	02dH
	DB	022H
	DB	07dH
	DB	02dH
	DB	022H
	DB	07dH
	DB	02dH
	DB	022H
	DB	07dH
	DB	02dH
	DB	022H
	DB	07dH
	DB	02dH
	DB	022H
	DB	07dH
	DB	02dH
	DB	022H
	DB	07dH
	DB	02dH
	DB	022H
	DB	07dH
	DB	02dH
	DB	022H
	DB	07dH
	DB	02dH
	DB	022H
	DB	07dH
	DB	02dH
	DB	022H
	DB	07dH
	DB	02dH
	DB	022H
	DB	07dH
	DB	02dH
	DB	022H
	DB	07dH
	DB	02dH
	DB	022H
	DB	07dH
	DB	02dH
	DB	022H
	DB	07dH
	DB	02dH
	DB	022H
	DB	07dH
	DB	02dH
	DB	022H
	DB	07dH
	DB	02dH
	DB	022H
	DB	07dH
	DB	02dH
	DB	022H
	DB	07dH
	DB	02dH
	DB	022H
	DB	07dH
	DB	02dH
	DB	022H
	DB	07dH
	DB	02dH
	DB	022H
	DB	07dH
	DB	02dH
	DB	022H
	DB	07dH
	DB	02dH
	DB	022H
	DB	07dH
	DB	02dH
	DB	022H
	DB	07dH
	DB	02dH
	DB	022H
	DB	07dH
	DB	02dH
	DB	022H
	DB	07dH
	DB	02dH
	DB	022H
	DB	07dH
	DB	02dH
	DB	022H
	DB	07dH
	DB	02dH
	DB	022H
	DB	07dH
	DB	02dH
	DB	022H
	DB	07dH
	DB	02dH
	DB	022H
	DB	07dH
	DB	02dH
	DB	022H
	DB	07dH
	DB	02dH
	DB	022H
	DB	07dH
	DB	02dH
	DB	022H
	DB	07dH
	DB	02dH
	DB	022H
	DB	07dH
	DB	02dH
	DB	022H
	DB	07dH
	DB	02dH
	DB	022H
	DB	07dH
	DB	02dH
	DB	022H
	DB	07dH
	DB	02dH
	DB	022H
	DB	07dH
	DB	02dH
	DB	022H
	DB	07dH
	DB	02dH
	DB	022H
	DB	07dH
	DB	02dH
	DB	022H
	DB	07dH
	DB	02dH
	DB	022H
	DB	07dH
	DB	02dH
	DB	022H
	DB	07dH
	DB	02dH
	DB	022H
	DB	07dH
	DB	02dH
	DB	022H
	DB	07dH
	DB	02dH
	DB	022H
	DB	07dH
	DB	02dH
	DB	022H
	DB	07dH
	DB	02dH
	DB	022H
	DB	07dH
	DB	02dH
	DB	022H
	DB	07dH
	DB	02dH
	DB	022H
	DB	07dH
	DB	02dH
	DB	022H
	DB	07dH
	DB	02dH
	DB	022H
	DB	07dH
	DB	02dH
	DB	022H
	DB	07dH
	DB	02dH
	DB	022H
	DB	07dH
	DB	02dH
	DB	022H
	DB	07dH
	DB	02dH
	DB	022H
	DB	07dH
	DB	02dH
	DB	022H
	DB	07dH
	DB	02dH
	DB	022H
	DB	07dH
	DB	02dH
	DB	022H
	DB	07dH
	DB	02dH
	DB	022H
	DB	07dH
	DB	02dH
	DB	022H
	DB	07dH
	DB	02dH
	DB	022H
	DB	07dH
	DB	02dH
	DB	022H
	DB	07dH
	DB	02dH
	DB	022H
	DB	07dH
	DB	02dH
	DB	022H
	DB	07dH
	DB	02dH
	DB	022H
	DB	07dH
	DB	02dH
	DB	022H
	DB	07dH
	DB	02dH
	DB	022H
	DB	07dH
	DB	02dH
	DB	022H
	DB	07dH
	DB	02dH
	DB	022H
	DB	07dH
	DB	02dH
	DB	022H
	DB	07dH
	DB	02dH
	DB	022H
	DB	07dH
	DB	02dH
	DB	022H
	DB	07dH
	DB	02dH
	DB	022H
	DB	07dH
	DB	02dH
	DB	022H
	DB	07dH
	DB	02dH
	DB	022H
	DB	07dH
	DB	02dH
	DB	022H
	DB	07dH
	DB	02dH
	DB	022H
	DB	07dH
	DB	02dH
	DB	022H
	DB	07dH
	DB	02dH
	DB	022H
	DB	07dH
	DB	02dH
	DB	022H
	DB	07dH
	DB	02dH
	DB	022H
	DB	07dH
	DB	02dH
	DB	022H
	DB	07dH
	DB	02dH
	DB	022H
	DB	07dH
	DB	02dH
	DB	022H
	DB	07dH
	DB	02dH
	DB	022H
	DB	07dH
	DB	02dH
	DB	022H
	DB	07dH
	DB	02dH
	DB	022H
	DB	07dH
	DB	02dH
	DB	022H
	DB	07dH
	DB	02dH
	DB	022H
	DB	07dH
	DB	02dH
	DB	022H
	DB	07dH
	DB	02dH
	DB	022H
	DB	07dH
	DB	02dH
	DB	022H
	DB	07dH
	DB	02dH
	DB	022H
	DB	07dH
	DB	02dH
	DB	022H
	DB	07dH
	DB	02dH
	DB	022H
	DB	07dH
	DB	02dH
	DB	022H
	DB	07dH
	DB	02dH
	DB	022H
	DB	07dH
	DB	02dH
	DB	022H
	DB	07dH
	DB	02dH
	DB	022H
	DB	07dH
	DB	02dH
	DB	022H
	DB	07dH
	DB	02dH
	DB	022H
	DB	07dH
	DB	02dH
	DB	022H
	DB	07dH
	DB	02dH
	DB	022H
	DB	07dH
	DB	02dH
	DB	022H
	DB	07dH
	DB	02dH
	DB	022H
	DB	07dH
	DB	02dH
	DB	022H
	DB	07dH
	DB	02dH
	DB	022H
	DB	07dH
	DB	02dH
	DB	022H
	DB	07dH
	DB	02dH
	DB	022H
	DB	07dH
	DB	02dH
	DB	022H
	DB	07dH
	DB	02dH
	DB	022H
	DB	07dH
	DB	02dH
	DB	022H
	DB	07dH
	DB	02dH
	DB	022H
	DB	07dH
	DB	02dH
	DB	022H
	DB	07dH
	DB	02dH
	DB	022H
	DB	07dH
	DB	02dH
	DB	022H
	DB	07dH
	DB	02dH
	DB	022H
	DB	07dH
	DB	02dH
	DB	022H
	DB	07dH
	DB	02dH
	DB	022H
	DB	07dH
	DB	02dH
	DB	022H
	DB	07dH
	DB	02dH
	DB	022H
	DB	07dH
	DB	02dH
	DB	022H
	DB	07dH
	DB	02dH
	DB	022H
	DB	07dH
	DB	02dH
	DB	022H
	DB	07dH
	DB	02dH
	DB	022H
	DB	07dH
	DB	02dH
	DB	022H
	DB	07dH
	DB	02dH
	DB	022H
	DB	07dH
	DB	02dH
	DB	022H
	DB	07dH
	DB	02dH
	DB	022H
	DB	07dH
	DB	02dH
	DB	022H
	DB	07dH
	DB	02dH
	DB	022H
	DB	07dH
	DB	02dH
	DB	022H
	DB	07dH
	DB	02dH
	DB	022H
	DB	07dH
	DB	02dH
	DB	022H
	DB	07dH
	DB	02dH
	DB	022H
	DB	07dH
	DB	02dH
	DB	022H
	DB	07dH
	DB	02dH
	DB	022H
	DB	07dH
	DB	02dH
	DB	022H
	DB	07dH
	DB	02dH
	DB	022H
	DB	07dH
	DB	02dH
	DB	022H
	DB	07dH
	DB	02dH
	DB	022H
	DB	07dH
	DB	02dH
	DB	022H
	DB	07dH
	DB	02dH
	DB	022H
	DB	07dH
	DB	02dH
	DB	022H
	DB	07dH
	DB	02dH
	DB	022H
	DB	07dH
	DB	02dH
	DB	022H
	DB	07dH
	DB	02dH
	DB	022H
	DB	07dH
	DB	02dH
	DB	022H
	DB	07dH
	DB	02dH
	DB	022H
	DB	07dH
	DB	02dH
	DB	022H
	DB	07dH
	DB	02dH
	DB	022H
	DB	07dH
	DB	02dH
	DB	022H
	DB	07dH
	DB	02dH
	DB	022H
	DB	07dH
	DB	02dH
	DB	022H
	DB	07dH
	DB	02dH
	DB	022H
	DB	07dH
	DB	02dH
	DB	022H
	DB	07dH
	DB	02dH
	DB	022H
	DB	07dH
	DB	02dH
	DB	022H
	DB	07dH
	DB	02dH
	DB	022H
	DB	07dH
	DB	02dH
	DB	022H
	DB	07dH
	DB	02dH
	DB	022H
	DB	07dH
	DB	02dH
	DB	022H
	DB	07dH
	DB	02dH
	DB	022H
	DB	07dH
	DB	02dH
	DB	022H
	DB	07dH
	DB	02dH
	DB	022H
	DB	07dH
	DB	02dH
	DB	022H
	DB	07dH
	DB	02dH
	DB	022H
	DB	07dH
	DB	02dH
	DB	022H
	DB	07dH
	DB	02dH
	DB	022H
	DB	07dH
	DB	02dH
	DB	022H
	DB	07dH
	DB	02dH
	DB	022H
	DB	07dH
	DB	02dH
	DB	022H
	DB	07dH
	DB	02dH
	DB	022H
	DB	07dH
	DB	02dH
	DB	022H
	DB	07dH
	DB	02dH
	DB	022H
	DB	07dH
	DB	02dH
	DB	022H
	DB	07dH
	DB	02dH
	DB	022H
	DB	07dH
	DB	02dH
	DB	022H
	DB	07dH
	DB	02dH
	DB	022H
	DB	07dH
	DB	02dH
	DB	022H
	DB	07dH
	DB	02dH
	DB	022H
	DB	07dH
	DB	02dH
	DB	022H
	DB	07dH
	DB	02dH
	DB	022H
	DB	07dH
	DB	02dH
	DB	022H
	DB	07dH
	DB	02dH
	DB	022H
	DB	07dH
	DB	02dH
	DB	022H
	DB	07dH
	DB	02dH
	DB	022H
	DB	07dH
	DB	02dH
	DB	022H
	DB	07dH
	DB	02dH
	DB	022H
	DB	07dH
	DB	02dH
	DB	022H
	DB	07dH
	DB	02dH
	DB	022H
	DB	07dH
	DB	02dH
	DB	022H
	DB	07dH
	DB	02dH
	DB	022H
	DB	07dH
	DB	02dH
	DB	022H
	DB	07dH
	DB	02dH
	DB	022H
	DB	07dH
	DB	02dH
	DB	022H
	DB	07dH
	DB	02dH
	DB	022H
	DB	07dH
	DB	02dH
	DB	022H
	DB	07dH
	DB	02dH
	DB	022H
	DB	07dH
	DB	02dH
	DB	022H
	DB	07dH
	DB	02dH
	DB	022H
	DB	07dH
	DB	02dH
	DB	022H
	DB	07dH
	DB	02dH
	DB	022H
	DB	07dH
	DB	02dH
	DB	022H
	DB	07dH
	DB	02dH
	DB	022H
	DB	07dH
	DB	02dH
	DB	022H
	DB	07dH
	DB	02dH
	DB	022H
	DB	07dH
	DB	02dH
	DB	022H
	DB	07dH
	DB	02dH
	DB	022H
	DB	07dH
	DB	02dH
	DB	022H
	DB	07dH
	DB	02dH
	DB	022H
	DB	07dH
	DB	02dH
	DB	022H
	DB	07dH
	DB	02dH
	DB	022H
	DB	07dH
	DB	02dH
	DB	022H
	DB	07dH
	DB	02dH
	DB	022H
	DB	07dH
	DB	02dH
	DB	022H
	DB	07dH
	DB	02dH
	DB	022H
	DB	07dH
	DB	02dH
	DB	022H
	DB	07dH
	DB	02dH
	DB	022H
	DB	07dH
	DB	02dH
	DB	022H
	DB	07dH
	DB	02dH
	DB	022H
	DB	07dH
	DB	02dH
	DB	022H
	DB	07dH
	DB	02dH
	DB	022H
	DB	07dH
	DB	02dH
	DB	022H
	DB	07dH
	DB	02dH
	DB	022H
	DB	07dH
	DB	02dH
	DB	022H
	DB	07dH
	DB	02dH
	DB	022H
	DB	07dH
	DB	02dH
	DB	022H
	DB	07dH
	DB	02dH
	DB	022H
	DB	07dH
	DB	02dH
	DB	022H
	DB	07dH
	DB	02dH
	DB	022H
	DB	07dH
	DB	02dH
	DB	022H
	DB	07dH
	DB	02dH
	DB	022H
	DB	07dH
	DB	02dH
	DB	022H
	DB	07dH
	DB	02dH
	DB	022H
	DB	07dH
	DB	02dH
	DB	022H
	DB	07dH
	DB	02dH
	DB	022H
	DB	07dH
	DB	02dH
	DB	022H
	DB	07dH
	DB	02dH
	DB	022H
	DB	07dH
	DB	02dH
	DB	022H
	DB	07dH
	DB	02dH
	DB	022H
	DB	07dH
	DB	02dH
	DB	022H
	DB	07dH
	DB	02dH
	DB	022H
	DB	07dH
	DB	02dH
	DB	022H
	DB	07dH
	DB	02dH
	DB	022H
	DB	07dH
	DB	02dH
	DB	022H
	DB	07dH
	DB	02dH
	DB	022H
	DB	07dH
	DB	02dH
	DB	022H
	DB	07dH
	DB	02dH
	DB	022H
	DB	07dH
	DB	02dH
	DB	022H
	DB	07dH
	DB	02dH
	DB	022H
	DB	07dH
	DB	02dH
	DB	022H
	DB	07dH
	DB	02dH
	DB	022H
	DB	07dH
	DB	02dH
	DB	022H
	DB	07dH
	DB	02dH
	DB	022H
	DB	07dH
	DB	02dH
	DB	022H
	DB	07dH
	DB	02dH
	DB	022H
	DB	07dH
	DB	02dH
	DB	022H
	DB	07dH
	DB	02dH
	DB	022H
	DB	07dH
	DB	02dH
	DB	022H
	DB	07dH
	DB	02dH
	DB	022H
	DB	07dH
	DB	02dH
	DB	022H
	DB	07dH
	DB	02dH
	DB	022H
	DB	07dH
	DB	02dH
	DB	022H
	DB	07dH
	DB	02dH
	DB	022H
	DB	07dH
	DB	02dH
	DB	022H
	DB	07dH
	DB	02dH
	DB	022H
	DB	07dH
	DB	02dH
	DB	022H
	DB	07dH
	DB	02dH
	DB	022H
	DB	07dH
	DB	02dH
	DB	022H
	DB	07dH
	DB	02dH
	DB	022H
	DB	07dH
	DB	02dH
	DB	022H
	DB	07dH
	DB	02dH
	DB	022H
	DB	07dH
	DB	02dH
	DB	022H
	DB	07dH
	DB	02dH
	DB	022H
	DB	07dH
	DB	02dH
	DB	022H
	DB	07dH
	DB	02dH
	DB	022H
	DB	07dH
	DB	02dH
	DB	022H
	DB	07dH
	DB	02dH
	DB	022H
	DB	07dH
	DB	02dH
	DB	022H
	DB	07dH
	DB	02dH
	DB	022H
	DB	07dH
	DB	02dH
	DB	022H
	DB	07dH
	DB	02dH
	DB	022H
	DB	07dH
	DB	02dH
	DB	022H
	DB	07dH
	DB	02dH
	DB	022H
	DB	07dH
	DB	02dH
	DB	022H
	DB	07dH
	DB	02dH
	DB	022H
	DB	07dH
	DB	02dH
	DB	022H
	DB	07dH
	DB	02dH
	DB	022H
	DB	07dH
	DB	02dH
	DB	022H
	DB	07dH
	DB	02dH
	DB	022H
	DB	07dH
	DB	02dH
	DB	022H
	DB	07dH
	DB	02dH
	DB	022H
	DB	07dH
	DB	02dH
	DB	022H
	DB	07dH
	DB	02dH
	DB	022H
	DB	07dH
	DB	02dH
	DB	022H
	DB	07dH
	DB	02dH
	DB	022H
	DB	07dH
	DB	02dH
	DB	022H
	DB	07dH
	DB	02dH
	DB	022H
	DB	07dH
	DB	02dH
	DB	022H
	DB	07dH
	DB	02dH
	DB	022H
	DB	07dH
	DB	02dH
	DB	022H
	DB	07dH
	DB	02dH
	DB	022H
	DB	07dH
	DB	02dH
	DB	022H
	DB	07dH
	DB	02dH
	DB	022H
	DB	07dH
	DB	02dH
	DB	022H
	DB	07dH
	DB	02dH
	DB	022H
	DB	07dH
	DB	02dH
	DB	022H
	DB	07dH
	DB	02dH
	DB	022H
	DB	07dH
	DB	02dH
	DB	022H
	DB	07dH
	DB	02dH
	DB	022H
	DB	07dH
	DB	02dH
	DB	022H
	DB	07dH
	DB	02dH
	DB	022H
	DB	07dH
	DB	02dH
	DB	022H
	DB	07dH
	DB	02dH
	DB	022H
	DB	07dH
	DB	02dH
	DB	022H
	DB	07dH
	DB	02dH
	DB	022H
	DB	07dH
	DB	02dH
	DB	022H
	DB	07dH
	DB	02dH
	DB	022H
	DB	07dH
	DB	02dH
	DB	022H
	DB	07dH
	DB	02dH
	DB	022H
	DB	07dH
	DB	02dH
	DB	022H
	DB	07dH
	DB	02dH
	DB	022H
	DB	07dH
	DB	02dH
	DB	022H
	DB	07dH
	DB	02dH
	DB	022H
	DB	07dH
	DB	02dH
	DB	022H
	DB	07dH
	DB	02dH
	DB	022H
	DB	07dH
	DB	02dH
	DB	022H
	DB	07dH
	DB	02dH
	DB	022H
	DB	07dH
	DB	02dH
	DB	022H
	DB	07dH
	DB	02dH
	DB	022H
	DB	07dH
	DB	02dH
	DB	022H
	DB	07dH
	DB	02dH
	DB	022H
	DB	07dH
	DB	02dH
	DB	022H
	DB	07dH
	DB	02dH
	DB	022H
	DB	07dH
	DB	02dH
	DB	022H
	DB	07dH
	DB	02dH
	DB	022H
	DB	07dH
	DB	02dH
	DB	022H
	DB	07dH
	DB	02dH
	DB	022H
	DB	07dH
	DB	02dH
	DB	022H
	DB	07dH
	DB	02dH
	DB	022H
	DB	07dH
	DB	02dH
	DB	022H
	DB	07dH
	DB	02dH
	DB	022H
	DB	07dH
	DB	02dH
	DB	022H
	DB	07dH
	DB	02dH
	DB	022H
	DB	07dH
	DB	02dH
	DB	022H
	DB	07dH
	DB	02dH
	DB	022H
	DB	07dH
	DB	02dH
	DB	022H
	DB	07dH
	DB	02dH
	DB	022H
	DB	07dH
	DB	02dH
	DB	022H
	DB	07dH
	DB	02dH
	DB	022H
	DB	07dH
	DB	02dH
	DB	022H
	DB	07dH
	DB	02dH
	DB	022H
	DB	07dH
	DB	02dH
	DB	022H
	DB	07dH
	DB	02dH
	DB	022H
	DB	07dH
	DB	02dH
	DB	022H
	DB	07dH
	DB	02dH
	DB	022H
	DB	07dH
	DB	02dH
	DB	022H
	DB	07dH
	DB	02dH
	DB	022H
	DB	07dH
	DB	02dH
	DB	022H
	DB	07dH
	DB	02dH
	DB	022H
	DB	07dH
	DB	02dH
	DB	022H
	DB	07dH
	DB	02dH
	DB	022H
	DB	07dH
	DB	02dH
	DB	022H
	DB	07dH
	DB	02dH
	DB	022H
	DB	07dH
	DB	02dH
	DB	022H
	DB	07dH
	DB	02dH
	DB	022H
	DB	07dH
	DB	02dH
	DB	022H
	DB	07dH
	DB	02dH
	DB	022H
	DB	07dH
	DB	02dH
	DB	022H
	DB	07dH
	DB	02dH
	DB	022H
	DB	07dH
	DB	02dH
	DB	022H
	DB	07dH
	DB	02dH
	DB	022H
	DB	07dH
	DB	02dH
	DB	022H
	DB	07dH
	DB	02dH
	DB	022H
	DB	07dH
	DB	02dH
	DB	022H
	DB	07dH
	DB	02dH
	DB	022H
	DB	07dH
	DB	02dH
	DB	022H
	DB	07dH
	DB	02dH
	DB	022H
	DB	07dH
	DB	02dH
	DB	022H
	DB	07dH
	DB	02dH
	DB	022H
	DB	07dH
	DB	02dH
	DB	022H
	DB	07dH
	DB	02dH
	DB	022H
	DB	07dH
	DB	02dH
	DB	022H
	DB	07dH
	DB	02dH
	DB	022H
	DB	07dH
	DB	02dH
	DB	022H
	DB	07dH
	DB	02dH
	DB	022H
	DB	07dH
	DB	02dH
	DB	022H
	DB	07dH
	DB	02dH
	DB	022H
	DB	07dH
	DB	02dH
	DB	022H
	DB	07dH
	DB	02dH
	DB	022H
	DB	07dH
	DB	02dH
	DB	022H
	DB	07dH
	DB	02dH
	DB	022H
	DB	07dH
	DB	02dH
	DB	022H
	DB	07dH
	DB	02dH
	DB	022H
	DB	07dH
	DB	02dH
	DB	022H
	DB	07dH
	DB	02dH
	DB	022H
	DB	07dH
	DB	02dH
	DB	022H
	DB	07dH
	DB	02dH
	DB	022H
	DB	07dH
	DB	02dH
	DB	022H
	DB	07dH
	DB	02dH
	DB	022H
	DB	07dH
	DB	02dH
	DB	022H
	DB	07dH
	DB	02dH
	DB	022H
	DB	07dH
	DB	02dH
	DB	022H
	DB	07dH
	DB	02dH
	DB	022H
	DB	07dH
	DB	02dH
	DB	022H
	DB	07dH
	DB	02dH
	DB	022H
	DB	07dH
	DB	02dH
	DB	022H
	DB	07dH
	DB	02dH
	DB	022H
	DB	07dH
	DB	02dH
	DB	022H
	DB	07dH
	DB	02dH
	DB	022H
	DB	07dH
	DB	02dH
	DB	022H
	DB	07dH
	DB	02dH
	DB	022H
	DB	07dH
	DB	02dH
	DB	022H
	DB	07dH
	DB	02dH
	DB	022H
	DB	07dH
	DB	02dH
	DB	022H
	DB	07dH
	DB	02dH
	DB	022H
	DB	07dH
	DB	02dH
	DB	022H
	DB	07dH
	DB	02dH
	DB	022H
	DB	07dH
	DB	02dH
	DB	022H
	DB	07dH
	DB	02dH
	DB	022H
	DB	07dH
	DB	02dH
	DB	022H
	DB	07dH
	DB	02dH
	DB	022H
	DB	07dH
	DB	02dH
	DB	022H
	DB	07dH
	DB	02dH
	DB	022H
	DB	07dH
	DB	02dH
	DB	022H
	DB	07dH
	DB	02dH
	DB	022H
	DB	07dH
	DB	02dH
	DB	022H
	DB	07dH
	DB	02dH
	DB	022H
	DB	07dH
	DB	02dH
	DB	022H
	DB	07dH
	DB	02dH
	DB	022H
	DB	07dH
	DB	02dH
	DB	022H
	DB	07dH
	DB	02dH
	DB	022H
	DB	07dH
	DB	02dH
	DB	022H
	DB	07dH
	DB	02dH
	DB	022H
	DB	07dH
	DB	02dH
	DB	022H
	DB	07dH
	DB	02dH
	DB	022H
	DB	07dH
	DB	02dH
	DB	022H
	DB	07dH
	DB	02dH
	DB	022H
	DB	07dH
	DB	02dH
	DB	022H
	DB	07dH
	DB	02dH
	DB	022H
	DB	07dH
	DB	02dH
	DB	022H
	DB	07dH
	DB	02dH
	DB	022H
	DB	07dH
	DB	02dH
	DB	022H
	DB	07dH
	DB	02dH
	DB	022H
	DB	07dH
	DB	02dH
	DB	022H
	DB	07dH
	DB	02dH
	DB	022H
	DB	07dH
	DB	02dH
	DB	022H
	DB	07dH
	DB	02dH
	DB	022H
	DB	07dH
	DB	02dH
	DB	022H
	DB	07dH
	DB	02dH
	DB	022H
	DB	07dH
	DB	02dH
	DB	022H
	DB	07dH
	DB	02dH
	DB	022H
	DB	07dH
	DB	02dH
	DB	022H
	DB	07dH
	DB	02dH
	DB	022H
	DB	07dH
	DB	02dH
	DB	022H
	DB	07dH
	DB	02dH
	DB	022H
	DB	07dH
	DB	02dH
	DB	022H
	DB	07dH
	DB	02dH
	DB	022H
	DB	07dH
	DB	02dH
	DB	022H
	DB	07dH
	DB	02dH
	DB	022H
	DB	07dH
	DB	02dH
	DB	022H
	DB	07dH
	DB	02dH
	DB	022H
	DB	07dH
	DB	02dH
	DB	022H
	DB	07dH
	DB	02dH
	DB	022H
	DB	07dH
	DB	02dH
	DB	022H
	DB	07dH
	DB	02dH
	DB	022H
	DB	07dH
	DB	02dH
	DB	022H
	DB	07dH
	DB	02dH
	DB	022H
	DB	07dH
	DB	02dH
	DB	022H
	DB	07dH
	DB	02dH
	DB	022H
	DB	07dH
	DB	02dH
	DB	022H
	DB	07dH
	DB	02dH
	DB	022H
	DB	07dH
	DB	02dH
	DB	022H
	DB	07dH
	DB	02dH
	DB	022H
	DB	07dH
	DB	02dH
	DB	022H
	DB	07dH
	DB	02dH
	DB	022H
	DB	07dH
	DB	02dH
	DB	022H
	DB	07dH
	DB	02dH
	DB	022H
	DB	07dH
	DB	02dH
	DB	022H
	DB	07dH
	DB	02dH
	DB	022H
	DB	07dH
	DB	02dH
	DB	022H
	DB	07dH
	DB	02dH
	DB	022H
	DB	07dH
	DB	02dH
	DB	022H
	DB	07dH
	DB	02dH
	DB	022H
	DB	07dH
	DB	02dH
	DB	022H
	DB	07dH
	DB	02dH
	DB	022H
	DB	07dH
	DB	02dH
	DB	022H
	DB	07dH
	DB	02dH
	DB	022H
	DB	07dH
	DB	02dH
	DB	022H
	DB	07dH
	DB	02dH
	DB	022H
	DB	07dH
	DB	02dH
	DB	022H
	DB	07dH
	DB	02dH
	DB	022H
	DB	07dH
	DB	02dH
	DB	022H
	DB	07dH
	DB	02dH
	DB	022H
	DB	07dH
	DB	02dH
	DB	022H
	DB	07dH
	DB	02dH
	DB	022H
	DB	07dH
	DB	02dH
	DB	022H
	DB	07dH
	DB	02dH
	DB	022H
	DB	07dH
	DB	02dH
	DB	022H
	DB	07dH
	DB	02dH
	DB	022H
	DB	07dH
	DB	02dH
	DB	022H
	DB	07dH
	DB	02dH
	DB	022H
	DB	07dH
	DB	02dH
	DB	022H
	DB	07dH
	DB	02dH
	DB	022H
	DB	07dH
	DB	02dH
	DB	022H
	DB	07dH
	DB	02dH
	DB	022H
	DB	07dH
	DB	02dH
	DB	022H
	DB	07dH
	DB	02dH
	DB	022H
	DB	07dH
	DB	02dH
	DB	022H
	DB	07dH
	DB	02dH
	DB	022H
	DB	07dH
	DB	02dH
	DB	022H
	DB	07dH
	DB	02dH
	DB	022H
	DB	07dH
	DB	02dH
	DB	022H
	DB	07dH
	DB	02dH
	DB	022H
	DB	07dH
	DB	02dH
	DB	022H
	DB	07dH
	DB	02dH
	DB	022H
	DB	07dH
	DB	02dH
	DB	022H
	DB	07dH
	DB	02dH
	DB	022H
	DB	07dH
	DB	02dH
	DB	022H
	DB	07dH
	DB	02dH
	DB	022H
	DB	07dH
	DB	02dH
	DB	022H
	DB	07dH
	DB	02dH
	DB	022H
	DB	07dH
	DB	02dH
	DB	022H
	DB	07dH
	DB	02dH
	DB	022H
	DB	07dH
	DB	02dH
	DB	022H
	DB	07dH
	DB	02dH
	DB	022H
	DB	07dH
	DB	02dH
	DB	022H
	DB	07dH
	DB	02dH
	DB	022H
	DB	07dH
	DB	02dH
	DB	022H
	DB	07dH
	DB	02dH
	DB	022H
	DB	07dH
	DB	02dH
	DB	022H
	DB	07dH
	DB	02dH
	DB	022H
	DB	07dH
	DB	02dH
	DB	022H
	DB	07dH
	DB	02dH
	DB	022H
	DB	07dH
	DB	02dH
	DB	022H
	DB	07dH
	DB	02dH
	DB	022H
	DB	07dH
	DB	02dH
	DB	022H
	DB	07dH
	DB	02dH
	DB	022H
	DB	07dH
	DB	02dH
	DB	022H
	DB	07dH
	DB	02dH
	DB	022H
	DB	07dH
	DB	02dH
	DB	022H
	DB	07dH
	DB	02dH
	DB	022H
	DB	07dH
	DB	02dH
	DB	022H
	DB	07dH
	DB	02dH
	DB	022H
	DB	07dH
	DB	02dH
	DB	022H
	DB	07dH
	DB	02dH
	DB	022H
	DB	07dH
	DB	02dH
	DB	022H
	DB	07dH
	DB	02dH
	DB	022H
	DB	07dH
	DB	02dH
	DB	022H
	DB	07dH
	DB	02dH
	DB	022H
	DB	07dH
	DB	02dH
	DB	022H
	DB	07dH
	DB	02dH
	DB	022H
	DB	07dH
	DB	02dH
	DB	022H
	DB	07dH
	DB	02dH
	DB	022H
	DB	07dH
	DB	02dH
	DB	022H
	DB	07dH
	DB	02dH
	DB	022H
	DB	07dH
	DB	02dH
	DB	022H
	DB	07dH
	DB	02dH
	DB	022H
	DB	07dH
	DB	02dH
	DB	022H
	DB	07dH
	DB	02dH
	DB	022H
	DB	07dH
	DB	02dH
	DB	022H
	DB	07dH
	DB	02dH
	DB	022H
	DB	07dH
	DB	02dH
	DB	022H
	DB	07dH
	DB	02dH
	DB	022H
	DB	07dH
	DB	02dH
	DB	022H
	DB	07dH
	DB	02dH
	DB	022H
	DB	07dH
	DB	02dH
	DB	022H
	DB	07dH
	DB	02dH
	DB	022H
	DB	07dH
	DB	02dH
	DB	022H
	DB	07dH
	DB	02dH
	DB	022H
	DB	07dH
	DB	02dH
	DB	022H
	DB	07dH
	DB	02dH
	DB	022H
	DB	07dH
	DB	02dH
	DB	022H
	DB	07dH
	DB	02dH
	DB	022H
	DB	07dH
	DB	02dH
	DB	022H
	DB	07dH
	DB	02dH
	DB	022H
	DB	07dH
	DB	02dH
	DB	022H
	DB	07dH
	DB	02dH
	DB	022H
	DB	07dH
	DB	02dH
	DB	022H
	DB	07dH
	DB	02dH
	DB	022H
	DB	07dH
	DB	02dH
	DB	022H
	DB	07dH
	DB	02dH
	DB	022H
	DB	07dH
	DB	02dH
	DB	022H
	DB	07dH
	DB	02dH
	DB	022H
	DB	07dH
	DB	02dH
	DB	022H
	DB	07dH
	DB	02dH
	DB	022H
	DB	07dH
	DB	02dH
	DB	022H
	DB	07dH
	DB	02dH
	DB	022H
	DB	07dH
	DB	02dH
	DB	022H
	DB	07dH
	DB	02dH
	DB	022H
	DB	07dH
	DB	02dH
	DB	022H
	DB	07dH
	DB	02dH
	DB	022H
	DB	07dH
	DB	02dH
	DB	022H
	DB	07dH
	DB	02dH
	DB	022H
	DB	07dH
	DB	02dH
	DB	022H
	DB	07dH
	DB	02dH
	DB	022H
	DB	07dH
	DB	02dH
	DB	022H
	DB	07dH
	DB	02dH
	DB	022H
	DB	07dH
	DB	02dH
	DB	022H
	DB	07dH
	DB	02dH
	DB	022H
	DB	07dH
	DB	02dH
	DB	022H
	DB	07dH
	DB	02dH
	DB	022H
	DB	07dH
	DB	02dH
	DB	022H
	DB	07dH
	DB	02dH
	DB	022H
	DB	07dH
	DB	02dH
	DB	022H
	DB	07dH
	DB	02dH
	DB	022H
	DB	07dH
	DB	02dH
	DB	022H
	DB	07dH
	DB	02dH
	DB	022H
	DB	07dH
	DB	02dH
	DB	022H
	DB	07dH
	DB	02dH
	DB	022H
	DB	07dH
	DB	02dH
	DB	022H
	DB	07dH
	DB	02dH
	DB	022H
	DB	07dH
	DB	02dH
	DB	022H
	DB	07dH
	DB	02dH
	DB	022H
	DB	07dH
	DB	02dH
	DB	022H
	DB	07dH
	DB	02dH
	DB	022H
	DB	07dH
	DB	02dH
	DB	022H
	DB	07dH
	DB	02dH
	DB	022H
	DB	07dH
	DB	02dH
	DB	022H
	DB	07dH
	DB	02dH
	DB	022H
	DB	07dH
	DB	02dH
	DB	022H
	DB	07dH
	DB	02dH
	DB	022H
	DB	07dH
	DB	02dH
	DB	022H
	DB	07dH
	DB	02dH
	DB	022H
	DB	07dH
	DB	02dH
	DB	022H
	DB	07dH
	DB	02dH
	DB	022H
	DB	07dH
	DB	02dH
	DB	022H
	DB	07dH
	DB	02dH
	DB	022H
	DB	07dH
	DB	02dH
	DB	022H
	DB	07dH
	DB	02dH
	DB	022H
	DB	07dH
	DB	02dH
	DB	022H
	DB	07dH
	DB	02dH
	DB	022H
	DB	07dH
	DB	02dH
	DB	022H
	DB	07dH
	DB	02dH
	DB	022H
	DB	07dH
	DB	02dH
	DB	022H
	DB	07dH
	DB	02dH
	DB	022H
	DB	07dH
	DB	02dH
	DB	022H
	DB	07dH
	DB	02dH
	DB	022H
	DB	07dH
	DB	02dH
	DB	022H
	DB	07dH
	DB	02dH
	DB	022H
	DB	07dH
	DB	02dH
	DB	022H
	DB	07dH
	DB	02dH
	DB	022H
	DB	07dH
	DB	02dH
	DB	022H
	DB	07dH
	DB	02dH
	DB	022H
	DB	07dH
	DB	02dH
	DB	022H
	DB	07dH
	DB	02dH
	DB	022H
	DB	07dH
	DB	02dH
	DB	022H
	DB	07dH
	DB	02dH
	DB	022H
	DB	07dH
	DB	02dH
	DB	022H
	DB	07dH
	DB	02dH
	DB	022H
	DB	07dH
	DB	02dH
	DB	022H
	DB	07dH
	DB	02dH
	DB	022H
	DB	07dH
	DB	02dH
	DB	022H
	DB	07dH
	DB	02dH
	DB	022H
	DB	07dH
	DB	02dH
	DB	022H
	DB	07dH
	DB	02dH
	DB	022H
	DB	07dH
	DB	02dH
	DB	022H
	DB	07dH
	DB	02dH
	DB	022H
	DB	07dH
	DB	02dH
	DB	022H
	DB	07dH
	DB	02dH
	DB	022H
	DB	07dH
	DB	02dH
	DB	022H
	DB	07dH
	DB	02dH
	DB	022H
	DB	07dH
	DB	02dH
	DB	022H
	DB	07dH
	DB	02dH
	DB	022H
	DB	07dH
	DB	02dH
	DB	022H
	DB	07dH
	DB	02dH
	DB	022H
	DB	07dH
	DB	02dH
	DB	022H
	DB	07dH
	DB	02dH
	DB	022H
	DB	07dH
	DB	02dH
	DB	022H
	DB	07dH
	DB	02dH
	DB	022H
	DB	07dH
	DB	02dH
	DB	022H
	DB	07dH
	DB	02dH
	DB	022H
	DB	07dH
	DB	02dH
	DB	022H
	DB	07dH
	DB	02dH
	DB	022H
	DB	07dH
	DB	02dH
	DB	022H
	DB	07dH
	DB	02dH
	DB	022H
	DB	07dH
	DB	02dH
	DB	022H
	DB	07dH
	DB	02dH
	DB	022H
	DB	07dH
	DB	02dH
	DB	022H
	DB	07dH
	DB	02dH
	DB	022H
	DB	07dH
	DB	02dH
	DB	022H
	DB	07dH
	DB	02dH
	DB	022H
	DB	07dH
	DB	02dH
	DB	022H
	DB	07dH
	DB	02dH
	DB	022H
	DB	07dH
	DB	02dH
	DB	022H
	DB	07dH
	DB	02dH
	DB	022H
	DB	07dH
	DB	02dH
	DB	022H
	DB	07dH
	DB	02dH
	DB	022H
	DB	07dH
	DB	02dH
	DB	022H
	DB	07dH
	DB	02dH
	DB	022H
	DB	07dH
	DB	02dH
	DB	022H
	DB	07dH
	DB	02dH
	DB	022H
	DB	07dH
	DB	02dH
	DB	022H
	DB	07dH
	DB	02dH
	DB	022H
	DB	07dH
	DB	02dH
	DB	022H
	DB	07dH
	DB	02dH
	DB	022H
	DB	07dH
	DB	02dH
	DB	022H
	DB	07dH
	DB	02dH
	DB	022H
	DB	07dH
	DB	02dH
	DB	022H
	DB	07dH
	DB	02dH
	DB	022H
	DB	07dH
	DB	02dH
	DB	022H
	DB	07dH
	DB	02dH
	DB	022H
	DB	07dH
	DB	02dH
	DB	022H
	DB	07dH
	DB	02dH
	DB	022H
	DB	07dH
	DB	02dH
	DB	022H
	DB	07dH
	DB	02dH
	DB	022H
	DB	07dH
	DB	02dH
	DB	022H
	DB	07dH
	DB	02dH
	DB	022H
	DB	07dH
	DB	02dH
	DB	022H
	DB	07dH
	DB	02dH
	DB	022H
	DB	07dH
	DB	02dH
	DB	022H
	DB	07dH
	DB	02dH
	DB	022H
	DB	07dH
	DB	02dH
	DB	022H
	DB	07dH
	DB	02dH
	DB	022H
	DB	07dH
	DB	02dH
	DB	022H
	DB	07dH
	DB	02dH
	DB	022H
	DB	07dH
	DB	02dH
	DB	022H
	DB	07dH
	DB	02dH
	DB	022H
	DB	07dH
	DB	02dH
	DB	022H
	DB	07dH
	DB	02dH
	DB	022H
	DB	07dH
	DB	02dH
	DB	022H
	DB	07dH
	DB	02dH
	DB	022H
	DB	07dH
	DB	02dH
	DB	022H
	DB	07dH
	DB	02dH
	DB	022H
	DB	07dH
	DB	02dH
	DB	022H
	DB	07dH
	DB	02dH
	DB	022H
	DB	07dH
	DB	02dH
	DB	022H
	DB	07dH
	DB	02dH
	DB	022H
	DB	07dH
	DB	02dH
	DB	022H
	DB	07dH
	DB	02dH
	DB	022H
	DB	07dH
	DB	02dH
	DB	022H
	DB	07dH
	DB	02dH
	DB	022H
	DB	07dH
	DB	02dH
	DB	022H
	DB	07dH
	DB	02dH
	DB	022H
	DB	07dH
	DB	02dH
	DB	022H
	DB	07dH
	DB	02dH
	DB	022H
	DB	07dH
	DB	02dH
	DB	022H
	DB	07dH
	DB	02dH
	DB	022H
	DB	07dH
	DB	02dH
	DB	022H
	DB	07dH
	DB	02dH
	DB	022H
	DB	07dH
	DB	02dH
	DB	022H
	DB	07dH
	DB	02dH
	DB	022H
	DB	07dH
	DB	02dH
	DB	022H
	DB	07dH
	DB	02dH
	DB	022H
	DB	07dH
	DB	02dH
	DB	022H
	DB	07dH
	DB	02dH
	DB	022H
	DB	07dH
	DB	02dH
	DB	022H
	DB	07dH
	DB	02dH
	DB	022H
	DB	07dH
	DB	02dH
	DB	022H
	DB	07dH
	DB	02dH
	DB	022H
	DB	07dH
	DB	02dH
	DB	022H
	DB	07dH
	DB	02dH
	DB	022H
	DB	07dH
	DB	02dH
	DB	022H
	DB	07dH
	DB	02dH
	DB	022H
	DB	07dH
	DB	02dH
	DB	022H
	DB	07dH
	DB	02dH
	DB	022H
	DB	07dH
	DB	02dH
	DB	022H
	DB	07dH
	DB	02dH
	DB	022H
	DB	07dH
	DB	02dH
	DB	022H
	DB	07dH
	DB	02dH
	DB	022H
	DB	07dH
	DB	02dH
	DB	022H
	DB	07dH
	DB	02dH
	DB	022H
	DB	07dH
	DB	02dH
	DB	022H
	DB	07dH
	DB	02dH
	DB	022H
	DB	07dH
	DB	02dH
	DB	022H
	DB	07dH
	DB	02dH
	DB	022H
	DB	07dH
	DB	02dH
	DB	022H
	DB	07dH
	DB	02dH
	DB	022H
	DB	07dH
	DB	02dH
	DB	022H
	DB	07dH
	DB	02dH
	DB	022H
	DB	07dH
	DB	02dH
	DB	022H
	DB	07dH
	DB	02dH
	DB	022H
	DB	07dH
	DB	02dH
	DB	022H
	DB	07dH
	DB	02dH
	DB	022H
	DB	07dH
	DB	02dH
	DB	022H
	DB	07dH
	DB	02dH
	DB	022H
	DB	07dH
	DB	02dH
	DB	022H
	DB	07dH
	DB	02dH
	DB	022H
	DB	07dH
	DB	02dH
	DB	022H
	DB	07dH
	DB	02dH
	DB	022H
	DB	07dH
	DB	02dH
	DB	022H
	DB	07dH
	DB	02dH
	DB	022H
	DB	07dH
	DB	02dH
	DB	022H
	DB	07dH
	DB	02dH
	DB	022H
	DB	07dH
	DB	02dH
	DB	022H
	DB	07dH
	DB	02dH
	DB	022H
	DB	07dH
	DB	02dH
	DB	022H
	DB	07dH
	DB	02dH
	DB	022H
	DB	07dH
	DB	02dH
	DB	022H
	DB	07dH
	DB	02dH
	DB	022H
	DB	07dH
	DB	02dH
	DB	022H
	DB	07dH
	DB	02dH
	DB	022H
	DB	07dH
	DB	02dH
	DB	022H
	DB	07dH
	DB	02dH
	DB	022H
	DB	07dH
	DB	02dH
	DB	022H
	DB	07dH
	DB	02dH
	DB	022H
	DB	07dH
	DB	02dH
	DB	022H
	DB	07dH
	DB	02dH
	DB	022H
	DB	07dH
	DB	02dH
	DB	022H
	DB	07dH
	DB	02dH
	DB	022H
	DB	07dH
	DB	02dH
	DB	022H
	DB	07dH
	DB	02dH
	DB	022H
	DB	07dH
	DB	02dH
	DB	022H
	DB	07dH
	DB	02dH
	DB	022H
	DB	07dH
	DB	02dH
	DB	022H
	DB	07dH
	DB	02dH
	DB	022H
	DB	07dH
	DB	02dH
	DB	022H
	DB	07dH
	DB	02dH
	DB	022H
	DB	07dH
	DB	02dH
	DB	022H
	DB	07dH
	DB	02dH
	DB	022H
	DB	07dH
	DB	02dH
	DB	022H
	DB	07dH
	DB	02dH
	DB	022H
	DB	07dH
	DB	02dH
	DB	022H
	DB	07dH
	DB	02dH
	DB	022H
	DB	07dH
	DB	02dH
	DB	022H
	DB	07dH
	DB	02dH
	DB	022H
	DB	07dH
	DB	02dH
	DB	022H
	DB	07dH
	DB	02dH
	DB	022H
	DB	07dH
	DB	02dH
	DB	022H
	DB	07dH
	DB	02dH
	DB	022H
	DB	07dH
	DB	02dH
	DB	022H
	DB	07dH
	DB	02dH
	DB	022H
	DB	07dH
	DB	02dH
	DB	022H
	DB	07dH
	DB	02dH
	DB	022H
	DB	07dH
	DB	02dH
	DB	022H
	DB	07dH
	DB	02dH
	DB	022H
	DB	07dH
	DB	02dH
	DB	022H
	DB	07dH
	DB	02dH
	DB	022H
	DB	07dH
	DB	02dH
	DB	022H
	DB	07dH
	DB	02dH
	DB	022H
	DB	07dH
	DB	02dH
	DB	022H
	DB	07dH
	DB	02dH
	DB	022H
	DB	07dH
	DB	02dH
	DB	022H
	DB	07dH
	DB	02dH
	DB	022H
	DB	07dH
	DB	02dH
	DB	022H
	DB	07dH
	DB	02dH
	DB	022H
	DB	07dH
	DB	02dH
	DB	022H
	DB	07dH
	DB	02dH
	DB	022H
	DB	07dH
	DB	02dH
	DB	022H
	DB	07dH
	DB	02dH
	DB	022H
	DB	07dH
	DB	02dH
	DB	022H
	DB	07dH
	DB	02dH
	DB	022H
	DB	07dH
	DB	02dH
	DB	022H
	DB	07dH
	DB	02dH
	DB	022H
	DB	07dH
	DB	02dH
	DB	022H
	DB	07dH
	DB	02dH
	DB	022H
	DB	07dH
	DB	02dH
	DB	022H
	DB	07dH
	DB	02dH
	DB	022H
	DB	07dH
	DB	02dH
	DB	022H
	DB	07dH
	DB	02dH
	DB	022H
	DB	07dH
	DB	02dH
	DB	022H
	DB	07dH
	DB	02dH
	DB	022H
	DB	07dH
	DB	02dH
	DB	022H
	DB	07dH
	DB	02dH
	DB	022H
	DB	07dH
	DB	02dH
	DB	022H
	DB	07dH
	DB	02dH
	DB	022H
	DB	07dH
	DB	02dH
	DB	022H
	DB	07dH
	DB	02dH
	DB	022H
	DB	07dH
	DB	02dH
	DB	022H
	DB	07dH
	DB	02dH
	DB	022H
	DB	07dH
	DB	02dH
	DB	022H
	DB	07dH
	DB	02dH
	DB	022H
	DB	07dH
	DB	02dH
	DB	022H
	DB	07dH
	DB	02dH
	DB	022H
	DB	07dH
	DB	02dH
	DB	022H
	DB	07dH
	DB	02dH
	DB	022H
	DB	07dH
	DB	02dH
	DB	022H
	DB	07dH
	DB	02dH
	DB	022H
	DB	07dH
	DB	02dH
	DB	022H
	DB	07dH
	DB	02dH
	DB	022H
	DB	07dH
	DB	02dH
	DB	022H
	DB	07dH
	DB	02dH
	DB	022H
	DB	07dH
	DB	02dH
	DB	022H
	DB	07dH
	DB	02dH
	DB	022H
	DB	07dH
	DB	02dH
	DB	022H
	DB	07dH
	DB	02dH
	DB	022H
	DB	07dH
	DB	02dH
	DB	022H
	DB	07dH
	DB	02dH
	DB	022H
	DB	07dH
	DB	02dH
	DB	022H
	DB	07dH
	DB	02dH
	DB	022H
	DB	07dH
	DB	02dH
	DB	022H
	DB	07dH
	DB	02dH
	DB	022H
	DB	07dH
	DB	02dH
	DB	022H
	DB	07dH
	DB	02dH
	DB	022H
	DB	07dH
	DB	02dH
	DB	022H
	DB	07dH
	DB	02dH
	DB	022H
	DB	07dH
	DB	02dH
	DB	022H
	DB	07dH
	DB	02dH
	DB	022H
	DB	07dH
	DB	02dH
	DB	022H
	DB	07dH
	DB	02dH
	DB	022H
	DB	07dH
	DB	02dH
	DB	022H
	DB	07dH
	DB	02dH
	DB	022H
	DB	07dH
	DB	02dH
	DB	022H
	DB	07dH
	DB	02dH
	DB	022H
	DB	07dH
	DB	02dH
	DB	022H
	DB	07dH
	DB	02dH
	DB	022H
	DB	07dH
	DB	02dH
	DB	022H
	DB	07dH
	DB	02dH
	DB	022H
	DB	07dH
	DB	02dH
	DB	022H
	DB	07dH
	DB	02dH
	DB	022H
	DB	07dH
	DB	02dH
	DB	022H
	DB	07dH
	DB	02dH
	DB	022H
	DB	07dH
	DB	02dH
	DB	022H
	DB	07dH
	DB	02dH
	DB	022H
	DB	07dH
	DB	02dH
	DB	022H
	DB	07dH
	DB	02dH
	DB	022H
	DB	07dH
	DB	02dH
	DB	022H
	DB	07dH
	DB	02dH
	DB	022H
	DB	07dH
	DB	02dH
	DB	022H
	DB	07dH
	DB	02dH
	DB	022H
	DB	07dH
	DB	02dH
	DB	022H
	DB	07dH
	DB	02dH
	DB	022H
	DB	07dH
	DB	02dH
	DB	022H
	DB	07dH
	DB	02dH
	DB	022H
	DB	07dH
	DB	02dH
	DB	022H
	DB	07dH
	DB	02dH
	DB	022H
	DB	07dH
	DB	02dH
	DB	022H
	DB	07dH
	DB	02dH
	DB	022H
	DB	07dH
	DB	02dH
	DB	022H
	DB	07dH
	DB	02dH
	DB	022H
	DB	07dH
	DB	02dH
	DB	022H
	DB	07dH
	DB	02dH
	DB	022H
	DB	07dH
	DB	02dH
	DB	022H
	DB	07dH
	DB	02dH
	DB	022H
	DB	07dH
	DB	02dH
	DB	022H
	DB	07dH
	DB	02dH
	DB	022H
	DB	07dH
	DB	02dH
	DB	022H
	DB	07dH
	DB	02dH
	DB	022H
	DB	07dH
	DB	02dH
	DB	022H
	DB	07dH
	DB	02dH
	DB	022H
	DB	07dH
	DB	02dH
	DB	022H
	DB	07dH
	DB	02dH
	DB	022H
	DB	07dH
	DB	02dH
	DB	022H
	DB	07dH
	DB	02dH
	DB	022H
	DB	07dH
	DB	02dH
	DB	022H
	DB	07dH
	DB	02dH
	DB	022H
	DB	07dH
	DB	02dH
	DB	022H
	DB	07dH
	DB	02dH
	DB	022H
	DB	07dH
	DB	02dH
	DB	022H
	DB	07dH
	DB	02dH
	DB	022H
	DB	07dH
	DB	02dH
	DB	022H
	DB	07dH
	DB	02dH
	DB	022H
	DB	07dH
	DB	02dH
	DB	022H
	DB	07dH
	DB	02dH
	DB	022H
	DB	07dH
	DB	02dH
	DB	022H
	DB	07dH
	DB	02dH
	DB	022H
	DB	07dH
	DB	02dH
	DB	022H
	DB	07dH
	DB	02dH
	DB	022H
	DB	07dH
	DB	02dH
	DB	022H
	DB	07dH
	DB	02dH
	DB	022H
	DB	07dH
	DB	02dH
	DB	022H
	DB	07dH
	DB	02dH
	DB	022H
	DB	07dH
	DB	02dH
	DB	022H
	DB	07dH
	DB	02dH
	DB	022H
	DB	07dH
	DB	02dH
	DB	022H
	DB	07dH
	DB	02dH
	DB	022H
	DB	07dH
	DB	02dH
	DB	022H
	DB	07dH
	DB	02dH
	DB	022H
	DB	07dH
	DB	02dH
	DB	022H
	DB	07dH
	DB	02dH
	DB	022H
	DB	07dH
	DB	02dH
	DB	022H
	DB	07dH
	DB	02dH
	DB	022H
	DB	07dH
	DB	02dH
	DB	022H
	DB	07dH
	DB	02dH
	DB	022H
	DB	07dH
	DB	02dH
	DB	022H
	DB	07dH
	DB	02dH
	DB	022H
	DB	07dH
	DB	02dH
	DB	022H
	DB	07dH
	DB	02dH
	DB	022H
	DB	07dH
	DB	02dH
	DB	022H
	DB	07dH
	DB	02dH
	DB	022H
	DB	07dH
	DB	02dH
	DB	022H
	DB	07dH
	DB	02dH
	DB	022H
	DB	07dH
	DB	02dH
	DB	022H
	DB	07dH
	DB	02dH
	DB	022H
	DB	07dH
	DB	02dH
	DB	022H
	DB	07dH
	DB	02dH
	DB	022H
	DB	07dH
	DB	02dH
	DB	022H
	DB	07dH
	DB	02dH
	DB	022H
	DB	07dH
	DB	02dH
	DB	022H
	DB	07dH
	DB	02dH
	DB	022H
	DB	07dH
	DB	02dH
	DB	022H
	DB	07dH
	DB	02dH
	DB	022H
	DB	07dH
	DB	02dH
	DB	022H
	DB	07dH
	DB	02dH
	DB	022H
	DB	07dH
	DB	02dH
	DB	022H
	DB	07dH
	DB	02dH
	DB	022H
	DB	07dH
	DB	02dH
	DB	022H
	DB	07dH
	DB	02dH
	DB	022H
	DB	07dH
	DB	02dH
	DB	022H
	DB	07dH
	DB	02dH
	DB	022H
	DB	07dH
	DB	02dH
	DB	022H
	DB	07dH
	DB	02dH
	DB	022H
	DB	07dH
	DB	02dH
	DB	022H
	DB	07dH
	DB	02dH
	DB	022H
	DB	07dH
	DB	02dH
	DB	022H
	DB	07dH
	DB	02dH
	DB	022H
	DB	07dH
	DB	02dH
	DB	022H
	DB	07dH
	DB	02dH
	DB	022H
	DB	07dH
	DB	02dH
	DB	022H
	DB	07dH
	DB	02dH
	DB	022H
	DB	07dH
	DB	02dH
	DB	022H
	DB	07dH
	DB	02dH
	DB	022H
	DB	07dH
	DB	02dH
	DB	022H
	DB	07dH
	DB	02dH
	DB	022H
	DB	07dH
	DB	02dH
	DB	022H
	DB	07dH
	DB	02dH
	DB	022H
	DB	07dH
	DB	02dH
	DB	022H
	DB	07dH
	DB	02dH
	DB	022H
	DB	07dH
	DB	02dH
	DB	022H
	DB	07dH
	DB	02dH
	DB	022H
	DB	07dH
	DB	02dH
	DB	022H
	DB	07dH
	DB	02dH
	DB	022H
	DB	07dH
	DB	02dH
	DB	022H
	DB	07dH
	DB	02dH
	DB	022H
	DB	07dH
	DB	02dH
	DB	022H
	DB	07dH
	DB	02dH
	DB	022H
	DB	07dH
	DB	02dH
	DB	022H
	DB	07dH
	DB	02dH
	DB	022H
	DB	07dH
	DB	02dH
	DB	022H
	DB	07dH
	DB	02dH
	DB	022H
	DB	07dH
	DB	02dH
	DB	022H
	DB	07dH
	DB	02dH
	DB	022H
	DB	07dH
	DB	02dH
	DB	022H
	DB	07dH
	DB	02dH
	DB	022H
	DB	07dH
	DB	02dH
	DB	022H
	DB	07dH
	DB	02dH
	DB	022H
	DB	07dH
	DB	02dH
	DB	022H
	DB	07dH
	DB	02dH
	DB	022H
	DB	07dH
	DB	02dH
	DB	022H
	DB	07dH
	DB	02dH
	DB	022H
	DB	07dH
	DB	02dH
	DB	022H
	DB	07dH
	DB	02dH
	DB	022H
	DB	07dH
	DB	02dH
	DB	022H
	DB	07dH
	DB	02dH
	DB	022H
	DB	07dH
	DB	02dH
	DB	022H
	DB	07dH
	DB	02dH
	DB	022H
	DB	07dH
	DB	02dH
	DB	022H
	DB	07dH
	DB	02dH
	DB	022H
	DB	07dH
	DB	02dH
	DB	022H
	DB	07dH
	DB	02dH
	DB	022H
	DB	07dH
	DB	02dH
	DB	022H
	DB	07dH
	DB	02dH
	DB	022H
	DB	07dH
	DB	02dH
	DB	022H
	DB	07dH
	DB	02dH
	DB	022H
	DB	07dH
	DB	02dH
	DB	022H
	DB	07dH
	DB	02dH
	DB	022H
	DB	07dH
	DB	02dH
	DB	022H
	DB	07dH
	DB	02dH
	DB	022H
	DB	07dH
	DB	02dH
	DB	022H
	DB	07dH
	DB	02dH
	DB	022H
	DB	07dH
	DB	02dH
	DB	022H
	DB	07dH
	DB	02dH
	DB	022H
	DB	07dH
	DB	02dH
	DB	022H
	DB	07dH
	DB	02dH
	DB	022H
	DB	07dH
	DB	02dH
	DB	022H
	DB	07dH
	DB	02dH
	DB	022H
	DB	07dH
	DB	02dH
	DB	022H
	DB	07dH
	DB	02dH
	DB	022H
	DB	07dH
	DB	02dH
	DB	022H
	DB	07dH
	DB	02dH
	DB	022H
	DB	07dH
	DB	02dH
	DB	022H
	DB	07dH
	DB	02dH
	DB	022H
	DB	07dH
	DB	02dH
	DB	022H
	DB	07dH
	DB	02dH
	DB	022H
	DB	07dH
	DB	02dH
	DB	022H
	DB	07dH
	DB	02dH
	DB	022H
	DB	07dH
	DB	02dH
	DB	022H
	DB	07dH
	DB	02dH
	DB	022H
	DB	07dH
	DB	02dH
	DB	022H
	DB	07dH
	DB	02dH
	DB	022H
	DB	07dH
	DB	02dH
	DB	022H
	DB	07dH
	DB	02dH
	DB	022H
	DB	07dH
	DB	02dH
	DB	022H
	DB	07dH
	DB	02dH
	DB	022H
	DB	07dH
	DB	02dH
	DB	022H
	DB	07dH
	DB	02dH
	DB	022H
	DB	07dH
	DB	02dH
	DB	022H
	DB	07dH
	DB	02dH
	DB	022H
	DB	07dH
	DB	02dH
	DB	022H
	DB	07dH
	DB	02dH
	DB	022H
	DB	07dH
	DB	02dH
	DB	022H
	DB	07dH
	DB	02dH
	DB	022H
	DB	07dH
	DB	02dH
	DB	022H
	DB	07dH
	DB	02dH
	DB	022H
	DB	07dH
	DB	02dH
	DB	022H
	DB	07dH
	DB	02dH
	DB	022H
	DB	07dH
	DB	02dH
	DB	022H
	DB	07dH
	DB	02dH
	DB	022H
	DB	07dH
	DB	02dH
	DB	022H
	DB	07dH
	DB	02dH
	DB	022H
	DB	07dH
	DB	02dH
	DB	022H
	DB	07dH
	DB	02dH
	DB	022H
	DB	07dH
	DB	02dH
	DB	022H
	DB	07dH
	DB	02dH
	DB	022H
	DB	07dH
	DB	02dH
	DB	022H
	DB	07dH
	DB	02dH
	DB	022H
	DB	07dH
	DB	02dH
	DB	022H
	DB	07dH
	DB	02dH
	DB	022H
	DB	07dH
	DB	02dH
	DB	022H
	DB	07dH
	DB	02dH
	DB	022H
	DB	07dH
	DB	02dH
	DB	022H
	DB	07dH
	DB	02dH
	DB	022H
	DB	07dH
	DB	02dH
	DB	022H
	DB	07dH
	DB	02dH
	DB	022H
	DB	07dH
	DB	02dH
	DB	022H
	DB	07dH
	DB	02dH
	DB	022H
	DB	07dH
	DB	02dH
	DB	022H
	DB	07dH
	DB	02dH
	DB	022H
	DB	07dH
	DB	02dH
	DB	022H
	DB	07dH
	DB	02dH
	DB	022H
	DB	07dH
	DB	02dH
	DB	022H
	DB	07dH
	DB	02dH
	DB	022H
	DB	07dH
	DB	02dH
	DB	022H
	DB	07dH
	DB	02dH
	DB	022H
	DB	07dH
	DB	02dH
	DB	022H
	DB	07dH
	DB	02dH
	DB	022H
	DB	07dH
	DB	02dH
	DB	022H
	DB	07dH
	DB	02dH
	DB	022H
	DB	07dH
	DB	02dH
	DB	022H
	DB	07dH
	DB	02dH
	DB	022H
	DB	07dH
	DB	02dH
	DB	022H
	DB	07dH
	DB	02dH
	DB	022H
	DB	07dH
	DB	02dH
	DB	022H
	DB	07dH
	DB	02dH
	DB	022H
	DB	07dH
	DB	02dH
	DB	022H
	DB	07dH
	DB	02dH
	DB	022H
	DB	07dH
	DB	02dH
	DB	022H
	DB	07dH
	DB	02dH
	DB	022H
	DB	07dH
	DB	02dH
	DB	022H
	DB	07dH
	DB	02dH
	DB	022H
	DB	07dH
	DB	02dH
	DB	022H
	DB	07dH
	DB	02dH
	DB	022H
	DB	07dH
	DB	02dH
	DB	022H
	DB	07dH
	DB	02dH
	DB	022H
	DB	07dH
	DB	02dH
	DB	022H
	DB	07dH
	DB	02dH
	DB	022H
	DB	07dH
	DB	02dH
	DB	022H
	DB	07dH
	DB	02dH
	DB	022H
	DB	07dH
	DB	02dH
	DB	022H
	DB	07dH
	DB	02dH
	DB	022H
	DB	07dH
	DB	02dH
	DB	022H
	DB	07dH
	DB	02dH
	DB	022H
	DB	07dH
	DB	02dH
	DB	022H
	DB	07dH
	DB	02dH
	DB	022H
	DB	07dH
	DB	02dH
	DB	022H
	DB	07dH
	DB	02dH
	DB	022H
	DB	07dH
	DB	02dH
	DB	022H
	DB	07dH
	DB	02dH
	DB	022H
	DB	07dH
	DB	02dH
	DB	022H
	DB	07dH
	DB	02dH
	DB	022H
	DB	07dH
	DB	02dH
	DB	022H
	DB	07dH
	DB	02dH
	DB	022H
	DB	07dH
	DB	02dH
	DB	022H
	DB	07dH
	DB	02dH
	DB	022H
	DB	07dH
	DB	02dH
	DB	022H
	DB	07dH
	DB	02dH
	DB	022H
	DB	07dH
	DB	02dH
	DB	022H
	DB	07dH
	DB	02dH
	DB	022H
	DB	07dH
	DB	02dH
	DB	022H
	DB	07dH
	DB	02dH
	DB	022H
	DB	07dH
	DB	02dH
	DB	022H
	DB	07dH
	DB	02dH
	DB	022H
	DB	07dH
	DB	02dH
	DB	022H
	DB	07dH
	DB	02dH
	DB	022H
	DB	07dH
	DB	02dH
	DB	022H
	DB	07dH
	DB	02dH
	DB	022H
	DB	07dH
	DB	02dH
	DB	022H
	DB	07dH
	DB	02dH
	DB	022H
	DB	07dH
	DB	02dH
	DB	022H
	DB	07dH
	DB	02dH
	DB	022H
	DB	07dH
	DB	02dH
	DB	022H
	DB	07dH
	DB	02dH
	DB	022H
	DB	07dH
	DB	02dH
	DB	022H
	DB	07dH
	DB	02dH
	DB	022H
	DB	07dH
	DB	02dH
	DB	022H
	DB	07dH
	DB	02dH
	DB	022H
	DB	07dH
	DB	02dH
	DB	022H
	DB	07dH
	DB	02dH
	DB	022H
	DB	07dH
	DB	02dH
	DB	022H
	DB	07dH
	DB	02dH
	DB	022H
	DB	07dH
	DB	02dH
	DB	022H
	DB	07dH
	DB	02dH
	DB	022H
	DB	07dH
	DB	02dH
	DB	022H
	DB	07dH
	DB	02dH
	DB	022H
	DB	07dH
	DB	02dH
	DB	022H
	DB	07dH
	DB	02dH
	DB	022H
	DB	07dH
	DB	02dH
	DB	022H
	DB	07dH
	DB	02dH
	DB	022H
	DB	07dH
	DB	02dH
	DB	022H
	DB	07dH
	DB	02dH
	DB	022H
	DB	07dH
	DB	02dH
	DB	022H
	DB	07dH
	DB	02dH
	DB	022H
	DB	07dH
	DB	02dH
	DB	022H
	DB	07dH
	DB	02dH
	DB	022H
	DB	07dH
	DB	02dH
	DB	022H
	DB	07dH
	DB	02dH
	DB	022H
	DB	07dH
	DB	02dH
	DB	022H
	DB	07dH
	DB	02dH
	DB	022H
	DB	07dH
	DB	02dH
	DB	022H
	DB	07dH
	DB	02dH
	DB	022H
	DB	07dH
	DB	02dH
	DB	022H
	DB	07dH
	DB	02dH
	DB	022H
	DB	07dH
	DB	02dH
	DB	022H
	DB	07dH
	DB	02dH
	DB	022H
	DB	07dH
	DB	02dH
	DB	022H
	DB	07dH
	DB	02dH
	DB	022H
	DB	07dH
	DB	02dH
	DB	022H
	DB	07dH
	DB	02dH
	DB	022H
	DB	07dH
	DB	02dH
	DB	022H
	DB	07dH
	DB	02dH
	DB	022H
	DB	07dH
	DB	02dH
	DB	022H
	DB	07dH
	DB	02dH
	DB	022H
	DB	07dH
	DB	02dH
	DB	022H
	DB	07dH
	DB	02dH
	DB	022H
	DB	07dH
	DB	02dH
	DB	022H
	DB	07dH
	DB	02dH
	DB	022H
	DB	07dH
	DB	02dH
	DB	022H
	DB	07dH
	DB	02dH
	DB	022H
	DB	07dH
	DB	02dH
	DB	022H
	DB	07dH
	DB	02dH
	DB	022H
	DB	07dH
	DB	02dH
	DB	022H
	DB	07dH
	DB	02dH
	DB	022H
	DB	07dH
	DB	02dH
	DB	022H
	DB	07dH
	DB	02dH
	DB	022H
	DB	07dH
	DB	02dH
	DB	022H
	DB	07dH
	DB	02dH
	DB	022H
	DB	07dH
	DB	02dH
	DB	022H
	DB	07dH
	DB	02dH
	DB	022H
	DB	07dH
	DB	02dH
	DB	022H
	DB	07dH
	DB	02dH
	DB	022H
	DB	07dH
	DB	02dH
	DB	022H
	DB	07dH
	DB	02dH
	DB	022H
	DB	07dH
	DB	02dH
	DB	022H
	DB	07dH
	DB	02dH
	DB	022H
	DB	07dH
	DB	02dH
	DB	022H
	DB	07dH
	DB	02dH
	DB	022H
	DB	07dH
	DB	02dH
	DB	022H
	DB	07dH
	DB	02dH
	DB	022H
	DB	07dH
	DB	02dH
	DB	022H
	DB	07dH
	DB	02dH
	DB	022H
	DB	07dH
	DB	02dH
	DB	022H
	DB	07dH
	DB	02dH
	DB	022H
	DB	07dH
	DB	02dH
	DB	022H
	DB	07dH
	DB	02dH
	DB	022H
	DB	07dH
	DB	02dH
	DB	022H
	DB	07dH
	DB	02dH
	DB	022H
	DB	07dH
	DB	02dH
	DB	022H
	DB	07dH
	DB	02dH
	DB	022H
	DB	07dH
	DB	02dH
	DB	022H
	DB	07dH
	DB	02dH
	DB	022H
	DB	07dH
	DB	02dH
	DB	022H
	DB	07dH
	DB	02dH
	DB	022H
	DB	07dH
	DB	02dH
	DB	022H
	DB	07dH
	DB	02dH
	DB	022H
	DB	07dH
	DB	02dH
	DB	022H
	DB	07dH
	DB	02dH
	DB	022H
	DB	07dH
	DB	02dH
	DB	022H
	DB	07dH
	DB	02dH
	DB	022H
	DB	07dH
	DB	02dH
	DB	022H
	DB	07dH
	DB	02dH
	DB	022H
	DB	07dH
	DB	02dH
	DB	022H
	DB	07dH
	DB	02dH
	DB	022H
	DB	07dH
	DB	02dH
	DB	022H
	DB	07dH
	DB	02dH
	DB	022H
	DB	07dH
	DB	02dH
	DB	022H
	DB	07dH
	DB	02dH
	DB	022H
	DB	07dH
	DB	02dH
	DB	022H
	DB	07dH
	DB	02dH
	DB	022H
	DB	07dH
	DB	02dH
	DB	022H
	DB	07dH
	DB	02dH
	DB	022H
	DB	07dH
	DB	02dH
	DB	022H
	DB	07dH
	DB	02dH
	DB	022H
	DB	07dH
	DB	02dH
	DB	022H
	DB	07dH
	DB	02dH
	DB	022H
	DB	07dH
	DB	02dH
	DB	022H
	DB	07dH
	DB	02dH
	DB	022H
	DB	07dH
	DB	02dH
	DB	022H
	DB	07dH
	DB	02dH
	DB	022H
	DB	07dH
	DB	02dH
	DB	022H
	DB	07dH
	DB	02dH
	DB	022H
	DB	07dH
	DB	02dH
	DB	022H
	DB	07dH
	DB	02dH
	DB	022H
	DB	07dH
	DB	02dH
	DB	022H
	DB	07dH
	DB	02dH
	DB	022H
	DB	07dH
	DB	02dH
	DB	022H
	DB	07dH
	DB	02dH
	DB	022H
	DB	07dH
	DB	02dH
	DB	022H
	DB	07dH
	DB	02dH
	DB	022H
	DB	07dH
	DB	02dH
	DB	022H
	DB	07dH
	DB	02dH
	DB	022H
	DB	07dH
	DB	02dH
	DB	022H
	DB	07dH
	DB	02dH
	DB	022H
	DB	07dH
	DB	02dH
	DB	022H
	DB	07dH
	DB	02dH
	DB	022H
	DB	07dH
	DB	02dH
	DB	022H
	DB	07dH
	DB	02dH
	DB	022H
	DB	07dH
	DB	02dH
	DB	022H
	DB	07dH
	DB	02dH
	DB	022H
	DB	07dH
	DB	02dH
	DB	022H
	DB	07dH
	DB	02dH
	DB	022H
	DB	07dH
	DB	02dH
	DB	022H
	DB	07dH
	DB	02dH
	DB	022H
	DB	07dH
	DB	02dH
	DB	022H
	DB	07dH
	DB	02dH
	DB	022H
	DB	07dH
	DB	02dH
	DB	022H
	DB	07dH
	DB	02dH
	DB	022H
	DB	07dH
	DB	02dH
	DB	022H
	DB	07dH
	DB	02dH
	DB	022H
	DB	07dH
	DB	02dH
	DB	022H
	DB	07dH
	DB	02dH
	DB	022H
	DB	07dH
	DB	02dH
	DB	022H
	DB	07dH
	DB	02dH
	DB	022H
	DB	07dH
	DB	02dH
	DB	022H
	DB	07dH
	DB	02dH
	DB	022H
	DB	07dH
	DB	02dH
	DB	022H
	DB	07dH
	DB	02dH
	DB	022H
	DB	07dH
	DB	02dH
	DB	022H
	DB	07dH
	DB	02dH
	DB	022H
	DB	07dH
	DB	02dH
	DB	022H
	DB	07dH
	DB	02dH
	DB	022H
	DB	07dH
	DB	02dH
	DB	022H
	DB	07dH
	DB	02dH
	DB	022H
	DB	07dH
	DB	02dH
	DB	022H
	DB	07dH
	DB	02dH
	DB	022H
	DB	07dH
	DB	02dH
	DB	022H
	DB	07dH
	DB	02dH
	DB	022H
	DB	07dH
	DB	02dH
	DB	022H
	DB	07dH
	DB	02dH
	DB	022H
	DB	07dH
	DB	02dH
	DB	022H
	DB	07dH
	DB	02dH
	DB	022H
	DB	07dH
	DB	02dH
	DB	022H
	DB	07dH
	DB	02dH
	DB	022H
	DB	07dH
	DB	02dH
	DB	022H
	DB	07dH
	DB	02dH
	DB	022H
	DB	07dH
	DB	02dH
	DB	022H
	DB	07dH
	DB	02dH
	DB	022H
	DB	07dH
	DB	02dH
	DB	022H
	DB	07dH
	DB	02dH
	DB	022H
	DB	07dH
	DB	02dH
	DB	022H
	DB	07dH
	DB	02dH
	DB	022H
	DB	07dH
	DB	02dH
	DB	022H
	DB	07dH
	DB	02dH
	DB	022H
	DB	07dH
	DB	02dH
	DB	022H
	DB	07dH
	DB	02dH
	DB	022H
	DB	07dH
	DB	02dH
	DB	022H
	DB	07dH
	DB	02dH
	DB	022H
	DB	07dH
	DB	02dH
	DB	022H
	DB	07dH
	DB	02dH
	DB	022H
	DB	07dH
	DB	02dH
	DB	022H
	DB	07dH
	DB	02dH
	DB	022H
	DB	07dH
	DB	02dH
	DB	022H
	DB	07dH
	DB	02dH
	DB	022H
	DB	07dH
	DB	02dH
	DB	022H
	DB	07dH
	DB	02dH
	DB	022H
	DB	07dH
	DB	02dH
	DB	022H
	DB	07dH
	DB	02dH
	DB	022H
	DB	07dH
	DB	02dH
	DB	022H
	DB	07dH
	DB	02dH
	DB	022H
	DB	07dH
	DB	02dH
	DB	022H
	DB	07dH
	DB	02dH
	DB	022H
	DB	07dH
	DB	02dH
	DB	022H
	DB	07dH
	DB	02dH
	DB	022H
	DB	07dH
	DB	02dH
	DB	022H
	DB	07dH
	DB	02dH
	DB	022H
	DB	07dH
	DB	02dH
	DB	022H
	DB	07dH
	DB	02dH
	DB	022H
	DB	07dH
	DB	02dH
	DB	022H
	DB	07dH
	DB	02dH
	DB	022H
	DB	07dH
	DB	02dH
	DB	022H
	DB	07dH
	DB	02dH
	DB	022H
	DB	07dH
	DB	02dH
	DB	022H
	DB	07dH
	DB	02dH
	DB	022H
	DB	07dH
	DB	02dH
	DB	022H
	DB	07dH
	DB	02dH
	DB	022H
	DB	07dH
	DB	02dH
	DB	022H
	DB	07dH
	DB	02dH
	DB	022H
	DB	07dH
	DB	02dH
	DB	022H
	DB	07dH
	DB	02dH
	DB	022H
	DB	07dH
	DB	02dH
	DB	022H
	DB	07dH
	DB	02dH
	DB	022H
	DB	07dH
	DB	02dH
	DB	022H
	DB	07dH
	DB	02dH
	DB	022H
	DB	07dH
	DB	02dH
	DB	022H
	DB	07dH
	DB	02dH
	DB	022H
	DB	07dH
	DB	02dH
	DB	022H
	DB	07dH
	DB	02dH
	DB	022H
	DB	07dH
	DB	02dH
	DB	022H
	DB	07dH
	DB	02dH
	DB	022H
	DB	07dH
	DB	02dH
	DB	022H
	DB	07dH
	DB	02dH
	DB	022H
	DB	07dH
	DB	02dH
	DB	022H
	DB	07dH
	DB	02dH
	DB	022H
	DB	07dH
	DB	02dH
	DB	022H
	DB	07dH
	DB	02dH
	DB	022H
	DB	07dH
	DB	02dH
	DB	022H
	DB	07dH
	DB	02dH
	DB	022H
	DB	07dH
	DB	02dH
	DB	022H
	DB	07dH
	DB	02dH
	DB	022H
	DB	07dH
	DB	02dH
	DB	022H
	DB	07dH
	DB	02dH
	DB	022H
	DB	07dH
	DB	02dH
	DB	022H
	DB	07dH
	DB	02dH
	DB	022H
	DB	07dH
	DB	02dH
	DB	022H
	DB	07dH
	DB	02dH
	DB	022H
	DB	07dH
	DB	02dH
	DB	022H
	DB	07dH
	DB	02dH
	DB	022H
	DB	07dH
	DB	02dH
	DB	022H
	DB	07dH
	DB	02dH
	DB	022H
	DB	07dH
	DB	02dH
	DB	022H
	DB	07dH
	DB	02dH
	DB	022H
	DB	07dH
	DB	02dH
	DB	022H
	DB	07dH
	DB	02dH
	DB	022H
	DB	07dH
	DB	02dH
	DB	022H
	DB	07dH
	DB	02dH
	DB	022H
	DB	07dH
	DB	02dH
	DB	022H
	DB	07dH
	DB	02dH
	DB	022H
	DB	07dH
	DB	02dH
	DB	022H
	DB	07dH
	DB	02dH
	DB	022H
	DB	07dH
	DB	02dH
	DB	022H
	DB	07dH
	DB	02dH
	DB	022H
	DB	07dH
	DB	02dH
	DB	022H
	DB	07dH
	DB	02dH
	DB	022H
	DB	07dH
	DB	02dH
	DB	022H
	DB	07dH
	DB	02dH
	DB	022H
	DB	07dH
	DB	02dH
	DB	022H
	DB	07dH
	DB	02dH
	DB	022H
	DB	07dH
	DB	02dH
	DB	022H
	DB	07dH
	DB	02dH
	DB	022H
	DB	07dH
	DB	02dH
	DB	022H
	DB	07dH
	DB	02dH
	DB	022H
	DB	07dH
	DB	02dH
	DB	022H
	DB	07dH
	DB	02dH
	DB	022H
	DB	07dH
	DB	02dH
	DB	022H
	DB	07dH
	DB	02dH
	DB	022H
	DB	07dH
	DB	02dH
	DB	022H
	DB	07dH
	DB	02dH
	DB	022H
	DB	07dH
	DB	02dH
	DB	022H
	DB	07dH
	DB	02dH
	DB	022H
	DB	07dH
	DB	02dH
	DB	022H
	DB	07dH
	DB	02dH
	DB	022H
	DB	07dH
	DB	02dH
	DB	022H
	DB	07dH
	DB	02dH
	DB	022H
	DB	07dH
	DB	02dH
	DB	022H
	DB	07dH
	DB	02dH
	DB	022H
	DB	07dH
	DB	02dH
	DB	022H
	DB	07dH
	DB	02dH
	DB	022H
	DB	07dH
	DB	02dH
	DB	022H
	DB	07dH
	DB	02dH
	DB	022H
	DB	07dH
	DB	02dH
	DB	022H
	DB	07dH
	DB	02dH
	DB	022H
	DB	07dH
	DB	02dH
	DB	022H
	DB	07dH
	DB	02dH
	DB	022H
	DB	07dH
	DB	02dH
	DB	022H
	DB	07dH
	DB	02dH
	DB	022H
	DB	07dH
	DB	02dH
	DB	022H
	DB	07dH
	DB	02dH
	DB	022H
	DB	07dH
	DB	02dH
	DB	022H
	DB	07dH
	DB	02dH
	DB	022H
	DB	07dH
	DB	02dH
	DB	022H
	DB	07dH
	DB	02dH
	DB	022H
	DB	07dH
	DB	02dH
	DB	022H
	DB	07dH
	DB	02dH
	DB	022H
	DB	07dH
	DB	02dH
	DB	022H
	DB	07dH
	DB	02dH
	DB	022H
	DB	07dH
	DB	02dH
	DB	022H
	DB	07dH
	DB	02dH
	DB	022H
	DB	07dH
	DB	02dH
	DB	022H
	DB	07dH
	DB	02dH
	DB	022H
	DB	07dH
	DB	02dH
	DB	022H
	DB	07dH
	DB	02dH
	DB	022H
	DB	07dH
	DB	02dH
	DB	022H
	DB	07dH
	DB	02dH
	DB	022H
	DB	07dH
	DB	02dH
	DB	022H
	DB	07dH
	DB	02dH
	DB	022H
	DB	07dH
	DB	02dH
	DB	022H
	DB	07dH
	DB	02dH
	DB	022H
	DB	07dH
	DB	02dH
	DB	022H
	DB	07dH
	DB	02dH
	DB	022H
	DB	07dH
	DB	02dH
	DB	022H
	DB	07dH
	DB	02dH
	DB	022H
	DB	07dH
	DB	02dH
	DB	022H
	DB	07dH
	DB	02dH
	DB	022H
	DB	07dH
	DB	02dH
	DB	022H
	DB	07dH
	DB	02dH
	DB	022H
	DB	07dH
	DB	02dH
	DB	022H
	DB	07dH
	DB	02dH
	DB	022H
	DB	07dH
	DB	02dH
	DB	022H
	DB	07dH
	DB	02dH
	DB	022H
	DB	07dH
	DB	02dH
	DB	022H
	DB	07dH
	DB	02dH
	DB	022H
	DB	07dH
	DB	02dH
	DB	022H
	DB	07dH
	DB	02dH
	DB	022H
	DB	07dH
	DB	02dH
	DB	022H
	DB	07dH
	DB	02dH
	DB	022H
	DB	07dH
	DB	02dH
	DB	022H
	DB	07dH
	DB	02dH
	DB	022H
	DB	07dH
	DB	02dH
	DB	022H
	DB	07dH
	DB	02dH
	DB	022H
	DB	07dH
	DB	02dH
	DB	022H
	DB	07dH
	DB	02dH
	DB	022H
	DB	07dH
	DB	02dH
	DB	022H
	DB	07dH
	DB	02dH
	DB	022H
	DB	07dH
	DB	02dH
	DB	022H
	DB	07dH
	DB	02dH
	DB	022H
	DB	07dH
	DB	02dH
	DB	022H
	DB	07dH
	DB	02dH
	DB	022H
	DB	07dH
	DB	02dH
	DB	022H
	DB	07dH
	DB	02dH
	DB	022H
	DB	07dH
	DB	02dH
	DB	022H
	DB	07dH
	DB	02dH
	DB	022H
	DB	07dH
	DB	02dH
	DB	022H
	DB	07dH
	DB	02dH
	DB	022H
	DB	07dH
	DB	02dH
	DB	022H
	DB	07dH
	DB	02dH
	DB	022H
	DB	07dH
	DB	02dH
	DB	022H
	DB	07dH
	DB	02dH
	DB	022H
	DB	07dH
	DB	02dH
	DB	022H
	DB	07dH
	DB	02dH
	DB	022H
	DB	07dH
	DB	02dH
	DB	022H
	DB	07dH
	DB	02dH
	DB	022H
	DB	07dH
	DB	02dH
	DB	022H
	DB	07dH
	DB	02dH
	DB	022H
	DB	07dH
	DB	02dH
	DB	022H
	DB	07dH
	DB	02dH
	DB	022H
	DB	07dH
	DB	02dH
	DB	022H
	DB	07dH
	DB	02dH
	DB	022H
	DB	07dH
	DB	02dH
	DB	022H
	DB	07dH
	DB	02dH
	DB	022H
	DB	07dH
	DB	02dH
	DB	022H
	DB	07dH
	DB	02dH
	DB	022H
	DB	07dH
	DB	02dH
	DB	022H
	DB	07dH
	DB	02dH
	DB	022H
	DB	07dH
	DB	02dH
	DB	022H
	DB	07dH
	DB	02dH
	DB	022H
	DB	07dH
	DB	02dH
	DB	022H
	DB	07dH
	DB	02dH
	DB	022H
	DB	07dH
	DB	02dH
	DB	022H
	DB	07dH
	DB	02dH
	DB	022H
	DB	07dH
	DB	02dH
	DB	022H
	DB	07dH
	DB	02dH
	DB	022H
	DB	07dH
	DB	02dH
	DB	022H
	DB	07dH
	DB	02dH
	DB	022H
	DB	07dH
	DB	02dH
	DB	022H
	DB	07dH
	DB	02dH
	DB	022H
	DB	07dH
	DB	02dH
	DB	022H
	DB	07dH
	DB	02dH
	DB	022H
	DB	07dH
	DB	02dH
	DB	022H
	DB	07dH
	DB	02dH
	DB	022H
	DB	07dH
	DB	02dH
	DB	022H
	DB	07dH
	DB	02dH
	DB	022H
	DB	07dH
	DB	02dH
	DB	022H
	DB	07dH
	DB	02dH
	DB	022H
	DB	07dH
	DB	02dH
	DB	022H
	DB	07dH
	DB	02dH
	DB	022H
	DB	07dH
	DB	02dH
	DB	022H
	DB	07dH
	DB	02dH
	DB	022H
	DB	07dH
	DB	02dH
	DB	022H
	DB	07dH
	DB	02dH
	DB	022H
	DB	07dH
	DB	02dH
	DB	022H
	DB	07dH
	DB	02dH
	DB	022H
	DB	07dH
	DB	02dH
	DB	022H
	DB	07dH
	DB	02dH
	DB	022H
	DB	07dH
	DB	02dH
	DB	022H
	DB	07dH
	DB	02dH
	DB	022H
	DB	07dH
	DB	02dH
	DB	022H
	DB	07dH
	DB	02dH
	DB	022H
	DB	07dH
	DB	02dH
	DB	022H
	DB	07dH
	DB	02dH
	DB	022H
	DB	07dH
	DB	02dH
	DB	022H
	DB	07dH
	DB	02dH
	DB	022H
	DB	07dH
	DB	02dH
	DB	022H
	DB	07dH
	DB	02dH
	DB	022H
	DB	07dH
	DB	02dH
	DB	022H
	DB	07dH
	DB	02dH
	DB	022H
	DB	07dH
	DB	02dH
	DB	022H
	DB	07dH
	DB	02dH
	DB	022H
	DB	07dH
	DB	02dH
	DB	022H
	DB	07dH
	DB	02dH
	DB	022H
	DB	07dH
	DB	02dH
	DB	022H
	DB	07dH
	DB	02dH
	DB	022H
	DB	07dH
	DB	02dH
	DB	022H
	DB	07dH
	DB	02dH
	DB	022H
	DB	07dH
	DB	02dH
	DB	022H
	DB	07dH
	DB	02dH
	DB	022H
	DB	07dH
	DB	02dH
	DB	022H
	DB	07dH
	DB	02dH
	DB	022H
	DB	07dH
	DB	02dH
	DB	022H
	DB	07dH
	DB	02dH
	DB	022H
	DB	07dH
	DB	02dH
	DB	022H
	DB	07dH
	DB	02dH
	DB	022H
	DB	07dH
	DB	02dH
	DB	022H
	DB	07dH
	DB	02dH
	DB	022H
	DB	07dH
	DB	02dH
	DB	022H
	DB	07dH
	DB	02dH
	DB	022H
	DB	07dH
	DB	02dH
	DB	022H
	DB	07dH
	DB	02dH
	DB	022H
	DB	07dH
	DB	02dH
	DB	022H
	DB	07dH
	DB	02dH
	DB	022H
	DB	07dH
	DB	02dH
	DB	022H
	DB	07dH
	DB	02dH
	DB	022H
	DB	07dH
	DB	02dH
	DB	022H
	DB	07dH
	DB	02dH
	DB	022H
	DB	07dH
	DB	02dH
	DB	022H
	DB	07dH
	DB	02dH
	DB	022H
	DB	07dH
	DB	02dH
	DB	022H
	DB	07dH
	DB	02dH
	DB	022H
	DB	07dH
	DB	02dH
	DB	022H
	DB	07dH
	DB	02dH
	DB	022H
	DB	07dH
	DB	02dH
	DB	022H
	DB	07dH
	DB	02dH
	DB	022H
	DB	07dH
	DB	02dH
	DB	022H
	DB	07dH
	DB	02dH
	DB	022H
	DB	07dH
	DB	02dH
	DB	022H
	DB	07dH
	DB	02dH
	DB	022H
	DB	07dH
	DB	02dH
	DB	022H
	DB	07dH
	DB	02dH
	DB	022H
	DB	07dH
	DB	02dH
	DB	022H
	DB	07dH
	DB	02dH
	DB	022H
	DB	07dH
	DB	02dH
	DB	022H
	DB	07dH
	DB	02dH
	DB	022H
	DB	07dH
	DB	02dH
	DB	022H
	DB	07dH
	DB	02dH
	DB	022H
	DB	07dH
	DB	02dH
	DB	022H
	DB	07dH
	DB	02dH
	DB	022H
	DB	07dH
	DB	02dH
	DB	022H
	DB	07dH
	DB	02dH
	DB	022H
	DB	07dH
	DB	02dH
	DB	022H
	DB	07dH
	DB	02dH
	DB	022H
	DB	07dH
	DB	02dH
	DB	022H
	DB	07dH
	DB	02dH
	DB	022H
	DB	07dH
	DB	02dH
	DB	022H
	DB	07dH
	DB	02dH
	DB	022H
	DB	07dH
	DB	02dH
	DB	022H
	DB	07dH
	DB	02dH
	DB	022H
	DB	07dH
	DB	02dH
	DB	022H
	DB	07dH
	DB	02dH
	DB	022H
	DB	07dH
	DB	02dH
	DB	022H
	DB	07dH
	DB	02dH
	DB	022H
	DB	07dH
	DB	02dH
	DB	022H
	DB	07dH
	DB	02dH
	DB	022H
	DB	07dH
	DB	02dH
	DB	022H
	DB	07dH
	DB	02dH
	DB	022H
	DB	07dH
	DB	02dH
	DB	022H
	DB	07dH
	DB	02dH
	DB	022H
	DB	07dH
	DB	02dH
	DB	022H
	DB	07dH
	DB	02dH
	DB	022H
	DB	07dH
	DB	02dH
	DB	022H
	DB	07dH
	DB	02dH
	DB	022H
	DB	07dH
	DB	02dH
	DB	022H
	DB	07dH
	DB	02dH
	DB	022H
	DB	07dH
	DB	02dH
	DB	022H
	DB	07dH
	DB	02dH
	DB	022H
	DB	07dH
	DB	02dH
	DB	022H
	DB	07dH
	DB	02dH
	DB	022H
	DB	07dH
	DB	02dH
	DB	022H
	DB	07dH
	DB	02dH
	DB	022H
	DB	07dH
	DB	02dH
	DB	022H
	DB	07dH
	DB	02dH
	DB	022H
	DB	07dH
	DB	02dH
	DB	022H
	DB	07dH
	DB	02dH
	DB	022H
	DB	07dH
	DB	02dH
	DB	022H
	DB	07dH
	DB	02dH
	DB	022H
	DB	07dH
	DB	02dH
	DB	022H
	DB	07dH
	DB	02dH
	DB	022H
	DB	07dH
	DB	02dH
	DB	022H
	DB	07dH
	DB	02dH
	DB	022H
	DB	07dH
	DB	02dH
	DB	022H
	DB	07dH
	DB	02dH
	DB	022H
	DB	07dH
	DB	02dH
	DB	022H
	DB	07dH
	DB	02dH
	DB	022H
	DB	07dH
	DB	02dH
	DB	022H
	DB	07dH
	DB	02dH
	DB	022H
	DB	07dH
	DB	02dH
	DB	022H
	DB	07dH
	DB	02dH
	DB	022H
	DB	07dH
	DB	02dH
	DB	022H
	DB	07dH
	DB	02dH
	DB	022H
	DB	07dH
	DB	02dH
	DB	022H
	DB	07dH
	DB	02dH
	DB	022H
	DB	07dH
	DB	02dH
	DB	022H
	DB	07dH
	DB	02dH
	DB	022H
	DB	07dH
	DB	02dH
	DB	022H
	DB	07dH
	DB	02dH
	DB	022H
	DB	07dH
	DB	02dH
	DB	022H
	DB	07dH
	DB	02dH
	DB	022H
	DB	07dH
	DB	02dH
	DB	022H
	DB	07dH
	DB	02dH
	DB	022H
	DB	07dH
	DB	02dH
	DB	022H
	DB	07dH
	DB	02dH
	DB	022H
	DB	07dH
	DB	02dH
	DB	022H
	DB	07dH
	DB	02dH
	DB	022H
	DB	07dH
	DB	02dH
	DB	022H
	DB	07dH
	DB	02dH
	DB	022H
	DB	07dH
	DB	02dH
	DB	022H
	DB	07dH
	DB	02dH
	DB	022H
	DB	07dH
	DB	02dH
	DB	022H
	DB	07dH
	DB	02dH
	DB	022H
	DB	07dH
	DB	02dH
	DB	022H
	DB	07dH
	DB	02dH
	DB	022H
	DB	07dH
	DB	02dH
	DB	022H
	DB	07dH
	DB	02dH
	DB	022H
	DB	07dH
	DB	02dH
	DB	022H
	DB	07dH
	DB	02dH
	DB	022H
	DB	07dH
	DB	02dH
	DB	022H
	DB	07dH
	DB	02dH
	DB	022H
	DB	07dH
	DB	02dH
	DB	022H
	DB	07dH
	DB	02dH
	DB	022H
	DB	07dH
	DB	02dH
	DB	022H
	DB	07dH
	DB	02dH
	DB	022H
	DB	07dH
	DB	02dH
	DB	022H
	DB	07dH
	DB	02dH
	DB	022H
	DB	07dH
	DB	02dH
	DB	022H
	DB	07dH
	DB	02dH
	DB	022H
	DB	07dH
	DB	02dH
	DB	022H
	DB	07dH
	DB	02dH
	DB	022H
	DB	07dH
	DB	02dH
	DB	022H
	DB	07dH
	DB	02dH
	DB	022H
	DB	07dH
	DB	02dH
	DB	022H
	DB	07dH
	DB	02dH
	DB	022H
	DB	07dH
	DB	02dH
	DB	022H
	DB	07dH
	DB	02dH
	DB	022H
	DB	07dH
	DB	02dH
	DB	022H
	DB	07dH
	DB	02dH
	DB	022H
	DB	07dH
	DB	02dH
	DB	022H
	DB	07dH
	DB	02dH
	DB	022H
	DB	07dH
	DB	02dH
	DB	022H
	DB	07dH
	DB	02dH
	DB	022H
	DB	07dH
	DB	02dH
	DB	022H
	DB	07dH
	DB	02dH
	DB	022H
	DB	07dH
	DB	02dH
	DB	022H
	DB	07dH
	DB	02dH
	DB	022H
	DB	07dH
	DB	02dH
	DB	022H
	DB	07dH
	DB	02dH
	DB	022H
	DB	07dH
	DB	02dH
	DB	022H
	DB	07dH
	DB	02dH
	DB	022H
	DB	07dH
	DB	02dH
	DB	022H
	DB	07dH
	DB	02dH
	DB	022H
	DB	07dH
	DB	02dH
	DB	022H
	DB	07dH
	DB	02dH
	DB	022H
	DB	07dH
	DB	02dH
	DB	022H
	DB	07dH
	DB	02dH
	DB	022H
	DB	07dH
	DB	02dH
	DB	022H
	DB	07dH
	DB	02dH
	DB	022H
	DB	07dH
	DB	02dH
	DB	022H
	DB	07dH
	DB	02dH
	DB	022H
	DB	07dH
	DB	02dH
	DB	022H
	DB	07dH
	DB	02dH
	DB	022H
	DB	07dH
	DB	02dH
	DB	022H
	DB	07dH
	DB	02dH
	DB	022H
	DB	07dH
	DB	02dH
	DB	022H
	DB	07dH
	DB	02dH
	DB	022H
	DB	07dH
	DB	02dH
	DB	022H
	DB	07dH
	DB	02dH
	DB	022H
	DB	07dH
	DB	02dH
	DB	022H
	DB	07dH
	DB	02dH
	DB	022H
	DB	07dH
	DB	02dH
	DB	022H
	DB	07dH
	DB	02dH
	DB	022H
	DB	07dH
	DB	02dH
	DB	022H
	DB	07dH
	DB	02dH
	DB	022H
	DB	07dH
	DB	02dH
	DB	022H
	DB	07dH
	DB	02dH
	DB	022H
	DB	07dH
	DB	02dH
	DB	022H
	DB	07dH
	DB	02dH
	DB	022H
	DB	07dH
	DB	02dH
	DB	022H
	DB	07dH
	DB	02dH
	DB	022H
	DB	07dH
	DB	02dH
	DB	022H
	DB	07dH
	DB	02dH
	DB	022H
	DB	07dH
	DB	02dH
	DB	022H
	DB	07dH
	DB	02dH
	DB	022H
	DB	07dH
	DB	02dH
	DB	022H
	DB	07dH
	DB	02dH
	DB	022H
	DB	07dH
	DB	02dH
	DB	022H
	DB	07dH
	DB	02dH
	DB	022H
	DB	07dH
	DB	02dH
	DB	022H
	DB	07dH
	DB	02dH
	DB	022H
	DB	07dH
	DB	02dH
	DB	022H
	DB	07dH
	DB	02dH
	DB	022H
	DB	07dH
	DB	02dH
	DB	022H
	DB	07dH
	DB	02dH
	DB	022H
	DB	07dH
	DB	02dH
	DB	022H
	DB	07dH
	DB	02dH
	DB	022H
	DB	07dH
	DB	02dH
	DB	022H
	DB	07dH
	DB	02dH
	DB	022H
	DB	07dH
	DB	02dH
	DB	022H
	DB	07dH
	DB	02dH
	DB	022H
	DB	07dH
	DB	02dH
	DB	022H
	DB	07dH
	DB	02dH
	DB	022H
	DB	07dH
	DB	02dH
	DB	022H
	DB	07dH
	DB	02dH
	DB	022H
	DB	07dH
	DB	02dH
	DB	022H
	DB	07dH
	DB	02dH
	DB	022H
	DB	07dH
	DB	02dH
	DB	022H
	DB	07dH
	DB	02dH
	DB	022H
	DB	07dH
	DB	02dH
	DB	022H
	DB	07dH
	DB	02dH
	DB	022H
	DB	07dH
	DB	02dH
	DB	022H
	DB	07dH
	DB	02dH
	DB	022H
	DB	07dH
	DB	02dH
	DB	022H
	DB	07dH
	DB	02dH
	DB	022H
	DB	07dH
	DB	02dH
	DB	022H
	DB	07dH
	DB	02dH
	DB	022H
	DB	07dH
	DB	02dH
	DB	022H
	DB	07dH
	DB	02dH
	DB	022H
	DB	07dH
	DB	02dH
	DB	022H
	DB	07dH
	DB	02dH
	DB	022H
	DB	07dH
	DB	02dH
	DB	022H
	DB	07dH
	DB	02dH
	DB	022H
	DB	07dH
	DB	02dH
	DB	022H
	DB	07dH
	DB	02dH
	DB	022H
	DB	07dH
	DB	02dH
	DB	022H
	DB	07dH
	DB	02dH
	DB	022H
	DB	07dH
	DB	02dH
	DB	022H
	DB	07dH
	DB	02dH
	DB	022H
	DB	07dH
	DB	02dH
	DB	022H
	DB	07dH
	DB	02dH
	DB	022H
	DB	07dH
	DB	02dH
	DB	022H
	DB	07dH
	DB	02dH
	DB	022H
	DB	07dH
	DB	02dH
	DB	022H
	DB	07dH
	DB	02dH
	DB	022H
	DB	07dH
	DB	02dH
	DB	022H
	DB	07dH
	DB	02dH
	DB	022H
	DB	07dH
	DB	02dH
	DB	022H
	DB	07dH
	DB	02dH
	DB	022H
	DB	07dH
	DB	02dH
	DB	022H
	DB	07dH
	DB	02dH
	DB	022H
	DB	07dH
	DB	02dH
	DB	022H
	DB	07dH
	DB	02dH
	DB	022H
	DB	07dH
	DB	02dH
	DB	022H
	DB	07dH
	DB	02dH
	DB	022H
	DB	07dH
	DB	02dH
	DB	022H
	DB	07dH
	DB	02dH
	DB	022H
	DB	07dH
	DB	02dH
	DB	022H
	DB	07dH
	DB	02dH
	DB	022H
	DB	07dH
	DB	02dH
	DB	022H
	DB	07dH
	DB	02dH
	DB	022H
	DB	07dH
	DB	02dH
	DB	022H
	DB	07dH
	DB	02dH
	DB	022H
	DB	07dH
	DB	02dH
	DB	022H
	DB	07dH
	DB	02dH
	DB	022H
	DB	07dH
	DB	02dH
	DB	022H
	DB	07dH
	DB	02dH
	DB	022H
	DB	07dH
	DB	02dH
	DB	022H
	DB	07dH
	DB	02dH
	DB	022H
	DB	07dH
	DB	02dH
	DB	022H
	DB	07dH
	DB	02dH
	DB	022H
	DB	07dH
	DB	02dH
	DB	022H
	DB	07dH
	DB	02dH
	DB	022H
	DB	07dH
	DB	02dH
	DB	022H
	DB	07dH
	DB	02dH
	DB	022H
	DB	07dH
	DB	02dH
	DB	022H
	DB	07dH
	DB	02dH
	DB	022H
	DB	07dH
	DB	02dH
	DB	022H
	DB	07dH
	DB	02dH
	DB	022H
	DB	07dH
	DB	02dH
	DB	022H
	DB	07dH
	DB	02dH
	DB	022H
	DB	07dH
	DB	02dH
	DB	022H
	DB	07dH
	DB	02dH
	DB	022H
	DB	07dH
	DB	02dH
	DB	022H
	DB	07dH
	DB	02dH
	DB	022H
	DB	07dH
	DB	02dH
	DB	022H
	DB	07dH
	DB	02dH
	DB	022H
	DB	07dH
	DB	02dH
	DB	022H
	DB	07dH
	DB	02dH
	DB	022H
	DB	07dH
	DB	02dH
	DB	022H
	DB	07dH
	DB	02dH
	DB	022H
	DB	07dH
	DB	02dH
	DB	022H
	DB	07dH
	DB	02dH
	DB	022H
	DB	07dH
	DB	02dH
	DB	022H
	DB	07dH
	DB	02dH
	DB	022H
	DB	07dH
	DB	02dH
	DB	022H
	DB	07dH
	DB	02dH
	DB	022H
	DB	07dH
	DB	02dH
	DB	022H
	DB	07dH
	DB	02dH
	DB	022H
	DB	07dH
	DB	02dH
	DB	022H
	DB	07dH
	DB	02dH
	DB	022H
	DB	07dH
	DB	02dH
	DB	022H
	DB	07dH
	DB	02dH
	DB	022H
	DB	07dH
	DB	02dH
	DB	022H
	DB	07dH
	DB	02dH
	DB	022H
	DB	07dH
	DB	02dH
	DB	022H
	DB	07dH
	DB	02dH
	DB	022H
	DB	07dH
	DB	02dH
	DB	022H
	DB	07dH
	DB	02dH
	DB	022H
	DB	07dH
	DB	02dH
	DB	022H
	DB	07dH
	DB	02dH
	DB	022H
	DB	07dH
	DB	02dH
	DB	022H
	DB	07dH
	DB	02dH
	DB	022H
	DB	07dH
	DB	02dH
	DB	022H
	DB	07dH
	DB	02dH
	DB	022H
	DB	07dH
	DB	02dH
	DB	022H
	DB	07dH
	DB	02dH
	DB	022H
	DB	07dH
	DB	02dH
	DB	022H
	DB	07dH
	DB	02dH
	DB	022H
	DB	07dH
	DB	02dH
	DB	022H
	DB	07dH
	DB	02dH
	DB	022H
	DB	07dH
	DB	02dH
	DB	022H
	DB	07dH
	DB	02dH
	DB	022H
	DB	07dH
	DB	02dH
	DB	022H
	DB	07dH
	DB	02dH
	DB	022H
	DB	07dH
	DB	02dH
	DB	022H
	DB	07dH
	DB	02dH
	DB	022H
	DB	07dH
	DB	02dH
	DB	022H
	DB	07dH
	DB	02dH
	DB	022H
	DB	07dH
	DB	02dH
	DB	022H
	DB	07dH
	DB	02dH
	DB	022H
	DB	07dH
	DB	02dH
	DB	022H
	DB	07dH
	DB	02dH
	DB	022H
	DB	07dH
	DB	02dH
	DB	022H
	DB	07dH
	DB	02dH
	DB	022H
	DB	07dH
	DB	02dH
	DB	022H
	DB	07dH
	DB	02dH
	DB	022H
	DB	07dH
	DB	02dH
	DB	022H
	DB	07dH
	DB	02dH
	DB	022H
	DB	07dH
	DB	02dH
	DB	022H
	DB	07dH
	DB	02dH
	DB	022H
	DB	07dH
	DB	02dH
	DB	022H
	DB	07dH
	DB	02dH
	DB	022H
	DB	07dH
	DB	02dH
	DB	022H
	DB	07dH
	DB	02dH
	DB	022H
	DB	07dH
	DB	02dH
	DB	022H
	DB	07dH
	DB	02dH
	DB	022H
	DB	07dH
	DB	02dH
	DB	022H
	DB	07dH
	DB	02dH
	DB	022H
	DB	07dH
	DB	02dH
	DB	022H
	DB	07dH
	DB	02dH
	DB	022H
	DB	07dH
	DB	02dH
	DB	022H
	DB	07dH
	DB	02dH
	DB	022H
	DB	07dH
	DB	02dH
	DB	022H
	DB	07dH
	DB	02dH
	DB	022H
	DB	07dH
	DB	02dH
	DB	022H
	DB	07dH
	DB	02dH
	DB	022H
	DB	07dH
	DB	02dH
	DB	022H
	DB	07dH
	DB	02dH
	DB	022H
	DB	07dH
	DB	02dH
	DB	022H
	DB	07dH
	DB	02dH
	DB	022H
	DB	07dH
	DB	02dH
	DB	022H
	DB	07dH
	DB	02dH
	DB	022H
	DB	07dH
	DB	02dH
	DB	022H
	DB	07dH
	DB	02dH
	DB	022H
	DB	07dH
	DB	02dH
	DB	022H
	DB	07dH
	DB	02dH
	DB	022H
	DB	07dH
	DB	02dH
	DB	022H
	DB	07dH
	DB	02dH
	DB	022H
	DB	07dH
	DB	02dH
	DB	022H
	DB	07dH
	DB	02dH
	DB	022H
	DB	07dH
	DB	02dH
	DB	022H
	DB	07dH
	DB	02dH
	DB	022H
	DB	07dH
	DB	02dH
	DB	022H
	DB	07dH
	DB	02dH
	DB	022H
	DB	07dH
	DB	02dH
	DB	022H
	DB	07dH
	DB	02dH
	DB	022H
	DB	07dH
	DB	02dH
	DB	022H
	DB	07dH
	DB	02dH
	DB	022H
	DB	07dH
	DB	02dH
	DB	022H
	DB	07dH
	DB	02dH
	DB	022H
	DB	07dH
	DB	02dH
	DB	022H
	DB	07dH
	DB	02dH
	DB	022H
	DB	07dH
	DB	02dH
	DB	022H
	DB	07dH
	DB	02dH
	DB	022H
	DB	07dH
	DB	02dH
	DB	022H
	DB	07dH
	DB	02dH
	DB	022H
	DB	07dH
	DB	02dH
	DB	022H
	DB	07dH
	DB	02dH
	DB	022H
	DB	07dH
	DB	02dH
	DB	022H
	DB	07dH
	DB	02dH
	DB	022H
	DB	07dH
	DB	02dH
	DB	022H
	DB	07dH
	DB	02dH
	DB	022H
	DB	07dH
	DB	02dH
	DB	022H
	DB	07dH
	DB	02dH
	DB	022H
	DB	07dH
	DB	02dH
	DB	022H
	DB	07dH
	DB	02dH
	DB	022H
	DB	07dH
	DB	02dH
	DB	022H
	DB	07dH
	DB	02dH
	DB	022H
	DB	07dH
	DB	02dH
	DB	022H
	DB	07dH
	DB	02dH
	DB	022H
	DB	07dH
	DB	02dH
	DB	022H
	DB	07dH
	DB	02dH
	DB	022H
	DB	07dH
	DB	02dH
	DB	022H
	DB	07dH
	DB	02dH
	DB	022H
	DB	07dH
	DB	02dH
	DB	022H
	DB	07dH
	DB	02dH
	DB	022H
	DB	07dH
	DB	02dH
	DB	022H
	DB	07dH
	DB	02dH
	DB	022H
	DB	07dH
	DB	02dH
	DB	022H
	DB	07dH
	DB	02dH
	DB	022H
	DB	07dH
	DB	02dH
	DB	022H
	DB	07dH
	DB	02dH
	DB	022H
	DB	07dH
	DB	02dH
	DB	022H
	DB	07dH
	DB	02dH
	DB	022H
	DB	07dH
	DB	02dH
	DB	022H
	DB	07dH
	DB	02dH
	DB	022H
	DB	07dH
	DB	02dH
	DB	022H
	DB	07dH
	DB	02dH
	DB	022H
	DB	07dH
	DB	02dH
	DB	022H
	DB	07dH
	DB	02dH
	DB	022H
	DB	07dH
	DB	02dH
	DB	022H
	DB	07dH
	DB	02dH
	DB	022H
	DB	07dH
	DB	02dH
	DB	022H
	DB	07dH
	DB	02dH
	DB	022H
	DB	07dH
	DB	02dH
	DB	022H
	DB	07dH
	DB	02dH
	DB	022H
	DB	07dH
	DB	02dH
	DB	022H
	DB	07dH
	DB	02dH
	DB	022H
	DB	07dH
	DB	02dH
	DB	022H
	DB	07dH
	DB	02dH
	DB	022H
	DB	07dH
	DB	02dH
	DB	022H
	DB	07dH
	DB	02dH
	DB	022H
	DB	07dH
	DB	02dH
	DB	022H
	DB	07dH
	DB	02dH
	DB	022H
	DB	07dH
	DB	02dH
	DB	022H
	DB	07dH
	DB	02dH
	DB	022H
	DB	07dH
	DB	02dH
	DB	022H
	DB	07dH
	DB	02dH
	DB	022H
	DB	07dH
	DB	02dH
	DB	022H
	DB	07dH
	DB	02dH
	DB	022H
	DB	07dH
	DB	02dH
	DB	022H
	DB	07dH
	DB	02dH
	DB	022H
	DB	07dH
	DB	02dH
	DB	022H
	DB	07dH
	DB	02dH
	DB	022H
	DB	07dH
	DB	02dH
	DB	022H
	DB	07dH
	DB	02dH
	DB	022H
	DB	07dH
	DB	02dH
	DB	022H
	DB	07dH
	DB	02dH
	DB	022H
	DB	07dH
	DB	02dH
	DB	022H
	DB	07dH
	DB	02dH
	DB	022H
	DB	07dH
	DB	02dH
	DB	022H
	DB	07dH
	DB	02dH
	DB	022H
	DB	07dH
	DB	02dH
	DB	022H
	DB	07dH
	DB	02dH
	DB	022H
	DB	07dH
	DB	02dH
	DB	022H
	DB	07dH
	DB	02dH
	DB	022H
	DB	07dH
	DB	02dH
	DB	022H
	DB	07dH
	DB	02dH
	DB	022H
	DB	07dH
	DB	02dH
	DB	022H
	DB	07dH
	DB	02dH
	DB	022H
	DB	07dH
	DB	02dH
	DB	022H
	DB	07dH
	DB	02dH
	DB	022H
	DB	07dH
	DB	02dH
	DB	022H
	DB	07dH
	DB	02dH
	DB	022H
	DB	07dH
	DB	02dH
	DB	022H
	DB	07dH
	DB	02dH
	DB	022H
	DB	07dH
	DB	02dH
	DB	022H
	DB	07dH
	DB	02dH
	DB	022H
	DB	07dH
	DB	02dH
	DB	022H
	DB	07dH
	DB	02dH
	DB	022H
	DB	07dH
	DB	02dH
	DB	022H
	DB	07dH
	DB	02dH
	DB	022H
	DB	07dH
	DB	02dH
	DB	022H
	DB	07dH
	DB	02dH
	DB	022H
	DB	07dH
	DB	02dH
	DB	022H
	DB	07dH
	DB	02dH
	DB	022H
	DB	07dH
	DB	02dH
	DB	022H
	DB	07dH
	DB	02dH
	DB	022H
	DB	07dH
	DB	02dH
	DB	022H
	DB	07dH
	DB	02dH
	DB	022H
	DB	07dH
	DB	02dH
	DB	022H
	DB	07dH
	DB	02dH
	DB	022H
	DB	07dH
	DB	02dH
	DB	022H
	DB	07dH
	DB	02dH
	DB	022H
	DB	07dH
	DB	02dH
	DB	022H
	DB	07dH
	DB	02dH
	DB	022H
	DB	07dH
	DB	02dH
	DB	022H
	DB	07dH
	DB	02dH
	DB	022H
	DB	07dH
	DB	02dH
	DB	022H
	DB	07dH
	DB	02dH
	DB	022H
	DB	07dH
	DB	02dH
	DB	022H
	DB	07dH
	DB	02dH
	DB	022H
	DB	07dH
	DB	02dH
	DB	022H
	DB	07dH
	DB	02dH
	DB	022H
	DB	07dH
	DB	02dH
	DB	022H
	DB	07dH
	DB	02dH
	DB	022H
	DB	07dH
	DB	02dH
	DB	022H
	DB	07dH
	DB	02dH
	DB	022H
	DB	07dH
	DB	02dH
	DB	022H
	DB	07dH
	DB	02dH
	DB	022H
	DB	07dH
	DB	02dH
	DB	022H
	DB	07dH
	DB	02dH
	DB	022H
	DB	07dH
	DB	02dH
	DB	022H
	DB	07dH
	DB	02dH
	DB	022H
	DB	07dH
	DB	02dH
	DB	022H
	DB	07dH
	DB	02dH
	DB	022H
	DB	07dH
	DB	02dH
	DB	022H
	DB	07dH
	DB	02dH
	DB	022H
	DB	07dH
	DB	02dH
	DB	022H
	DB	07dH
	DB	02dH
	DB	022H
	DB	07dH
	DB	02dH
	DB	022H
	DB	07dH
	DB	02dH
	DB	022H
	DB	07dH
	DB	02dH
	DB	022H
	DB	07dH
	DB	02dH
	DB	022H
	DB	07dH
	DB	02dH
	DB	022H
	DB	07dH
	DB	02dH
	DB	022H
	DB	07dH
	DB	02dH
	DB	022H
	DB	07dH
	DB	02dH
	DB	022H
	DB	07dH
	DB	02dH
	DB	022H
	DB	07dH
	DB	02dH
	DB	022H
	DB	07dH
	DB	02dH
	DB	022H
	DB	07dH
	DB	02dH
	DB	022H
	DB	07dH
	DB	02dH
	DB	022H
	DB	07dH
	DB	02dH
	DB	022H
	DB	07dH
	DB	02dH
	DB	022H
	DB	07dH
	DB	02dH
	DB	022H
	DB	07dH
	DB	02dH
	DB	022H
	DB	07dH
	DB	02dH
	DB	022H
	DB	07dH
	DB	02dH
	DB	022H
	DB	07dH
	DB	02dH
	DB	022H
	DB	07dH
	DB	02dH
	DB	022H
	DB	07dH
	DB	02dH
	DB	022H
	DB	07dH
	DB	02dH
	DB	022H
	DB	07dH
	DB	02dH
	DB	022H
	DB	07dH
	DB	02dH
	DB	022H
	DB	07dH
	DB	02dH
	DB	022H
	DB	07dH
	DB	02dH
	DB	022H
	DB	07dH
	DB	02dH
	DB	022H
	DB	07dH
	DB	02dH
	DB	022H
	DB	07dH
	DB	02dH
	DB	022H
	DB	07dH
	DB	02dH
	DB	022H
	DB	07dH
	DB	02dH
	DB	022H
	DB	07dH
	DB	02dH
	DB	022H
	DB	07dH
	DB	02dH
	DB	022H
	DB	07dH
	DB	02dH
	DB	022H
	DB	07dH
	DB	02dH
	DB	022H
	DB	07dH
	DB	02dH
	DB	022H
	DB	07dH
	DB	02dH
	DB	022H
	DB	07dH
	DB	02dH
	DB	022H
	DB	07dH
	DB	02dH
	DB	022H
	DB	07dH
	DB	02dH
	DB	022H
	DB	07dH
	DB	02dH
	DB	022H
	DB	07dH
	DB	02dH
	DB	022H
	DB	07dH
	DB	02dH
	DB	022H
	DB	07dH
	DB	02dH
	DB	022H
	DB	07dH
	DB	02dH
	DB	022H
	DB	07dH
	DB	02dH
	DB	022H
	DB	07dH
	DB	02dH
	DB	022H
	DB	07dH
	DB	02dH
	DB	022H
	DB	07dH
	DB	02dH
	DB	022H
	DB	07dH
	DB	02dH
	DB	022H
	DB	07dH
	DB	02dH
	DB	022H
	DB	07dH
	DB	02dH
	DB	022H
	DB	07dH
	DB	02dH
	DB	022H
	DB	07dH
	DB	02dH
	DB	022H
	DB	07dH
	DB	02dH
	DB	022H
	DB	07dH
	DB	02dH
	DB	022H
	DB	07dH
	DB	02dH
	DB	022H
	DB	07dH
	DB	02dH
	DB	022H
	DB	07dH
	DB	02dH
	DB	022H
	DB	07dH
	DB	02dH
	DB	022H
	DB	07dH
	DB	02dH
	DB	022H
	DB	07dH
	DB	02dH
	DB	022H
	DB	07dH
	DB	02dH
	DB	022H
	DB	07dH
	DB	02dH
	DB	022H
	DB	07dH
	DB	02dH
	DB	022H
	DB	07dH
	DB	02dH
	DB	022H
	DB	07dH
	DB	02dH
	DB	022H
	DB	07dH
	DB	02dH
	DB	022H
	DB	07dH
	DB	02dH
	DB	022H
	DB	07dH
	DB	02dH
	DB	022H
	DB	07dH
	DB	02dH
	DB	022H
	DB	07dH
	DB	02dH
	DB	022H
	DB	07dH
	DB	02dH
	DB	022H
	DB	07dH
	DB	02dH
	DB	022H
	DB	07dH
	DB	02dH
	DB	022H
	DB	07dH
	DB	02dH
	DB	022H
	DB	07dH
	DB	02dH
	DB	022H
	DB	07dH
	DB	02dH
	DB	022H
	DB	07dH
	DB	02dH
	DB	022H
	DB	07dH
	DB	02dH
	DB	022H
	DB	07dH
	DB	02dH
	DB	022H
	DB	07dH
	DB	02dH
	DB	022H
	DB	07dH
	DB	02dH
	DB	022H
	DB	07dH
	DB	02dH
	DB	022H
	DB	07dH
	DB	02dH
	DB	022H
	DB	07dH
	DB	02dH
	DB	022H
	DB	07dH
	DB	02dH
	DB	022H
	DB	07dH
	DB	02dH
	DB	022H
	DB	07dH
	DB	02dH
	DB	022H
	DB	07dH
	DB	02dH
	DB	022H
	DB	07dH
	DB	02dH
	DB	022H
	DB	07dH
	DB	02dH
	DB	022H
	DB	07dH
	DB	02dH
	DB	022H
	DB	07dH
	DB	02dH
	DB	022H
	DB	07dH
	DB	02dH
	DB	022H
	DB	07dH
	DB	02dH
	DB	022H
	DB	07dH
	DB	02dH
	DB	022H
	DB	07dH
	DB	02dH
	DB	022H
	DB	07dH
	DB	02dH
	DB	022H
	DB	07dH
	DB	02dH
	DB	022H
	DB	07dH
	DB	02dH
	DB	022H
	DB	07dH
	DB	02dH
	DB	022H
	DB	07dH
	DB	02dH
	DB	022H
	DB	07dH
	DB	02dH
	DB	022H
	DB	07dH
	DB	02dH
	DB	022H
	DB	07dH
	DB	02dH
	DB	022H
	DB	07dH
	DB	02dH
	DB	022H
	DB	07dH
	DB	02dH
	DB	022H
	DB	07dH
	DB	02dH
	DB	022H
	DB	07dH
	DB	02dH
	DB	022H
	DB	07dH
	DB	02dH
	DB	022H
	DB	07dH
	DB	02dH
	DB	022H
	DB	07dH
	DB	02dH
	DB	022H
	DB	07dH
	DB	02dH
	DB	022H
	DB	07dH
	DB	02dH
	DB	022H
	DB	07dH
	DB	02dH
	DB	022H
	DB	07dH
	DB	02dH
	DB	022H
	DB	07dH
	DB	02dH
	DB	022H
	DB	07dH
	DB	02dH
	DB	022H
	DB	07dH
	DB	02dH
	DB	022H
	DB	07dH
	DB	02dH
	DB	022H
	DB	07dH
	DB	02dH
	DB	022H
	DB	07dH
	DB	02dH
	DB	022H
	DB	07dH
	DB	02dH
	DB	022H
	DB	07dH
	DB	02dH
	DB	022H
	DB	07dH
	DB	02dH
	DB	022H
	DB	07dH
	DB	02dH
	DB	022H
	DB	07dH
	DB	02dH
	DB	022H
	DB	07dH
	DB	02dH
	DB	022H
	DB	07dH
	DB	02dH
	DB	022H
	DB	07dH
	DB	02dH
	DB	022H
	DB	07dH
	DB	02dH
	DB	022H
	DB	07dH
	DB	02dH
	DB	022H
	DB	07dH
	DB	02dH
	DB	022H
	DB	07dH
	DB	02dH
	DB	022H
	DB	07dH
	DB	02dH
	DB	022H
	DB	07dH
	DB	02dH
	DB	022H
	DB	07dH
	DB	02dH
	DB	022H
	DB	07dH
	DB	02dH
	DB	022H
	DB	07dH
	DB	02dH
	DB	022H
	DB	07dH
	DB	02dH
	DB	022H
	DB	07dH
	DB	02dH
	DB	022H
	DB	07dH
	DB	02dH
	DB	022H
	DB	07dH
	DB	02dH
	DB	022H
	DB	07dH
	DB	02dH
	DB	022H
	DB	07dH
	DB	02dH
	DB	022H
	DB	07dH
	DB	02dH
	DB	022H
	DB	07dH
	DB	02dH
	DB	022H
	DB	07dH
	DB	02dH
	DB	022H
	DB	07dH
	DB	02dH
	DB	022H
	DB	07dH
	DB	02dH
	DB	022H
	DB	07dH
	DB	02dH
	DB	022H
	DB	07dH
	DB	02dH
	DB	022H
	DB	07dH
	DB	02dH
	DB	022H
	DB	07dH
	DB	02dH
	DB	022H
	DB	07dH
	DB	02dH
	DB	022H
	DB	07dH
	DB	02dH
	DB	022H
	DB	07dH
	DB	02dH
	DB	022H
	DB	07dH
	DB	02dH
	DB	022H
	DB	07dH
	DB	02dH
	DB	022H
	DB	07dH
	DB	02dH
	DB	022H
	DB	07dH
	DB	02dH
	DB	022H
	DB	07dH
	DB	02dH
	DB	022H
	DB	07dH
	DB	02dH
	DB	022H
	DB	07dH
	DB	02dH
	DB	022H
	DB	07dH
	DB	02dH
	DB	022H
	DB	07dH
	DB	02dH
	DB	022H
	DB	07dH
	DB	02dH
	DB	022H
	DB	07dH
	DB	02dH
	DB	022H
	DB	07dH
	DB	02dH
	DB	022H
	DB	07dH
	DB	02dH
	DB	022H
	DB	07dH
	DB	02dH
	DB	022H
	DB	07dH
	DB	02dH
	DB	022H
	DB	07dH
	DB	02dH
	DB	022H
	DB	07dH
	DB	02dH
	DB	022H
	DB	07dH
	DB	02dH
	DB	022H
	DB	07dH
	DB	02dH
	DB	022H
	DB	07dH
	DB	02dH
	DB	022H
	DB	07dH
	DB	02dH
	DB	022H
	DB	07dH
	DB	02dH
	DB	022H
	DB	07dH
	DB	02dH
	DB	022H
	DB	07dH
	DB	02dH
	DB	022H
	DB	07dH
	DB	02dH
	DB	022H
	DB	07dH
	DB	02dH
	DB	022H
	DB	07dH
	DB	02dH
	DB	022H
	DB	07dH
	DB	02dH
	DB	022H
	DB	07dH
	DB	02dH
	DB	022H
	DB	07dH
	DB	02dH
	DB	022H
	DB	07dH
	DB	02dH
	DB	022H
	DB	07dH
	DB	02dH
	DB	022H
	DB	07dH
	DB	02dH
	DB	022H
	DB	07dH
	DB	02dH
	DB	022H
	DB	07dH
	DB	02dH
	DB	022H
	DB	07dH
	DB	02dH
	DB	022H
	DB	07dH
	DB	02dH
	DB	022H
	DB	07dH
	DB	02dH
	DB	022H
	DB	07dH
	DB	02dH
	DB	022H
	DB	07dH
	DB	02dH
	DB	022H
	DB	07dH
	DB	02dH
	DB	022H
	DB	07dH
	DB	02dH
	DB	022H
	DB	07dH
	DB	02dH
	DB	022H
	DB	07dH
	DB	02dH
	DB	022H
	DB	07dH
	DB	02dH
	DB	022H
	DB	07dH
	DB	02dH
	DB	022H
	DB	07dH
	DB	02dH
	DB	022H
	DB	07dH
	DB	02dH
	DB	022H
	DB	07dH
	DB	02dH
	DB	022H
	DB	07dH
	DB	02dH
	DB	022H
	DB	07dH
	DB	02dH
	DB	022H
	DB	07dH
	DB	02dH
	DB	022H
	DB	07dH
	DB	02dH
	DB	022H
	DB	07dH
	DB	02dH
	DB	022H
	DB	07dH
	DB	02dH
	DB	022H
	DB	07dH
	DB	02dH
	DB	022H
	DB	07dH
	DB	02dH
	DB	022H
	DB	07dH
	DB	02dH
	DB	022H
	DB	07dH
	DB	02dH
	DB	022H
	DB	07dH
	DB	02dH
	DB	022H
	DB	07dH
	DB	02dH
	DB	022H
	DB	07dH
	DB	02dH
	DB	022H
	DB	07dH
	DB	02dH
	DB	022H
	DB	07dH
	DB	02dH
	DB	022H
	DB	07dH
	DB	02dH
	DB	022H
	DB	07dH
	DB	02dH
	DB	022H
	DB	07dH
	DB	02dH
	DB	022H
	DB	07dH
	DB	02dH
	DB	022H
	DB	07dH
	DB	02dH
	DB	022H
	DB	07dH
	DB	02dH
	DB	022H
	DB	07dH
	DB	02dH
	DB	022H
	DB	07dH
	DB	02dH
	DB	022H
	DB	07dH
	DB	02dH
	DB	022H
	DB	07dH
	DB	02dH
	DB	022H
	DB	07dH
	DB	02dH
	DB	022H
	DB	07dH
	DB	02dH
	DB	022H
	DB	07dH
	DB	02dH
	DB	022H
	DB	07dH
	DB	02dH
	DB	022H
	DB	07dH
	DB	02dH
	DB	022H
	DB	07dH
	DB	02dH
	DB	022H
	DB	07dH
	DB	02dH
	DB	022H
	DB	07dH
	DB	02dH
	DB	022H
	DB	07dH
	DB	02dH
	DB	022H
	DB	07dH
	DB	02dH
	DB	022H
	DB	07dH
	DB	02dH
	DB	022H
	DB	07dH
	DB	02dH
	DB	022H
	DB	07dH
	DB	02dH
	DB	022H
	DB	07dH
	DB	02dH
	DB	022H
	DB	07dH
	DB	02dH
	DB	022H
	DB	07dH
	DB	02dH
	DB	022H
	DB	07dH
	DB	02dH
	DB	022H
	DB	07dH
	DB	02dH
	DB	022H
	DB	07dH
	DB	02dH
	DB	022H
	DB	07dH
	DB	02dH
	DB	022H
	DB	07dH
	DB	02dH
	DB	022H
	DB	07dH
	DB	02dH
	DB	022H
	DB	07dH
	DB	02dH
	DB	022H
	DB	07dH
	DB	02dH
	DB	022H
	DB	07dH
	DB	02dH
	DB	022H
	DB	07dH
	DB	02dH
	DB	022H
	DB	07dH
	DB	02dH
	DB	022H
	DB	07dH
	DB	02dH
	DB	022H
	DB	07dH
	DB	02dH
	DB	022H
	DB	07dH
	DB	02dH
	DB	022H
	DB	07dH
	DB	02dH
	DB	022H
	DB	07dH
	DB	02dH
	DB	022H
	DB	07dH
	DB	02dH
	DB	022H
	DB	07dH
	DB	02dH
	DB	022H
	DB	07dH
	DB	02dH
	DB	022H
	DB	07dH
	DB	02dH
	DB	022H
	DB	07dH
	DB	02dH
	DB	022H
	DB	07dH
	DB	02dH
	DB	022H
	DB	07dH
	DB	02dH
	DB	022H
	DB	07dH
	DB	02dH
	DB	022H
	DB	07dH
	DB	02dH
	DB	022H
	DB	07dH
	DB	02dH
	DB	022H
	DB	07dH
	DB	02dH
	DB	022H
	DB	07dH
	DB	02dH
	DB	022H
	DB	07dH
	DB	02dH
	DB	022H
	DB	07dH
	DB	02dH
	DB	022H
	DB	07dH
	DB	02dH
	DB	022H
	DB	07dH
	DB	02dH
	DB	022H
	DB	07dH
	DB	02dH
	DB	022H
	DB	07dH
	DB	02dH
	DB	022H
	DB	07dH
	DB	02dH
	DB	022H
	DB	07dH
	DB	02dH
	DB	022H
	DB	07dH
	DB	02dH
	DB	022H
	DB	07dH
	DB	02dH
	DB	022H
	DB	07dH
	DB	02dH
	DB	022H
	DB	07dH
	DB	02dH
	DB	022H
	DB	07dH
	DB	02dH
	DB	022H
	DB	07dH
	DB	02dH
	DB	022H
	DB	07dH
	DB	02dH
	DB	022H
	DB	07dH
	DB	02dH
	DB	022H
	DB	07dH
	DB	02dH
	DB	022H
	DB	07dH
	DB	02dH
	DB	022H
	DB	07dH
	DB	02dH
	DB	022H
	DB	07dH
	DB	02dH
	DB	022H
	DB	07dH
	DB	02dH
	DB	022H
	DB	07dH
	DB	02dH
	DB	022H
	DB	07dH
	DB	02dH
	DB	022H
	DB	07dH
	DB	02dH
	DB	022H
	DB	07dH
	DB	02dH
	DB	022H
	DB	07dH
	DB	02dH
	DB	022H
	DB	07dH
	DB	02dH
	DB	022H
	DB	07dH
	DB	02dH
	DB	022H
	DB	07dH
	DB	02dH
	DB	022H
	DB	07dH
	DB	02dH
	DB	022H
	DB	07dH
	DB	02dH
	DB	022H
	DB	07dH
	DB	02dH
	DB	022H
	DB	07dH
	DB	02dH
	DB	022H
	DB	07dH
	DB	02dH
	DB	022H
	DB	07dH
	DB	02dH
	DB	022H
	DB	07dH
	DB	02dH
	DB	022H
	DB	07dH
	DB	02dH
	DB	022H
	DB	07dH
	DB	02dH
	DB	022H
	DB	07dH
	DB	02dH
	DB	022H
	DB	07dH
	DB	02dH
	DB	022H
	DB	07dH
	DB	02dH
	DB	022H
	DB	07dH
	DB	02dH
	DB	022H
	DB	07dH
	DB	02dH
	DB	022H
	DB	07dH
	DB	02dH
	DB	022H
	DB	07dH
	DB	02dH
	DB	022H
	DB	07dH
	DB	02dH
	DB	022H
	DB	07dH
	DB	02dH
	DB	022H
	DB	07dH
	DB	02dH
	DB	022H
	DB	07dH
	DB	02dH
	DB	022H
	DB	07dH
	DB	02dH
	DB	022H
	DB	07dH
	DB	02dH
	DB	022H
	DB	07dH
	DB	02dH
	DB	022H
	DB	07dH
	DB	02dH
	DB	022H
	DB	07dH
	DB	02dH
	DB	022H
	DB	07dH
	DB	02dH
	DB	022H
	DB	07dH
	DB	02dH
	DB	022H
	DB	07dH
	DB	02dH
	DB	022H
	DB	07dH
	DB	02dH
	DB	022H
	DB	07dH
	DB	02dH
	DB	022H
	DB	07dH
	DB	02dH
	DB	022H
	DB	07dH
	DB	02dH
	DB	022H
	DB	07dH
	DB	02dH
	DB	022H
	DB	07dH
	DB	02dH
	DB	022H
	DB	07dH
	DB	02dH
	DB	022H
	DB	07dH
	DB	02dH
	DB	022H
	DB	07dH
	DB	02dH
	DB	022H
	DB	07dH
	DB	02dH
	DB	022H
	DB	07dH
	DB	02dH
	DB	022H
	DB	07dH
	DB	02dH
	DB	022H
	DB	07dH
	DB	02dH
	DB	022H
	DB	07dH
	DB	02dH
	DB	022H
	DB	07dH
	DB	02dH
	DB	022H
	DB	07dH
	DB	02dH
	DB	022H
	DB	07dH
	DB	02dH
	DB	022H
	DB	07dH
	DB	02dH
	DB	022H
	DB	07dH
	DB	02dH
	DB	022H
	DB	07dH
	DB	02dH
	DB	022H
	DB	07dH
	DB	02dH
	DB	022H
	DB	07dH
	DB	02dH
	DB	022H
	DB	07dH
	DB	02dH
	DB	022H
	DB	07dH
	DB	02dH
	DB	022H
	DB	07dH
	DB	02dH
	DB	022H
	DB	07dH
	DB	02dH
	DB	022H
	DB	07dH
	DB	02dH
	DB	022H
	DB	07dH
	DB	02dH
	DB	022H
	DB	07dH
	DB	02dH
	DB	022H
	DB	07dH
	DB	02dH
	DB	022H
	DB	07dH
	DB	02dH
	DB	022H
	DB	07dH
	DB	02dH
	DB	022H
	DB	07dH
	DB	02dH
	DB	022H
	DB	07dH
	DB	02dH
	DB	022H
	DB	07dH
	DB	02dH
	DB	022H
	DB	07dH
	DB	02dH
	DB	022H
	DB	07dH
	DB	02dH
	DB	022H
	DB	07dH
	DB	02dH
	DB	022H
	DB	07dH
	DB	02dH
	DB	022H
	DB	07dH
	DB	02dH
	DB	022H
	DB	07dH
	DB	02dH
	DB	022H
	DB	07dH
	DB	02dH
	DB	022H
	DB	07dH
	DB	02dH
	DB	022H
	DB	07dH
	DB	02dH
	DB	022H
	DB	07dH
	DB	02dH
	DB	022H
	DB	07dH
	DB	02dH
	DB	022H
	DB	07dH
	DB	02dH
	DB	022H
	DB	07dH
	DB	02dH
	DB	022H
	DB	07dH
	DB	02dH
	DB	022H
	DB	07dH
	DB	02dH
	DB	022H
	DB	07dH
	DB	02dH
	DB	022H
	DB	07dH
	DB	02dH
	DB	022H
	DB	07dH
	DB	02dH
	DB	022H
	DB	07dH
	DB	02dH
	DB	022H
	DB	07dH
	DB	02dH
	DB	022H
	DB	07dH
	DB	02dH
	DB	022H
	DB	07dH
	DB	02dH
	DB	022H
	DB	07dH
	DB	02dH
	DB	022H
	DB	07dH
	DB	02dH
	DB	022H
	DB	07dH
	DB	02dH
	DB	022H
	DB	07dH
	DB	02dH
	DB	022H
	DB	07dH
	DB	02dH
	DB	022H
	DB	07dH
	DB	02dH
	DB	022H
	DB	07dH
	DB	02dH
	DB	022H
	DB	07dH
	DB	02dH
	DB	022H
	DB	07dH
	DB	02dH
	DB	022H
	DB	07dH
	DB	02dH
	DB	022H
	DB	07dH
	DB	02dH
	DB	022H
	DB	07dH
	DB	02dH
	DB	022H
	DB	07dH
	DB	02dH
	DB	022H
	DB	07dH
	DB	02dH
	DB	022H
	DB	07dH
	DB	02dH
	DB	022H
	DB	07dH
	DB	02dH
	DB	022H
	DB	07dH
	DB	02dH
	DB	022H
	DB	07dH
	DB	02dH
	DB	022H
	DB	07dH
	DB	02dH
	DB	022H
	DB	07dH
	DB	02dH
	DB	022H
	DB	07dH
	DB	02dH
	DB	022H
	DB	07dH
	DB	02dH
	DB	022H
	DB	07dH
	DB	02dH
	DB	022H
	DB	07dH
	DB	02dH
	DB	022H
	DB	07dH
	DB	02dH
	DB	022H
	DB	07dH
	DB	02dH
	DB	022H
	DB	07dH
	DB	02dH
	DB	022H
	DB	07dH
	DB	02dH
	DB	022H
	DB	07dH
	DB	02dH
	DB	022H
	DB	07dH
	DB	02dH
	DB	022H
	DB	07dH
	DB	02dH
	DB	022H
	DB	07dH
	DB	02dH
	DB	022H
	DB	07dH
	DB	02dH
	DB	022H
	DB	07dH
	DB	02dH
	DB	022H
	DB	07dH
	DB	02dH
	DB	022H
	DB	07dH
	DB	02dH
	DB	022H
	DB	07dH
	DB	02dH
	DB	022H
	DB	07dH
	DB	02dH
	DB	022H
	DB	07dH
	DB	02dH
	DB	022H
	DB	07dH
	DB	02dH
	DB	022H
	DB	07dH
	DB	02dH
	DB	022H
	DB	07dH
	DB	02dH
	DB	022H
	DB	07dH
	DB	02dH
	DB	022H
	DB	07dH
	DB	02dH
	DB	022H
	DB	07dH
	DB	02dH
	DB	022H
	DB	07dH
	DB	02dH
	DB	022H
	DB	07dH
	DB	02dH
	DB	022H
	DB	07dH
	DB	02dH
	DB	022H
	DB	07dH
	DB	02dH
	DB	022H
	DB	07dH
	DB	02dH
	DB	022H
	DB	07dH
	DB	02dH
	DB	022H
	DB	07dH
	DB	02dH
	DB	022H
	DB	07dH
	DB	02dH
	DB	022H
	DB	07dH
	DB	02dH
	DB	022H
	DB	07dH
	DB	02dH
	DB	022H
	DB	07dH
	DB	02dH
	DB	022H
	DB	07dH
	DB	02dH
	DB	022H
	DB	07dH
	DB	02dH
	DB	022H
	DB	07dH
	DB	02dH
	DB	022H
	DB	07dH
	DB	02dH
	DB	022H
	DB	07dH
	DB	02dH
	DB	022H
	DB	07dH
	DB	02dH
	DB	022H
	DB	07dH
	DB	02dH
	DB	022H
	DB	07dH
	DB	02dH
	DB	022H
	DB	07dH
	DB	02dH
	DB	022H
	DB	07dH
	DB	02dH
	DB	022H
	DB	07dH
	DB	02dH
	DB	022H
	DB	07dH
	DB	02dH
	DB	022H
	DB	07dH
	DB	02dH
	DB	022H
	DB	07dH
	DB	02dH
	DB	022H
	DB	07dH
	DB	02dH
	DB	022H
	DB	07dH
	DB	02dH
	DB	022H
	DB	07dH
	DB	02dH
	DB	022H
	DB	07dH
	DB	02dH
	DB	022H
	DB	07dH
	DB	02dH
	DB	022H
	DB	07dH
	DB	02dH
	DB	022H
	DB	07dH
	DB	02dH
	DB	022H
	DB	07dH
	DB	02dH
	DB	022H
	DB	07dH
	DB	02dH
	DB	022H
	DB	07dH
	DB	02dH
	DB	022H
	DB	07dH
	DB	02dH
	DB	022H
	DB	07dH
	DB	02dH
	DB	022H
	DB	07dH
	DB	02dH
	DB	022H
	DB	07dH
	DB	02dH
	DB	022H
	DB	07dH
	DB	02dH
	DB	022H
	DB	07dH
	DB	02dH
	DB	022H
	DB	07dH
	DB	02dH
	DB	022H
	DB	07dH
	DB	02dH
	DB	022H
	DB	07dH
	DB	02dH
	DB	022H
	DB	07dH
	DB	02dH
	DB	022H
	DB	07dH
	DB	02dH
	DB	022H
	DB	07dH
	DB	02dH
	DB	022H
	DB	07dH
	DB	02dH
	DB	022H
	DB	07dH
	DB	02dH
	DB	022H
	DB	07dH
	DB	02dH
	DB	022H
	DB	07dH
	DB	02dH
	DB	022H
	DB	07dH
	DB	02dH
	DB	022H
	DB	07dH
	DB	02dH
	DB	022H
	DB	07dH
	DB	02dH
	DB	022H
	DB	07dH
	DB	02dH
	DB	022H
	DB	07dH
	DB	02dH
	DB	022H
	DB	07dH
	DB	02dH
	DB	022H
	DB	07dH
	DB	02dH
	DB	022H
	DB	07dH
	DB	02dH
	DB	022H
	DB	07dH
	DB	02dH
	DB	022H
	DB	07dH
	DB	02dH
	DB	022H
	DB	07dH
	DB	02dH
	DB	022H
	DB	07dH
	DB	02dH
	DB	022H
	DB	07dH
	DB	02dH
	DB	022H
	DB	07dH
	DB	02dH
	DB	022H
	DB	07dH
	DB	02dH
	DB	022H
	DB	07dH
	DB	02dH
	DB	022H
	DB	07dH
	DB	02dH
	DB	022H
	DB	07dH
	DB	02dH
	DB	022H
	DB	07dH
	DB	02dH
	DB	022H
	DB	07dH
	DB	02dH
	DB	022H
	DB	07dH
	DB	02dH
	DB	022H
	DB	07dH
	DB	02dH
	DB	022H
	DB	07dH
	DB	02dH
	DB	022H
	DB	07dH
	DB	02dH
	DB	022H
	DB	07dH
	DB	02dH
	DB	022H
	DB	07dH
	DB	02dH
	DB	022H
	DB	07dH
	DB	02dH
	DB	022H
	DB	07dH
	DB	02dH
	DB	022H
	DB	07dH
	DB	02dH
	DB	022H
	DB	07dH
	DB	02dH
	DB	022H
	DB	07dH
	DB	02dH
	DB	022H
	DB	07dH
	DB	02dH
	DB	022H
	DB	07dH
	DB	02dH
	DB	022H
	DB	07dH
	DB	02dH
	DB	022H
	DB	07dH
	DB	02dH
	DB	022H
	DB	07dH
	DB	02dH
	DB	022H
	DB	07dH
	DB	02dH
	DB	022H
	DB	07dH
	DB	02dH
	DB	022H
	DB	07dH
	DB	02dH
	DB	022H
	DB	07dH
	DB	02dH
	DB	022H
	DB	07dH
	DB	02dH
	DB	022H
	DB	07dH
	DB	02dH
	DB	022H
	DB	07dH
	DB	02dH
	DB	022H
	DB	07dH
	DB	02dH
	DB	022H
	DB	07dH
	DB	02dH
	DB	022H
	DB	07dH
	DB	02dH
	DB	022H
	DB	07dH
	DB	02dH
	DB	022H
	DB	07dH
	DB	02dH
	DB	022H
	DB	07dH
	DB	02dH
	DB	022H
	DB	07dH
	DB	02dH
	DB	022H
	DB	07dH
	DB	02dH
	DB	022H
	DB	07dH
	DB	02dH
	DB	022H
	DB	07dH
	DB	02dH
	DB	022H
	DB	07dH
	DB	02dH
	DB	022H
	DB	07dH
	DB	02dH
	DB	022H
	DB	07dH
	DB	02dH
	DB	022H
	DB	07dH
	DB	02dH
	DB	022H
	DB	07dH
	DB	02dH
	DB	022H
	DB	07dH
	DB	02dH
	DB	022H
	DB	07dH
	DB	02dH
	DB	022H
	DB	07dH
	DB	02dH
	DB	022H
	DB	07dH
	DB	02dH
	DB	022H
	DB	07dH
	DB	02dH
	DB	022H
	DB	07dH
	DB	02dH
	DB	022H
	DB	07dH
	DB	02dH
	DB	022H
	DB	07dH
	DB	02dH
	DB	022H
	DB	07dH
	DB	02dH
	DB	022H
	DB	07dH
	DB	02dH
	DB	022H
	DB	07dH
	DB	02dH
	DB	022H
	DB	07dH
	DB	02dH
	DB	022H
	DB	07dH
	DB	02dH
	DB	022H
	DB	07dH
	DB	02dH
	DB	022H
	DB	07dH
	DB	02dH
	DB	022H
	DB	07dH
	DB	02dH
	DB	022H
	DB	07dH
	DB	02dH
	DB	022H
	DB	07dH
	DB	02dH
	DB	022H
	DB	07dH
	DB	02dH
	DB	022H
	DB	07dH
	DB	02dH
	DB	022H
	DB	07dH
	DB	02dH
	DB	022H
	DB	07dH
	DB	02dH
	DB	022H
	DB	07dH
	DB	02dH
	DB	022H
	DB	07dH
	DB	02dH
	DB	022H
	DB	07dH
	DB	02dH
	DB	022H
	DB	07dH
	DB	02dH
	DB	022H
	DB	07dH
	DB	02dH
	DB	022H
	DB	07dH
	DB	02dH
	DB	022H
	DB	07dH
	DB	02dH
	DB	022H
	DB	07dH
	DB	02dH
	DB	022H
	DB	07dH
	DB	02dH
	DB	022H
	DB	07dH
	DB	02dH
	DB	022H
	DB	07dH
	DB	02dH
	DB	022H
	DB	07dH
	DB	02dH
	DB	022H
	DB	07dH
	DB	02dH
	DB	022H
	DB	07dH
	DB	02dH
	DB	022H
	DB	07dH
	DB	02dH
	DB	022H
	DB	07dH
	DB	02dH
	DB	022H
	DB	07dH
	DB	02dH
	DB	022H
	DB	07dH
	DB	02dH
	DB	022H
	DB	07dH
	DB	02dH
	DB	022H
	DB	07dH
	DB	02dH
	DB	022H
	DB	07dH
	DB	02dH
	DB	022H
	DB	07dH
	DB	02dH
	DB	022H
	DB	07dH
	DB	02dH
	DB	022H
	DB	07dH
	DB	02dH
	DB	022H
	DB	07dH
	DB	02dH
	DB	022H
	DB	07dH
	DB	02dH
	DB	022H
	DB	07dH
	DB	02dH
	DB	022H
	DB	07dH
	DB	02dH
	DB	022H
	DB	07dH
	DB	02dH
	DB	022H
	DB	07dH
	DB	02dH
	DB	022H
	DB	07dH
	DB	02dH
	DB	022H
	DB	07dH
	DB	02dH
	DB	022H
	DB	07dH
	DB	02dH
	DB	022H
	DB	07dH
	DB	02dH
	DB	022H
	DB	07dH
	DB	02dH
	DB	022H
	DB	07dH
	DB	02dH
	DB	022H
	DB	07dH
	DB	02dH
	DB	022H
	DB	07dH
	DB	02dH
	DB	022H
	DB	07dH
	DB	02dH
	DB	022H
	DB	07dH
	DB	02dH
	DB	022H
	DB	07dH
	DB	02dH
	DB	022H
	DB	07dH
	DB	02dH
	DB	022H
	DB	07dH
	DB	02dH
	DB	022H
	DB	07dH
	DB	02dH
	DB	022H
	DB	07dH
	DB	02dH
	DB	022H
	DB	07dH
	DB	02dH
	DB	022H
	DB	07dH
	DB	02dH
	DB	022H
	DB	07dH
	DB	02dH
	DB	022H
	DB	07dH
	DB	02dH
	DB	022H
	DB	07dH
	DB	02dH
	DB	022H
	DB	07dH
	DB	02dH
	DB	022H
	DB	07dH
	DB	02dH
	DB	022H
	DB	07dH
	DB	02dH
	DB	022H
	DB	07dH
	DB	02dH
	DB	022H
	DB	07dH
	DB	02dH
	DB	022H
	DB	07dH
	DB	02dH
	DB	022H
	DB	07dH
	DB	02dH
	DB	022H
	DB	07dH
	DB	02dH
	DB	022H
	DB	07dH
	DB	02dH
	DB	022H
	DB	07dH
	DB	02dH
	DB	022H
	DB	07dH
	DB	02dH
	DB	022H
	DB	07dH
	DB	02dH
	DB	022H
	DB	07dH
	DB	02dH
	DB	022H
	DB	07dH
	DB	02dH
	DB	022H
	DB	07dH
	DB	02dH
	DB	022H
	DB	07dH
	DB	02dH
	DB	022H
	DB	07dH
	DB	02dH
	DB	022H
	DB	07dH
	DB	02dH
	DB	022H
	DB	07dH
	DB	02dH
	DB	022H
	DB	07dH
	DB	02dH
	DB	022H
	DB	07dH
	DB	02dH
	DB	022H
	DB	07dH
	DB	02dH
	DB	022H
	DB	07dH
	DB	02dH
	DB	022H
	DB	07dH
	DB	02dH
	DB	022H
	DB	07dH
	DB	02dH
	DB	022H
	DB	07dH
	DB	02dH
	DB	022H
	DB	07dH
	DB	02dH
	DB	022H
	DB	07dH
	DB	02dH
	DB	022H
	DB	07dH
	DB	02dH
	DB	022H
	DB	07dH
	DB	02dH
	DB	022H
	DB	07dH
	DB	02dH
	DB	022H
	DB	07dH
	DB	02dH
	DB	022H
	DB	07dH
	DB	02dH
	DB	022H
	DB	07dH
	DB	02dH
	DB	022H
	DB	07dH
	DB	02dH
	DB	022H
	DB	07dH
	DB	02dH
	DB	022H
	DB	07dH
	DB	02dH
	DB	022H
	DB	07dH
	DB	02dH
	DB	022H
	DB	07dH
	DB	02dH
	DB	022H
	DB	07dH
	DB	02dH
	DB	022H
	DB	07dH
	DB	02dH
	DB	022H
	DB	07dH
	DB	02dH
	DB	022H
	DB	07dH
	DB	02dH
	DB	022H
	DB	07dH
	DB	02dH
	DB	022H
	DB	07dH
	DB	02dH
	DB	022H
	DB	07dH
	DB	02dH
	DB	022H
	DB	07dH
	DB	02dH
	DB	022H
	DB	07dH
	DB	02dH
	DB	022H
	DB	07dH
	DB	02dH
	DB	022H
	DB	07dH
	DB	02dH
	DB	022H
	DB	07dH
	DB	02dH
	DB	022H
	DB	07dH
	DB	02dH
	DB	022H
	DB	07dH
	DB	02dH
	DB	022H
	DB	07dH
	DB	02dH
	DB	022H
	DB	07dH
	DB	02dH
	DB	022H
	DB	07dH
	DB	02dH
	DB	022H
	DB	07dH
	DB	02dH
	DB	022H
	DB	07dH
	DB	02dH
	DB	022H
	DB	07dH
	DB	02dH
	DB	022H
	DB	07dH
	DB	02dH
	DB	022H
	DB	07dH
	DB	02dH
	DB	022H
	DB	07dH
	DB	02dH
	DB	022H
	DB	07dH
	DB	02dH
	DB	022H
	DB	07dH
	DB	02dH
	DB	022H
	DB	07dH
	DB	02dH
	DB	022H
	DB	07dH
	DB	02dH
	DB	022H
	DB	07dH
	DB	02dH
	DB	022H
	DB	07dH
	DB	02dH
	DB	022H
	DB	07dH
	DB	02dH
	DB	022H
	DB	07dH
	DB	02dH
	DB	022H
	DB	07dH
	DB	02dH
	DB	022H
	DB	07dH
	DB	02dH
	DB	022H
	DB	07dH
	DB	02dH
	DB	022H
	DB	07dH
	DB	02dH
	DB	022H
	DB	07dH
	DB	02dH
	DB	022H
	DB	07dH
	DB	02dH
	DB	022H
	DB	07dH
	DB	02dH
	DB	022H
	DB	07dH
	DB	02dH
	DB	022H
	DB	07dH
	DB	02dH
	DB	022H
	DB	07dH
	DB	02dH
	DB	022H
	DB	07dH
	DB	02dH
	DB	022H
	DB	07dH
	DB	02dH
	DB	022H
	DB	07dH
	DB	02dH
	DB	022H
	DB	07dH
	DB	02dH
	DB	022H
	DB	07dH
	DB	02dH
	DB	022H
	DB	07dH
	DB	02dH
	DB	022H
	DB	07dH
	DB	02dH
	DB	022H
	DB	07dH
	DB	02dH
	DB	022H
	DB	07dH
	DB	02dH
	DB	022H
	DB	07dH
	DB	02dH
	DB	022H
	DB	07dH
	DB	02dH
	DB	022H
	DB	07dH
	DB	02dH
	DB	022H
	DB	07dH
	DB	02dH
	DB	022H
	DB	07dH
	DB	02dH
	DB	022H
	DB	07dH
	DB	02dH
	DB	022H
	DB	07dH
	DB	02dH
	DB	022H
	DB	07dH
	DB	02dH
	DB	022H
	DB	07dH
	DB	02dH
	DB	022H
	DB	07dH
	DB	02dH
	DB	022H
	DB	07dH
	DB	02dH
	DB	022H
	DB	07dH
	DB	02dH
	DB	022H
	DB	07dH
	DB	02dH
	DB	022H
	DB	07dH
	DB	02dH
	DB	022H
	DB	07dH
	DB	02dH
	DB	022H
	DB	07dH
	DB	02dH
	DB	022H
	DB	07dH
	DB	02dH
	DB	022H
	DB	07dH
	DB	02dH
	DB	022H
	DB	07dH
	DB	02dH
	DB	022H
	DB	07dH
	DB	02dH
	DB	022H
	DB	07dH
	DB	02dH
	DB	022H
	DB	07dH
	DB	02dH
	DB	022H
	DB	07dH
	DB	02dH
	DB	022H
	DB	07dH
	DB	02dH
	DB	022H
	DB	07dH
	DB	02dH
	DB	022H
	DB	07dH
	DB	02dH
	DB	022H
	DB	07dH
	DB	02dH
	DB	022H
	DB	07dH
	DB	02dH
	DB	022H
	DB	07dH
	DB	02dH
	DB	022H
	DB	07dH
	DB	02dH
	DB	022H
	DB	07dH
	DB	02dH
	DB	022H
	DB	07dH
	DB	02dH
	DB	022H
	DB	07dH
	DB	02dH
	DB	022H
	DB	07dH
	DB	02dH
	DB	022H
	DB	07dH
	DB	02dH
	DB	022H
	DB	07dH
	DB	02dH
	DB	022H
	DB	07dH
	DB	02dH
	DB	022H
	DB	07dH
	DB	02dH
	DB	022H
	DB	07dH
	DB	02dH
	DB	022H
	DB	07dH
	DB	02dH
	DB	022H
	DB	07dH
	DB	02dH
	DB	022H
	DB	07dH
	DB	02dH
	DB	022H
	DB	07dH
	DB	02dH
	DB	022H
	DB	07dH
	DB	02dH
	DB	022H
	DB	07dH
	DB	02dH
	DB	022H
	DB	07dH
	DB	02dH
	DB	022H
	DB	07dH
	DB	02dH
	DB	022H
	DB	07dH
	DB	02dH
	DB	022H
	DB	07dH
	DB	02dH
	DB	022H
	DB	07dH
	DB	02dH
	DB	022H
	DB	07dH
	DB	02dH
	DB	022H
	DB	07dH
	DB	02dH
	DB	022H
	DB	07dH
	DB	02dH
	DB	022H
	DB	07dH
	DB	02dH
	DB	022H
	DB	07dH
	DB	02dH
	DB	022H
	DB	07dH
	DB	02dH
	DB	022H
	DB	07dH
	DB	02dH
	DB	022H
	DB	07dH
	DB	02dH
	DB	022H
	DB	07dH
	DB	02dH
	DB	022H
	DB	07dH
	DB	02dH
	DB	022H
	DB	07dH
	DB	02dH
	DB	022H
	DB	07dH
	DB	02dH
	DB	022H
	DB	07dH
	DB	02dH
	DB	022H
	DB	07dH
	DB	02dH
	DB	022H
	DB	07dH
	DB	02dH
	DB	022H
	DB	07dH
	DB	02dH
	DB	022H
	DB	07dH
	DB	02dH
	DB	022H
	DB	07dH
	DB	02dH
	DB	022H
	DB	07dH
	DB	02dH
	DB	022H
	DB	07dH
	DB	02dH
	DB	022H
	DB	07dH
	DB	02dH
	DB	022H
	DB	07dH
	DB	02dH
	DB	022H
	DB	07dH
	DB	02dH
	DB	022H
	DB	07dH
	DB	02dH
	DB	022H
	DB	07dH
	DB	02dH
	DB	022H
	DB	07dH
	DB	02dH
	DB	022H
	DB	07dH
	DB	02dH
	DB	022H
	DB	07dH
	DB	02dH
	DB	022H
	DB	07dH
	DB	02dH
	DB	022H
	DB	07dH
	DB	02dH
	DB	022H
	DB	07dH
	DB	02dH
	DB	022H
	DB	07dH
	DB	02dH
	DB	022H
	DB	07dH
	DB	02dH
	DB	022H
	DB	07dH
	DB	02dH
	DB	022H
	DB	07dH
	DB	02dH
	DB	022H
	DB	07dH
	DB	02dH
	DB	022H
	DB	07dH
	DB	02dH
	DB	022H
	DB	07dH
	DB	02dH
	DB	022H
	DB	07dH
	DB	02dH
	DB	022H
	DB	07dH
	DB	02dH
	DB	022H
	DB	07dH
	DB	02dH
	DB	022H
	DB	07dH
	DB	02dH
	DB	022H
	DB	07dH
	DB	02dH
	DB	022H
	DB	07dH
	DB	02dH
	DB	022H
	DB	07dH
	DB	02dH
	DB	022H
	DB	07dH
	DB	02dH
	DB	022H
	DB	07dH
	DB	02dH
	DB	022H
	DB	07dH
	DB	02dH
	DB	022H
	DB	07dH
	DB	02dH
	DB	022H
	DB	07dH
	DB	02dH
	DB	022H
	DB	07dH
	DB	02dH
	DB	022H
	DB	07dH
	DB	02dH
	DB	022H
	DB	07dH
	DB	02dH
	DB	022H
	DB	07dH
	DB	02dH
	DB	022H
	DB	07dH
	DB	02dH
	DB	022H
	DB	07dH
	DB	02dH
	DB	022H
	DB	07dH
	DB	02dH
	DB	022H
	DB	07dH
	DB	02dH
	DB	022H
	DB	07dH
	DB	02dH
	DB	022H
	DB	07dH
	DB	02dH
	DB	022H
	DB	07dH
	DB	02dH
	DB	022H
	DB	07dH
	DB	02dH
	DB	022H
	DB	07dH
	DB	02dH
	DB	022H
	DB	07dH
	DB	02dH
	DB	022H
	DB	07dH
	DB	02dH
	DB	022H
	DB	07dH
	DB	02dH
	DB	022H
	DB	07dH
	DB	02dH
	DB	022H
	DB	07dH
	DB	02dH
	DB	022H
	DB	07dH
	DB	02dH
	DB	022H
	DB	07dH
	DB	02dH
	DB	022H
	DB	07dH
	DB	02dH
	DB	022H
	DB	07dH
	DB	02dH
	DB	022H
	DB	07dH
	DB	02dH
	DB	022H
	DB	07dH
	DB	02dH
	DB	022H
	DB	07dH
	DB	02dH
	DB	022H
	DB	07dH
	DB	02dH
	DB	022H
	DB	07dH
	DB	02dH
	DB	022H
	DB	07dH
	DB	02dH
	DB	022H
	DB	07dH
	DB	02dH
	DB	022H
	DB	07dH
	DB	02dH
	DB	022H
	DB	07dH
	DB	02dH
	DB	022H
	DB	07dH
	DB	02dH
	DB	022H
	DB	07dH
	DB	02dH
	DB	022H
	DB	07dH
	DB	02dH
	DB	022H
	DB	07dH
	DB	02dH
	DB	022H
	DB	07dH
	DB	02dH
	DB	022H
	DB	07dH
	DB	02dH
	DB	022H
	DB	07dH
	DB	02dH
	DB	022H
	DB	07dH
	DB	02dH
	DB	022H
	DB	07dH
	DB	02dH
	DB	022H
	DB	07dH
	DB	02dH
	DB	022H
	DB	07dH
	DB	02dH
	DB	022H
	DB	07dH
	DB	02dH
	DB	022H
	DB	07dH
	DB	02dH
	DB	022H
	DB	07dH
	DB	02dH
	DB	022H
	DB	07dH
	DB	02dH
	DB	022H
	DB	07dH
	DB	02dH
	DB	022H
	DB	07dH
	DB	02dH
	DB	022H
	DB	07dH
	DB	02dH
	DB	022H
	DB	07dH
	DB	02dH
	DB	022H
	DB	07dH
	DB	02dH
	DB	022H
	DB	07dH
	DB	02dH
	DB	022H
	DB	07dH
	DB	02dH
	DB	022H
	DB	07dH
	DB	02dH
	DB	022H
	DB	07dH
	DB	02dH
	DB	022H
	DB	07dH
	DB	02dH
	DB	022H
	DB	07dH
	DB	02dH
	DB	022H
	DB	07dH
	DB	02dH
	DB	022H
	DB	07dH
	DB	02dH
	DB	022H
	DB	07dH
	DB	02dH
	DB	022H
	DB	07dH
	DB	02dH
	DB	022H
	DB	07dH
	DB	02dH
	DB	022H
	DB	07dH
	DB	02dH
	DB	022H
	DB	07dH
	DB	02dH
	DB	022H
	DB	07dH
	DB	02dH
	DB	022H
	DB	07dH
	DB	02dH
	DB	022H
	DB	07dH
	DB	02dH
	DB	022H
	DB	07dH
	DB	02dH
	DB	022H
	DB	07dH
	DB	02dH
	DB	022H
	DB	07dH
	DB	02dH
	DB	022H
	DB	07dH
	DB	02dH
	DB	022H
	DB	07dH
	DB	02dH
	DB	022H
	DB	07dH
	DB	02dH
	DB	022H
	DB	07dH
	DB	02dH
	DB	022H
	DB	07dH
	DB	02dH
	DB	022H
	DB	07dH
	DB	02dH
	DB	022H
	DB	07dH
	DB	02dH
	DB	022H
	DB	07dH
	DB	02dH
	DB	022H
	DB	07dH
	DB	02dH
	DB	022H
	DB	07dH
	DB	02dH
	DB	022H
	DB	07dH
	DB	02dH
	DB	022H
	DB	07dH
	DB	02dH
	DB	022H
	DB	07dH
	DB	02dH
	DB	022H
	DB	07dH
	DB	02dH
	DB	022H
	DB	07dH
	DB	02dH
	DB	022H
	DB	07dH
	DB	02dH
	DB	022H
	DB	07dH
	DB	02dH
	DB	022H
	DB	07dH
	DB	02dH
	DB	022H
	DB	07dH
	DB	02dH
	DB	022H
	DB	07dH
	DB	02dH
	DB	022H
	DB	07dH
	DB	02dH
	DB	022H
	DB	07dH
	DB	02dH
	DB	022H
	DB	07dH
	DB	02dH
	DB	022H
	DB	07dH
	DB	02dH
	DB	022H
	DB	07dH
	DB	02dH
	DB	022H
	DB	07dH
	DB	02dH
	DB	022H
	DB	07dH
	DB	02dH
	DB	022H
	DB	07dH
	DB	02dH
	DB	022H
	DB	07dH
	DB	02dH
	DB	022H
	DB	07dH
	DB	02dH
	DB	022H
	DB	07dH
	DB	02dH
	DB	022H
	DB	07dH
	DB	02dH
	DB	022H
	DB	07dH
	DB	02dH
	DB	022H
	DB	07dH
	DB	02dH
	DB	022H
	DB	07dH
	DB	02dH
	DB	022H
	DB	07dH
	DB	02dH
	DB	022H
	DB	07dH
	DB	02dH
	DB	022H
	DB	07dH
	DB	02dH
	DB	022H
	DB	07dH
	DB	02dH
	DB	022H
	DB	07dH
	DB	02dH
	DB	022H
	DB	07dH
	DB	02dH
	DB	022H
	DB	07dH
	DB	02dH
	DB	022H
	DB	07dH
	DB	02dH
	DB	022H
	DB	07dH
	DB	02dH
	DB	022H
	DB	07dH
	DB	02dH
	DB	022H
	DB	07dH
	DB	02dH
	DB	022H
	DB	07dH
	DB	02dH
	DB	022H
	DB	07dH
	DB	02dH
	DB	022H
	DB	07dH
	DB	02dH
	DB	022H
	DB	07dH
	DB	02dH
	DB	022H
	DB	07dH
	DB	02dH
	DB	022H
	DB	07dH
	DB	02dH
	DB	022H
	DB	07dH
	DB	02dH
	DB	022H
	DB	07dH
	DB	02dH
	DB	022H
	DB	07dH
	DB	02dH
	DB	022H
	DB	07dH
	DB	02dH
	DB	022H
	DB	07dH
	DB	02dH
	DB	022H
	DB	07dH
	DB	02dH
	DB	022H
	DB	07dH
	DB	02dH
	DB	022H
	DB	07dH
	DB	02dH
	DB	022H
	DB	07dH
	DB	02dH
	DB	022H
	DB	07dH
	DB	02dH
	DB	022H
	DB	07dH
	DB	02dH
	DB	022H
	DB	07dH
	DB	02dH
	DB	022H
	DB	07dH
	DB	02dH
	DB	022H
	DB	07dH
	DB	02dH
	DB	022H
	DB	07dH
	DB	02dH
	DB	022H
	DB	07dH
	DB	02dH
	DB	022H
	DB	07dH
	DB	02dH
	DB	022H
	DB	07dH
	DB	02dH
	DB	022H
	DB	07dH
	DB	02dH
	DB	022H
	DB	07dH
	DB	02dH
	DB	022H
	DB	07dH
	DB	02dH
	DB	022H
	DB	07dH
	DB	02dH
	DB	022H
	DB	07dH
	DB	02dH
	DB	022H
	DB	07dH
	DB	02dH
	DB	022H
	DB	07dH
	DB	02dH
	DB	022H
	DB	07dH
	DB	02dH
	DB	022H
	DB	07dH
	DB	02dH
	DB	022H
	DB	07dH
	DB	02dH
	DB	022H
	DB	07dH
	DB	02dH
	DB	022H
	DB	07dH
	DB	02dH
	DB	022H
	DB	07dH
	DB	02dH
	DB	022H
	DB	07dH
	DB	02dH
	DB	022H
	DB	07dH
	DB	02dH
	DB	022H
	DB	07dH
	DB	02dH
	DB	022H
	DB	07dH
	DB	02dH
	DB	022H
	DB	07dH
	DB	02dH
	DB	022H
	DB	07dH
	DB	02dH
	DB	022H
	DB	07dH
	DB	02dH
	DB	022H
	DB	07dH
	DB	02dH
	DB	022H
	DB	07dH
	DB	02dH
	DB	022H
	DB	07dH
	DB	02dH
	DB	022H
	DB	07dH
	DB	02dH
	DB	022H
	DB	07dH
	DB	02dH
	DB	022H
	DB	07dH
	DB	02dH
	DB	022H
	DB	07dH
	DB	02dH
	DB	022H
	DB	07dH
	DB	02dH
	DB	022H
	DB	07dH
	DB	02dH
	DB	022H
	DB	07dH
	DB	02dH
	DB	022H
	DB	07dH
	DB	02dH
	DB	022H
	DB	07dH
	DB	02dH
	DB	022H
	DB	07dH
	DB	02dH
	DB	022H
	DB	07dH
	DB	02dH
	DB	022H
	DB	07dH
	DB	02dH
	DB	022H
	DB	07dH
	DB	02dH
	DB	022H
	DB	07dH
	DB	02dH
	DB	022H
	DB	07dH
	DB	02dH
	DB	022H
	DB	07dH
	DB	02dH
	DB	022H
	DB	07dH
	DB	02dH
	DB	022H
	DB	07dH
	DB	02dH
	DB	022H
	DB	07dH
	DB	02dH
	DB	022H
	DB	07dH
	DB	02dH
	DB	022H
	DB	07dH
	DB	02dH
	DB	022H
	DB	07dH
	DB	02dH
	DB	022H
	DB	07dH
	DB	02dH
	DB	022H
	DB	07dH
	DB	02dH
	DB	022H
	DB	07dH
	DB	02dH
	DB	022H
	DB	07dH
	DB	02dH
	DB	022H
	DB	07dH
	DB	02dH
	DB	022H
	DB	07dH
	DB	02dH
	DB	022H
	DB	07dH
	DB	02dH
	DB	022H
	DB	07dH
	DB	02dH
	DB	022H
	DB	07dH
	DB	02dH
	DB	022H
	DB	07dH
	DB	02dH
	DB	022H
	DB	07dH
	DB	02dH
	DB	022H
	DB	07dH
	DB	02dH
	DB	022H
	DB	07dH
	DB	02dH
	DB	022H
	DB	07dH
	DB	02dH
	DB	022H
	DB	07dH
	DB	02dH
	DB	022H
	DB	07dH
	DB	02dH
	DB	022H
	DB	07dH
	DB	02dH
	DB	022H
	DB	07dH
	DB	02dH
	DB	022H
	DB	07dH
	DB	02dH
	DB	022H
	DB	07dH
	DB	02dH
	DB	022H
	DB	07dH
	DB	02dH
	DB	022H
	DB	07dH
	DB	02dH
	DB	022H
	DB	07dH
	DB	02dH
	DB	022H
	DB	07dH
	DB	02dH
	DB	022H
	DB	07dH
	DB	02dH
	DB	022H
	DB	07dH
	DB	02dH
	DB	022H
	DB	07dH
	DB	02dH
	DB	022H
	DB	07dH
	DB	02dH
	DB	022H
	DB	07dH
	DB	02dH
	DB	022H
	DB	07dH
	DB	02dH
	DB	022H
	DB	07dH
	DB	02dH
	DB	022H
	DB	07dH
	DB	02dH
	DB	022H
	DB	07dH
	DB	02dH
	DB	022H
	DB	07dH
	DB	02dH
	DB	022H
	DB	07dH
	DB	02dH
	DB	022H
	DB	07dH
	DB	02dH
	DB	022H
	DB	07dH
	DB	02dH
	DB	022H
	DB	07dH
	DB	02dH
	DB	022H
	DB	07dH
	DB	02dH
	DB	022H
	DB	07dH
	DB	02dH
	DB	022H
	DB	07dH
	DB	02dH
	DB	022H
	DB	07dH
	DB	02dH
	DB	022H
	DB	07dH
	DB	02dH
	DB	022H
	DB	07dH
	DB	02dH
	DB	022H
	DB	07dH
	DB	02dH
	DB	022H
	DB	07dH
	DB	02dH
	DB	022H
	DB	07dH
	DB	02dH
	DB	022H
	DB	07dH
	DB	02dH
	DB	022H
	DB	07dH
	DB	02dH
	DB	022H
	DB	07dH
	DB	02dH
	DB	022H
	DB	07dH
	DB	02dH
	DB	022H
	DB	07dH
	DB	02dH
	DB	022H
	DB	07dH
	DB	02dH
	DB	022H
	DB	07dH
	DB	02dH
	DB	022H
	DB	07dH
	DB	02dH
	DB	022H
	DB	07dH
	DB	02dH
	DB	022H
	DB	07dH
	DB	02dH
	DB	022H
	DB	07dH
	DB	02dH
	DB	022H
	DB	07dH
	DB	02dH
	DB	022H
	DB	07dH
	DB	02dH
	DB	022H
	DB	07dH
	DB	02dH
	DB	022H
	DB	07dH
	DB	02dH
	DB	022H
	DB	07dH
	DB	02dH
	DB	022H
	DB	07dH
	DB	02dH
	DB	022H
	DB	07dH
	DB	02dH
	DB	022H
	DB	07dH
	DB	02dH
	DB	022H
	DB	07dH
	DB	02dH
	DB	022H
	DB	07dH
	DB	02dH
	DB	022H
	DB	07dH
	DB	02dH
	DB	022H
	DB	07dH
	DB	02dH
	DB	022H
	DB	07dH
	DB	02dH
	DB	022H
	DB	07dH
	DB	02dH
	DB	022H
	DB	07dH
	DB	02dH
	DB	022H
	DB	07dH
	DB	02dH
	DB	022H
	DB	07dH
	DB	02dH
	DB	022H
	DB	07dH
	DB	02dH
	DB	022H
	DB	07dH
	DB	02dH
	DB	022H
	DB	07dH
	DB	02dH
	DB	022H
	DB	07dH
	DB	02dH
	DB	022H
	DB	07dH
	DB	02dH
	DB	022H
	DB	07dH
	DB	02dH
	DB	022H
	DB	07dH
	DB	02dH
	DB	022H
	DB	07dH
	DB	02dH
	DB	022H
	DB	07dH
	DB	02dH
	DB	022H
	DB	07dH
	DB	02dH
	DB	022H
	DB	07dH
	DB	02dH
	DB	022H
	DB	07dH
	DB	02dH
	DB	022H
	DB	07dH
	DB	02dH
	DB	022H
	DB	07dH
	DB	02dH
	DB	022H
	DB	07dH
	DB	02dH
	DB	022H
	DB	07dH
	DB	02dH
	DB	022H
	DB	07dH
	DB	02dH
	DB	022H
	DB	07dH
	DB	02dH
	DB	022H
	DB	07dH
	DB	02dH
	DB	022H
	DB	07dH
	DB	02dH
	DB	022H
	DB	07dH
	DB	02dH
	DB	022H
	DB	07dH
	DB	02dH
	DB	022H
	DB	07dH
	DB	02dH
	DB	022H
	DB	07dH
	DB	02dH
	DB	022H
	DB	07dH
	DB	02dH
	DB	022H
	DB	07dH
	DB	02dH
	DB	022H
	DB	07dH
	DB	02dH
	DB	022H
	DB	07dH
	DB	02dH
	DB	022H
	DB	07dH
	DB	02dH
	DB	022H
	DB	07dH
	DB	02dH
	DB	022H
	DB	07dH
	DB	02dH
	DB	022H
	DB	07dH
	DB	02dH
	DB	022H
	DB	07dH
	DB	02dH
	DB	022H
	DB	07dH
	DB	02dH
	DB	022H
	DB	07dH
	DB	02dH
	DB	022H
	DB	07dH
	DB	02dH
	DB	022H
	DB	07dH
	DB	02dH
	DB	022H
	DB	07dH
	DB	02dH
	DB	022H
	DB	07dH
	DB	02dH
	DB	022H
	DB	07dH
	DB	02dH
	DB	022H
	DB	07dH
	DB	02dH
	DB	022H
	DB	07dH
	DB	02dH
	DB	022H
	DB	07dH
	DB	02dH
	DB	022H
	DB	07dH
	DB	02dH
	DB	022H
	DB	07dH
	DB	02dH
	DB	022H
	DB	07dH
	DB	02dH
	DB	022H
	DB	07dH
	DB	02dH
	DB	022H
	DB	07dH
	DB	02dH
	DB	022H
	DB	07dH
	DB	02dH
	DB	022H
	DB	07dH
	DB	02dH
	DB	022H
	DB	07dH
	DB	02dH
	DB	022H
	DB	07dH
	DB	02dH
	DB	022H
	DB	07dH
	DB	02dH
	DB	022H
	DB	07dH
	DB	02dH
	DB	022H
	DB	07dH
	DB	02dH
	DB	022H
	DB	07dH
	DB	02dH
	DB	022H
	DB	07dH
	DB	02dH
	DB	022H
	DB	07dH
	DB	02dH
	DB	022H
	DB	07dH
	DB	02dH
	DB	022H
	DB	07dH
	DB	02dH
	DB	022H
	DB	07dH
	DB	02dH
	DB	022H
	DB	07dH
	DB	02dH
	DB	022H
	DB	07dH
	DB	02dH
	DB	022H
	DB	07dH
	DB	02dH
	DB	022H
	DB	07dH
	DB	02dH
	DB	022H
	DB	07dH
	DB	02dH
	DB	022H
	DB	07dH
	DB	02dH
	DB	022H
	DB	07dH
	DB	02dH
	DB	022H
	DB	07dH
	DB	02dH
	DB	022H
	DB	07dH
	DB	02dH
	DB	022H
	DB	07dH
	DB	02dH
	DB	022H
	DB	07dH
	DB	02dH
	DB	022H
	DB	07dH
	DB	02dH
	DB	022H
	DB	07dH
	DB	02dH
	DB	022H
	DB	07dH
	DB	02dH
	DB	022H
	DB	07dH
	DB	02dH
	DB	022H
	DB	07dH
	DB	02dH
	DB	022H
	DB	07dH
	DB	02dH
	DB	022H
	DB	07dH
	DB	02dH
	DB	022H
	DB	07dH
	DB	02dH
	DB	022H
	DB	07dH
	DB	02dH
	DB	022H
	DB	07dH
	DB	02dH
	DB	022H
	DB	07dH
	DB	02dH
	DB	022H
	DB	07dH
	DB	02dH
	DB	022H
	DB	07dH
	DB	02dH
	DB	022H
	DB	07dH
	DB	02dH
	DB	022H
	DB	07dH
	DB	02dH
	DB	022H
	DB	07dH
	DB	02dH
	DB	022H
	DB	07dH
	DB	02dH
	DB	022H
	DB	07dH
	DB	02dH
	DB	022H
	DB	07dH
	DB	02dH
	DB	022H
	DB	07dH
	DB	02dH
	DB	022H
	DB	07dH
	DB	02dH
	DB	022H
	DB	07dH
	DB	02dH
	DB	022H
	DB	07dH
	DB	02dH
	DB	022H
	DB	07dH
	DB	02dH
	DB	022H
	DB	07dH
	DB	02dH
	DB	022H
	DB	07dH
	DB	02dH
	DB	022H
	DB	07dH
	DB	02dH
	DB	022H
	DB	07dH
	DB	02dH
	DB	022H
	DB	07dH
	DB	02dH
	DB	022H
	DB	07dH
	DB	02dH
	DB	022H
	DB	07dH
	DB	02dH
	DB	022H
	DB	07dH
	DB	02dH
	DB	022H
	DB	07dH
	DB	02dH
	DB	022H
	DB	07dH
	DB	02dH
	DB	022H
	DB	07dH
	DB	02dH
	DB	022H
	DB	07dH
	DB	02dH
	DB	022H
	DB	07dH
	DB	02dH
	DB	022H
	DB	07dH
	DB	02dH
	DB	022H
	DB	07dH
	DB	02dH
	DB	022H
	DB	07dH
	DB	02dH
	DB	022H
	DB	07dH
	DB	02dH
	DB	022H
	DB	07dH
	DB	02dH
	DB	022H
	DB	07dH
	DB	02dH
	DB	022H
	DB	07dH
	DB	02dH
	DB	022H
	DB	07dH
	DB	02dH
	DB	022H
	DB	07dH
	DB	02dH
	DB	022H
	DB	07dH
	DB	02dH
	DB	022H
	DB	07dH
	DB	02dH
	DB	022H
	DB	07dH
	DB	02dH
	DB	022H
	DB	07dH
	DB	02dH
	DB	022H
	DB	07dH
	DB	02dH
	DB	022H
	DB	07dH
	DB	02dH
	DB	022H
	DB	07dH
	DB	02dH
	DB	022H
	DB	07dH
	DB	02dH
	DB	022H
	DB	07dH
	DB	02dH
	DB	022H
	DB	07dH
	DB	02dH
	DB	022H
	DB	07dH
	DB	02dH
	DB	022H
	DB	07dH
	DB	02dH
	DB	022H
	DB	07dH
	DB	02dH
	DB	022H
	DB	07dH
	DB	02dH
	DB	022H
	DB	07dH
	DB	02dH
	DB	022H
	DB	07dH
	DB	02dH
	DB	022H
	DB	07dH
	DB	02dH
	DB	022H
	DB	07dH
	DB	02dH
	DB	022H
	DB	07dH
	DB	02dH
	DB	022H
	DB	07dH
	DB	02dH
	DB	022H
	DB	07dH
	DB	02dH
	DB	022H
	DB	07dH
	DB	02dH
	DB	022H
	DB	07dH
	DB	02dH
	DB	022H
	DB	07dH
	DB	02dH
	DB	022H
	DB	07dH
	DB	02dH
	DB	022H
	DB	07dH
	DB	02dH
	DB	022H
	DB	07dH
	DB	02dH
	DB	022H
	DB	07dH
	DB	02dH
	DB	022H
	DB	07dH
	DB	02dH
	DB	022H
	DB	07dH
	DB	02dH
	DB	022H
	DB	07dH
	DB	02dH
	DB	022H
	DB	07dH
	DB	02dH
	DB	022H
	DB	07dH
	DB	02dH
	DB	022H
	DB	07dH
	DB	02dH
	DB	022H
	DB	07dH
	DB	02dH
	DB	022H
	DB	07dH
	DB	02dH
	DB	022H
	DB	07dH
	DB	02dH
	DB	022H
	DB	07dH
	DB	02dH
	DB	022H
	DB	07dH
	DB	02dH
	DB	022H
	DB	07dH
	DB	02dH
	DB	022H
	DB	07dH
	DB	02dH
	DB	022H
	DB	07dH
	DB	02dH
	DB	022H
	DB	07dH
	DB	02dH
	DB	022H
	DB	07dH
	DB	02dH
	DB	022H
	DB	07dH
	DB	02dH
	DB	022H
	DB	07dH
	DB	02dH
	DB	022H
	DB	07dH
	DB	02dH
	DB	022H
	DB	07dH
	DB	02dH
	DB	022H
	DB	07dH
	DB	02dH
	DB	022H
	DB	07dH
	DB	02dH
	DB	022H
	DB	07dH
	DB	02dH
	DB	022H
	DB	07dH
	DB	02dH
	DB	022H
	DB	07dH
	DB	02dH
	DB	022H
	DB	07dH
	DB	02dH
	DB	022H
	DB	07dH
	DB	02dH
	DB	022H
	DB	07dH
	DB	02dH
	DB	022H
	DB	07dH
	DB	02dH
	DB	022H
	DB	07dH
	DB	02dH
	DB	022H
	DB	07dH
	DB	02dH
	DB	022H
	DB	07dH
	DB	02dH
	DB	022H
	DB	07dH
	DB	02dH
	DB	022H
	DB	07dH
	DB	02dH
	DB	022H
	DB	07dH
	DB	02dH
	DB	022H
	DB	07dH
	DB	02dH
	DB	022H
	DB	07dH
	DB	02dH
	DB	022H
	DB	07dH
	DB	02dH
	DB	022H
	DB	07dH
	DB	02dH
	DB	022H
	DB	07dH
	DB	02dH
	DB	022H
	DB	07dH
	DB	02dH
	DB	022H
	DB	07dH
	DB	02dH
	DB	022H
	DB	07dH
	DB	02dH
	DB	022H
	DB	07dH
	DB	02dH
	DB	022H
	DB	07dH
	DB	02dH
	DB	022H
	DB	07dH
	DB	02dH
	DB	022H
	DB	07dH
	DB	02dH
	DB	022H
	DB	07dH
	DB	02dH
	DB	022H
	DB	07dH
	DB	02dH
	DB	022H
	DB	07dH
	DB	02dH
	DB	022H
	DB	07dH
	DB	02dH
	DB	022H
	DB	07dH
	DB	02dH
	DB	022H
	DB	07dH
	DB	02dH
	DB	022H
	DB	07dH
	DB	02dH
	DB	022H
	DB	07dH
	DB	02dH
	DB	022H
	DB	07dH
	DB	02dH
	DB	022H
	DB	07dH
	DB	02dH
	DB	022H
	DB	07dH
	DB	02dH
	DB	022H
	DB	07dH
	DB	02dH
	DB	022H
	DB	07dH
	DB	02dH
	DB	022H
	DB	07dH
	DB	02dH
	DB	022H
	DB	07dH
	DB	02dH
	DB	022H
	DB	07dH
	DB	02dH
	DB	022H
	DB	07dH
	DB	02dH
	DB	022H
	DB	07dH
	DB	02dH
	DB	022H
	DB	07dH
	DB	02dH
	DB	022H
	DB	07dH
	DB	02dH
	DB	022H
	DB	07dH
	DB	02dH
	DB	022H
	DB	07dH
	DB	02dH
	DB	022H
	DB	07dH
	DB	02dH
	DB	022H
	DB	07dH
	DB	02dH
	DB	022H
	DB	07dH
	DB	02dH
	DB	022H
	DB	07dH
	DB	02dH
	DB	022H
	DB	07dH
	DB	02dH
	DB	022H
	DB	07dH
	DB	02dH
	DB	022H
	DB	07dH
	DB	02dH
	DB	022H
	DB	07dH
	DB	02dH
	DB	022H
	DB	07dH
	DB	02dH
	DB	022H
	DB	07dH
	DB	02dH
	DB	022H
	DB	07dH
	DB	02dH
	DB	022H
	DB	07dH
	DB	02dH
	DB	022H
	DB	07dH
	DB	02dH
	DB	022H
	DB	07dH
	DB	02dH
	DB	022H
	DB	07dH
	DB	02dH
	DB	022H
	DB	07dH
	DB	02dH
	DB	022H
	DB	07dH
	DB	02dH
	DB	022H
	DB	07dH
	DB	02dH
	DB	022H
	DB	07dH
	DB	02dH
	DB	022H
	DB	07dH
	DB	02dH
	DB	022H
	DB	07dH
	DB	02dH
	DB	022H
	DB	07dH
	DB	02dH
	DB	022H
	DB	07dH
	DB	02dH
	DB	022H
	DB	07dH
	DB	02dH
	DB	022H
	DB	07dH
	DB	02dH
	DB	022H
	DB	07dH
	DB	02dH
	DB	022H
	DB	07dH
	DB	02dH
	DB	022H
	DB	07dH
	DB	02dH
	DB	022H
	DB	07dH
	DB	02dH
	DB	022H
	DB	07dH
	DB	02dH
	DB	022H
	DB	07dH
	DB	02dH
	DB	022H
	DB	07dH
	DB	02dH
	DB	022H
	DB	07dH
	DB	02dH
	DB	022H
	DB	07dH
	DB	02dH
	DB	022H
	DB	07dH
	DB	02dH
	DB	022H
	DB	07dH
	DB	02dH
	DB	022H
	DB	07dH
	DB	02dH
	DB	022H
	DB	07dH
	DB	02dH
	DB	022H
	DB	07dH
	DB	02dH
	DB	022H
	DB	07dH
	DB	02dH
	DB	022H
	DB	07dH
	DB	02dH
	DB	022H
	DB	07dH
	DB	02dH
	DB	022H
	DB	07dH
	DB	02dH
	DB	022H
	DB	07dH
	DB	02dH
	DB	022H
	DB	07dH
	DB	02dH
	DB	022H
	DB	07dH
	DB	02dH
	DB	022H
	DB	07dH
	DB	02dH
	DB	022H
	DB	07dH
	DB	02dH
	DB	022H
	DB	07dH
	DB	02dH
	DB	022H
	DB	07dH
	DB	02dH
	DB	022H
	DB	07dH
	DB	02dH
	DB	022H
	DB	07dH
	DB	02dH
	DB	022H
	DB	07dH
	DB	02dH
	DB	022H
	DB	07dH
	DB	02dH
	DB	022H
	DB	07dH
	DB	02dH
	DB	022H
	DB	07dH
	DB	02dH
	DB	022H
	DB	07dH
	DB	02dH
	DB	022H
	DB	07dH
	DB	02dH
	DB	022H
	DB	07dH
	DB	02dH
	DB	022H
	DB	07dH
	DB	02dH
	DB	022H
	DB	07dH
	DB	02dH
	DB	022H
	DB	07dH
	DB	02dH
	DB	022H
	DB	07dH
	DB	02dH
	DB	022H
	DB	07dH
	DB	02dH
	DB	022H
	DB	07dH
	DB	02dH
	DB	022H
	DB	07dH
	DB	02dH
	DB	022H
	DB	07dH
	DB	02dH
	DB	022H
	DB	07dH
	DB	02dH
	DB	022H
	DB	07dH
	DB	02dH
	DB	022H
	DB	07dH
	DB	02dH
	DB	022H
	DB	07dH
	DB	02dH
	DB	022H
	DB	07dH
	DB	02dH
	DB	022H
	DB	07dH
	DB	02dH
	DB	022H
	DB	07dH
	DB	02dH
	DB	022H
	DB	07dH
	DB	02dH
	DB	022H
	DB	07dH
	DB	02dH
	DB	022H
	DB	07dH
	DB	02dH
	DB	022H
	DB	07dH
	DB	02dH
	DB	022H
	DB	07dH
	DB	02dH
	DB	022H
	DB	07dH
	DB	02dH
	DB	022H
	DB	07dH
	DB	02dH
	DB	022H
	DB	07dH
	DB	02dH
	DB	022H
	DB	07dH
	DB	02dH
	DB	022H
	DB	07dH
	DB	02dH
	DB	022H
	DB	07dH
	DB	02dH
	DB	022H
	DB	07dH
	DB	02dH
	DB	022H
	DB	07dH
	DB	02dH
	DB	022H
	DB	07dH
	DB	02dH
	DB	022H
	DB	07dH
	DB	02dH
	DB	022H
	DB	07dH
	DB	02dH
	DB	022H
	DB	07dH
	DB	02dH
	DB	022H
	DB	07dH
	DB	02dH
	DB	022H
	DB	07dH
	DB	02dH
	DB	022H
	DB	07dH
	DB	02dH
	DB	022H
	DB	07dH
	DB	02dH
	DB	022H
	DB	07dH
	DB	02dH
	DB	022H
	DB	07dH
	DB	02dH
	DB	022H
	DB	07dH
	DB	02dH
	DB	022H
	DB	07dH
	DB	02dH
	DB	022H
	DB	07dH
	DB	02dH
	DB	022H
	DB	07dH
	DB	02dH
	DB	022H
	DB	07dH
	DB	02dH
	DB	022H
	DB	07dH
	DB	02dH
	DB	022H
	DB	07dH
	DB	02dH
	DB	022H
	DB	07dH
	DB	02dH
	DB	022H
	DB	07dH
	DB	02dH
	DB	022H
	DB	07dH
	DB	02dH
	DB	022H
	DB	07dH
	DB	02dH
	DB	022H
	DB	07dH
	DB	02dH
	DB	022H
	DB	07dH
	DB	02dH
	DB	022H
	DB	07dH
	DB	02dH
	DB	022H
	DB	07dH
	DB	02dH
	DB	022H
	DB	07dH
	DB	02dH
	DB	022H
	DB	07dH
	DB	02dH
	DB	022H
	DB	07dH
	DB	02dH
	DB	022H
	DB	07dH
	DB	02dH
	DB	022H
	DB	07dH
	DB	02dH
	DB	022H
	DB	07dH
	DB	02dH
	DB	022H
	DB	07dH
	DB	02dH
	DB	022H
	DB	07dH
	DB	02dH
	DB	022H
	DB	07dH
	DB	02dH
	DB	022H
	DB	07dH
	DB	02dH
	DB	022H
	DB	07dH
	DB	02dH
	DB	022H
	DB	07dH
	DB	02dH
	DB	022H
	DB	07dH
	DB	02dH
	DB	022H
	DB	07dH
	DB	02dH
	DB	022H
	DB	07dH
	DB	02dH
	DB	022H
	DB	07dH
	DB	02dH
	DB	022H
	DB	07dH
	DB	02dH
	DB	022H
	DB	07dH
	DB	02dH
	DB	022H
	DB	07dH
	DB	02dH
	DB	022H
	DB	07dH
	DB	02dH
	DB	022H
	DB	07dH
	DB	02dH
	DB	022H
	DB	07dH
	DB	02dH
	DB	022H
	DB	07dH
	DB	02dH
	DB	022H
	DB	07dH
	DB	02dH
	DB	022H
	DB	07dH
	DB	02dH
	DB	022H
	DB	07dH
	DB	02dH
	DB	022H
	DB	07dH
	DB	02dH
	DB	022H
	DB	07dH
	DB	02dH
	DB	022H
	DB	07dH
	DB	02dH
	DB	022H
	DB	07dH
	DB	02dH
	DB	022H
	DB	07dH
	DB	02dH
	DB	022H
	DB	07dH
	DB	02dH
	DB	022H
	DB	07dH
	DB	02dH
	DB	022H
	DB	07dH
	DB	02dH
	DB	022H
	DB	07dH
	DB	02dH
	DB	022H
	DB	07dH
	DB	02dH
	DB	022H
	DB	07dH
	DB	02dH
	DB	022H
	DB	07dH
	DB	02dH
	DB	022H
	DB	07dH
	DB	02dH
	DB	022H
	DB	07dH
	DB	02dH
	DB	022H
	DB	07dH
	DB	02dH
	DB	022H
	DB	07dH
	DB	02dH
	DB	022H
	DB	07dH
	DB	02dH
	DB	022H
	DB	07dH
	DB	02dH
	DB	022H
	DB	07dH
	DB	02dH
	DB	022H
	DB	07dH
	DB	02dH
	DB	022H
	DB	07dH
	DB	02dH
	DB	022H
	DB	07dH
	DB	02dH
	DB	022H
	DB	07dH
	DB	02dH
	DB	022H
	DB	07dH
	DB	02dH
	DB	022H
	DB	07dH
	DB	02dH
	DB	022H
	DB	07dH
	DB	02dH
	DB	022H
	DB	07dH
	DB	02dH
	DB	022H
	DB	07dH
	DB	02dH
	DB	022H
	DB	07dH
	DB	02dH
	DB	022H
	DB	07dH
	DB	02dH
	DB	022H
	DB	07dH
	DB	02dH
	DB	022H
	DB	07dH
	DB	02dH
	DB	022H
	DB	07dH
	DB	02dH
	DB	022H
	DB	07dH
	DB	02dH
	DB	022H
	DB	07dH
	DB	02dH
	DB	022H
	DB	07dH
	DB	02dH
	DB	022H
	DB	07dH
	DB	02dH
	DB	022H
	DB	07dH
	DB	02dH
	DB	022H
	DB	07dH
	DB	02dH
	DB	022H
	DB	07dH
	DB	02dH
	DB	022H
	DB	07dH
	DB	02dH
	DB	022H
	DB	07dH
	DB	02dH
	DB	022H
	DB	07dH
	DB	02dH
	DB	022H
	DB	07dH
	DB	02dH
	DB	022H
	DB	07dH
	DB	02dH
	DB	022H
	DB	07dH
	DB	02dH
	DB	022H
	DB	07dH
	DB	02dH
	DB	022H
	DB	07dH
	DB	02dH
	DB	022H
	DB	07dH
	DB	02dH
	DB	022H
	DB	07dH
	DB	02dH
	DB	022H
	DB	07dH
	DB	02dH
	DB	022H
	DB	07dH
	DB	02dH
	DB	022H
	DB	07dH
	DB	02dH
	DB	022H
	DB	07dH
	DB	02dH
	DB	022H
	DB	07dH
	DB	02dH
	DB	022H
	DB	07dH
	DB	02dH
	DB	022H
	DB	07dH
	DB	02dH
	DB	022H
	DB	07dH
	DB	02dH
	DB	022H
	DB	07dH
	DB	02dH
	DB	022H
	DB	07dH
	DB	02dH
	DB	022H
	DB	07dH
	DB	02dH
	DB	022H
	DB	07dH
	DB	02dH
	DB	022H
	DB	07dH
	DB	02dH
	DB	022H
	DB	07dH
	DB	02dH
	DB	022H
	DB	07dH
	DB	02dH
	DB	022H
	DB	07dH
	DB	02dH
	DB	022H
	DB	07dH
	DB	02dH
	DB	022H
	DB	07dH
	DB	02dH
	DB	022H
	DB	07dH
	DB	02dH
	DB	022H
	DB	07dH
	DB	02dH
	DB	022H
	DB	07dH
	DB	02dH
	DB	022H
	DB	07dH
	DB	02dH
	DB	022H
	DB	07dH
	DB	02dH
	DB	022H
	DB	07dH
	DB	02dH
	DB	022H
	DB	07dH
	DB	02dH
	DB	022H
	DB	07dH
	DB	02dH
	DB	022H
	DB	07dH
	DB	02dH
	DB	022H
	DB	07dH
	DB	02dH
	DB	022H
	DB	07dH
	DB	02dH
	DB	022H
	DB	07dH
	DB	02dH
	DB	022H
	DB	07dH
	DB	02dH
	DB	022H
	DB	07dH
	DB	02dH
	DB	022H
	DB	07dH
	DB	02dH
	DB	022H
	DB	07dH
	DB	02dH
	DB	022H
	DB	07dH
	DB	02dH
	DB	022H
	DB	07dH
	DB	02dH
	DB	022H
	DB	07dH
	DB	02dH
	DB	022H
	DB	07dH
	DB	02dH
	DB	022H
	DB	07dH
	DB	02dH
	DB	022H
	DB	07dH
	DB	02dH
	DB	022H
	DB	07dH
	DB	02dH
	DB	022H
	DB	07dH
	DB	02dH
	DB	022H
	DB	07dH
	DB	02dH
	DB	022H
	DB	07dH
	DB	02dH
	DB	022H
	DB	07dH
	DB	02dH
	DB	022H
	DB	07dH
	DB	02dH
	DB	022H
	DB	07dH
	DB	02dH
	DB	022H
	DB	07dH
	DB	02dH
	DB	022H
	DB	07dH
	DB	02dH
	DB	022H
	DB	07dH
	DB	02dH
	DB	022H
	DB	07dH
	DB	02dH
	DB	022H
	DB	07dH
	DB	02dH
	DB	022H
	DB	07dH
	DB	02dH
	DB	022H
	DB	07dH
	DB	02dH
	DB	022H
	DB	07dH
	DB	02dH
	DB	022H
	DB	07dH
	DB	02dH
	DB	022H
	DB	07dH
	DB	02dH
	DB	022H
	DB	07dH
	DB	02dH
	DB	022H
	DB	07dH
	DB	02dH
	DB	022H
	DB	07dH
	DB	02dH
	DB	022H
	DB	07dH
	DB	02dH
	DB	022H
	DB	07dH
	DB	02dH
	DB	022H
	DB	07dH
	DB	02dH
	DB	022H
	DB	07dH
	DB	02dH
	DB	022H
	DB	07dH
	DB	02dH
	DB	022H
	DB	07dH
	DB	02dH
	DB	022H
	DB	07dH
	DB	02dH
	DB	022H
	DB	07dH
	DB	02dH
	DB	022H
	DB	07dH
	DB	02dH
	DB	022H
	DB	07dH
	DB	02dH
	DB	022H
	DB	07dH
	DB	02dH
	DB	022H
	DB	07dH
	DB	02dH
	DB	022H
	DB	07dH
	DB	02dH
	DB	022H
	DB	07dH
	DB	02dH
	DB	022H
	DB	07dH
	DB	02dH
	DB	022H
	DB	07dH
	DB	02dH
	DB	022H
	DB	07dH
	DB	02dH
	DB	022H
	DB	07dH
	DB	02dH
	DB	022H
	DB	07dH
	DB	02dH
	DB	022H
	DB	07dH
	DB	02dH
	DB	022H
	DB	07dH
	DB	02dH
	DB	022H
	DB	07dH
	DB	02dH
	DB	022H
	DB	07dH
	DB	02dH
	DB	022H
	DB	07dH
	DB	02dH
	DB	022H
	DB	07dH
	DB	02dH
	DB	022H
	DB	07dH
	DB	02dH
	DB	022H
	DB	07dH
	DB	02dH
	DB	022H
	DB	07dH
	DB	02dH
	DB	022H
	DB	07dH
	DB	02dH
	DB	022H
	DB	07dH
	DB	02dH
	DB	022H
	DB	07dH
	DB	02dH
	DB	022H
	DB	07dH
	DB	02dH
	DB	022H
	DB	07dH
	DB	02dH
	DB	022H
	DB	07dH
	DB	02dH
	DB	022H
	DB	07dH
	DB	02dH
	DB	022H
	DB	07dH
	DB	02dH
	DB	022H
	DB	07dH
	DB	02dH
	DB	022H
	DB	07dH
	DB	02dH
	DB	022H
	DB	07dH
	DB	02dH
	DB	022H
	DB	07dH
	DB	02dH
	DB	022H
	DB	07dH
	DB	02dH
	DB	022H
	DB	07dH
	DB	02dH
	DB	022H
	DB	07dH
	DB	02dH
	DB	022H
	DB	07dH
	DB	02dH
	DB	022H
	DB	07dH
	DB	02dH
	DB	022H
	DB	07dH
	DB	02dH
	DB	022H
	DB	07dH
	DB	02dH
	DB	022H
	DB	07dH
	DB	02dH
	DB	022H
	DB	07dH
	DB	02dH
	DB	022H
	DB	07dH
	DB	02dH
	DB	022H
	DB	07dH
	DB	02dH
	DB	022H
	DB	07dH
	DB	02dH
	DB	022H
	DB	07dH
	DB	02dH
	DB	022H
	DB	07dH
	DB	02dH
	DB	022H
	DB	07dH
	DB	02dH
	DB	022H
	DB	07dH
	DB	02dH
	DB	022H
	DB	07dH
	DB	02dH
	DB	022H
	DB	07dH
	DB	02dH
	DB	022H
	DB	07dH
	DB	02dH
	DB	022H
	DB	07dH
	DB	02dH
	DB	022H
	DB	07dH
	DB	02dH
	DB	022H
	DB	07dH
	DB	02dH
	DB	022H
	DB	07dH
	DB	02dH
	DB	022H
	DB	07dH
	DB	02dH
	DB	022H
	DB	07dH
	DB	02dH
	DB	022H
	DB	07dH
	DB	02dH
	DB	022H
	DB	07dH
	DB	02dH
	DB	022H
	DB	07dH
	DB	02dH
	DB	022H
	DB	07dH
	DB	02dH
	DB	022H
	DB	07dH
	DB	02dH
	DB	022H
	DB	07dH
	DB	02dH
	DB	022H
	DB	07dH
	DB	02dH
	DB	022H
	DB	07dH
	DB	02dH
	DB	022H
	DB	07dH
	DB	02dH
	DB	022H
	DB	07dH
	DB	02dH
	DB	022H
	DB	07dH
	DB	02dH
	DB	022H
	DB	07dH
	DB	02dH
	DB	022H
	DB	07dH
	DB	02dH
	DB	022H
	DB	07dH
	DB	02dH
	DB	022H
	DB	07dH
	DB	02dH
	DB	022H
	DB	07dH
	DB	02dH
	DB	022H
	DB	07dH
	DB	02dH
	DB	022H
	DB	07dH
	DB	02dH
	DB	022H
	DB	07dH
	DB	02dH
	DB	022H
	DB	07dH
	DB	02dH
	DB	022H
	DB	07dH
	DB	02dH
	DB	022H
	DB	07dH
	DB	02dH
	DB	022H
	DB	07dH
	DB	02dH
	DB	022H
	DB	07dH
	DB	02dH
	DB	022H
	DB	07dH
	DB	02dH
	DB	022H
	DB	07dH
	DB	02dH
	DB	022H
	DB	07dH
	DB	02dH
	DB	022H
	DB	07dH
	DB	02dH
	DB	022H
	DB	07dH
	DB	02dH
	DB	022H
	DB	07dH
	DB	02dH
	DB	022H
	DB	07dH
	DB	02dH
	DB	022H
	DB	07dH
	DB	02dH
	DB	022H
	DB	07dH
	DB	02dH
	DB	022H
	DB	07dH
	DB	02dH
	DB	022H
	DB	07dH
	DB	02dH
	DB	022H
	DB	07dH
	DB	02dH
	DB	022H
	DB	07dH
	DB	02dH
	DB	022H
	DB	07dH
	DB	02dH
	DB	022H
	DB	07dH
	DB	02dH
	DB	022H
	DB	07dH
	DB	02dH
	DB	022H
	DB	07dH
	DB	02dH
	DB	022H
	DB	07dH
	DB	02dH
	DB	022H
	DB	07dH
	DB	02dH
	DB	022H
	DB	07dH
	DB	02dH
	DB	022H
	DB	07dH
	DB	02dH
	DB	022H
	DB	07dH
	DB	02dH
	DB	022H
	DB	07dH
	DB	02dH
	DB	022H
	DB	07dH
	DB	02dH
	DB	022H
	DB	07dH
	DB	02dH
	DB	022H
	DB	07dH
	DB	02dH
	DB	022H
	DB	07dH
	DB	02dH
	DB	022H
	DB	07dH
	DB	02dH
	DB	022H
	DB	07dH
	DB	02dH
	DB	022H
	DB	07dH
	DB	02dH
	DB	022H
	DB	07dH
	DB	02dH
	DB	022H
	DB	07dH
	DB	02dH
	DB	022H
	DB	07dH
	DB	02dH
	DB	022H
	DB	07dH
	DB	02dH
	DB	022H
	DB	07dH
	DB	02dH
	DB	022H
	DB	07dH
	DB	02dH
	DB	022H
	DB	07dH
	DB	02dH
	DB	022H
	DB	07dH
	DB	02dH
	DB	022H
	DB	07dH
	DB	02dH
	DB	022H
	DB	07dH
	DB	02dH
	DB	022H
	DB	07dH
	DB	02dH
	DB	022H
	DB	07dH
	DB	02dH
	DB	022H
	DB	07dH
	DB	02dH
	DB	022H
	DB	07dH
	DB	02dH
	DB	022H
	DB	07dH
	DB	02dH
	DB	022H
	DB	07dH
	DB	02dH
	DB	022H
	DB	07dH
	DB	02dH
	DB	022H
	DB	07dH
	DB	02dH
	DB	022H
	DB	07dH
	DB	02dH
	DB	022H
	DB	07dH
	DB	02dH
	DB	022H
	DB	07dH
	DB	02dH
	DB	022H
	DB	07dH
	DB	02dH
	DB	022H
	DB	07dH
	DB	02dH
	DB	022H
	DB	07dH
	DB	02dH
	DB	022H
	DB	07dH
	DB	02dH
	DB	022H
	DB	07dH
	DB	02dH
	DB	022H
	DB	07dH
	DB	02dH
	DB	022H
	DB	07dH
	DB	02dH
	DB	022H
	DB	07dH
	DB	02dH
	DB	022H
	DB	07dH
	DB	02dH
	DB	022H
	DB	07dH
	DB	02dH
	DB	022H
	DB	07dH
	DB	02dH
	DB	022H
	DB	07dH
	DB	02dH
	DB	022H
	DB	07dH
	DB	02dH
	DB	022H
	DB	07dH
	DB	02dH
	DB	022H
	DB	07dH
	DB	02dH
	DB	022H
	DB	07dH
	DB	02dH
	DB	022H
	DB	07dH
	DB	02dH
	DB	022H
	DB	07dH
	DB	02dH
	DB	022H
	DB	07dH
	DB	02dH
	DB	022H
	DB	07dH
	DB	02dH
	DB	022H
	DB	07dH
	DB	02dH
	DB	022H
	DB	07dH
	DB	02dH
	DB	022H
	DB	07dH
	DB	02dH
	DB	022H
	DB	07dH
	DB	02dH
	DB	022H
	DB	07dH
	DB	02dH
	DB	022H
	DB	07dH
	DB	02dH
	DB	022H
	DB	07dH
	DB	02dH
	DB	022H
	DB	07dH
	DB	02dH
	DB	022H
	DB	07dH
	DB	02dH
	DB	022H
	DB	07dH
	DB	02dH
	DB	022H
	DB	07dH
	DB	02dH
	DB	022H
	DB	07dH
	DB	02dH
	DB	022H
	DB	07dH
	DB	02dH
	DB	022H
	DB	07dH
	DB	02dH
	DB	022H
	DB	07dH
	DB	02dH
	DB	022H
	DB	07dH
	DB	02dH
	DB	022H
	DB	07dH
	DB	02dH
	DB	022H
	DB	07dH
	DB	02dH
	DB	022H
	DB	07dH
	DB	02dH
	DB	022H
	DB	07dH
	DB	02dH
	DB	022H
	DB	07dH
	DB	02dH
	DB	022H
	DB	07dH
	DB	02dH
	DB	022H
	DB	07dH
	DB	02dH
	DB	022H
	DB	07dH
	DB	02dH
	DB	022H
	DB	07dH
	DB	02dH
	DB	022H
	DB	07dH
	DB	02dH
	DB	022H
	DB	07dH
	DB	02dH
	DB	022H
	DB	07dH
	DB	02dH
	DB	022H
	DB	07dH
	DB	02dH
	DB	022H
	DB	07dH
	DB	02dH
	DB	022H
	DB	07dH
	DB	02dH
	DB	022H
	DB	07dH
	DB	02dH
	DB	022H
	DB	07dH
	DB	02dH
	DB	022H
	DB	07dH
	DB	02dH
	DB	022H
	DB	07dH
	DB	02dH
	DB	022H
	DB	07dH
	DB	02dH
	DB	022H
	DB	07dH
	DB	02dH
	DB	022H
	DB	07dH
	DB	02dH
	DB	022H
	DB	07dH
	DB	02dH
	DB	022H
	DB	07dH
	DB	02dH
	DB	022H
	DB	07dH
	DB	02dH
	DB	022H
	DB	07dH
	DB	02dH
	DB	022H
	DB	07dH
	DB	02dH
	DB	022H
	DB	07dH
	DB	02dH
	DB	022H
	DB	07dH
	DB	02dH
	DB	022H
	DB	07dH
	DB	02dH
	DB	022H
	DB	07dH
	DB	02dH
	DB	022H
	DB	07dH
	DB	02dH
	DB	022H
	DB	07dH
	DB	02dH
	DB	022H
	DB	07dH
	DB	02dH
	DB	022H
	DB	07dH
	DB	02dH
	DB	022H
	DB	07dH
	DB	02dH
	DB	022H
	DB	07dH
	DB	02dH
	DB	022H
	DB	07dH
	DB	02dH
	DB	022H
	DB	07dH
	DB	02dH
	DB	022H
	DB	07dH
	DB	02dH
	DB	022H
	DB	07dH
	DB	02dH
	DB	022H
	DB	07dH
	DB	02dH
	DB	022H
	DB	07dH
	DB	02dH
	DB	022H
	DB	07dH
	DB	02dH
	DB	022H
	DB	07dH
	DB	02dH
	DB	022H
	DB	07dH
	DB	02dH
	DB	022H
	DB	07dH
	DB	02dH
	DB	022H
	DB	07dH
	DB	02dH
	DB	022H
	DB	07dH
	DB	02dH
	DB	022H
	DB	07dH
	DB	02dH
	DB	022H
	DB	07dH
	DB	02dH
	DB	022H
	DB	07dH
	DB	02dH
	DB	022H
	DB	07dH
	DB	02dH
	DB	022H
	DB	07dH
	DB	02dH
	DB	022H
	DB	07dH
	DB	02dH
	DB	022H
	DB	07dH
	DB	02dH
	DB	022H
	DB	07dH
	DB	02dH
	DB	022H
	DB	07dH
	DB	02dH
	DB	022H
	DB	07dH
	DB	02dH
	DB	022H
	DB	07dH
	DB	02dH
	DB	022H
	DB	07dH
	DB	02dH
	DB	022H
	DB	07dH
	DB	02dH
	DB	022H
	DB	07dH
	DB	02dH
	DB	022H
	DB	07dH
	DB	02dH
	DB	022H
	DB	07dH
	DB	02dH
	DB	022H
	DB	07dH
	DB	02dH
	DB	022H
	DB	07dH
	DB	02dH
	DB	022H
	DB	07dH
	DB	02dH
	DB	022H
	DB	07dH
	DB	02dH
	DB	022H
	DB	07dH
	DB	02dH
	DB	022H
	DB	07dH
	DB	02dH
	DB	022H
	DB	07dH
	DB	02dH
	DB	022H
	DB	07dH
	DB	02dH
	DB	022H
	DB	07dH
	DB	02dH
	DB	022H
	DB	07dH
	DB	02dH
	DB	022H
	DB	07dH
	DB	02dH
	DB	022H
	DB	07dH
	DB	02dH
	DB	022H
	DB	07dH
	DB	02dH
	DB	022H
	DB	07dH
	DB	02dH
	DB	022H
	DB	07dH
	DB	02dH
	DB	022H
	DB	07dH
	DB	02dH
	DB	022H
	DB	07dH
	DB	02dH
	DB	022H
	DB	07dH
	DB	02dH
	DB	022H
	DB	07dH
	DB	02dH
	DB	022H
	DB	07dH
	DB	02dH
	DB	022H
	DB	07dH
	DB	02dH
	DB	022H
	DB	07dH
	DB	02dH
	DB	022H
	DB	07dH
	DB	02dH
	DB	022H
	DB	07dH
	DB	02dH
	DB	022H
	DB	07dH
	DB	02dH
	DB	022H
	DB	07dH
	DB	02dH
	DB	022H
	DB	07dH
	DB	02dH
	DB	022H
	DB	07dH
	DB	02dH
	DB	022H
	DB	07dH
	DB	02dH
	DB	022H
	DB	07dH
	DB	02dH
	DB	022H
	DB	07dH
	DB	02dH
	DB	022H
	DB	07dH
	DB	02dH
	DB	022H
	DB	07dH
	DB	02dH
	DB	022H
	DB	07dH
	DB	02dH
	DB	022H
	DB	07dH
	DB	02dH
	DB	022H
	DB	07dH
	DB	02dH
	DB	022H
	DB	07dH
	DB	02dH
	DB	022H
	DB	07dH
	DB	02dH
	DB	022H
	DB	07dH
	DB	02dH
	DB	022H
	DB	07dH
	DB	02dH
	DB	022H
	DB	07dH
	DB	02dH
	DB	022H
	DB	07dH
	DB	02dH
	DB	022H
	DB	07dH
	DB	02dH
	DB	022H
	DB	07dH
	DB	02dH
	DB	022H
	DB	07dH
	DB	02dH
	DB	022H
	DB	07dH
	DB	02dH
	DB	022H
	DB	07dH
	DB	02dH
	DB	022H
	DB	07dH
	DB	02dH
	DB	022H
	DB	07dH
	DB	02dH
	DB	022H
	DB	07dH
	DB	02dH
	DB	022H
	DB	07dH
	DB	02dH
	DB	022H
	DB	07dH
	DB	02dH
	DB	022H
	DB	07dH
	DB	02dH
	DB	022H
	DB	07dH
	DB	02dH
	DB	022H
	DB	07dH
	DB	02dH
	DB	022H
	DB	07dH
	DB	02dH
	DB	022H
	DB	07dH
	DB	02dH
	DB	022H
	DB	07dH
	DB	02dH
	DB	022H
	DB	07dH
	DB	02dH
	DB	022H
	DB	07dH
	DB	02dH
	DB	022H
	DB	07dH
	DB	02dH
	DB	022H
	DB	07dH
	DB	02dH
	DB	022H
	DB	07dH
	DB	02dH
	DB	022H
	DB	07dH
	DB	02dH
	DB	022H
	DB	07dH
	DB	02dH
	DB	022H
	DB	07dH
	DB	02dH
	DB	022H
	DB	07dH
	DB	02dH
	DB	022H
	DB	07dH
	DB	02dH
	DB	022H
	DB	07dH
	DB	02dH
	DB	022H
	DB	07dH
	DB	02dH
	DB	022H
	DB	07dH
	DB	02dH
	DB	022H
	DB	07dH
	DB	02dH
	DB	022H
	DB	07dH
	DB	02dH
	DB	022H
	DB	07dH
	DB	02dH
	DB	022H
	DB	07dH
	DB	02dH
	DB	022H
	DB	07dH
	DB	02dH
	DB	022H
	DB	07dH
	DB	02dH
	DB	022H
	DB	07dH
	DB	02dH
	DB	022H
	DB	07dH
	DB	02dH
	DB	022H
	DB	07dH
	DB	02dH
	DB	022H
	DB	07dH
	DB	02dH
	DB	022H
	DB	07dH
	DB	02dH
	DB	022H
	DB	07dH
	DB	02dH
	DB	022H
	DB	07dH
	DB	02dH
	DB	022H
	DB	07dH
	DB	02dH
	DB	022H
	DB	07dH
	DB	02dH
	DB	022H
	DB	07dH
	DB	02dH
	DB	022H
	DB	07dH
	DB	02dH
	DB	022H
	DB	07dH
	DB	02dH
	DB	022H
	DB	07dH
	DB	02dH
	DB	022H
	DB	07dH
	DB	02dH
	DB	022H
	DB	07dH
	DB	02dH
	DB	022H
	DB	07dH
	DB	02dH
	DB	022H
	DB	07dH
	DB	02dH
	DB	022H
	DB	07dH
	DB	02dH
	DB	022H
	DB	07dH
	DB	02dH
	DB	022H
	DB	07dH
	DB	02dH
	DB	022H
	DB	07dH
	DB	02dH
	DB	022H
	DB	07dH
	DB	02dH
	DB	022H
	DB	07dH
	DB	02dH
	DB	022H
	DB	07dH
	DB	02dH
	DB	022H
	DB	07dH
	DB	02dH
	DB	022H
	DB	07dH
	DB	02dH
	DB	022H
	DB	07dH
	DB	02dH
	DB	022H
	DB	07dH
	DB	02dH
	DB	022H
	DB	07dH
	DB	02dH
	DB	022H
	DB	07dH
	DB	02dH
	DB	022H
	DB	07dH
	DB	02dH
	DB	022H
	DB	07dH
	DB	02dH
	DB	022H
	DB	07dH
	DB	02dH
	DB	022H
	DB	07dH
	DB	02dH
	DB	022H
	DB	07dH
	DB	02dH
	DB	022H
	DB	07dH
	DB	02dH
	DB	022H
	DB	07dH
	DB	02dH
	DB	022H
	DB	07dH
	DB	02dH
	DB	022H
	DB	07dH
	DB	02dH
	DB	022H
	DB	07dH
	DB	02dH
	DB	022H
	DB	07dH
	DB	02dH
	DB	022H
	DB	07dH
	DB	02dH
	DB	022H
	DB	07dH
	DB	02dH
	DB	022H
	DB	07dH
	DB	02dH
	DB	022H
	DB	07dH
	DB	02dH
	DB	022H
	DB	07dH
	DB	02dH
	DB	022H
	DB	07dH
	DB	02dH
	DB	022H
	DB	07dH
	DB	02dH
	DB	022H
	DB	07dH
	DB	02dH
	DB	022H
	DB	07dH
	DB	02dH
	DB	022H
	DB	07dH
	DB	02dH
	DB	022H
	DB	07dH
	DB	02dH
	DB	022H
	DB	07dH
	DB	02dH
	DB	022H
	DB	07dH
	DB	02dH
	DB	022H
	DB	07dH
	DB	02dH
	DB	022H
	DB	07dH
	DB	02dH
	DB	022H
	DB	07dH
	DB	02dH
	DB	022H
	DB	07dH
	DB	02dH
	DB	022H
	DB	07dH
	DB	02dH
	DB	022H
	DB	07dH
	DB	02dH
	DB	022H
	DB	07dH
	DB	02dH
	DB	022H
	DB	07dH
	DB	02dH
	DB	022H
	DB	07dH
	DB	02dH
	DB	022H
	DB	07dH
	DB	02dH
	DB	022H
	DB	07dH
	DB	02dH
	DB	022H
	DB	07dH
	DB	02dH
	DB	022H
	DB	07dH
	DB	02dH
	DB	022H
	DB	07dH
	DB	02dH
	DB	022H
	DB	07dH
	DB	02dH
	DB	022H
	DB	07dH
	DB	02dH
	DB	022H
	DB	07dH
	DB	02dH
	DB	022H
	DB	07dH
	DB	02dH
	DB	022H
	DB	07dH
	DB	02dH
	DB	022H
	DB	07dH
	DB	02dH
	DB	022H
	DB	07dH
	DB	02dH
	DB	022H
	DB	07dH
	DB	02dH
	DB	022H
	DB	07dH
	DB	02dH
	DB	022H
	DB	07dH
	DB	02dH
	DB	022H
	DB	07dH
	DB	02dH
	DB	022H
	DB	07dH
	DB	02dH
	DB	022H
	DB	07dH
	DB	02dH
	DB	022H
	DB	07dH
	DB	02dH
	DB	022H
	DB	07dH
	DB	02dH
	DB	022H
	DB	07dH
	DB	02dH
	DB	022H
	DB	07dH
	DB	02dH
	DB	022H
	DB	07dH
	DB	02dH
	DB	022H
	DB	07dH
	DB	02dH
	DB	022H
	DB	07dH
	DB	02dH
	DB	022H
	DB	07dH
	DB	02dH
	DB	022H
	DB	07dH
	DB	02dH
	DB	022H
	DB	07dH
	DB	02dH
	DB	022H
	DB	07dH
	DB	02dH
	DB	022H
	DB	07dH
	DB	02dH
	DB	022H
	DB	07dH
	DB	02dH
	DB	022H
	DB	07dH
	DB	02dH
	DB	022H
	DB	07dH
	DB	02dH
	DB	022H
	DB	07dH
	DB	02dH
	DB	022H
	DB	07dH
	DB	02dH
	DB	022H
	DB	07dH
	DB	02dH
	DB	022H
	DB	07dH
	DB	02dH
	DB	022H
	DB	07dH
	DB	02dH
	DB	022H
	DB	07dH
	DB	02dH
	DB	022H
	DB	07dH
	DB	02dH
	DB	022H
	DB	07dH
	DB	02dH
	DB	022H
	DB	07dH
	DB	02dH
	DB	022H
	DB	07dH
	DB	02dH
	DB	022H
	DB	07dH
	DB	02dH
	DB	022H
	DB	07dH
	DB	02dH
	DB	022H
	DB	07dH
	DB	02dH
	DB	022H
	DB	07dH
	DB	02dH
	DB	022H
	DB	07dH
	DB	02dH
	DB	022H
	DB	07dH
	DB	02dH
	DB	022H
	DB	07dH
	DB	02dH
	DB	022H
	DB	07dH
	DB	02dH
	DB	022H
	DB	07dH
	DB	02dH
	DB	022H
	DB	07dH
	DB	02dH
	DB	022H
	DB	07dH
	DB	02dH
	DB	022H
	DB	07dH
	DB	02dH
	DB	022H
	DB	07dH
	DB	02dH
	DB	022H
	DB	07dH
	DB	02dH
	DB	022H
	DB	07dH
	DB	02dH
	DB	022H
	DB	07dH
	DB	02dH
	DB	022H
	DB	07dH
	DB	02dH
	DB	022H
	DB	07dH
	DB	02dH
	DB	022H
	DB	07dH
	DB	02dH
	DB	022H
	DB	07dH
	DB	02dH
	DB	022H
	DB	07dH
	DB	02dH
	DB	022H
	DB	07dH
	DB	02dH
	DB	022H
	DB	07dH
	DB	02dH
	DB	022H
	DB	07dH
	DB	02dH
	DB	022H
	DB	07dH
	DB	02dH
	DB	022H
	DB	07dH
	DB	02dH
	DB	022H
	DB	07dH
	DB	02dH
	DB	022H
	DB	07dH
	DB	02dH
	DB	022H
	DB	07dH
	DB	02dH
	DB	022H
	DB	07dH
	DB	02dH
	DB	022H
	DB	07dH
	DB	02dH
	DB	022H
	DB	07dH
	DB	02dH
	DB	022H
	DB	07dH
	DB	02dH
	DB	022H
	DB	07dH
	DB	02dH
	DB	022H
	DB	07dH
	DB	02dH
	DB	022H
	DB	07dH
	DB	02dH
	DB	022H
	DB	07dH
	DB	02dH
	DB	022H
	DB	07dH
	DB	02dH
	DB	022H
	DB	07dH
	DB	02dH
	DB	022H
	DB	07dH
	DB	02dH
	DB	022H
	DB	07dH
	DB	02dH
	DB	022H
	DB	07dH
	DB	02dH
	DB	022H
	DB	07dH
	DB	02dH
	DB	022H
	DB	07dH
	DB	02dH
	DB	022H
	DB	07dH
	DB	02dH
	DB	022H
	DB	07dH
	DB	02dH
	DB	022H
	DB	07dH
	DB	02dH
	DB	022H
	DB	07dH
	DB	02dH
	DB	022H
	DB	07dH
	DB	02dH
	DB	022H
	DB	07dH
	DB	02dH
	DB	022H
	DB	07dH
	DB	02dH
	DB	022H
	DB	07dH
	DB	02dH
	DB	022H
	DB	07dH
	DB	02dH
	DB	022H
	DB	07dH
	DB	02dH
	DB	022H
	DB	07dH
	DB	02dH
	DB	022H
	DB	07dH
	DB	02dH
	DB	022H
	DB	07dH
	DB	02dH
	DB	022H
	DB	07dH
	DB	02dH
	DB	022H
	DB	07dH
	DB	02dH
	DB	022H
	DB	07dH
	DB	02dH
	DB	022H
	DB	07dH
	DB	02dH
	DB	022H
	DB	07dH
	DB	02dH
	DB	022H
	DB	07dH
	DB	02dH
	DB	022H
	DB	07dH
	DB	02dH
	DB	022H
	DB	07dH
	DB	02dH
	DB	022H
	DB	07dH
	DB	02dH
	DB	022H
	DB	07dH
	DB	02dH
	DB	022H
	DB	07dH
	DB	02dH
	DB	022H
	DB	07dH
	DB	02dH
	DB	022H
	DB	07dH
	DB	02dH
	DB	022H
	DB	07dH
	DB	02dH
	DB	022H
	DB	07dH
	DB	02dH
	DB	022H
	DB	07dH
	DB	02dH
	DB	022H
	DB	07dH
	DB	02dH
	DB	022H
	DB	07dH
	DB	02dH
	DB	022H
	DB	07dH
	DB	02dH
	DB	022H
	DB	07dH
	DB	02dH
	DB	022H
	DB	07dH
	DB	02dH
	DB	022H
	DB	07dH
	DB	02dH
	DB	022H
	DB	07dH
	DB	02dH
	DB	022H
	DB	07dH
	DB	02dH
	DB	022H
	DB	07dH
	DB	02dH
	DB	022H
	DB	07dH
	DB	02dH
	DB	022H
	DB	07dH
	DB	02dH
	DB	022H
	DB	07dH
	DB	02dH
	DB	022H
	DB	07dH
	DB	02dH
	DB	022H
	DB	07dH
	DB	02dH
	DB	022H
	DB	07dH
	DB	02dH
	DB	022H
	DB	07dH
	DB	02dH
	DB	022H
	DB	07dH
	DB	02dH
	DB	022H
	DB	07dH
	DB	02dH
	DB	022H
	DB	07dH
	DB	02dH
	DB	022H
	DB	07dH
	DB	02dH
	DB	022H
	DB	07dH
	DB	02dH
	DB	022H
	DB	07dH
	DB	02dH
	DB	022H
	DB	07dH
	DB	02dH
	DB	022H
	DB	07dH
	DB	02dH
	DB	022H
	DB	07dH
	DB	02dH
	DB	022H
	DB	07dH
	DB	02dH
	DB	022H
	DB	07dH
	DB	02dH
	DB	022H
	DB	07dH
	DB	02dH
	DB	022H
	DB	07dH
	DB	02dH
	DB	022H
	DB	07dH
	DB	02dH
	DB	022H
	DB	07dH
	DB	02dH
	DB	022H
	DB	07dH
	DB	02dH
	DB	022H
	DB	07dH
	DB	02dH
	DB	022H
	DB	07dH
	DB	02dH
	DB	022H
	DB	07dH
	DB	02dH
	DB	022H
	DB	07dH
	DB	02dH
	DB	022H
	DB	07dH
	DB	02dH
	DB	022H
	DB	07dH
	DB	02dH
	DB	022H
	DB	07dH
	DB	02dH
	DB	022H
	DB	07dH
	DB	02dH
	DB	022H
	DB	07dH
	DB	02dH
	DB	022H
	DB	07dH
	DB	02dH
	DB	022H
	DB	07dH
	DB	02dH
	DB	022H
	DB	07dH
	DB	02dH
	DB	022H
	DB	07dH
	DB	02dH
	DB	022H
	DB	07dH
	DB	02dH
	DB	022H
	DB	07dH
	DB	02dH
	DB	022H
	DB	07dH
	DB	02dH
	DB	022H
	DB	07dH
	DB	02dH
	DB	022H
	DB	07dH
	DB	02dH
	DB	022H
	DB	07dH
	DB	02dH
	DB	022H
	DB	07dH
	DB	02dH
	DB	022H
	DB	07dH
	DB	02dH
	DB	022H
	DB	07dH
	DB	02dH
	DB	022H
	DB	07dH
	DB	02dH
	DB	022H
	DB	07dH
	DB	02dH
	DB	022H
	DB	07dH
	DB	02dH
	DB	022H
	DB	07dH
	DB	02dH
	DB	022H
	DB	07dH
	DB	02dH
	DB	022H
	DB	07dH
	DB	02dH
	DB	022H
	DB	07dH
	DB	02dH
	DB	022H
	DB	07dH
	DB	02dH
	DB	022H
	DB	07dH
	DB	02dH
	DB	022H
	DB	07dH
	DB	02dH
	DB	022H
	DB	07dH
	DB	02dH
	DB	022H
	DB	07dH
	DB	02dH
	DB	022H
	DB	07dH
	DB	02dH
	DB	022H
	DB	07dH
	DB	02dH
	DB	022H
	DB	07dH
	DB	02dH
	DB	022H
	DB	07dH
	DB	02dH
	DB	022H
	DB	07dH
	DB	02dH
	DB	022H
	DB	07dH
	DB	02dH
	DB	022H
	DB	07dH
	DB	02dH
	DB	022H
	DB	07dH
	DB	02dH
	DB	022H
	DB	07dH
	DB	02dH
	DB	022H
	DB	07dH
	DB	02dH
	DB	022H
	DB	07dH
	DB	02dH
	DB	022H
	DB	07dH
	DB	02dH
	DB	022H
	DB	07dH
	DB	02dH
	DB	022H
	DB	07dH
	DB	02dH
	DB	022H
	DB	07dH
	DB	02dH
	DB	022H
	DB	07dH
	DB	02dH
	DB	022H
	DB	07dH
	DB	02dH
	DB	022H
	DB	07dH
	DB	02dH
	DB	022H
	DB	07dH
	DB	02dH
	DB	022H
	DB	07dH
	DB	02dH
	DB	022H
	DB	07dH
	DB	02dH
	DB	022H
	DB	07dH
	DB	02dH
	DB	022H
	DB	07dH
	DB	02dH
	DB	022H
	DB	07dH
	DB	02dH
	DB	022H
	DB	07dH
	DB	02dH
	DB	022H
	DB	07dH
	DB	02dH
	DB	022H
	DB	07dH
	DB	02dH
	DB	022H
	DB	07dH
	DB	02dH
	DB	022H
	DB	07dH
	DB	02dH
	DB	022H
	DB	07dH
	DB	02dH
	DB	022H
	DB	07dH
	DB	02dH
	DB	022H
	DB	07dH
	DB	02dH
	DB	022H
	DB	07dH
	DB	02dH
	DB	022H
	DB	07dH
	DB	02dH
	DB	022H
	DB	07dH
	DB	02dH
	DB	022H
	DB	07dH
	DB	02dH
	DB	022H
	DB	07dH
	DB	02dH
	DB	022H
	DB	07dH
	DB	02dH
	DB	022H
	DB	07dH
	DB	02dH
	DB	022H
	DB	07dH
	DB	02dH
	DB	022H
	DB	07dH
	DB	02dH
	DB	022H
	DB	07dH
	DB	02dH
	DB	022H
	DB	07dH
	DB	02dH
	DB	022H
	DB	07dH
	DB	02dH
	DB	022H
	DB	07dH
	DB	02dH
	DB	022H
	DB	07dH
	DB	02dH
	DB	022H
	DB	07dH
	DB	02dH
	DB	022H
	DB	07dH
	DB	02dH
	DB	022H
	DB	07dH
	DB	02dH
	DB	022H
	DB	07dH
	DB	02dH
	DB	022H
	DB	07dH
	DB	02dH
	DB	022H
	DB	07dH
	DB	02dH
	DB	022H
	DB	07dH
	DB	02dH
	DB	022H
	DB	07dH
	DB	02dH
	DB	022H
	DB	07dH
	DB	02dH
	DB	022H
	DB	07dH
	DB	02dH
	DB	022H
	DB	07dH
	DB	02dH
	DB	022H
	DB	07dH
	DB	02dH
	DB	022H
	DB	07dH
	DB	02dH
	DB	022H
	DB	07dH
	DB	02dH
	DB	022H
	DB	07dH
	DB	02dH
	DB	022H
	DB	07dH
	DB	02dH
	DB	022H
	DB	07dH
	DB	02dH
	DB	022H
	DB	07dH
	DB	02dH
	DB	022H
	DB	07dH
	DB	02dH
	DB	022H
	DB	07dH
	DB	02dH
	DB	022H
	DB	07dH
	DB	02dH
	DB	022H
	DB	07dH
	DB	02dH
	DB	022H
	DB	07dH
	DB	02dH
	DB	022H
	DB	07dH
	DB	02dH
	DB	022H
	DB	07dH
	DB	02dH
	DB	022H
	DB	07dH
	DB	02dH
	DB	022H
	DB	07dH
	DB	02dH
	DB	022H
	DB	07dH
	DB	02dH
	DB	022H
	DB	07dH
	DB	02dH
	DB	022H
	DB	07dH
	DB	02dH
	DB	022H
	DB	07dH
	DB	02dH
	DB	022H
	DB	07dH
	DB	02dH
	DB	022H
	DB	07dH
	DB	02dH
	DB	022H
	DB	07dH
	DB	02dH
	DB	022H
	DB	07dH
	DB	02dH
	DB	022H
	DB	07dH
	DB	02dH
	DB	022H
	DB	07dH
	DB	02dH
	DB	022H
	DB	07dH
	DB	02dH
	DB	022H
	DB	07dH
	DB	02dH
	DB	022H
	DB	07dH
	DB	02dH
	DB	022H
	DB	07dH
	DB	02dH
	DB	022H
	DB	07dH
	DB	02dH
	DB	022H
	DB	07dH
	DB	02dH
	DB	022H
	DB	07dH
	DB	02dH
	DB	022H
	DB	07dH
	DB	02dH
	DB	022H
	DB	07dH
	DB	02dH
	DB	022H
	DB	07dH
	DB	02dH
	DB	022H
	DB	07dH
	DB	02dH
	DB	022H
	DB	07dH
	DB	02dH
	DB	022H
	DB	07dH
	DB	02dH
	DB	022H
	DB	07dH
	DB	02dH
	DB	022H
	DB	07dH
	DB	02dH
	DB	022H
	DB	07dH
	DB	02dH
	DB	022H
	DB	07dH
	DB	02dH
	DB	022H
	DB	07dH
	DB	02dH
	DB	022H
	DB	07dH
	DB	02dH
	DB	022H
	DB	07dH
	DB	02dH
	DB	022H
	DB	07dH
	DB	02dH
	DB	022H
	DB	07dH
	DB	02dH
	DB	022H
	DB	07dH
	DB	02dH
	DB	022H
	DB	07dH
	DB	02dH
	DB	022H
	DB	07dH
	DB	02dH
	DB	022H
	DB	07dH
	DB	02dH
	DB	022H
	DB	07dH
	DB	02dH
	DB	022H
	DB	07dH
	DB	02dH
	DB	022H
	DB	07dH
	DB	02dH
	DB	022H
	DB	07dH
	DB	02dH
	DB	022H
	DB	07dH
	DB	02dH
	DB	022H
	DB	07dH
	DB	02dH
	DB	022H
	DB	07dH
	DB	02dH
	DB	022H
	DB	07dH
	DB	02dH
	DB	022H
	DB	07dH
	DB	02dH
	DB	022H
	DB	07dH
	DB	02dH
	DB	022H
	DB	07dH
	DB	02dH
	DB	022H
	DB	07dH
	DB	02dH
	DB	022H
	DB	07dH
	DB	02dH
	DB	022H
	DB	07dH
	DB	02dH
	DB	022H
	DB	07dH
	DB	02dH
	DB	022H
	DB	07dH
	DB	02dH
	DB	022H
	DB	07dH
	DB	02dH
	DB	022H
	DB	07dH
	DB	02dH
	DB	022H
	DB	07dH
	DB	02dH
	DB	022H
	DB	07dH
	DB	02dH
	DB	022H
	DB	07dH
	DB	02dH
	DB	022H
	DB	07dH
	DB	02dH
	DB	022H
	DB	07fH
	DB	02dH
	DB	022H
	DB	07fH
	DB	02dH
	DB	022H
	DB	07fH
	DB	02dH
	DB	022H
	DB	07fH
	DB	02dH
	DB	022H
	DB	07fH
	DB	02dH
	DB	022H
	DB	07fH
	DB	02dH
	DB	022H
	DB	07fH
	DB	02dH
	DB	022H
	DB	07fH
	DB	02dH
	DB	022H
	DB	07fH
	DB	02dH
	DB	022H
	DB	07fH
	DB	02dH
	DB	022H
	DB	07fH
	DB	02dH
	DB	022H
	DB	07fH
	DB	02dH
	DB	022H
	DB	07fH
	DB	02dH
	DB	022H
	DB	07fH
	DB	02dH
	DB	022H
	DB	07fH
	DB	02dH
	DB	022H
	DB	07fH
	DB	02dH
	DB	022H
	DB	07fH
	DB	02dH
	DB	022H
	DB	07fH
	DB	02dH
	DB	022H
	DB	07fH
	DB	02dH
	DB	022H
	DB	07fH
	DB	02dH
	DB	022H
	DB	07fH
	DB	02dH
	DB	022H
	DB	07fH
	DB	02dH
	DB	022H
	DB	07fH
	DB	02dH
	DB	022H
	DB	07fH
	DB	02dH
	DB	022H
	DB	07fH
	DB	02dH
	DB	022H
	DB	07fH
	DB	02dH
	DB	022H
	DB	07dH
	DB	02dH
	DB	022H
	DB	07dH
	DB	02dH
	DB	022H
	DB	07dH
	DB	02dH
	DB	022H
	DB	07dH
	DB	02dH
	DB	022H
	DB	07dH
	DB	02dH
	DB	022H
	DB	07dH
	DB	02dH
	DB	022H
	DB	07dH
	DB	02dH
	DB	022H
	DB	07dH
	DB	02dH
	DB	022H
	DB	07dH
	DB	02dH
	DB	022H
	DB	07dH
	DB	02dH
	DB	022H
	DB	07dH
	DB	02dH
	DB	022H
	DB	07dH
	DB	02dH
	DB	022H
	DB	07dH
	DB	02dH
	DB	022H
	DB	07dH
	DB	02dH
	DB	022H
	DB	07dH
	DB	02dH
	DB	022H
	DB	07dH
	DB	02dH
	DB	022H
	DB	07dH
	DB	02dH
	DB	022H
	DB	07dH
	DB	02dH
	DB	022H
	DB	07dH
	DB	02dH
	DB	022H
	DB	07dH
	DB	02dH
	DB	022H
	DB	07dH
	DB	02dH
	DB	022H
	DB	07dH
	DB	02dH
	DB	022H
	DB	07dH
	DB	02dH
	DB	022H
	DB	07dH
	DB	02dH
	DB	022H
	DB	07dH
	DB	02dH
	DB	022H
	DB	07dH
	DB	02dH
	DB	022H
	DB	07dH
	DB	02dH
	DB	022H
	DB	07dH
	DB	02dH
	DB	022H
	DB	07dH
	DB	02dH
	DB	022H
	DB	07dH
	DB	02dH
	DB	022H
	DB	07dH
	DB	02dH
	DB	022H
	DB	07dH
	DB	02dH
	DB	022H
	DB	07dH
	DB	02dH
	DB	022H
	DB	07dH
	DB	02dH
	DB	022H
	DB	07dH
	DB	02dH
	DB	022H
	DB	07dH
	DB	02dH
	DB	022H
	DB	07dH
	DB	02dH
	DB	022H
	DB	07dH
	DB	02dH
	DB	022H
	DB	07dH
	DB	02dH
	DB	022H
	DB	07dH
	DB	02dH
	DB	022H
	DB	07dH
	DB	02dH
	DB	022H
	DB	07dH
	DB	02dH
	DB	022H
	DB	07dH
	DB	02dH
	DB	022H
	DB	07dH
	DB	02dH
	DB	022H
	DB	07dH
	DB	02dH
	DB	022H
	DB	07dH
	DB	02dH
	DB	022H
	DB	07dH
	DB	02dH
	DB	022H
	DB	07dH
	DB	02dH
	DB	022H
	DB	07dH
	DB	02dH
	DB	022H
	DB	07dH
	DB	02dH
	DB	022H
	DB	07dH
	DB	02dH
	DB	022H
	DB	07dH
	DB	02dH
	DB	022H
	DB	07dH
	DB	02dH
	DB	022H
	DB	07dH
	DB	02dH
	DB	022H
	DB	07dH
	DB	02dH
	DB	022H
	DB	07dH
	DB	02dH
	DB	022H
	DB	07dH
	DB	02dH
	DB	022H
	DB	07dH
	DB	02dH
	DB	022H
	DB	07dH
	DB	02dH
	DB	022H
	DB	07dH
	DB	02dH
	DB	022H
	DB	07dH
	DB	02dH
	DB	022H
	DB	07dH
	DB	02dH
	DB	022H
	DB	07dH
	DB	02dH
	DB	022H
	DB	07dH
	DB	02dH
	DB	022H
	DB	07dH
	DB	02dH
	DB	022H
	DB	07dH
	DB	02dH
	DB	022H
	DB	07dH
	DB	02dH
	DB	022H
	DB	07dH
	DB	02dH
	DB	022H
	DB	07dH
	DB	02dH
	DB	022H
	DB	07dH
	DB	02dH
	DB	022H
	DB	07dH
	DB	02dH
	DB	022H
	DB	07dH
	DB	02dH
	DB	022H
	DB	07dH
	DB	02dH
	DB	022H
	DB	07dH
	DB	02dH
	DB	022H
	DB	07dH
	DB	02dH
	DB	022H
	DB	07dH
	DB	02dH
	DB	022H
	DB	07dH
	DB	02dH
	DB	022H
	DB	07dH
	DB	02dH
	DB	022H
	DB	07dH
	DB	02dH
	DB	022H
	DB	07dH
	DB	02dH
	DB	022H
	DB	07dH
	DB	02dH
	DB	022H
	DB	07dH
	DB	02dH
	DB	022H
	DB	07dH
	DB	02dH
	DB	022H
	DB	07dH
	DB	02dH
	DB	022H
	DB	07dH
	DB	02dH
	DB	022H
	DB	07dH
	DB	02dH
	DB	022H
	DB	07dH
	DB	02dH
	DB	022H
	DB	07dH
	DB	02dH
	DB	022H
	DB	07dH
	DB	02dH
	DB	022H
	DB	07dH
	DB	02dH
	DB	022H
	DB	07dH
	DB	02dH
	DB	022H
	DB	07dH
	DB	02dH
	DB	022H
	DB	07dH
	DB	02dH
	DB	022H
	DB	07dH
	DB	02dH
	DB	022H
	DB	07dH
	DB	02dH
	DB	022H
	DB	07dH
	DB	02dH
	DB	022H
	DB	07dH
	DB	02dH
	DB	022H
	DB	07dH
	DB	02dH
	DB	022H
	DB	07dH
	DB	02dH
	DB	022H
	DB	07dH
	DB	02dH
	DB	022H
	DB	07dH
	DB	02dH
	DB	022H
	DB	07dH
	DB	02dH
	DB	022H
	DB	07dH
	DB	02dH
	DB	022H
	DB	07dH
	DB	02dH
	DB	022H
	DB	07dH
	DB	02dH
	DB	022H
	DB	07fH
	DB	02dH
	DB	022H
	DB	07fH
	DB	02dH
	DB	022H
	DB	07fH
	DB	02dH
	DB	022H
	DB	07fH
	DB	02dH
	DB	022H
	DB	07fH
	DB	02dH
	DB	022H
	DB	07fH
	DB	02dH
	DB	022H
	DB	07fH
	DB	02dH
	DB	022H
	DB	07fH
	DB	02dH
	DB	022H
	DB	07fH
	DB	02dH
	DB	022H
	DB	07fH
	DB	02dH
	DB	022H
	DB	07fH
	DB	02dH
	DB	022H
	DB	07fH
	DB	02dH
	DB	022H
	DB	07fH
	DB	02dH
	DB	022H
	DB	07fH
	DB	02dH
	DB	022H
	DB	07fH
	DB	02dH
	DB	022H
	DB	07fH
	DB	02dH
	DB	022H
	DB	07fH
	DB	02dH
	DB	022H
	DB	07fH
	DB	02dH
	DB	022H
	DB	07fH
	DB	02dH
	DB	022H
	DB	07fH
	DB	02dH
	DB	022H
	DB	07fH
	DB	02dH
	DB	022H
	DB	07fH
	DB	02dH
	DB	022H
	DB	07fH
	DB	02dH
	DB	022H
	DB	07fH
	DB	02dH
	DB	022H
	DB	07fH
	DB	02dH
	DB	022H
	DB	07fH
	DB	02dH
	DB	022H
	DB	07fH
	DB	02dH
	DB	022H
	DB	07fH
	DB	02dH
	DB	022H
	DB	07fH
	DB	02dH
	DB	022H
	DB	07fH
	DB	02dH
	DB	022H
	DB	07fH
	DB	02dH
	DB	022H
	DB	07fH
	DB	02dH
	DB	022H
	DB	07fH
	DB	02dH
	DB	022H
	DB	07fH
	DB	02dH
	DB	022H
	DB	07fH
	DB	02dH
	DB	022H
	DB	07fH
	DB	02dH
	DB	022H
	DB	07fH
	DB	02dH
	DB	022H
	DB	07fH
	DB	02dH
	DB	022H
	DB	07fH
	DB	02dH
	DB	022H
	DB	07fH
	DB	02dH
	DB	022H
	DB	07fH
	DB	02dH
	DB	022H
	DB	07fH
	DB	02dH
	DB	022H
	DB	07fH
	DB	02dH
	DB	022H
	DB	07fH
	DB	02dH
	DB	022H
	DB	07dH
	DB	02dH
	DB	022H
	DB	07dH
	DB	02dH
	DB	022H
	DB	07dH
	DB	02dH
	DB	022H
	DB	07dH
	DB	02dH
	DB	022H
	DB	07dH
	DB	02dH
	DB	022H
	DB	07dH
	DB	02dH
	DB	022H
	DB	07dH
	DB	02dH
	DB	022H
	DB	07dH
	DB	02dH
	DB	022H
	DB	07dH
	DB	02dH
	DB	022H
	DB	07dH
	DB	02dH
	DB	022H
	DB	07dH
	DB	02dH
	DB	022H
	DB	07dH
	DB	02dH
	DB	022H
	DB	07dH
	DB	02dH
	DB	022H
	DB	07dH
	DB	02dH
	DB	022H
	DB	07dH
	DB	02dH
	DB	022H
	DB	07dH
	DB	02dH
	DB	022H
	DB	07dH
	DB	02dH
	DB	022H
	DB	07dH
	DB	02dH
	DB	022H
	DB	07dH
	DB	02dH
	DB	022H
	DB	07dH
	DB	02dH
	DB	022H
	DB	07dH
	DB	02dH
	DB	022H
	DB	07dH
	DB	02dH
	DB	022H
	DB	07dH
	DB	02dH
	DB	022H
	DB	07dH
	DB	02dH
	DB	022H
	DB	07dH
	DB	02dH
	DB	022H
	DB	07dH
	DB	02dH
	DB	022H
	DB	07dH
	DB	02dH
	DB	022H
	DB	07dH
	DB	02dH
	DB	022H
	DB	07dH
	DB	02dH
	DB	022H
	DB	07dH
	DB	02dH
	DB	022H
	DB	07dH
	DB	02dH
	DB	022H
	DB	07dH
	DB	02dH
	DB	022H
	DB	07dH
	DB	02dH
	DB	022H
	DB	07dH
	DB	02dH
	DB	022H
	DB	07dH
	DB	02dH
	DB	022H
	DB	07dH
	DB	02dH
	DB	022H
	DB	07dH
	DB	02dH
	DB	022H
	DB	07dH
	DB	02dH
	DB	022H
	DB	07dH
	DB	02dH
	DB	022H
	DB	07dH
	DB	02dH
	DB	022H
	DB	07dH
	DB	02dH
	DB	022H
	DB	07dH
	DB	02dH
	DB	022H
	DB	07dH
	DB	02dH
	DB	022H
	DB	07dH
	DB	02dH
	DB	022H
	DB	07dH
	DB	02dH
	DB	022H
	DB	07dH
	DB	02dH
	DB	022H
	DB	07dH
	DB	02dH
	DB	022H
	DB	07dH
	DB	02dH
	DB	022H
	DB	07dH
	DB	02dH
	DB	022H
	DB	07dH
	DB	02dH
	DB	022H
	DB	07dH
	DB	02dH
	DB	022H
	DB	07dH
	DB	02dH
	DB	022H
	DB	07dH
	DB	02dH
	DB	022H
	DB	07dH
	DB	02dH
	DB	022H
	DB	07dH
	DB	02dH
	DB	022H
	DB	07dH
	DB	02dH
	DB	022H
	DB	07dH
	DB	02dH
	DB	022H
	DB	07dH
	DB	02dH
	DB	022H
	DB	07dH
	DB	02dH
	DB	022H
	DB	07dH
	DB	02dH
	DB	022H
	DB	07dH
	DB	02dH
	DB	022H
	DB	07dH
	DB	02dH
	DB	022H
	DB	07dH
	DB	02dH
	DB	022H
	DB	07dH
	DB	02dH
	DB	022H
	DB	07dH
	DB	02dH
	DB	022H
	DB	07dH
	DB	02dH
	DB	022H
	DB	07dH
	DB	02dH
	DB	022H
	DB	07dH
	DB	02dH
	DB	022H
	DB	07dH
	DB	02dH
	DB	022H
	DB	07dH
	DB	02dH
	DB	022H
	DB	07dH
	DB	02dH
	DB	022H
	DB	07dH
	DB	02dH
	DB	022H
	DB	07dH
	DB	02dH
	DB	022H
	DB	07dH
	DB	02dH
	DB	022H
	DB	07dH
	DB	02dH
	DB	022H
	DB	07dH
	DB	02dH
	DB	022H
	DB	07dH
	DB	02dH
	DB	022H
	DB	07dH
	DB	02dH
	DB	022H
	DB	07dH
	DB	02dH
	DB	022H
	DB	07dH
	DB	02dH
	DB	022H
	DB	07dH
	DB	02dH
	DB	022H
	DB	07dH
	DB	02dH
	DB	022H
	DB	07dH
	DB	02dH
	DB	022H
	DB	07dH
	DB	02dH
	DB	022H
	DB	07dH
	DB	02dH
	DB	022H
	DB	07dH
	DB	02dH
	DB	022H
	DB	07dH
	DB	02dH
	DB	022H
	DB	07dH
	DB	02dH
	DB	022H
	DB	07dH
	DB	02dH
	DB	022H
	DB	07fH
	DB	02dH
	DB	022H
	DB	07fH
	DB	02dH
	DB	022H
	DB	07fH
	DB	02dH
	DB	022H
	DB	07fH
	DB	02dH
	DB	022H
	DB	07fH
	DB	02dH
	DB	022H
	DB	07fH
	DB	02dH
	DB	022H
	DB	07fH
	DB	02dH
	DB	022H
	DB	07fH
	DB	02dH
	DB	022H
	DB	07fH
	DB	02dH
	DB	022H
	DB	07fH
	DB	02dH
	DB	022H
	DB	07fH
	DB	02dH
	DB	022H
	DB	07fH
	DB	02dH
	DB	022H
	DB	07fH
	DB	02dH
	DB	022H
	DB	07fH
	DB	02dH
	DB	022H
	DB	07fH
	DB	02dH
	DB	022H
	DB	07fH
	DB	02dH
	DB	022H
	DB	07fH
	DB	02dH
	DB	022H
	DB	07fH
	DB	02dH
	DB	022H
	DB	07fH
	DB	02dH
	DB	022H
	DB	07fH
	DB	02dH
	DB	022H
	DB	07fH
	DB	02dH
	DB	022H
	DB	07fH
	DB	02dH
	DB	022H
	DB	07fH
	DB	02dH
	DB	022H
	DB	07fH
	DB	02dH
	DB	022H
	DB	07fH
	DB	02dH
	DB	022H
	DB	07fH
	DB	02dH
	DB	022H
	DB	07fH
	DB	02dH
	DB	022H
	DB	07fH
	DB	02dH
	DB	022H
	DB	07fH
	DB	02dH
	DB	022H
	DB	07fH
	DB	02dH
	DB	022H
	DB	07fH
	DB	02dH
	DB	022H
	DB	07fH
	DB	02dH
	DB	022H
	DB	07fH
	DB	02dH
	DB	022H
	DB	07fH
	DB	02dH
	DB	022H
	DB	07fH
	DB	02dH
	DB	022H
	DB	07fH
	DB	02dH
	DB	022H
	DB	07fH
	DB	02dH
	DB	022H
	DB	07fH
	DB	02dH
	DB	022H
	DB	07fH
	DB	02dH
	DB	022H
	DB	07fH
	DB	02dH
	DB	022H
	DB	07fH
	DB	02dH
	DB	022H
	DB	07fH
	DB	02dH
	DB	022H
	DB	07fH
	DB	02dH
	DB	022H
	DB	07fH
	DB	02dH
	DB	022H
	DB	07fH
	DB	02dH
	DB	022H
	DB	07fH
	DB	02dH
	DB	022H
	DB	07fH
	DB	02dH
	DB	022H
	DB	07fH
	DB	02dH
	DB	022H
	DB	07fH
	DB	02dH
	DB	022H
	DB	07fH
	DB	02dH
	DB	022H
	DB	07fH
	DB	02dH
	DB	022H
	DB	07fH
	DB	02dH
	DB	022H
	DB	07fH
	DB	02dH
	DB	022H
	DB	07fH
	DB	02dH
	DB	022H
	DB	07fH
	DB	02dH
	DB	022H
	DB	07fH
	DB	02dH
	DB	022H
	DB	07fH
	DB	02dH
	DB	022H
	DB	07dH
	DB	02dH
	DB	022H
	DB	07dH
	DB	02dH
	DB	022H
	DB	07dH
	DB	02dH
	DB	022H
	DB	07dH
	DB	02dH
	DB	022H
	DB	07dH
	DB	02dH
	DB	022H
	DB	07dH
	DB	02dH
	DB	022H
	DB	07dH
	DB	02dH
	DB	022H
	DB	07dH
	DB	02dH
	DB	022H
	DB	07dH
	DB	02dH
	DB	022H
	DB	07dH
	DB	02dH
	DB	022H
	DB	07dH
	DB	02dH
	DB	022H
	DB	07dH
	DB	02dH
	DB	022H
	DB	07dH
	DB	02dH
	DB	022H
	DB	07dH
	DB	02dH
	DB	022H
	DB	07dH
	DB	02dH
	DB	022H
	DB	07dH
	DB	02dH
	DB	022H
	DB	07dH
	DB	02dH
	DB	022H
	DB	07dH
	DB	02dH
	DB	022H
	DB	07dH
	DB	02dH
	DB	022H
	DB	07dH
	DB	02dH
	DB	022H
	DB	07dH
	DB	02dH
	DB	022H
	DB	07dH
	DB	02dH
	DB	022H
	DB	07dH
	DB	02dH
	DB	022H
	DB	07dH
	DB	02dH
	DB	022H
	DB	07dH
	DB	02dH
	DB	022H
	DB	07dH
	DB	02dH
	DB	022H
	DB	07dH
	DB	02dH
	DB	022H
	DB	07dH
	DB	02dH
	DB	022H
	DB	07dH
	DB	02dH
	DB	022H
	DB	07dH
	DB	02dH
	DB	022H
	DB	07dH
	DB	02dH
	DB	022H
	DB	07dH
	DB	02dH
	DB	022H
	DB	07dH
	DB	02dH
	DB	022H
	DB	07dH
	DB	02dH
	DB	022H
	DB	07dH
	DB	02dH
	DB	022H
	DB	07dH
	DB	02dH
	DB	022H
	DB	07dH
	DB	02dH
	DB	022H
	DB	07dH
	DB	02dH
	DB	022H
	DB	07dH
	DB	02dH
	DB	022H
	DB	07dH
	DB	02dH
	DB	022H
	DB	07dH
	DB	02dH
	DB	022H
	DB	07dH
	DB	02dH
	DB	022H
	DB	07dH
	DB	02dH
	DB	022H
	DB	07dH
	DB	02dH
	DB	022H
	DB	07dH
	DB	02dH
	DB	022H
	DB	07dH
	DB	02dH
	DB	022H
	DB	07dH
	DB	02dH
	DB	022H
	DB	07dH
	DB	02dH
	DB	022H
	DB	07dH
	DB	02dH
	DB	022H
	DB	07dH
	DB	02dH
	DB	022H
	DB	07dH
	DB	02dH
	DB	022H
	DB	07dH
	DB	02dH
	DB	022H
	DB	07dH
	DB	02dH
	DB	022H
	DB	07dH
	DB	02dH
	DB	022H
	DB	07dH
	DB	02dH
	DB	022H
	DB	07dH
	DB	02dH
	DB	022H
	DB	07dH
	DB	02dH
	DB	022H
	DB	07dH
	DB	02dH
	DB	022H
	DB	07dH
	DB	02dH
	DB	022H
	DB	07dH
	DB	02dH
	DB	022H
	DB	07dH
	DB	02dH
	DB	022H
	DB	07dH
	DB	02dH
	DB	022H
	DB	07dH
	DB	02dH
	DB	022H
	DB	07dH
	DB	02dH
	DB	022H
	DB	07dH
	DB	02dH
	DB	022H
	DB	07dH
	DB	02dH
	DB	022H
	DB	07dH
	DB	02dH
	DB	022H
	DB	07dH
	DB	02dH
	DB	022H
	DB	07dH
	DB	02dH
	DB	022H
	DB	07dH
	DB	02dH
	DB	022H
	DB	07dH
	DB	02dH
	DB	022H
	DB	07dH
	DB	02dH
	DB	022H
	DB	07dH
	DB	02dH
	DB	022H
	DB	07dH
	DB	02dH
	DB	022H
	DB	07dH
	DB	02dH
	DB	022H
	DB	07dH
	DB	02dH
	DB	022H
	DB	07dH
	DB	02dH
	DB	022H
	DB	07dH
	DB	02dH
	DB	022H
	DB	07fH
	DB	02dH
	DB	022H
	DB	07fH
	DB	02dH
	DB	022H
	DB	07fH
	DB	02dH
	DB	022H
	DB	07fH
	DB	02dH
	DB	022H
	DB	07fH
	DB	02dH
	DB	022H
	DB	07fH
	DB	02dH
	DB	022H
	DB	07fH
	DB	02dH
	DB	022H
	DB	07fH
	DB	02dH
	DB	022H
	DB	07fH
	DB	02dH
	DB	022H
	DB	07fH
	DB	02dH
	DB	022H
	DB	07fH
	DB	02dH
	DB	022H
	DB	07fH
	DB	02dH
	DB	022H
	DB	07fH
	DB	02dH
	DB	022H
	DB	07fH
	DB	02dH
	DB	022H
	DB	07fH
	DB	02dH
	DB	022H
	DB	07fH
	DB	02dH
	DB	022H
	DB	07fH
	DB	02dH
	DB	022H
	DB	07fH
	DB	02dH
	DB	022H
	DB	07fH
	DB	02dH
	DB	022H
	DB	07fH
	DB	02dH
	DB	022H
	DB	07fH
	DB	02dH
	DB	022H
	DB	07fH
	DB	02dH
	DB	022H
	DB	07fH
	DB	02dH
	DB	022H
	DB	07fH
	DB	02dH
	DB	022H
	DB	07fH
	DB	02dH
	DB	022H
	DB	07fH
	DB	02dH
	DB	022H
	DB	07fH
	DB	02dH
	DB	022H
	DB	07fH
	DB	02dH
	DB	022H
	DB	07fH
	DB	02dH
	DB	022H
	DB	07fH
	DB	02dH
	DB	022H
	DB	07fH
	DB	02dH
	DB	022H
	DB	07fH
	DB	02dH
	DB	022H
	DB	07fH
	DB	02dH
	DB	022H
	DB	07fH
	DB	02dH
	DB	022H
	DB	07fH
	DB	02dH
	DB	022H
	DB	07fH
	DB	02dH
	DB	022H
	DB	07fH
	DB	02dH
	DB	022H
	DB	07fH
	DB	02dH
	DB	022H
	DB	07fH
	DB	02dH
	DB	022H
	DB	07fH
	DB	02dH
	DB	022H
	DB	07fH
	DB	02dH
	DB	022H
	DB	07fH
	DB	02dH
	DB	022H
	DB	07fH
	DB	02dH
	DB	022H
	DB	07fH
	DB	02dH
	DB	022H
	DB	07fH
	DB	02dH
	DB	022H
	DB	07fH
	DB	02dH
	DB	022H
	DB	07fH
	DB	02dH
	DB	022H
	DB	07fH
	DB	02dH
	DB	022H
	DB	07fH
	DB	02dH
	DB	022H
	DB	07fH
	DB	02dH
	DB	022H
	DB	07fH
	DB	02dH
	DB	022H
	DB	07fH
	DB	02dH
	DB	022H
	DB	07fH
	DB	02dH
	DB	022H
	DB	07fH
	DB	02dH
	DB	022H
	DB	07fH
	DB	02dH
	DB	022H
	DB	07fH
	DB	02dH
	DB	022H
	DB	07fH
	DB	02dH
	DB	022H
	DB	07fH
	DB	02dH
	DB	022H
	DB	07fH
	DB	02dH
	DB	022H
	DB	07fH
	DB	02dH
	DB	022H
	DB	07fH
	DB	02dH
	DB	022H
	DB	07fH
	DB	02dH
	DB	022H
	DB	07fH
	DB	02dH
	DB	022H
	DB	07fH
	DB	02dH
	DB	022H
	DB	07fH
	DB	02dH
	DB	022H
	DB	07fH
	DB	02dH
	DB	022H
	DB	07fH
	DB	02dH
	DB	022H
	DB	07dH
	DB	02dH
	DB	022H
	DB	07dH
	DB	02dH
	DB	022H
	DB	07dH
	DB	02dH
	DB	022H
	DB	07dH
	DB	02dH
	DB	022H
	DB	07dH
	DB	02dH
	DB	022H
	DB	07dH
	DB	02dH
	DB	022H
	DB	07dH
	DB	02dH
	DB	022H
	DB	07dH
	DB	02dH
	DB	022H
	DB	07dH
	DB	02dH
	DB	022H
	DB	07dH
	DB	02dH
	DB	022H
	DB	07dH
	DB	02dH
	DB	022H
	DB	07dH
	DB	02dH
	DB	022H
	DB	07dH
	DB	02dH
	DB	022H
	DB	07dH
	DB	02dH
	DB	022H
	DB	07dH
	DB	02dH
	DB	022H
	DB	07dH
	DB	02dH
	DB	022H
	DB	07dH
	DB	02dH
	DB	022H
	DB	07dH
	DB	02dH
	DB	022H
	DB	07dH
	DB	02dH
	DB	022H
	DB	07dH
	DB	02dH
	DB	022H
	DB	07dH
	DB	02dH
	DB	022H
	DB	07dH
	DB	02dH
	DB	022H
	DB	07dH
	DB	02dH
	DB	022H
	DB	07dH
	DB	02dH
	DB	022H
	DB	07dH
	DB	02dH
	DB	022H
	DB	07dH
	DB	02dH
	DB	022H
	DB	07dH
	DB	02dH
	DB	022H
	DB	07dH
	DB	02dH
	DB	022H
	DB	07dH
	DB	02dH
	DB	022H
	DB	07dH
	DB	02dH
	DB	022H
	DB	07dH
	DB	02dH
	DB	022H
	DB	07dH
	DB	02dH
	DB	022H
	DB	07dH
	DB	02dH
	DB	022H
	DB	07dH
	DB	02dH
	DB	022H
	DB	07dH
	DB	02dH
	DB	022H
	DB	07dH
	DB	02dH
	DB	022H
	DB	07dH
	DB	02dH
	DB	022H
	DB	07dH
	DB	02dH
	DB	022H
	DB	07dH
	DB	02dH
	DB	022H
	DB	07dH
	DB	02dH
	DB	022H
	DB	07dH
	DB	02dH
	DB	022H
	DB	07dH
	DB	02dH
	DB	022H
	DB	07dH
	DB	02dH
	DB	022H
	DB	07dH
	DB	02dH
	DB	022H
	DB	07dH
	DB	02dH
	DB	022H
	DB	07dH
	DB	02dH
	DB	022H
	DB	07dH
	DB	02dH
	DB	022H
	DB	07dH
	DB	02dH
	DB	022H
	DB	07dH
	DB	02dH
	DB	022H
	DB	07dH
	DB	02dH
	DB	022H
	DB	07dH
	DB	02dH
	DB	022H
	DB	07dH
	DB	02dH
	DB	022H
	DB	07dH
	DB	02dH
	DB	022H
	DB	07dH
	DB	02dH
	DB	022H
	DB	07dH
	DB	02dH
	DB	022H
	DB	07dH
	DB	02dH
	DB	022H
	DB	07dH
	DB	02dH
	DB	022H
	DB	07dH
	DB	02dH
	DB	022H
	DB	07dH
	DB	02dH
	DB	022H
	DB	07dH
	DB	02dH
	DB	022H
	DB	07dH
	DB	02dH
	DB	022H
	DB	07dH
	DB	02dH
	DB	022H
	DB	07dH
	DB	02dH
	DB	022H
	DB	07dH
	DB	02dH
	DB	022H
	DB	07dH
	DB	02dH
	DB	022H
	DB	07dH
	DB	02dH
	DB	022H
	DB	07dH
	DB	02dH
	DB	022H
	DB	07dH
	DB	02dH
	DB	022H
	DB	07fH
	DB	02dH
	DB	022H
	DB	07fH
	DB	02dH
	DB	022H
	DB	07fH
	DB	02dH
	DB	022H
	DB	07fH
	DB	02dH
	DB	022H
	DB	07fH
	DB	02dH
	DB	022H
	DB	07fH
	DB	02dH
	DB	022H
	DB	07fH
	DB	02dH
	DB	022H
	DB	07fH
	DB	02dH
	DB	022H
	DB	07fH
	DB	02dH
	DB	022H
	DB	07fH
	DB	02dH
	DB	022H
	DB	07fH
	DB	02dH
	DB	022H
	DB	07fH
	DB	02dH
	DB	022H
	DB	07fH
	DB	02dH
	DB	022H
	DB	07fH
	DB	02dH
	DB	022H
	DB	07fH
	DB	02dH
	DB	022H
	DB	07fH
	DB	02dH
	DB	022H
	DB	07fH
	DB	02dH
	DB	022H
	DB	07fH
	DB	02dH
	DB	022H
	DB	07fH
	DB	02dH
	DB	022H
	DB	07fH
	DB	02dH
	DB	022H
	DB	07fH
	DB	02dH
	DB	022H
	DB	07fH
	DB	02dH
	DB	022H
	DB	07fH
	DB	02dH
	DB	022H
	DB	07fH
	DB	02dH
	DB	022H
	DB	07fH
	DB	02dH
	DB	022H
	DB	07fH
	DB	02dH
	DB	022H
	DB	07fH
	DB	02dH
	DB	022H
	DB	07fH
	DB	02dH
	DB	022H
	DB	07fH
	DB	02dH
	DB	022H
	DB	07fH
	DB	02dH
	DB	022H
	DB	07fH
	DB	02dH
	DB	022H
	DB	07fH
	DB	02dH
	DB	022H
	DB	07fH
	DB	02dH
	DB	022H
	DB	07fH
	DB	02dH
	DB	022H
	DB	07fH
	DB	02dH
	DB	022H
	DB	07fH
	DB	02dH
	DB	022H
	DB	07fH
	DB	02dH
	DB	022H
	DB	07fH
	DB	02dH
	DB	022H
	DB	07fH
	DB	02dH
	DB	022H
	DB	07fH
	DB	02dH
	DB	022H
	DB	07fH
	DB	02dH
	DB	022H
	DB	07fH
	DB	02dH
	DB	022H
	DB	07fH
	DB	02dH
	DB	022H
	DB	07fH
	DB	02dH
	DB	022H
	DB	07fH
	DB	02dH
	DB	022H
	DB	07fH
	DB	02dH
	DB	022H
	DB	07fH
	DB	02dH
	DB	022H
	DB	07fH
	DB	02dH
	DB	022H
	DB	07fH
	DB	02dH
	DB	022H
	DB	07fH
	DB	02dH
	DB	022H
	DB	07fH
	DB	02dH
	DB	022H
	DB	07fH
	DB	02dH
	DB	022H
	DB	07fH
	DB	02dH
	DB	022H
	DB	07fH
	DB	02dH
	DB	022H
	DB	07fH
	DB	02dH
	DB	022H
	DB	07fH
	DB	02dH
	DB	022H
	DB	07fH
	DB	02dH
	DB	022H
	DB	07fH
	DB	02dH
	DB	022H
	DB	07fH
	DB	02dH
	DB	022H
	DB	07fH
	DB	02dH
	DB	022H
	DB	07fH
	DB	02dH
	DB	022H
	DB	07fH
	DB	02dH
	DB	022H
	DB	07fH
	DB	02dH
	DB	022H
	DB	07fH
	DB	02dH
	DB	022H
	DB	07fH
	DB	02dH
	DB	022H
	DB	07fH
	DB	02dH
	DB	022H
	DB	07fH
	DB	02dH
	DB	022H
	DB	07fH
	DB	02dH
	DB	022H
	DB	07fH
	DB	02dH
	DB	022H
	DB	07fH
	DB	02dH
	DB	022H
	DB	07fH
	DB	02dH
	DB	022H
	DB	07fH
	DB	02dH
	DB	022H
	DB	07fH
	DB	02dH
	DB	022H
	DB	07fH
	DB	02dH
	DB	022H
	DB	07fH
	DB	02dH
	DB	022H
	DB	07fH
	DB	02dH
	DB	022H
	DB	07dH
	DB	02dH
	DB	022H
	DB	07dH
	DB	02dH
	DB	022H
	DB	07dH
	DB	02dH
	DB	022H
	DB	07dH
	DB	02dH
	DB	022H
	DB	07dH
	DB	02dH
	DB	022H
	DB	07dH
	DB	02dH
	DB	022H
	DB	07dH
	DB	02dH
	DB	022H
	DB	07dH
	DB	02dH
	DB	022H
	DB	07dH
	DB	02dH
	DB	022H
	DB	07dH
	DB	02dH
	DB	022H
	DB	07dH
	DB	02dH
	DB	022H
	DB	07dH
	DB	02dH
	DB	022H
	DB	07dH
	DB	02dH
	DB	022H
	DB	07dH
	DB	02dH
	DB	022H
	DB	07dH
	DB	02dH
	DB	022H
	DB	07dH
	DB	02dH
	DB	022H
	DB	07dH
	DB	02dH
	DB	022H
	DB	07dH
	DB	02dH
	DB	022H
	DB	07dH
	DB	02dH
	DB	022H
	DB	07dH
	DB	02dH
	DB	022H
	DB	07dH
	DB	02dH
	DB	022H
	DB	07dH
	DB	02dH
	DB	022H
	DB	07dH
	DB	02dH
	DB	022H
	DB	07dH
	DB	02dH
	DB	022H
	DB	07dH
	DB	02dH
	DB	022H
	DB	07dH
	DB	02dH
	DB	022H
	DB	07dH
	DB	02dH
	DB	022H
	DB	07dH
	DB	02dH
	DB	022H
	DB	07dH
	DB	02dH
	DB	022H
	DB	07dH
	DB	02dH
	DB	022H
	DB	07dH
	DB	02dH
	DB	022H
	DB	07dH
	DB	02dH
	DB	022H
	DB	07dH
	DB	02dH
	DB	022H
	DB	07dH
	DB	02dH
	DB	022H
	DB	07dH
	DB	02dH
	DB	022H
	DB	07dH
	DB	02dH
	DB	022H
	DB	07dH
	DB	02dH
	DB	022H
	DB	07dH
	DB	02dH
	DB	022H
	DB	07dH
	DB	02dH
	DB	022H
	DB	07dH
	DB	02dH
	DB	022H
	DB	07dH
	DB	02dH
	DB	022H
	DB	07dH
	DB	02dH
	DB	022H
	DB	07dH
	DB	02dH
	DB	022H
	DB	07dH
	DB	02dH
	DB	022H
	DB	07dH
	DB	02dH
	DB	022H
	DB	07dH
	DB	02dH
	DB	022H
	DB	07dH
	DB	02dH
	DB	022H
	DB	07dH
	DB	02dH
	DB	022H
	DB	07dH
	DB	02dH
	DB	022H
	DB	07dH
	DB	02dH
	DB	022H
	DB	07dH
	DB	02dH
	DB	022H
	DB	07dH
	DB	02dH
	DB	022H
	DB	07dH
	DB	02dH
	DB	022H
	DB	07dH
	DB	02dH
	DB	022H
	DB	07dH
	DB	02dH
	DB	022H
	DB	07dH
	DB	02dH
	DB	022H
	DB	07dH
	DB	02dH
	DB	022H
	DB	07dH
	DB	02dH
	DB	022H
	DB	07dH
	DB	02dH
	DB	022H
	DB	07dH
	DB	02dH
	DB	022H
	DB	07fH
	DB	02dH
	DB	022H
	DB	07fH
	DB	02dH
	DB	022H
	DB	07fH
	DB	02dH
	DB	022H
	DB	07fH
	DB	02dH
	DB	022H
	DB	07fH
	DB	02dH
	DB	022H
	DB	07fH
	DB	02dH
	DB	022H
	DB	07fH
	DB	02dH
	DB	022H
	DB	07fH
	DB	02dH
	DB	022H
	DB	07fH
	DB	02dH
	DB	022H
	DB	07fH
	DB	02dH
	DB	022H
	DB	07fH
	DB	02dH
	DB	022H
	DB	07fH
	DB	02dH
	DB	022H
	DB	07fH
	DB	02dH
	DB	022H
	DB	07fH
	DB	02dH
	DB	022H
	DB	07fH
	DB	02dH
	DB	022H
	DB	07fH
	DB	02dH
	DB	022H
	DB	07fH
	DB	02dH
	DB	022H
	DB	07fH
	DB	02dH
	DB	022H
	DB	07fH
	DB	02dH
	DB	022H
	DB	07fH
	DB	02dH
	DB	022H
	DB	07fH
	DB	02dH
	DB	022H
	DB	07fH
	DB	02dH
	DB	022H
	DB	07fH
	DB	02dH
	DB	022H
	DB	07fH
	DB	02dH
	DB	022H
	DB	07fH
	DB	02dH
	DB	022H
	DB	07fH
	DB	02dH
	DB	022H
	DB	07fH
	DB	02dH
	DB	022H
	DB	07fH
	DB	02dH
	DB	022H
	DB	07fH
	DB	02dH
	DB	022H
	DB	07fH
	DB	02dH
	DB	022H
	DB	07fH
	DB	02dH
	DB	022H
	DB	07fH
	DB	02dH
	DB	022H
	DB	07fH
	DB	02dH
	DB	022H
	DB	07fH
	DB	02dH
	DB	022H
	DB	07fH
	DB	02dH
	DB	022H
	DB	07fH
	DB	02dH
	DB	022H
	DB	07fH
	DB	02dH
	DB	022H
	DB	07fH
	DB	02dH
	DB	022H
	DB	07fH
	DB	02dH
	DB	022H
	DB	07fH
	DB	02dH
	DB	022H
	DB	07fH
	DB	02dH
	DB	022H
	DB	07fH
	DB	02dH
	DB	022H
	DB	07fH
	DB	02dH
	DB	022H
	DB	07fH
	DB	02dH
	DB	022H
	DB	07fH
	DB	02dH
	DB	022H
	DB	07fH
	DB	02dH
	DB	022H
	DB	07fH
	DB	02dH
	DB	022H
	DB	07fH
	DB	02dH
	DB	022H
	DB	07fH
	DB	02dH
	DB	022H
	DB	07fH
	DB	02dH
	DB	022H
	DB	07fH
	DB	02dH
	DB	022H
	DB	07fH
	DB	02dH
	DB	022H
	DB	07fH
	DB	02dH
	DB	022H
	DB	07fH
	DB	02dH
	DB	022H
	DB	07fH
	DB	02dH
	DB	022H
	DB	07fH
	DB	02dH
	DB	022H
	DB	07fH
	DB	02dH
	DB	022H
	DB	07fH
	DB	02dH
	DB	022H
	DB	07fH
	DB	02dH
	DB	022H
	DB	07fH
	DB	02dH
	DB	022H
	DB	07fH
	DB	02dH
	DB	022H
	DB	07fH
	DB	02dH
	DB	022H
	DB	07fH
	DB	02dH
	DB	022H
	DB	07fH
	DB	02dH
	DB	022H
	DB	07fH
	DB	02dH
	DB	022H
	DB	07fH
	DB	02dH
	DB	022H
	DB	07fH
	DB	02dH
	DB	022H
	DB	07fH
	DB	02dH
	DB	022H
	DB	07fH
	DB	02dH
	DB	022H
	DB	07fH
	DB	02dH
	DB	022H
	DB	07fH
	DB	02dH
	DB	022H
	DB	07fH
	DB	02dH
	DB	022H
	DB	07fH
	DB	02dH
	DB	022H
	DB	07fH
	DB	02dH
	DB	022H
	DB	07fH
	DB	02dH
	DB	022H
	DB	07fH
	DB	02dH
	DB	022H
	DB	07fH
	DB	02dH
	DB	022H
	DB	07fH
	DB	02dH
	DB	022H
	DB	07fH
	DB	02dH
	DB	022H
	DB	07fH
	DB	02dH
	DB	022H
	DB	07fH
	DB	02dH
	DB	022H
	DB	07fH
	DB	02dH
	DB	022H
	DB	07fH
	DB	02dH
	DB	022H
	DB	07fH
	DB	02dH
	DB	022H
	DB	07dH
	DB	02dH
	DB	022H
	DB	07dH
	DB	02dH
	DB	022H
	DB	07dH
	DB	02dH
	DB	022H
	DB	07dH
	DB	02dH
	DB	022H
	DB	07dH
	DB	02dH
	DB	022H
	DB	07dH
	DB	02dH
	DB	022H
	DB	07dH
	DB	02dH
	DB	022H
	DB	07dH
	DB	02dH
	DB	022H
	DB	07dH
	DB	02dH
	DB	022H
	DB	07dH
	DB	02dH
	DB	022H
	DB	07dH
	DB	02dH
	DB	022H
	DB	07dH
	DB	02dH
	DB	022H
	DB	07dH
	DB	02dH
	DB	022H
	DB	07dH
	DB	02dH
	DB	022H
	DB	07dH
	DB	02dH
	DB	022H
	DB	07dH
	DB	02dH
	DB	022H
	DB	07dH
	DB	02dH
	DB	022H
	DB	07dH
	DB	02dH
	DB	022H
	DB	07dH
	DB	02dH
	DB	022H
	DB	07dH
	DB	02dH
	DB	022H
	DB	07dH
	DB	02dH
	DB	022H
	DB	07dH
	DB	02dH
	DB	022H
	DB	07dH
	DB	02dH
	DB	022H
	DB	07dH
	DB	02dH
	DB	022H
	DB	07dH
	DB	02dH
	DB	022H
	DB	07dH
	DB	02dH
	DB	022H
	DB	07dH
	DB	02dH
	DB	022H
	DB	07dH
	DB	02dH
	DB	022H
	DB	07dH
	DB	02dH
	DB	022H
	DB	07dH
	DB	02dH
	DB	022H
	DB	07dH
	DB	02dH
	DB	022H
	DB	07dH
	DB	02dH
	DB	022H
	DB	07dH
	DB	02dH
	DB	022H
	DB	07dH
	DB	02dH
	DB	022H
	DB	07dH
	DB	02dH
	DB	022H
	DB	07dH
	DB	02dH
	DB	022H
	DB	07dH
	DB	02dH
	DB	022H
	DB	07dH
	DB	02dH
	DB	022H
	DB	07dH
	DB	02dH
	DB	022H
	DB	07dH
	DB	02dH
	DB	022H
	DB	07dH
	DB	02dH
	DB	022H
	DB	07dH
	DB	02dH
	DB	022H
	DB	07dH
	DB	02dH
	DB	022H
	DB	07dH
	DB	02dH
	DB	022H
	DB	07dH
	DB	02dH
	DB	022H
	DB	07dH
	DB	02dH
	DB	022H
	DB	07dH
	DB	02dH
	DB	022H
	DB	07dH
	DB	02dH
	DB	022H
	DB	07dH
	DB	02dH
	DB	022H
	DB	07dH
	DB	02dH
	DB	022H
	DB	07dH
	DB	02dH
	DB	022H
	DB	07dH
	DB	02dH
	DB	022H
	DB	07dH
	DB	02dH
	DB	022H
	DB	07fH
	DB	02dH
	DB	022H
	DB	07fH
	DB	02dH
	DB	022H
	DB	07fH
	DB	02dH
	DB	022H
	DB	07fH
	DB	02dH
	DB	022H
	DB	07fH
	DB	02dH
	DB	022H
	DB	07fH
	DB	02dH
	DB	022H
	DB	07fH
	DB	02dH
	DB	022H
	DB	07fH
	DB	02dH
	DB	022H
	DB	07fH
	DB	02dH
	DB	022H
	DB	07fH
	DB	02dH
	DB	022H
	DB	07fH
	DB	02dH
	DB	022H
	DB	07fH
	DB	02dH
	DB	022H
	DB	07fH
	DB	02dH
	DB	022H
	DB	07fH
	DB	02dH
	DB	022H
	DB	07fH
	DB	02dH
	DB	022H
	DB	07fH
	DB	02dH
	DB	022H
	DB	07fH
	DB	02dH
	DB	022H
	DB	07fH
	DB	02dH
	DB	022H
	DB	07fH
	DB	02dH
	DB	022H
	DB	07fH
	DB	02dH
	DB	022H
	DB	07fH
	DB	02dH
	DB	022H
	DB	07fH
	DB	02dH
	DB	022H
	DB	07fH
	DB	02dH
	DB	022H
	DB	07fH
	DB	02dH
	DB	022H
	DB	07fH
	DB	02dH
	DB	022H
	DB	07fH
	DB	02dH
	DB	022H
	DB	07fH
	DB	02dH
	DB	022H
	DB	07fH
	DB	02dH
	DB	022H
	DB	07fH
	DB	02dH
	DB	022H
	DB	07fH
	DB	02dH
	DB	022H
	DB	07fH
	DB	02dH
	DB	022H
	DB	07fH
	DB	02dH
	DB	022H
	DB	07fH
	DB	02dH
	DB	022H
	DB	07fH
	DB	02dH
	DB	022H
	DB	07fH
	DB	02dH
	DB	022H
	DB	07fH
	DB	02dH
	DB	022H
	DB	07fH
	DB	02dH
	DB	022H
	DB	07fH
	DB	02dH
	DB	022H
	DB	07fH
	DB	02dH
	DB	022H
	DB	07fH
	DB	02dH
	DB	022H
	DB	07fH
	DB	02dH
	DB	022H
	DB	07fH
	DB	02dH
	DB	022H
	DB	07fH
	DB	02dH
	DB	022H
	DB	07fH
	DB	02dH
	DB	022H
	DB	07fH
	DB	02dH
	DB	022H
	DB	07fH
	DB	02dH
	DB	022H
	DB	07fH
	DB	02dH
	DB	022H
	DB	07fH
	DB	02dH
	DB	022H
	DB	07fH
	DB	02dH
	DB	022H
	DB	07fH
	DB	02dH
	DB	022H
	DB	07fH
	DB	02dH
	DB	022H
	DB	07fH
	DB	02dH
	DB	022H
	DB	07fH
	DB	02dH
	DB	022H
	DB	07fH
	DB	02dH
	DB	022H
	DB	07fH
	DB	02dH
	DB	022H
	DB	07fH
	DB	02dH
	DB	022H
	DB	07fH
	DB	02dH
	DB	022H
	DB	07fH
	DB	02dH
	DB	022H
	DB	07fH
	DB	02dH
	DB	022H
	DB	07fH
	DB	02dH
	DB	022H
	DB	07fH
	DB	02dH
	DB	022H
	DB	07fH
	DB	02dH
	DB	022H
	DB	07fH
	DB	02dH
	DB	022H
	DB	07fH
	DB	02dH
	DB	022H
	DB	07fH
	DB	02dH
	DB	022H
	DB	07fH
	DB	02dH
	DB	022H
	DB	07fH
	DB	02dH
	DB	022H
	DB	07fH
	DB	02dH
	DB	022H
	DB	07fH
	DB	02dH
	DB	022H
	DB	07fH
	DB	02dH
	DB	022H
	DB	07fH
	DB	02dH
	DB	022H
	DB	07fH
	DB	02dH
	DB	022H
	DB	07fH
	DB	02dH
	DB	022H
	DB	07fH
	DB	02dH
	DB	022H
	DB	07fH
	DB	02dH
	DB	022H
	DB	07fH
	DB	02dH
	DB	022H
	DB	07fH
	DB	02dH
	DB	022H
	DB	07fH
	DB	02dH
	DB	022H
	DB	07fH
	DB	02dH
	DB	022H
	DB	07fH
	DB	02dH
	DB	022H
	DB	07fH
	DB	02dH
	DB	022H
	DB	07fH
	DB	02dH
	DB	022H
	DB	07fH
	DB	02dH
	DB	022H
	DB	07fH
	DB	02dH
	DB	022H
	DB	07fH
	DB	02dH
	DB	022H
	DB	07fH
	DB	02dH
	DB	022H
	DB	07fH
	DB	02dH
	DB	022H
	DB	07fH
	DB	02dH
	DB	022H
	DB	07fH
	DB	02dH
	DB	022H
	DB	07fH
	DB	02dH
	DB	022H
	DB	07dH
	DB	02dH
	DB	022H
	DB	07dH
	DB	02dH
	DB	022H
	DB	07dH
	DB	02dH
	DB	022H
	DB	07dH
	DB	02dH
	DB	022H
	DB	07dH
	DB	02dH
	DB	022H
	DB	07dH
	DB	02dH
	DB	022H
	DB	07dH
	DB	02dH
	DB	022H
	DB	07dH
	DB	02dH
	DB	022H
	DB	07dH
	DB	02dH
	DB	022H
	DB	07dH
	DB	02dH
	DB	022H
	DB	07dH
	DB	02dH
	DB	022H
	DB	07dH
	DB	02dH
	DB	022H
	DB	07dH
	DB	02dH
	DB	022H
	DB	07dH
	DB	02dH
	DB	022H
	DB	07dH
	DB	02dH
	DB	022H
	DB	07dH
	DB	02dH
	DB	022H
	DB	07dH
	DB	02dH
	DB	022H
	DB	07dH
	DB	02dH
	DB	022H
	DB	07dH
	DB	02dH
	DB	022H
	DB	07dH
	DB	02dH
	DB	022H
	DB	07dH
	DB	02dH
	DB	022H
	DB	07dH
	DB	02dH
	DB	022H
	DB	07dH
	DB	02dH
	DB	022H
	DB	07dH
	DB	02dH
	DB	022H
	DB	07dH
	DB	02dH
	DB	022H
	DB	07dH
	DB	02dH
	DB	022H
	DB	07dH
	DB	02dH
	DB	022H
	DB	07dH
	DB	02dH
	DB	022H
	DB	07dH
	DB	02dH
	DB	022H
	DB	07dH
	DB	02dH
	DB	022H
	DB	07dH
	DB	02dH
	DB	022H
	DB	07dH
	DB	02dH
	DB	022H
	DB	07dH
	DB	02dH
	DB	022H
	DB	07dH
	DB	02dH
	DB	022H
	DB	07dH
	DB	02dH
	DB	022H
	DB	07dH
	DB	02dH
	DB	022H
	DB	07dH
	DB	02dH
	DB	022H
	DB	07dH
	DB	02dH
	DB	022H
	DB	07dH
	DB	02dH
	DB	022H
	DB	07dH
	DB	02dH
	DB	022H
	DB	07dH
	DB	02dH
	DB	022H
	DB	07dH
	DB	02dH
	DB	022H
	DB	07dH
	DB	02dH
	DB	022H
	DB	07dH
	DB	02dH
	DB	022H
	DB	07dH
	DB	02dH
	DB	022H
	DB	07dH
	DB	02dH
	DB	022H
	DB	07fH
	DB	02dH
	DB	022H
	DB	07fH
	DB	02dH
	DB	022H
	DB	07fH
	DB	02dH
	DB	022H
	DB	07fH
	DB	02dH
	DB	022H
	DB	07fH
	DB	02dH
	DB	022H
	DB	07fH
	DB	02dH
	DB	022H
	DB	07fH
	DB	02dH
	DB	022H
	DB	07fH
	DB	02dH
	DB	022H
	DB	07fH
	DB	02dH
	DB	022H
	DB	07fH
	DB	02dH
	DB	022H
	DB	07fH
	DB	02dH
	DB	022H
	DB	07fH
	DB	02dH
	DB	022H
	DB	07fH
	DB	02dH
	DB	022H
	DB	07fH
	DB	02dH
	DB	022H
	DB	07fH
	DB	02dH
	DB	022H
	DB	07fH
	DB	02dH
	DB	022H
	DB	07fH
	DB	02dH
	DB	022H
	DB	07fH
	DB	02dH
	DB	022H
	DB	07fH
	DB	02dH
	DB	022H
	DB	07fH
	DB	02dH
	DB	022H
	DB	07fH
	DB	02dH
	DB	022H
	DB	07fH
	DB	02dH
	DB	022H
	DB	07fH
	DB	02dH
	DB	022H
	DB	07fH
	DB	02dH
	DB	022H
	DB	07fH
	DB	02dH
	DB	022H
	DB	07fH
	DB	02dH
	DB	022H
	DB	07fH
	DB	02dH
	DB	022H
	DB	07fH
	DB	02dH
	DB	022H
	DB	07fH
	DB	02dH
	DB	022H
	DB	07fH
	DB	02dH
	DB	022H
	DB	07fH
	DB	02dH
	DB	022H
	DB	07fH
	DB	02dH
	DB	022H
	DB	07fH
	DB	02dH
	DB	022H
	DB	07fH
	DB	02dH
	DB	022H
	DB	07fH
	DB	02dH
	DB	022H
	DB	07fH
	DB	02dH
	DB	022H
	DB	07fH
	DB	02dH
	DB	022H
	DB	07fH
	DB	02dH
	DB	022H
	DB	07fH
	DB	02dH
	DB	022H
	DB	07fH
	DB	02dH
	DB	022H
	DB	07fH
	DB	02dH
	DB	022H
	DB	07fH
	DB	02dH
	DB	022H
	DB	07fH
	DB	02dH
	DB	022H
	DB	07fH
	DB	02dH
	DB	022H
	DB	07fH
	DB	02dH
	DB	022H
	DB	07fH
	DB	02dH
	DB	022H
	DB	07fH
	DB	02dH
	DB	022H
	DB	07fH
	DB	02dH
	DB	022H
	DB	07fH
	DB	02dH
	DB	022H
	DB	07fH
	DB	02dH
	DB	022H
	DB	07fH
	DB	02dH
	DB	022H
	DB	07fH
	DB	02dH
	DB	022H
	DB	07fH
	DB	02dH
	DB	022H
	DB	07fH
	DB	02dH
	DB	022H
	DB	07fH
	DB	02dH
	DB	022H
	DB	07fH
	DB	02dH
	DB	022H
	DB	07fH
	DB	02dH
	DB	022H
	DB	07fH
	DB	02dH
	DB	022H
	DB	07fH
	DB	02dH
	DB	022H
	DB	07fH
	DB	02dH
	DB	022H
	DB	07fH
	DB	02dH
	DB	022H
	DB	07fH
	DB	02dH
	DB	022H
	DB	07fH
	DB	02dH
	DB	022H
	DB	07fH
	DB	02dH
	DB	022H
	DB	07fH
	DB	02dH
	DB	022H
	DB	07fH
	DB	02dH
	DB	022H
	DB	07fH
	DB	02dH
	DB	022H
	DB	07fH
	DB	02dH
	DB	022H
	DB	07fH
	DB	02dH
	DB	022H
	DB	07fH
	DB	02dH
	DB	022H
	DB	07fH
	DB	02dH
	DB	022H
	DB	07fH
	DB	02dH
	DB	022H
	DB	07fH
	DB	02dH
	DB	022H
	DB	07fH
	DB	02dH
	DB	022H
	DB	07fH
	DB	02dH
	DB	022H
	DB	07fH
	DB	02dH
	DB	022H
	DB	07fH
	DB	02dH
	DB	022H
	DB	07fH
	DB	02dH
	DB	022H
	DB	07fH
	DB	02dH
	DB	022H
	DB	07fH
	DB	02dH
	DB	022H
	DB	07fH
	DB	02dH
	DB	022H
	DB	07fH
	DB	02dH
	DB	022H
	DB	07fH
	DB	02dH
	DB	022H
	DB	07fH
	DB	02dH
	DB	022H
	DB	07fH
	DB	02dH
	DB	022H
	DB	07fH
	DB	02dH
	DB	022H
	DB	07fH
	DB	02dH
	DB	022H
	DB	07fH
	DB	02dH
	DB	022H
	DB	07fH
	DB	02dH
	DB	022H
	DB	07fH
	DB	02dH
	DB	022H
	DB	07fH
	DB	02dH
	DB	022H
	DB	07fH
	DB	02dH
	DB	022H
	DB	07fH
	DB	02dH
	DB	022H
	DB	07fH
	DB	02dH
	DB	022H
	DB	07fH
	DB	02dH
	DB	022H
	DB	07fH
	DB	02dH
	DB	022H
	DB	07dH
	DB	02dH
	DB	022H
	DB	07dH
	DB	02dH
	DB	022H
	DB	07dH
	DB	02dH
	DB	022H
	DB	07dH
	DB	02dH
	DB	022H
	DB	07dH
	DB	02dH
	DB	022H
	DB	07dH
	DB	02dH
	DB	022H
	DB	07dH
	DB	02dH
	DB	022H
	DB	07dH
	DB	02dH
	DB	022H
	DB	07dH
	DB	02dH
	DB	022H
	DB	07dH
	DB	02dH
	DB	022H
	DB	07dH
	DB	02dH
	DB	022H
	DB	07dH
	DB	02dH
	DB	022H
	DB	07dH
	DB	02dH
	DB	022H
	DB	07dH
	DB	02dH
	DB	022H
	DB	07dH
	DB	02dH
	DB	022H
	DB	07dH
	DB	02dH
	DB	022H
	DB	07dH
	DB	02dH
	DB	022H
	DB	07dH
	DB	02dH
	DB	022H
	DB	07dH
	DB	02dH
	DB	022H
	DB	07dH
	DB	02dH
	DB	022H
	DB	07dH
	DB	02dH
	DB	022H
	DB	07dH
	DB	02dH
	DB	022H
	DB	07dH
	DB	02dH
	DB	022H
	DB	07dH
	DB	02dH
	DB	022H
	DB	07dH
	DB	02dH
	DB	022H
	DB	07dH
	DB	02dH
	DB	022H
	DB	07dH
	DB	02dH
	DB	022H
	DB	07dH
	DB	02dH
	DB	022H
	DB	07dH
	DB	02dH
	DB	022H
	DB	07dH
	DB	02dH
	DB	022H
	DB	07dH
	DB	02dH
	DB	022H
	DB	07dH
	DB	02dH
	DB	022H
	DB	07dH
	DB	02dH
	DB	022H
	DB	07dH
	DB	02dH
	DB	022H
	DB	07dH
	DB	02dH
	DB	022H
	DB	07dH
	DB	02dH
	DB	022H
	DB	07dH
	DB	02dH
	DB	022H
	DB	07dH
	DB	02dH
	DB	022H
	DB	07dH
	DB	02dH
	DB	022H
	DB	07dH
	DB	02dH
	DB	022H
	DB	07dH
	DB	02dH
	DB	022H
	DB	07fH
	DB	02dH
	DB	022H
	DB	07fH
	DB	02dH
	DB	022H
	DB	07fH
	DB	02dH
	DB	022H
	DB	07fH
	DB	02dH
	DB	022H
	DB	07fH
	DB	02dH
	DB	022H
	DB	07fH
	DB	02dH
	DB	022H
	DB	07fH
	DB	02dH
	DB	022H
	DB	07fH
	DB	02dH
	DB	022H
	DB	07fH
	DB	02dH
	DB	022H
	DB	07fH
	DB	02dH
	DB	022H
	DB	07fH
	DB	02dH
	DB	022H
	DB	07fH
	DB	02dH
	DB	022H
	DB	07fH
	DB	02dH
	DB	022H
	DB	07fH
	DB	02dH
	DB	022H
	DB	07fH
	DB	02dH
	DB	022H
	DB	07fH
	DB	02dH
	DB	022H
	DB	07fH
	DB	02dH
	DB	022H
	DB	07fH
	DB	02dH
	DB	022H
	DB	07fH
	DB	02dH
	DB	022H
	DB	07fH
	DB	02dH
	DB	022H
	DB	07fH
	DB	02dH
	DB	022H
	DB	07fH
	DB	02dH
	DB	022H
	DB	07fH
	DB	02dH
	DB	022H
	DB	07fH
	DB	02dH
	DB	022H
	DB	07fH
	DB	02dH
	DB	022H
	DB	07fH
	DB	02dH
	DB	022H
	DB	07fH
	DB	02dH
	DB	022H
	DB	07fH
	DB	02dH
	DB	022H
	DB	07fH
	DB	02dH
	DB	022H
	DB	07fH
	DB	02dH
	DB	022H
	DB	07fH
	DB	02dH
	DB	022H
	DB	07fH
	DB	02dH
	DB	022H
	DB	07fH
	DB	02dH
	DB	022H
	DB	07fH
	DB	02dH
	DB	022H
	DB	07fH
	DB	02dH
	DB	022H
	DB	07fH
	DB	02dH
	DB	022H
	DB	07fH
	DB	02dH
	DB	022H
	DB	07fH
	DB	02dH
	DB	022H
	DB	07fH
	DB	02dH
	DB	022H
	DB	07fH
	DB	02dH
	DB	022H
	DB	07fH
	DB	02dH
	DB	022H
	DB	07fH
	DB	02dH
	DB	022H
	DB	07fH
	DB	02dH
	DB	022H
	DB	07fH
	DB	02dH
	DB	022H
	DB	07fH
	DB	02dH
	DB	022H
	DB	07fH
	DB	02dH
	DB	022H
	DB	07fH
	DB	02dH
	DB	022H
	DB	07fH
	DB	02dH
	DB	022H
	DB	07fH
	DB	02dH
	DB	022H
	DB	07fH
	DB	02dH
	DB	022H
	DB	07fH
	DB	02dH
	DB	022H
	DB	07fH
	DB	02dH
	DB	022H
	DB	07fH
	DB	02dH
	DB	022H
	DB	07fH
	DB	02dH
	DB	022H
	DB	07fH
	DB	02dH
	DB	022H
	DB	07fH
	DB	02dH
	DB	022H
	DB	07fH
	DB	02dH
	DB	022H
	DB	07fH
	DB	02dH
	DB	022H
	DB	07fH
	DB	02dH
	DB	022H
	DB	07fH
	DB	02dH
	DB	022H
	DB	07fH
	DB	02dH
	DB	022H
	DB	07fH
	DB	02dH
	DB	022H
	DB	07fH
	DB	02dH
	DB	022H
	DB	07fH
	DB	02dH
	DB	022H
	DB	07fH
	DB	02dH
	DB	022H
	DB	07fH
	DB	02dH
	DB	022H
	DB	07fH
	DB	02dH
	DB	022H
	DB	07fH
	DB	02dH
	DB	022H
	DB	07fH
	DB	02dH
	DB	022H
	DB	07fH
	DB	02dH
	DB	022H
	DB	07fH
	DB	02dH
	DB	022H
	DB	07fH
	DB	02dH
	DB	022H
	DB	07fH
	DB	02dH
	DB	022H
	DB	07fH
	DB	02dH
	DB	022H
	DB	07fH
	DB	02dH
	DB	022H
	DB	07fH
	DB	02dH
	DB	022H
	DB	07fH
	DB	02dH
	DB	022H
	DB	07fH
	DB	02dH
	DB	022H
	DB	07fH
	DB	02dH
	DB	022H
	DB	07fH
	DB	02dH
	DB	022H
	DB	07fH
	DB	02dH
	DB	022H
	DB	07fH
	DB	02dH
	DB	022H
	DB	07fH
	DB	02dH
	DB	022H
	DB	07fH
	DB	02dH
	DB	022H
	DB	07fH
	DB	02dH
	DB	022H
	DB	07fH
	DB	02dH
	DB	022H
	DB	07fH
	DB	02dH
	DB	022H
	DB	07fH
	DB	02dH
	DB	022H
	DB	07fH
	DB	02dH
	DB	022H
	DB	07fH
	DB	02dH
	DB	022H
	DB	07fH
	DB	02dH
	DB	022H
	DB	07fH
	DB	02dH
	DB	022H
	DB	07fH
	DB	02dH
	DB	022H
	DB	07fH
	DB	02dH
	DB	022H
	DB	07fH
	DB	02dH
	DB	022H
	DB	07fH
	DB	02dH
	DB	022H
	DB	07fH
	DB	02dH
	DB	022H
	DB	07fH
	DB	02dH
	DB	022H
	DB	07fH
	DB	02dH
	DB	022H
	DB	07fH
	DB	02dH
	DB	022H
	DB	07fH
	DB	02dH
	DB	022H
	DB	07fH
	DB	02dH
	DB	022H
	DB	07dH
	DB	02dH
	DB	022H
	DB	07dH
	DB	02dH
	DB	022H
	DB	07dH
	DB	02dH
	DB	022H
	DB	07dH
	DB	02dH
	DB	022H
	DB	07dH
	DB	02dH
	DB	022H
	DB	07dH
	DB	02dH
	DB	022H
	DB	07dH
	DB	02dH
	DB	022H
	DB	07dH
	DB	02dH
	DB	022H
	DB	07dH
	DB	02dH
	DB	022H
	DB	07dH
	DB	02dH
	DB	022H
	DB	07dH
	DB	02dH
	DB	022H
	DB	07dH
	DB	02dH
	DB	022H
	DB	07dH
	DB	02dH
	DB	022H
	DB	07dH
	DB	02dH
	DB	022H
	DB	07dH
	DB	02dH
	DB	022H
	DB	07dH
	DB	02dH
	DB	022H
	DB	07dH
	DB	02dH
	DB	022H
	DB	07dH
	DB	02dH
	DB	022H
	DB	07dH
	DB	02dH
	DB	022H
	DB	07dH
	DB	02dH
	DB	022H
	DB	07dH
	DB	02dH
	DB	022H
	DB	07dH
	DB	02dH
	DB	022H
	DB	07dH
	DB	02dH
	DB	022H
	DB	07dH
	DB	02dH
	DB	022H
	DB	07dH
	DB	02dH
	DB	022H
	DB	07dH
	DB	02dH
	DB	022H
	DB	07dH
	DB	02dH
	DB	022H
	DB	07dH
	DB	02dH
	DB	022H
	DB	07dH
	DB	02dH
	DB	022H
	DB	07dH
	DB	02dH
	DB	022H
	DB	07dH
	DB	02dH
	DB	022H
	DB	07dH
	DB	02dH
	DB	022H
	DB	07dH
	DB	02dH
	DB	022H
	DB	07dH
	DB	02dH
	DB	022H
	DB	07dH
	DB	02dH
	DB	022H
	DB	07fH
	DB	02dH
	DB	022H
	DB	07fH
	DB	02dH
	DB	022H
	DB	07fH
	DB	02dH
	DB	022H
	DB	07fH
	DB	02dH
	DB	022H
	DB	07fH
	DB	02dH
	DB	022H
	DB	07fH
	DB	02dH
	DB	022H
	DB	07fH
	DB	02dH
	DB	022H
	DB	07fH
	DB	02dH
	DB	022H
	DB	07fH
	DB	02dH
	DB	022H
	DB	07fH
	DB	02dH
	DB	022H
	DB	07fH
	DB	02dH
	DB	022H
	DB	07fH
	DB	02dH
	DB	022H
	DB	07fH
	DB	02dH
	DB	022H
	DB	07fH
	DB	02dH
	DB	022H
	DB	07fH
	DB	02dH
	DB	022H
	DB	07fH
	DB	02dH
	DB	022H
	DB	07fH
	DB	02dH
	DB	022H
	DB	07fH
	DB	02dH
	DB	022H
	DB	07fH
	DB	02dH
	DB	022H
	DB	07fH
	DB	02dH
	DB	022H
	DB	07fH
	DB	02dH
	DB	022H
	DB	07fH
	DB	02dH
	DB	022H
	DB	07fH
	DB	02dH
	DB	022H
	DB	07fH
	DB	02dH
	DB	022H
	DB	07fH
	DB	02dH
	DB	022H
	DB	07fH
	DB	02dH
	DB	022H
	DB	07fH
	DB	02dH
	DB	022H
	DB	07fH
	DB	02dH
	DB	022H
	DB	07fH
	DB	02dH
	DB	022H
	DB	07fH
	DB	02dH
	DB	022H
	DB	07fH
	DB	02dH
	DB	022H
	DB	07fH
	DB	02dH
	DB	022H
	DB	07fH
	DB	02dH
	DB	022H
	DB	07fH
	DB	02dH
	DB	022H
	DB	07fH
	DB	02dH
	DB	022H
	DB	07fH
	DB	02dH
	DB	022H
	DB	07fH
	DB	02dH
	DB	022H
	DB	07fH
	DB	02dH
	DB	022H
	DB	07fH
	DB	02dH
	DB	022H
	DB	07fH
	DB	02dH
	DB	022H
	DB	07fH
	DB	02dH
	DB	022H
	DB	07fH
	DB	02dH
	DB	022H
	DB	07fH
	DB	02dH
	DB	022H
	DB	07fH
	DB	02dH
	DB	022H
	DB	07fH
	DB	02dH
	DB	022H
	DB	07fH
	DB	02dH
	DB	022H
	DB	07fH
	DB	02dH
	DB	022H
	DB	07fH
	DB	02dH
	DB	022H
	DB	07fH
	DB	02dH
	DB	022H
	DB	07fH
	DB	02dH
	DB	022H
	DB	07fH
	DB	02dH
	DB	022H
	DB	07fH
	DB	02dH
	DB	022H
	DB	07fH
	DB	02dH
	DB	022H
	DB	07fH
	DB	02dH
	DB	022H
	DB	07fH
	DB	02dH
	DB	022H
	DB	07fH
	DB	02dH
	DB	022H
	DB	07fH
	DB	02dH
	DB	022H
	DB	07fH
	DB	02dH
	DB	022H
	DB	07fH
	DB	02dH
	DB	022H
	DB	07fH
	DB	02dH
	DB	022H
	DB	07fH
	DB	02dH
	DB	022H
	DB	07fH
	DB	02dH
	DB	022H
	DB	07fH
	DB	02dH
	DB	022H
	DB	07fH
	DB	02dH
	DB	022H
	DB	07fH
	DB	02dH
	DB	022H
	DB	07fH
	DB	02dH
	DB	022H
	DB	07fH
	DB	02dH
	DB	022H
	DB	07fH
	DB	02dH
	DB	022H
	DB	07fH
	DB	02dH
	DB	022H
	DB	07fH
	DB	02dH
	DB	022H
	DB	07fH
	DB	02dH
	DB	022H
	DB	07fH
	DB	02dH
	DB	022H
	DB	07fH
	DB	02dH
	DB	022H
	DB	07fH
	DB	02dH
	DB	022H
	DB	07fH
	DB	02dH
	DB	022H
	DB	07fH
	DB	02dH
	DB	022H
	DB	07fH
	DB	02dH
	DB	022H
	DB	07fH
	DB	02dH
	DB	022H
	DB	07fH
	DB	02dH
	DB	022H
	DB	07fH
	DB	02dH
	DB	022H
	DB	07fH
	DB	02dH
	DB	022H
	DB	07fH
	DB	02dH
	DB	022H
	DB	07fH
	DB	02dH
	DB	022H
	DB	07fH
	DB	02dH
	DB	022H
	DB	07fH
	DB	02dH
	DB	022H
	DB	07fH
	DB	02dH
	DB	022H
	DB	07fH
	DB	02dH
	DB	022H
	DB	07fH
	DB	02dH
	DB	022H
	DB	07fH
	DB	02dH
	DB	022H
	DB	07fH
	DB	02dH
	DB	022H
	DB	07fH
	DB	02dH
	DB	022H
	DB	07fH
	DB	02dH
	DB	022H
	DB	07fH
	DB	02dH
	DB	022H
	DB	07fH
	DB	02dH
	DB	022H
	DB	07fH
	DB	02dH
	DB	022H
	DB	07fH
	DB	02dH
	DB	022H
	DB	07fH
	DB	02dH
	DB	022H
	DB	07fH
	DB	02dH
	DB	022H
	DB	07fH
	DB	02dH
	DB	022H
	DB	07fH
	DB	02dH
	DB	022H
	DB	07fH
	DB	02dH
	DB	022H
	DB	07fH
	DB	02dH
	DB	022H
	DB	07fH
	DB	02dH
	DB	022H
	DB	07fH
	DB	02dH
	DB	022H
	DB	07fH
	DB	02dH
	DB	022H
	DB	07fH
	DB	02dH
	DB	022H
	DB	07fH
	DB	02dH
	DB	022H
	DB	07dH
	DB	02dH
	DB	022H
	DB	07dH
	DB	02dH
	DB	022H
	DB	07dH
	DB	02dH
	DB	022H
	DB	07dH
	DB	02dH
	DB	022H
	DB	07dH
	DB	02dH
	DB	022H
	DB	07dH
	DB	02dH
	DB	022H
	DB	07dH
	DB	02dH
	DB	022H
	DB	07dH
	DB	02dH
	DB	022H
	DB	07dH
	DB	02dH
	DB	022H
	DB	07dH
	DB	02dH
	DB	022H
	DB	07dH
	DB	02dH
	DB	022H
	DB	07dH
	DB	02dH
	DB	022H
	DB	07dH
	DB	02dH
	DB	022H
	DB	07dH
	DB	02dH
	DB	022H
	DB	07dH
	DB	02dH
	DB	022H
	DB	07dH
	DB	02dH
	DB	022H
	DB	07dH
	DB	02dH
	DB	022H
	DB	07dH
	DB	02dH
	DB	022H
	DB	07dH
	DB	02dH
	DB	022H
	DB	07dH
	DB	02dH
	DB	022H
	DB	07dH
	DB	02dH
	DB	022H
	DB	07dH
	DB	02dH
	DB	022H
	DB	07dH
	DB	02dH
	DB	022H
	DB	07dH
	DB	02dH
	DB	022H
	DB	07dH
	DB	02dH
	DB	022H
	DB	07dH
	DB	02dH
	DB	022H
	DB	07dH
	DB	02dH
	DB	022H
	DB	07dH
	DB	02dH
	DB	022H
	DB	07dH
	DB	02dH
	DB	022H
	DB	07dH
	DB	02dH
	DB	022H
	DB	07dH
	DB	02dH
	DB	022H
	DB	07dH
	DB	02dH
	DB	022H
	DB	07fH
	DB	02dH
	DB	022H
	DB	07fH
	DB	02dH
	DB	022H
	DB	07fH
	DB	02dH
	DB	022H
	DB	07fH
	DB	02dH
	DB	022H
	DB	07fH
	DB	02dH
	DB	022H
	DB	07fH
	DB	02dH
	DB	022H
	DB	07fH
	DB	02dH
	DB	022H
	DB	07fH
	DB	02dH
	DB	022H
	DB	07fH
	DB	02dH
	DB	022H
	DB	07fH
	DB	02dH
	DB	022H
	DB	07fH
	DB	02dH
	DB	022H
	DB	07fH
	DB	02dH
	DB	022H
	DB	07fH
	DB	02dH
	DB	022H
	DB	07fH
	DB	02dH
	DB	022H
	DB	07fH
	DB	02dH
	DB	022H
	DB	07fH
	DB	02dH
	DB	022H
	DB	07fH
	DB	02dH
	DB	022H
	DB	07fH
	DB	02dH
	DB	022H
	DB	07fH
	DB	02dH
	DB	022H
	DB	07fH
	DB	02dH
	DB	022H
	DB	07fH
	DB	02dH
	DB	022H
	DB	07fH
	DB	02dH
	DB	022H
	DB	07fH
	DB	02dH
	DB	022H
	DB	07fH
	DB	02dH
	DB	022H
	DB	07fH
	DB	02dH
	DB	022H
	DB	07fH
	DB	02dH
	DB	022H
	DB	07fH
	DB	02dH
	DB	022H
	DB	07fH
	DB	02dH
	DB	022H
	DB	07fH
	DB	02dH
	DB	022H
	DB	07fH
	DB	02dH
	DB	022H
	DB	07fH
	DB	02dH
	DB	022H
	DB	07fH
	DB	02dH
	DB	022H
	DB	07fH
	DB	02dH
	DB	022H
	DB	07fH
	DB	02dH
	DB	022H
	DB	07fH
	DB	02dH
	DB	022H
	DB	07fH
	DB	02dH
	DB	022H
	DB	07fH
	DB	02dH
	DB	022H
	DB	07fH
	DB	02dH
	DB	022H
	DB	07fH
	DB	02dH
	DB	022H
	DB	07fH
	DB	02dH
	DB	022H
	DB	07fH
	DB	02dH
	DB	022H
	DB	07fH
	DB	02dH
	DB	022H
	DB	07fH
	DB	02dH
	DB	022H
	DB	07fH
	DB	02dH
	DB	022H
	DB	07fH
	DB	02dH
	DB	022H
	DB	07fH
	DB	02dH
	DB	022H
	DB	07fH
	DB	02dH
	DB	022H
	DB	07fH
	DB	02dH
	DB	022H
	DB	07fH
	DB	02dH
	DB	022H
	DB	07fH
	DB	02dH
	DB	022H
	DB	07fH
	DB	02dH
	DB	022H
	DB	07fH
	DB	02dH
	DB	022H
	DB	07fH
	DB	02dH
	DB	022H
	DB	07fH
	DB	02dH
	DB	022H
	DB	07fH
	DB	02dH
	DB	022H
	DB	07fH
	DB	02dH
	DB	022H
	DB	07fH
	DB	02dH
	DB	022H
	DB	07fH
	DB	02dH
	DB	022H
	DB	07fH
	DB	02dH
	DB	022H
	DB	07fH
	DB	02dH
	DB	022H
	DB	07fH
	DB	02dH
	DB	022H
	DB	07fH
	DB	02dH
	DB	022H
	DB	07fH
	DB	02dH
	DB	022H
	DB	07fH
	DB	02dH
	DB	022H
	DB	07fH
	DB	02dH
	DB	022H
	DB	07fH
	DB	02dH
	DB	022H
	DB	07fH
	DB	02dH
	DB	022H
	DB	07fH
	DB	02dH
	DB	022H
	DB	07fH
	DB	02dH
	DB	022H
	DB	07fH
	DB	02dH
	DB	022H
	DB	07fH
	DB	02dH
	DB	022H
	DB	07fH
	DB	02dH
	DB	022H
	DB	07fH
	DB	02dH
	DB	022H
	DB	07fH
	DB	02dH
	DB	022H
	DB	07fH
	DB	02dH
	DB	022H
	DB	07fH
	DB	02dH
	DB	022H
	DB	07fH
	DB	02dH
	DB	022H
	DB	07fH
	DB	02dH
	DB	022H
	DB	07fH
	DB	02dH
	DB	022H
	DB	07fH
	DB	02dH
	DB	022H
	DB	07fH
	DB	02dH
	DB	022H
	DB	07fH
	DB	02dH
	DB	022H
	DB	07fH
	DB	02dH
	DB	022H
	DB	07fH
	DB	02dH
	DB	022H
	DB	07fH
	DB	02dH
	DB	022H
	DB	07fH
	DB	02dH
	DB	022H
	DB	07fH
	DB	02dH
	DB	022H
	DB	07fH
	DB	02dH
	DB	022H
	DB	07fH
	DB	02dH
	DB	022H
	DB	07fH
	DB	02dH
	DB	022H
	DB	07fH
	DB	02dH
	DB	022H
	DB	07fH
	DB	02dH
	DB	022H
	DB	07fH
	DB	02dH
	DB	022H
	DB	07fH
	DB	02dH
	DB	022H
	DB	07fH
	DB	02dH
	DB	022H
	DB	07fH
	DB	02dH
	DB	022H
	DB	07fH
	DB	02dH
	DB	022H
	DB	07fH
	DB	02dH
	DB	022H
	DB	07fH
	DB	02dH
	DB	022H
	DB	07fH
	DB	02dH
	DB	022H
	DB	07fH
	DB	02dH
	DB	022H
	DB	07fH
	DB	02dH
	DB	022H
	DB	07fH
	DB	02dH
	DB	022H
	DB	07fH
	DB	02dH
	DB	022H
	DB	07fH
	DB	02dH
	DB	022H
	DB	07fH
	DB	02dH
	DB	022H
	DB	07fH
	DB	02dH
	DB	022H
	DB	07fH
	DB	02dH
	DB	022H
	DB	07fH
	DB	02dH
	DB	022H
	DB	07fH
	DB	02dH
	DB	022H
	DB	07dH
	DB	02dH
	DB	022H
	DB	07dH
	DB	02dH
	DB	022H
	DB	07dH
	DB	02dH
	DB	022H
	DB	07dH
	DB	02dH
	DB	022H
	DB	07dH
	DB	02dH
	DB	022H
	DB	07dH
	DB	02dH
	DB	022H
	DB	07dH
	DB	02dH
	DB	022H
	DB	07dH
	DB	02dH
	DB	022H
	DB	07dH
	DB	02dH
	DB	022H
	DB	07dH
	DB	02dH
	DB	022H
	DB	07dH
	DB	02dH
	DB	022H
	DB	07dH
	DB	02dH
	DB	022H
	DB	07dH
	DB	02dH
	DB	022H
	DB	07dH
	DB	02dH
	DB	022H
	DB	07dH
	DB	02dH
	DB	022H
	DB	07dH
	DB	02dH
	DB	022H
	DB	07dH
	DB	02dH
	DB	022H
	DB	07dH
	DB	02dH
	DB	022H
	DB	07dH
	DB	02dH
	DB	022H
	DB	07dH
	DB	02dH
	DB	022H
	DB	07dH
	DB	02dH
	DB	022H
	DB	07dH
	DB	02dH
	DB	022H
	DB	07dH
	DB	02dH
	DB	022H
	DB	07dH
	DB	02dH
	DB	022H
	DB	07dH
	DB	02dH
	DB	022H
	DB	07dH
	DB	02dH
	DB	022H
	DB	07dH
	DB	02dH
	DB	022H
	DB	07dH
	DB	02dH
	DB	022H
	DB	07dH
	DB	02dH
	DB	022H
	DB	07dH
	DB	02dH
	DB	022H
	DB	07fH
	DB	02dH
	DB	022H
	DB	07fH
	DB	02dH
	DB	022H
	DB	07fH
	DB	02dH
	DB	022H
	DB	07fH
	DB	02dH
	DB	022H
	DB	07fH
	DB	02dH
	DB	022H
	DB	07fH
	DB	02dH
	DB	022H
	DB	07fH
	DB	02dH
	DB	022H
	DB	07fH
	DB	02dH
	DB	022H
	DB	07fH
	DB	02dH
	DB	022H
	DB	07fH
	DB	02dH
	DB	022H
	DB	07fH
	DB	02dH
	DB	022H
	DB	07fH
	DB	02dH
	DB	022H
	DB	07fH
	DB	02dH
	DB	022H
	DB	07fH
	DB	02dH
	DB	022H
	DB	07fH
	DB	02dH
	DB	022H
	DB	07fH
	DB	02dH
	DB	022H
	DB	07fH
	DB	02dH
	DB	022H
	DB	07fH
	DB	02dH
	DB	022H
	DB	07fH
	DB	02dH
	DB	022H
	DB	07fH
	DB	02dH
	DB	022H
	DB	07fH
	DB	02dH
	DB	022H
	DB	07fH
	DB	02dH
	DB	022H
	DB	07fH
	DB	02dH
	DB	022H
	DB	07fH
	DB	02dH
	DB	022H
	DB	07fH
	DB	02dH
	DB	022H
	DB	07fH
	DB	02dH
	DB	022H
	DB	07fH
	DB	02dH
	DB	022H
	DB	07fH
	DB	02dH
	DB	022H
	DB	07fH
	DB	02dH
	DB	022H
	DB	07fH
	DB	02dH
	DB	022H
	DB	07fH
	DB	02dH
	DB	022H
	DB	07fH
	DB	02dH
	DB	022H
	DB	07fH
	DB	02dH
	DB	022H
	DB	07fH
	DB	02dH
	DB	022H
	DB	07fH
	DB	02dH
	DB	022H
	DB	07fH
	DB	02dH
	DB	022H
	DB	07fH
	DB	02dH
	DB	022H
	DB	07fH
	DB	02dH
	DB	022H
	DB	07fH
	DB	02dH
	DB	022H
	DB	07fH
	DB	02dH
	DB	022H
	DB	07fH
	DB	02dH
	DB	022H
	DB	07fH
	DB	02dH
	DB	022H
	DB	07fH
	DB	02dH
	DB	022H
	DB	07fH
	DB	02dH
	DB	022H
	DB	07fH
	DB	02dH
	DB	022H
	DB	07fH
	DB	02dH
	DB	022H
	DB	07fH
	DB	02dH
	DB	022H
	DB	07fH
	DB	02dH
	DB	022H
	DB	07fH
	DB	02dH
	DB	022H
	DB	07fH
	DB	02dH
	DB	022H
	DB	07fH
	DB	02dH
	DB	022H
	DB	07fH
	DB	02dH
	DB	022H
	DB	07fH
	DB	02dH
	DB	022H
	DB	07fH
	DB	02dH
	DB	022H
	DB	07fH
	DB	02dH
	DB	022H
	DB	07fH
	DB	02dH
	DB	022H
	DB	07fH
	DB	02dH
	DB	022H
	DB	07fH
	DB	02dH
	DB	022H
	DB	07fH
	DB	02dH
	DB	022H
	DB	07fH
	DB	02dH
	DB	022H
	DB	07fH
	DB	02dH
	DB	022H
	DB	07fH
	DB	02dH
	DB	022H
	DB	07fH
	DB	02dH
	DB	022H
	DB	07fH
	DB	02dH
	DB	022H
	DB	07fH
	DB	02dH
	DB	022H
	DB	07fH
	DB	02dH
	DB	022H
	DB	07fH
	DB	02dH
	DB	022H
	DB	07fH
	DB	02dH
	DB	022H
	DB	07fH
	DB	02dH
	DB	022H
	DB	07fH
	DB	02dH
	DB	022H
	DB	07fH
	DB	02dH
	DB	022H
	DB	07fH
	DB	02dH
	DB	022H
	DB	07fH
	DB	02dH
	DB	022H
	DB	07fH
	DB	02dH
	DB	022H
	DB	07fH
	DB	02dH
	DB	022H
	DB	07fH
	DB	02dH
	DB	022H
	DB	07fH
	DB	02dH
	DB	022H
	DB	07fH
	DB	02dH
	DB	022H
	DB	07fH
	DB	02dH
	DB	022H
	DB	07fH
	DB	02dH
	DB	022H
	DB	07fH
	DB	02dH
	DB	022H
	DB	07fH
	DB	02dH
	DB	022H
	DB	07fH
	DB	02dH
	DB	022H
	DB	07fH
	DB	02dH
	DB	022H
	DB	07fH
	DB	02dH
	DB	022H
	DB	07fH
	DB	02dH
	DB	022H
	DB	07fH
	DB	02dH
	DB	022H
	DB	07fH
	DB	02dH
	DB	022H
	DB	07fH
	DB	02dH
	DB	022H
	DB	07fH
	DB	02dH
	DB	022H
	DB	07fH
	DB	02dH
	DB	022H
	DB	07fH
	DB	02dH
	DB	022H
	DB	07fH
	DB	02dH
	DB	022H
	DB	07fH
	DB	02dH
	DB	022H
	DB	07fH
	DB	02dH
	DB	022H
	DB	07fH
	DB	02dH
	DB	022H
	DB	07fH
	DB	02dH
	DB	022H
	DB	07fH
	DB	02dH
	DB	022H
	DB	07fH
	DB	02dH
	DB	022H
	DB	07fH
	DB	02dH
	DB	022H
	DB	07fH
	DB	02dH
	DB	022H
	DB	07fH
	DB	02dH
	DB	022H
	DB	07fH
	DB	02dH
	DB	022H
	DB	07fH
	DB	02dH
	DB	022H
	DB	07fH
	DB	02dH
	DB	022H
	DB	07fH
	DB	02dH
	DB	022H
	DB	07fH
	DB	02dH
	DB	022H
	DB	07fH
	DB	02dH
	DB	022H
	DB	07fH
	DB	02dH
	DB	022H
	DB	07fH
	DB	02dH
	DB	022H
	DB	07fH
	DB	02dH
	DB	022H
	DB	07fH
	DB	02dH
	DB	022H
	DB	07dH
	DB	02dH
	DB	022H
	DB	07dH
	DB	02dH
	DB	022H
	DB	07dH
	DB	02dH
	DB	022H
	DB	07dH
	DB	02dH
	DB	022H
	DB	07dH
	DB	02dH
	DB	022H
	DB	07dH
	DB	02dH
	DB	022H
	DB	07dH
	DB	02dH
	DB	022H
	DB	07dH
	DB	02dH
	DB	022H
	DB	07dH
	DB	02dH
	DB	022H
	DB	07dH
	DB	02dH
	DB	022H
	DB	07dH
	DB	02dH
	DB	022H
	DB	07dH
	DB	02dH
	DB	022H
	DB	07dH
	DB	02dH
	DB	022H
	DB	07dH
	DB	02dH
	DB	022H
	DB	07dH
	DB	02dH
	DB	022H
	DB	07dH
	DB	02dH
	DB	022H
	DB	07dH
	DB	02dH
	DB	022H
	DB	07dH
	DB	02dH
	DB	022H
	DB	07dH
	DB	02dH
	DB	022H
	DB	07dH
	DB	02dH
	DB	022H
	DB	07dH
	DB	02dH
	DB	022H
	DB	07dH
	DB	02dH
	DB	022H
	DB	07dH
	DB	02dH
	DB	022H
	DB	07dH
	DB	02dH
	DB	022H
	DB	07dH
	DB	02dH
	DB	022H
	DB	07dH
	DB	02dH
	DB	022H
	DB	07dH
	DB	02dH
	DB	022H
	DB	07dH
	DB	02dH
	DB	022H
	DB	07fH
	DB	02dH
	DB	022H
	DB	07fH
	DB	02dH
	DB	022H
	DB	07fH
	DB	02dH
	DB	022H
	DB	07fH
	DB	02dH
	DB	022H
	DB	07fH
	DB	02dH
	DB	022H
	DB	07fH
	DB	02dH
	DB	022H
	DB	07fH
	DB	02dH
	DB	022H
	DB	07fH
	DB	02dH
	DB	022H
	DB	07fH
	DB	02dH
	DB	022H
	DB	07fH
	DB	02dH
	DB	022H
	DB	07fH
	DB	02dH
	DB	022H
	DB	07fH
	DB	02dH
	DB	022H
	DB	07fH
	DB	02dH
	DB	022H
	DB	07fH
	DB	02dH
	DB	022H
	DB	07fH
	DB	02dH
	DB	022H
	DB	07fH
	DB	02dH
	DB	022H
	DB	07fH
	DB	02dH
	DB	022H
	DB	07fH
	DB	02dH
	DB	022H
	DB	07fH
	DB	02dH
	DB	022H
	DB	07fH
	DB	02dH
	DB	022H
	DB	07fH
	DB	02dH
	DB	022H
	DB	07fH
	DB	02dH
	DB	022H
	DB	07fH
	DB	02dH
	DB	022H
	DB	07fH
	DB	02dH
	DB	022H
	DB	07fH
	DB	02dH
	DB	022H
	DB	07fH
	DB	02dH
	DB	022H
	DB	07fH
	DB	02dH
	DB	022H
	DB	07fH
	DB	02dH
	DB	022H
	DB	07fH
	DB	02dH
	DB	022H
	DB	07fH
	DB	02dH
	DB	022H
	DB	07fH
	DB	02dH
	DB	022H
	DB	07fH
	DB	02dH
	DB	022H
	DB	07fH
	DB	02dH
	DB	022H
	DB	07fH
	DB	02dH
	DB	022H
	DB	07fH
	DB	02dH
	DB	022H
	DB	07fH
	DB	02dH
	DB	022H
	DB	07fH
	DB	02dH
	DB	022H
	DB	07fH
	DB	02dH
	DB	022H
	DB	07fH
	DB	02dH
	DB	022H
	DB	07fH
	DB	02dH
	DB	022H
	DB	07fH
	DB	02dH
	DB	022H
	DB	07fH
	DB	02dH
	DB	022H
	DB	07fH
	DB	02dH
	DB	022H
	DB	07fH
	DB	02dH
	DB	022H
	DB	07fH
	DB	02dH
	DB	022H
	DB	07fH
	DB	02dH
	DB	022H
	DB	07fH
	DB	02dH
	DB	022H
	DB	07fH
	DB	02dH
	DB	022H
	DB	07fH
	DB	02dH
	DB	022H
	DB	07fH
	DB	02dH
	DB	022H
	DB	07fH
	DB	02dH
	DB	022H
	DB	07fH
	DB	02dH
	DB	022H
	DB	07fH
	DB	02dH
	DB	022H
	DB	07fH
	DB	02dH
	DB	022H
	DB	07fH
	DB	02dH
	DB	022H
	DB	07fH
	DB	02dH
	DB	022H
	DB	07fH
	DB	02dH
	DB	022H
	DB	07fH
	DB	02dH
	DB	022H
	DB	07fH
	DB	02dH
	DB	022H
	DB	07fH
	DB	02dH
	DB	022H
	DB	07fH
	DB	02dH
	DB	022H
	DB	07fH
	DB	02dH
	DB	022H
	DB	07fH
	DB	02dH
	DB	022H
	DB	07fH
	DB	02dH
	DB	022H
	DB	07fH
	DB	02dH
	DB	022H
	DB	07fH
	DB	02dH
	DB	022H
	DB	07fH
	DB	02dH
	DB	022H
	DB	07fH
	DB	02dH
	DB	022H
	DB	07fH
	DB	02dH
	DB	022H
	DB	07fH
	DB	02dH
	DB	022H
	DB	07fH
	DB	02dH
	DB	022H
	DB	07fH
	DB	02dH
	DB	022H
	DB	07fH
	DB	02dH
	DB	022H
	DB	07fH
	DB	02dH
	DB	022H
	DB	07fH
	DB	02dH
	DB	022H
	DB	07fH
	DB	02dH
	DB	022H
	DB	07fH
	DB	02dH
	DB	022H
	DB	07fH
	DB	02dH
	DB	022H
	DB	07fH
	DB	02dH
	DB	022H
	DB	07fH
	DB	02dH
	DB	022H
	DB	07fH
	DB	02dH
	DB	022H
	DB	07fH
	DB	02dH
	DB	022H
	DB	07fH
	DB	02dH
	DB	022H
	DB	07fH
	DB	02dH
	DB	022H
	DB	07fH
	DB	02dH
	DB	022H
	DB	07fH
	DB	02dH
	DB	022H
	DB	07fH
	DB	02dH
	DB	022H
	DB	07fH
	DB	02dH
	DB	022H
	DB	07fH
	DB	02dH
	DB	022H
	DB	07fH
	DB	02dH
	DB	022H
	DB	07fH
	DB	02dH
	DB	022H
	DB	07fH
	DB	02dH
	DB	022H
	DB	07fH
	DB	02dH
	DB	022H
	DB	07fH
	DB	02dH
	DB	022H
	DB	07fH
	DB	02dH
	DB	022H
	DB	07fH
	DB	02dH
	DB	022H
	DB	07fH
	DB	02dH
	DB	022H
	DB	07fH
	DB	02dH
	DB	022H
	DB	07fH
	DB	02dH
	DB	022H
	DB	07fH
	DB	02dH
	DB	022H
	DB	07fH
	DB	02dH
	DB	022H
	DB	07fH
	DB	02dH
	DB	022H
	DB	07fH
	DB	02dH
	DB	022H
	DB	07fH
	DB	02dH
	DB	022H
	DB	07fH
	DB	02dH
	DB	022H
	DB	07fH
	DB	02dH
	DB	022H
	DB	07fH
	DB	02dH
	DB	022H
	DB	07fH
	DB	02dH
	DB	022H
	DB	07fH
	DB	02dH
	DB	022H
	DB	07fH
	DB	02dH
	DB	022H
	DB	07fH
	DB	02dH
	DB	022H
	DB	07fH
	DB	02dH
	DB	022H
	DB	07fH
	DB	02dH
	DB	022H
	DB	07fH
	DB	02dH
	DB	022H
	DB	07dH
	DB	02dH
	DB	022H
	DB	07dH
	DB	02dH
	DB	022H
	DB	07dH
	DB	02dH
	DB	022H
	DB	07dH
	DB	02dH
	DB	022H
	DB	07dH
	DB	02dH
	DB	022H
	DB	07dH
	DB	02dH
	DB	022H
	DB	07dH
	DB	02dH
	DB	022H
	DB	07dH
	DB	02dH
	DB	022H
	DB	07dH
	DB	02dH
	DB	022H
	DB	07dH
	DB	02dH
	DB	022H
	DB	07dH
	DB	02dH
	DB	022H
	DB	07dH
	DB	02dH
	DB	022H
	DB	07dH
	DB	02dH
	DB	022H
	DB	07dH
	DB	02dH
	DB	022H
	DB	07dH
	DB	02dH
	DB	022H
	DB	07dH
	DB	02dH
	DB	022H
	DB	07dH
	DB	02dH
	DB	022H
	DB	07dH
	DB	02dH
	DB	022H
	DB	07dH
	DB	02dH
	DB	022H
	DB	07dH
	DB	02dH
	DB	022H
	DB	07dH
	DB	02dH
	DB	022H
	DB	07dH
	DB	02dH
	DB	022H
	DB	07dH
	DB	02dH
	DB	022H
	DB	07dH
	DB	02dH
	DB	022H
	DB	07dH
	DB	02dH
	DB	022H
	DB	07dH
	DB	02dH
	DB	022H
	DB	07fH
	DB	02dH
	DB	022H
	DB	07fH
	DB	02dH
	DB	022H
	DB	07fH
	DB	02dH
	DB	022H
	DB	07fH
	DB	02dH
	DB	022H
	DB	07fH
	DB	02dH
	DB	022H
	DB	07fH
	DB	02dH
	DB	022H
	DB	07fH
	DB	02dH
	DB	022H
	DB	07fH
	DB	02dH
	DB	022H
	DB	07fH
	DB	02dH
	DB	022H
	DB	07fH
	DB	02dH
	DB	022H
	DB	07fH
	DB	02dH
	DB	022H
	DB	07fH
	DB	02dH
	DB	022H
	DB	07fH
	DB	02dH
	DB	022H
	DB	07fH
	DB	02dH
	DB	022H
	DB	07fH
	DB	02dH
	DB	022H
	DB	07fH
	DB	02dH
	DB	022H
	DB	07fH
	DB	02dH
	DB	022H
	DB	07fH
	DB	02dH
	DB	022H
	DB	07fH
	DB	02dH
	DB	022H
	DB	07fH
	DB	02dH
	DB	022H
	DB	07fH
	DB	02dH
	DB	022H
	DB	07fH
	DB	02dH
	DB	022H
	DB	07fH
	DB	02dH
	DB	022H
	DB	07fH
	DB	02dH
	DB	022H
	DB	07fH
	DB	02dH
	DB	022H
	DB	07fH
	DB	02dH
	DB	022H
	DB	07fH
	DB	02dH
	DB	022H
	DB	07fH
	DB	02dH
	DB	022H
	DB	07fH
	DB	02dH
	DB	022H
	DB	07fH
	DB	02dH
	DB	022H
	DB	07fH
	DB	02dH
	DB	022H
	DB	07fH
	DB	02dH
	DB	022H
	DB	07fH
	DB	02dH
	DB	022H
	DB	07fH
	DB	02dH
	DB	022H
	DB	07fH
	DB	02dH
	DB	022H
	DB	07fH
	DB	02dH
	DB	022H
	DB	07fH
	DB	02dH
	DB	022H
	DB	07fH
	DB	02dH
	DB	022H
	DB	07fH
	DB	02dH
	DB	022H
	DB	07fH
	DB	02dH
	DB	022H
	DB	07fH
	DB	02dH
	DB	022H
	DB	07fH
	DB	02dH
	DB	022H
	DB	07fH
	DB	02dH
	DB	022H
	DB	07fH
	DB	02dH
	DB	022H
	DB	07fH
	DB	02dH
	DB	022H
	DB	07fH
	DB	02dH
	DB	022H
	DB	07fH
	DB	02dH
	DB	022H
	DB	07fH
	DB	02dH
	DB	022H
	DB	07fH
	DB	02dH
	DB	022H
	DB	07fH
	DB	02dH
	DB	022H
	DB	07fH
	DB	02dH
	DB	022H
	DB	07fH
	DB	02dH
	DB	022H
	DB	07fH
	DB	02dH
	DB	022H
	DB	07fH
	DB	02dH
	DB	022H
	DB	07fH
	DB	02dH
	DB	022H
	DB	07fH
	DB	02dH
	DB	022H
	DB	07fH
	DB	02dH
	DB	022H
	DB	07fH
	DB	02dH
	DB	022H
	DB	07fH
	DB	02dH
	DB	022H
	DB	07fH
	DB	02dH
	DB	022H
	DB	07fH
	DB	02dH
	DB	022H
	DB	07fH
	DB	02dH
	DB	022H
	DB	07fH
	DB	02dH
	DB	022H
	DB	07fH
	DB	02dH
	DB	022H
	DB	07fH
	DB	02dH
	DB	022H
	DB	07fH
	DB	02dH
	DB	022H
	DB	07fH
	DB	02dH
	DB	022H
	DB	07fH
	DB	02dH
	DB	022H
	DB	07fH
	DB	02dH
	DB	022H
	DB	07fH
	DB	02dH
	DB	022H
	DB	07fH
	DB	02dH
	DB	022H
	DB	07fH
	DB	02dH
	DB	022H
	DB	07fH
	DB	02dH
	DB	022H
	DB	07fH
	DB	02dH
	DB	022H
	DB	07fH
	DB	02dH
	DB	022H
	DB	07fH
	DB	02dH
	DB	022H
	DB	07fH
	DB	02dH
	DB	022H
	DB	07fH
	DB	02dH
	DB	022H
	DB	07fH
	DB	02dH
	DB	022H
	DB	07fH
	DB	02dH
	DB	022H
	DB	07fH
	DB	02dH
	DB	022H
	DB	07fH
	DB	02dH
	DB	022H
	DB	07fH
	DB	02dH
	DB	022H
	DB	07fH
	DB	02dH
	DB	022H
	DB	07fH
	DB	02dH
	DB	022H
	DB	07fH
	DB	02dH
	DB	022H
	DB	07fH
	DB	02dH
	DB	022H
	DB	07fH
	DB	02dH
	DB	022H
	DB	07fH
	DB	02dH
	DB	022H
	DB	07fH
	DB	02dH
	DB	022H
	DB	07fH
	DB	02dH
	DB	022H
	DB	07fH
	DB	02dH
	DB	022H
	DB	07fH
	DB	02dH
	DB	022H
	DB	07fH
	DB	02dH
	DB	022H
	DB	07fH
	DB	02dH
	DB	022H
	DB	07fH
	DB	02dH
	DB	022H
	DB	07fH
	DB	02dH
	DB	022H
	DB	07fH
	DB	02dH
	DB	022H
	DB	07fH
	DB	02dH
	DB	022H
	DB	07fH
	DB	02dH
	DB	022H
	DB	07fH
	DB	02dH
	DB	022H
	DB	07fH
	DB	02dH
	DB	022H
	DB	07fH
	DB	02dH
	DB	022H
	DB	07fH
	DB	02dH
	DB	022H
	DB	07fH
	DB	02dH
	DB	022H
	DB	07fH
	DB	02dH
	DB	022H
	DB	07fH
	DB	02dH
	DB	022H
	DB	07fH
	DB	02dH
	DB	022H
	DB	07fH
	DB	02dH
	DB	022H
	DB	07fH
	DB	02dH
	DB	022H
	DB	07fH
	DB	02dH
	DB	022H
	DB	07fH
	DB	02dH
	DB	022H
	DB	07fH
	DB	02dH
	DB	022H
	DB	07fH
	DB	02dH
	DB	022H
	DB	07fH
	DB	02dH
	DB	022H
	DB	07fH
	DB	02dH
	DB	022H
	DB	07dH
	DB	02dH
	DB	022H
	DB	07dH
	DB	02dH
	DB	022H
	DB	07dH
	DB	02dH
	DB	022H
	DB	07dH
	DB	02dH
	DB	022H
	DB	07dH
	DB	02dH
	DB	022H
	DB	07dH
	DB	02dH
	DB	022H
	DB	07dH
	DB	02dH
	DB	022H
	DB	07dH
	DB	02dH
	DB	022H
	DB	07dH
	DB	02dH
	DB	022H
	DB	07dH
	DB	02dH
	DB	022H
	DB	07dH
	DB	02dH
	DB	022H
	DB	07dH
	DB	02dH
	DB	022H
	DB	07dH
	DB	02dH
	DB	022H
	DB	07dH
	DB	02dH
	DB	022H
	DB	07dH
	DB	02dH
	DB	022H
	DB	07dH
	DB	02dH
	DB	022H
	DB	07dH
	DB	02dH
	DB	022H
	DB	07dH
	DB	02dH
	DB	022H
	DB	07dH
	DB	02dH
	DB	022H
	DB	07dH
	DB	02dH
	DB	022H
	DB	07dH
	DB	02dH
	DB	022H
	DB	07dH
	DB	02dH
	DB	022H
	DB	07dH
	DB	02dH
	DB	022H
	DB	07dH
	DB	02dH
	DB	022H
	DB	07fH
	DB	02dH
	DB	022H
	DB	07fH
	DB	02dH
	DB	022H
	DB	07fH
	DB	02dH
	DB	022H
	DB	07fH
	DB	02dH
	DB	022H
	DB	07fH
	DB	02dH
	DB	022H
	DB	07fH
	DB	02dH
	DB	022H
	DB	07fH
	DB	02dH
	DB	022H
	DB	07fH
	DB	02dH
	DB	022H
	DB	07fH
	DB	02dH
	DB	022H
	DB	07fH
	DB	02dH
	DB	022H
	DB	07fH
	DB	02dH
	DB	022H
	DB	07fH
	DB	02dH
	DB	022H
	DB	07fH
	DB	02dH
	DB	022H
	DB	07fH
	DB	02dH
	DB	022H
	DB	07fH
	DB	02dH
	DB	022H
	DB	07fH
	DB	02dH
	DB	022H
	DB	07fH
	DB	02dH
	DB	022H
	DB	07fH
	DB	02dH
	DB	022H
	DB	07fH
	DB	02dH
	DB	022H
	DB	07fH
	DB	02dH
	DB	022H
	DB	07fH
	DB	02dH
	DB	022H
	DB	07fH
	DB	02dH
	DB	022H
	DB	07fH
	DB	02dH
	DB	022H
	DB	07fH
	DB	02dH
	DB	022H
	DB	07fH
	DB	02dH
	DB	022H
	DB	07fH
	DB	02dH
	DB	022H
	DB	07fH
	DB	02dH
	DB	022H
	DB	07fH
	DB	02dH
	DB	022H
	DB	07fH
	DB	02dH
	DB	022H
	DB	07fH
	DB	02dH
	DB	022H
	DB	07fH
	DB	02dH
	DB	022H
	DB	07fH
	DB	02dH
	DB	022H
	DB	07fH
	DB	02dH
	DB	022H
	DB	07fH
	DB	02dH
	DB	022H
	DB	07fH
	DB	02dH
	DB	022H
	DB	07fH
	DB	02dH
	DB	022H
	DB	07fH
	DB	02dH
	DB	022H
	DB	07fH
	DB	02dH
	DB	022H
	DB	07fH
	DB	02dH
	DB	022H
	DB	07fH
	DB	02dH
	DB	022H
	DB	07fH
	DB	02dH
	DB	022H
	DB	07fH
	DB	02dH
	DB	022H
	DB	07fH
	DB	02dH
	DB	022H
	DB	07fH
	DB	02dH
	DB	022H
	DB	07fH
	DB	02dH
	DB	022H
	DB	07fH
	DB	02dH
	DB	022H
	DB	07fH
	DB	02dH
	DB	022H
	DB	07fH
	DB	02dH
	DB	022H
	DB	07fH
	DB	02dH
	DB	022H
	DB	07fH
	DB	02dH
	DB	022H
	DB	07fH
	DB	02dH
	DB	022H
	DB	07fH
	DB	02dH
	DB	022H
	DB	07fH
	DB	02dH
	DB	022H
	DB	07fH
	DB	02dH
	DB	022H
	DB	07fH
	DB	02dH
	DB	022H
	DB	07fH
	DB	02dH
	DB	022H
	DB	07fH
	DB	02dH
	DB	022H
	DB	07fH
	DB	02dH
	DB	022H
	DB	07fH
	DB	02dH
	DB	022H
	DB	07fH
	DB	02dH
	DB	022H
	DB	07fH
	DB	02dH
	DB	022H
	DB	07fH
	DB	02dH
	DB	022H
	DB	07fH
	DB	02dH
	DB	022H
	DB	07fH
	DB	02dH
	DB	022H
	DB	07fH
	DB	02dH
	DB	022H
	DB	07fH
	DB	02dH
	DB	022H
	DB	07fH
	DB	02dH
	DB	022H
	DB	07fH
	DB	02dH
	DB	022H
	DB	07fH
	DB	02dH
	DB	022H
	DB	07fH
	DB	02dH
	DB	022H
	DB	07fH
	DB	02dH
	DB	022H
	DB	07fH
	DB	02dH
	DB	022H
	DB	07fH
	DB	02dH
	DB	022H
	DB	07fH
	DB	02dH
	DB	022H
	DB	07fH
	DB	02dH
	DB	022H
	DB	07fH
	DB	02dH
	DB	022H
	DB	07fH
	DB	02dH
	DB	022H
	DB	07fH
	DB	02dH
	DB	022H
	DB	07fH
	DB	02dH
	DB	022H
	DB	07fH
	DB	02dH
	DB	022H
	DB	07fH
	DB	02dH
	DB	022H
	DB	07fH
	DB	02dH
	DB	022H
	DB	07fH
	DB	02dH
	DB	022H
	DB	07fH
	DB	02dH
	DB	022H
	DB	07fH
	DB	02dH
	DB	022H
	DB	07fH
	DB	02dH
	DB	022H
	DB	07fH
	DB	02dH
	DB	022H
	DB	07fH
	DB	02dH
	DB	022H
	DB	07fH
	DB	02dH
	DB	022H
	DB	07fH
	DB	02dH
	DB	022H
	DB	07fH
	DB	02dH
	DB	022H
	DB	07fH
	DB	02dH
	DB	022H
	DB	07fH
	DB	02dH
	DB	022H
	DB	07fH
	DB	02dH
	DB	022H
	DB	07fH
	DB	02dH
	DB	022H
	DB	07fH
	DB	02dH
	DB	022H
	DB	07fH
	DB	02dH
	DB	022H
	DB	07fH
	DB	02dH
	DB	022H
	DB	07fH
	DB	02dH
	DB	022H
	DB	07fH
	DB	02dH
	DB	022H
	DB	07fH
	DB	02dH
	DB	022H
	DB	07fH
	DB	02dH
	DB	022H
	DB	07fH
	DB	02dH
	DB	022H
	DB	07fH
	DB	02dH
	DB	022H
	DB	07fH
	DB	02dH
	DB	022H
	DB	07fH
	DB	02dH
	DB	022H
	DB	07fH
	DB	02dH
	DB	022H
	DB	07fH
	DB	02dH
	DB	022H
	DB	07fH
	DB	02dH
	DB	022H
	DB	07fH
	DB	02dH
	DB	022H
	DB	07fH
	DB	02dH
	DB	022H
	DB	07fH
	DB	02dH
	DB	022H
	DB	07fH
	DB	02dH
	DB	022H
	DB	07fH
	DB	02dH
	DB	022H
	DB	07fH
	DB	02dH
	DB	022H
	DB	07fH
	DB	02dH
	DB	022H
	DB	07fH
	DB	02dH
	DB	022H
	DB	07dH
	DB	02dH
	DB	022H
	DB	07dH
	DB	02dH
	DB	022H
	DB	07dH
	DB	02dH
	DB	022H
	DB	07dH
	DB	02dH
	DB	022H
	DB	07dH
	DB	02dH
	DB	022H
	DB	07dH
	DB	02dH
	DB	022H
	DB	07dH
	DB	02dH
	DB	022H
	DB	07dH
	DB	02dH
	DB	022H
	DB	07dH
	DB	02dH
	DB	022H
	DB	07dH
	DB	02dH
	DB	022H
	DB	07dH
	DB	02dH
	DB	022H
	DB	07dH
	DB	02dH
	DB	022H
	DB	07dH
	DB	02dH
	DB	022H
	DB	07dH
	DB	02dH
	DB	022H
	DB	07dH
	DB	02dH
	DB	022H
	DB	07dH
	DB	02dH
	DB	022H
	DB	07dH
	DB	02dH
	DB	022H
	DB	07dH
	DB	02dH
	DB	022H
	DB	07dH
	DB	02dH
	DB	022H
	DB	07dH
	DB	02dH
	DB	022H
	DB	07dH
	DB	02dH
	DB	022H
	DB	07dH
	DB	02dH
	DB	022H
	DB	07dH
	DB	02dH
	DB	022H
	DB	07fH
	DB	02dH
	DB	022H
	DB	07fH
	DB	02dH
	DB	022H
	DB	07fH
	DB	02dH
	DB	022H
	DB	07fH
	DB	02dH
	DB	022H
	DB	07fH
	DB	02dH
	DB	022H
	DB	07fH
	DB	02dH
	DB	022H
	DB	07fH
	DB	02dH
	DB	022H
	DB	07fH
	DB	02dH
	DB	022H
	DB	07fH
	DB	02dH
	DB	022H
	DB	07fH
	DB	02dH
	DB	022H
	DB	07fH
	DB	02dH
	DB	022H
	DB	07fH
	DB	02dH
	DB	022H
	DB	07fH
	DB	02dH
	DB	022H
	DB	07fH
	DB	02dH
	DB	022H
	DB	07fH
	DB	02dH
	DB	022H
	DB	07fH
	DB	02dH
	DB	022H
	DB	07fH
	DB	02dH
	DB	022H
	DB	07fH
	DB	02dH
	DB	022H
	DB	07fH
	DB	02dH
	DB	022H
	DB	07fH
	DB	02dH
	DB	022H
	DB	07fH
	DB	02dH
	DB	022H
	DB	07fH
	DB	02dH
	DB	022H
	DB	07fH
	DB	02dH
	DB	022H
	DB	07fH
	DB	02dH
	DB	022H
	DB	07fH
	DB	02dH
	DB	022H
	DB	07fH
	DB	02dH
	DB	022H
	DB	07fH
	DB	02dH
	DB	022H
	DB	07fH
	DB	02dH
	DB	022H
	DB	07fH
	DB	02dH
	DB	022H
	DB	07fH
	DB	02dH
	DB	022H
	DB	07fH
	DB	02dH
	DB	022H
	DB	07fH
	DB	02dH
	DB	022H
	DB	07fH
	DB	02dH
	DB	022H
	DB	07fH
	DB	02dH
	DB	022H
	DB	07fH
	DB	02dH
	DB	022H
	DB	07fH
	DB	02dH
	DB	022H
	DB	07fH
	DB	02dH
	DB	022H
	DB	07fH
	DB	02dH
	DB	022H
	DB	07fH
	DB	02dH
	DB	022H
	DB	07fH
	DB	02dH
	DB	022H
	DB	07fH
	DB	02dH
	DB	022H
	DB	07fH
	DB	02dH
	DB	022H
	DB	07fH
	DB	02dH
	DB	022H
	DB	07fH
	DB	02dH
	DB	022H
	DB	07fH
	DB	02dH
	DB	022H
	DB	07fH
	DB	02dH
	DB	022H
	DB	07fH
	DB	02dH
	DB	022H
	DB	07fH
	DB	02dH
	DB	022H
	DB	07fH
	DB	02dH
	DB	022H
	DB	07fH
	DB	02dH
	DB	022H
	DB	07fH
	DB	02dH
	DB	022H
	DB	07fH
	DB	02dH
	DB	022H
	DB	07fH
	DB	02dH
	DB	022H
	DB	07fH
	DB	02dH
	DB	022H
	DB	07fH
	DB	02dH
	DB	022H
	DB	07fH
	DB	02dH
	DB	022H
	DB	07fH
	DB	02dH
	DB	022H
	DB	07fH
	DB	02dH
	DB	022H
	DB	07fH
	DB	02dH
	DB	022H
	DB	07fH
	DB	02dH
	DB	022H
	DB	07fH
	DB	02dH
	DB	022H
	DB	07fH
	DB	02dH
	DB	022H
	DB	07fH
	DB	02dH
	DB	022H
	DB	07fH
	DB	02dH
	DB	022H
	DB	07fH
	DB	02dH
	DB	022H
	DB	07fH
	DB	02dH
	DB	022H
	DB	07fH
	DB	02dH
	DB	022H
	DB	07fH
	DB	02dH
	DB	022H
	DB	07fH
	DB	02dH
	DB	022H
	DB	07fH
	DB	02dH
	DB	022H
	DB	07fH
	DB	02dH
	DB	022H
	DB	07fH
	DB	02dH
	DB	022H
	DB	07fH
	DB	02dH
	DB	022H
	DB	07fH
	DB	02dH
	DB	022H
	DB	07fH
	DB	02dH
	DB	022H
	DB	07fH
	DB	02dH
	DB	022H
	DB	07fH
	DB	02dH
	DB	022H
	DB	07fH
	DB	02dH
	DB	022H
	DB	07fH
	DB	02dH
	DB	022H
	DB	07fH
	DB	02dH
	DB	022H
	DB	07fH
	DB	02dH
	DB	022H
	DB	07fH
	DB	02dH
	DB	022H
	DB	07fH
	DB	02dH
	DB	022H
	DB	07fH
	DB	02dH
	DB	022H
	DB	07fH
	DB	02dH
	DB	022H
	DB	07fH
	DB	02dH
	DB	022H
	DB	07fH
	DB	02dH
	DB	022H
	DB	07fH
	DB	02dH
	DB	022H
	DB	07fH
	DB	02dH
	DB	022H
	DB	07fH
	DB	02dH
	DB	022H
	DB	07fH
	DB	02dH
	DB	022H
	DB	07fH
	DB	02dH
	DB	022H
	DB	07fH
	DB	02dH
	DB	022H
	DB	07fH
	DB	02dH
	DB	022H
	DB	07fH
	DB	02dH
	DB	022H
	DB	07fH
	DB	02dH
	DB	022H
	DB	07fH
	DB	02dH
	DB	022H
	DB	07fH
	DB	02dH
	DB	022H
	DB	07fH
	DB	02dH
	DB	022H
	DB	07fH
	DB	02dH
	DB	022H
	DB	07fH
	DB	02dH
	DB	022H
	DB	07fH
	DB	02dH
	DB	022H
	DB	07fH
	DB	02dH
	DB	022H
	DB	07fH
	DB	02dH
	DB	022H
	DB	07fH
	DB	02dH
	DB	022H
	DB	07fH
	DB	02dH
	DB	022H
	DB	07fH
	DB	02dH
	DB	022H
	DB	07fH
	DB	02dH
	DB	022H
	DB	07fH
	DB	02dH
	DB	022H
	DB	07fH
	DB	02dH
	DB	022H
	DB	07fH
	DB	02dH
	DB	022H
	DB	07fH
	DB	02dH
	DB	022H
	DB	07fH
	DB	02dH
	DB	022H
	DB	07fH
	DB	02dH
	DB	022H
	DB	07fH
	DB	02dH
	DB	022H
	DB	07fH
	DB	02dH
	DB	022H
	DB	07fH
	DB	02dH
	DB	022H
	DB	07fH
	DB	02dH
	DB	022H
	DB	07fH
	DB	02dH
	DB	022H
	DB	07dH
	DB	02dH
	DB	022H
	DB	07dH
	DB	02dH
	DB	022H
	DB	07dH
	DB	02dH
	DB	022H
	DB	07dH
	DB	02dH
	DB	022H
	DB	07dH
	DB	02dH
	DB	022H
	DB	07dH
	DB	02dH
	DB	022H
	DB	07dH
	DB	02dH
	DB	022H
	DB	07dH
	DB	02dH
	DB	022H
	DB	07dH
	DB	02dH
	DB	022H
	DB	07dH
	DB	02dH
	DB	022H
	DB	07dH
	DB	02dH
	DB	022H
	DB	07dH
	DB	02dH
	DB	022H
	DB	07dH
	DB	02dH
	DB	022H
	DB	07dH
	DB	02dH
	DB	022H
	DB	07dH
	DB	02dH
	DB	022H
	DB	07dH
	DB	02dH
	DB	022H
	DB	07dH
	DB	02dH
	DB	022H
	DB	07dH
	DB	02dH
	DB	022H
	DB	07dH
	DB	02dH
	DB	022H
	DB	07dH
	DB	02dH
	DB	022H
	DB	07dH
	DB	02dH
	DB	022H
	DB	07fH
	DB	02dH
	DB	022H
	DB	07fH
	DB	02dH
	DB	022H
	DB	07fH
	DB	02dH
	DB	022H
	DB	07fH
	DB	02dH
	DB	022H
	DB	07fH
	DB	02dH
	DB	022H
	DB	07fH
	DB	02dH
	DB	022H
	DB	07fH
	DB	02dH
	DB	022H
	DB	07fH
	DB	02dH
	DB	022H
	DB	07fH
	DB	02dH
	DB	022H
	DB	07fH
	DB	02dH
	DB	022H
	DB	07fH
	DB	02dH
	DB	022H
	DB	07fH
	DB	02dH
	DB	022H
	DB	07fH
	DB	02dH
	DB	022H
	DB	07fH
	DB	02dH
	DB	022H
	DB	07fH
	DB	02dH
	DB	022H
	DB	07fH
	DB	02dH
	DB	022H
	DB	07fH
	DB	02dH
	DB	022H
	DB	07fH
	DB	02dH
	DB	022H
	DB	07fH
	DB	02dH
	DB	022H
	DB	07fH
	DB	02dH
	DB	022H
	DB	07fH
	DB	02dH
	DB	022H
	DB	07fH
	DB	02dH
	DB	022H
	DB	07fH
	DB	02dH
	DB	022H
	DB	07fH
	DB	02dH
	DB	022H
	DB	07fH
	DB	02dH
	DB	022H
	DB	07fH
	DB	02dH
	DB	022H
	DB	07fH
	DB	02dH
	DB	022H
	DB	07fH
	DB	02dH
	DB	022H
	DB	07fH
	DB	02dH
	DB	022H
	DB	081H
	DB	02eH
	DB	022H
	DB	081H
	DB	02eH
	DB	022H
	DB	081H
	DB	02eH
	DB	022H
	DB	081H
	DB	02eH
	DB	022H
	DB	081H
	DB	02eH
	DB	022H
	DB	081H
	DB	02eH
	DB	022H
	DB	081H
	DB	02eH
	DB	022H
	DB	081H
	DB	02eH
	DB	022H
	DB	081H
	DB	02eH
	DB	022H
	DB	081H
	DB	02eH
	DB	022H
	DB	081H
	DB	02eH
	DB	022H
	DB	081H
	DB	02eH
	DB	022H
	DB	081H
	DB	02eH
	DB	022H
	DB	081H
	DB	02eH
	DB	022H
	DB	081H
	DB	02eH
	DB	022H
	DB	081H
	DB	02eH
	DB	022H
	DB	081H
	DB	02eH
	DB	022H
	DB	081H
	DB	02eH
	DB	022H
	DB	081H
	DB	02eH
	DB	022H
	DB	081H
	DB	02eH
	DB	022H
	DB	081H
	DB	02eH
	DB	022H
	DB	081H
	DB	02eH
	DB	022H
	DB	081H
	DB	02eH
	DB	022H
	DB	081H
	DB	02eH
	DB	022H
	DB	081H
	DB	02eH
	DB	022H
	DB	081H
	DB	02eH
	DB	022H
	DB	081H
	DB	02eH
	DB	022H
	DB	081H
	DB	02eH
	DB	022H
	DB	081H
	DB	02eH
	DB	022H
	DB	081H
	DB	02eH
	DB	022H
	DB	081H
	DB	02eH
	DB	022H
	DB	081H
	DB	02eH
	DB	022H
	DB	081H
	DB	02eH
	DB	022H
	DB	081H
	DB	02eH
	DB	022H
	DB	081H
	DB	02eH
	DB	022H
	DB	081H
	DB	02eH
	DB	022H
	DB	081H
	DB	02eH
	DB	022H
	DB	081H
	DB	02eH
	DB	022H
	DB	081H
	DB	02eH
	DB	022H
	DB	081H
	DB	02eH
	DB	022H
	DB	081H
	DB	02eH
	DB	022H
	DB	081H
	DB	02eH
	DB	022H
	DB	081H
	DB	02eH
	DB	022H
	DB	081H
	DB	02eH
	DB	022H
	DB	081H
	DB	02eH
	DB	022H
	DB	081H
	DB	02eH
	DB	022H
	DB	081H
	DB	02eH
	DB	022H
	DB	081H
	DB	02eH
	DB	022H
	DB	081H
	DB	02eH
	DB	022H
	DB	081H
	DB	02eH
	DB	022H
	DB	081H
	DB	02eH
	DB	022H
	DB	081H
	DB	02eH
	DB	022H
	DB	081H
	DB	02eH
	DB	022H
	DB	081H
	DB	02eH
	DB	022H
	DB	081H
	DB	02eH
	DB	022H
	DB	081H
	DB	02eH
	DB	022H
	DB	081H
	DB	02eH
	DB	022H
	DB	081H
	DB	02eH
	DB	022H
	DB	081H
	DB	02eH
	DB	022H
	DB	081H
	DB	02eH
	DB	022H
	DB	081H
	DB	02eH
	DB	022H
	DB	081H
	DB	02eH
	DB	022H
	DB	07fH
	DB	02dH
	DB	022H
	DB	07fH
	DB	02dH
	DB	022H
	DB	07fH
	DB	02dH
	DB	022H
	DB	07fH
	DB	02dH
	DB	022H
	DB	07fH
	DB	02dH
	DB	022H
	DB	07fH
	DB	02dH
	DB	022H
	DB	07fH
	DB	02dH
	DB	022H
	DB	07fH
	DB	02dH
	DB	022H
	DB	07fH
	DB	02dH
	DB	022H
	DB	07fH
	DB	02dH
	DB	022H
	DB	07fH
	DB	02dH
	DB	022H
	DB	07fH
	DB	02dH
	DB	022H
	DB	07fH
	DB	02dH
	DB	022H
	DB	07fH
	DB	02dH
	DB	022H
	DB	07fH
	DB	02dH
	DB	022H
	DB	07fH
	DB	02dH
	DB	022H
	DB	07fH
	DB	02dH
	DB	022H
	DB	07fH
	DB	02dH
	DB	022H
	DB	07fH
	DB	02dH
	DB	022H
	DB	07fH
	DB	02dH
	DB	022H
	DB	07fH
	DB	02dH
	DB	022H
	DB	07fH
	DB	02dH
	DB	022H
	DB	07fH
	DB	02dH
	DB	022H
	DB	07fH
	DB	02dH
	DB	022H
	DB	07fH
	DB	02dH
	DB	022H
	DB	07fH
	DB	02dH
	DB	022H
	DB	07fH
	DB	02dH
	DB	022H
	DB	07fH
	DB	02dH
	DB	022H
	DB	07fH
	DB	02dH
	DB	022H
	DB	07fH
	DB	02dH
	DB	022H
	DB	07dH
	DB	02dH
	DB	022H
	DB	07dH
	DB	02dH
	DB	022H
	DB	07dH
	DB	02dH
	DB	022H
	DB	07dH
	DB	02dH
	DB	022H
	DB	07dH
	DB	02dH
	DB	022H
	DB	07dH
	DB	02dH
	DB	022H
	DB	07dH
	DB	02dH
	DB	022H
	DB	07dH
	DB	02dH
	DB	022H
	DB	07dH
	DB	02dH
	DB	022H
	DB	07dH
	DB	02dH
	DB	022H
	DB	07dH
	DB	02dH
	DB	022H
	DB	07dH
	DB	02dH
	DB	022H
	DB	07dH
	DB	02dH
	DB	022H
	DB	07dH
	DB	02dH
	DB	022H
	DB	07dH
	DB	02dH
	DB	022H
	DB	07dH
	DB	02dH
	DB	022H
	DB	07dH
	DB	02dH
	DB	022H
	DB	07dH
	DB	02dH
	DB	022H
	DB	07dH
	DB	02dH
	DB	022H
	DB	07fH
	DB	02dH
	DB	022H
	DB	07fH
	DB	02dH
	DB	022H
	DB	07fH
	DB	02dH
	DB	022H
	DB	07fH
	DB	02dH
	DB	022H
	DB	07fH
	DB	02dH
	DB	022H
	DB	07fH
	DB	02dH
	DB	022H
