; Listing generated by Microsoft (R) Optimizing Compiler Version 19.29.30037.0 

	TITLE	G:\Germany\Scanner\Firmware\Display_Board\TouchGFX\build\Debug\obj\image_trye_again_button.obj
	.686P
	.XMM
	include listing.inc
	.model	flat

INCLUDELIB MSVCRTD
INCLUDELIB OLDNAMES

PUBLIC	?image_trye_again_button@@3QBEB			; image_trye_again_button
CONST	SEGMENT
?image_trye_again_button@@3QBEB DB 00H			; image_trye_again_button
	DB	00H
	DB	00H
	DB	00H
	DB	00H
	DB	00H
	DB	00H
	DB	00H
	DB	00H
	DB	00H
	DB	00H
	DB	00H
	DB	00H
	DB	00H
	DB	00H
	DB	00H
	DB	00H
	DB	00H
	DB	00H
	DB	00H
	DB	00H
	DB	00H
	DB	00H
	DB	00H
	DB	00H
	DB	00H
	DB	00H
	DB	00H
	DB	00H
	DB	00H
	DB	00H
	DB	00H
	DB	00H
	DB	00H
	DB	00H
	DB	00H
	DB	00H
	DB	00H
	DB	00H
	DB	00H
	DB	00H
	DB	00H
	DB	00H
	DB	00H
	DB	00H
	DB	00H
	DB	00H
	DB	00H
	DB	00H
	DB	00H
	DB	00H
	DB	00H
	DB	00H
	DB	00H
	DB	00H
	DB	00H
	DB	00H
	DB	00H
	DB	00H
	DB	00H
	DB	00H
	DB	00H
	DB	00H
	DB	00H
	DB	00H
	DB	00H
	DB	00H
	DB	00H
	DB	00H
	DB	00H
	DB	00H
	DB	00H
	DB	00H
	DB	00H
	DB	00H
	DB	00H
	DB	00H
	DB	00H
	DB	00H
	DB	00H
	DB	00H
	DB	00H
	DB	00H
	DB	03H
	DB	00H
	DB	00H
	DB	00H
	DB	026H
	DB	00H
	DB	00H
	DB	00H
	DB	048H
	DB	00H
	DB	00H
	DB	00H
	DB	062H
	DB	00H
	DB	00H
	DB	00H
	DB	07aH
	DB	00H
	DB	00H
	DB	00H
	DB	087H
	DB	00H
	DB	00H
	DB	00H
	DB	08fH
	DB	00H
	DB	00H
	DB	00H
	DB	099H
	DB	00H
	DB	00H
	DB	00H
	DB	099H
	DB	00H
	DB	00H
	DB	00H
	DB	099H
	DB	00H
	DB	00H
	DB	00H
	DB	099H
	DB	00H
	DB	00H
	DB	00H
	DB	099H
	DB	00H
	DB	00H
	DB	00H
	DB	099H
	DB	00H
	DB	00H
	DB	00H
	DB	099H
	DB	00H
	DB	00H
	DB	00H
	DB	099H
	DB	00H
	DB	00H
	DB	00H
	DB	099H
	DB	00H
	DB	00H
	DB	00H
	DB	099H
	DB	00H
	DB	00H
	DB	00H
	DB	099H
	DB	00H
	DB	00H
	DB	00H
	DB	099H
	DB	00H
	DB	00H
	DB	00H
	DB	099H
	DB	00H
	DB	00H
	DB	00H
	DB	099H
	DB	00H
	DB	00H
	DB	00H
	DB	099H
	DB	00H
	DB	00H
	DB	00H
	DB	099H
	DB	00H
	DB	00H
	DB	00H
	DB	099H
	DB	00H
	DB	00H
	DB	00H
	DB	099H
	DB	00H
	DB	00H
	DB	00H
	DB	099H
	DB	00H
	DB	00H
	DB	00H
	DB	099H
	DB	00H
	DB	00H
	DB	00H
	DB	099H
	DB	00H
	DB	00H
	DB	00H
	DB	099H
	DB	00H
	DB	00H
	DB	00H
	DB	099H
	DB	00H
	DB	00H
	DB	00H
	DB	099H
	DB	00H
	DB	00H
	DB	00H
	DB	099H
	DB	00H
	DB	00H
	DB	00H
	DB	099H
	DB	00H
	DB	00H
	DB	00H
	DB	099H
	DB	00H
	DB	00H
	DB	00H
	DB	099H
	DB	00H
	DB	00H
	DB	00H
	DB	099H
	DB	00H
	DB	00H
	DB	00H
	DB	099H
	DB	00H
	DB	00H
	DB	00H
	DB	099H
	DB	00H
	DB	00H
	DB	00H
	DB	099H
	DB	00H
	DB	00H
	DB	00H
	DB	099H
	DB	00H
	DB	00H
	DB	00H
	DB	099H
	DB	00H
	DB	00H
	DB	00H
	DB	099H
	DB	00H
	DB	00H
	DB	00H
	DB	099H
	DB	00H
	DB	00H
	DB	00H
	DB	099H
	DB	00H
	DB	00H
	DB	00H
	DB	099H
	DB	00H
	DB	00H
	DB	00H
	DB	099H
	DB	00H
	DB	00H
	DB	00H
	DB	099H
	DB	00H
	DB	00H
	DB	00H
	DB	099H
	DB	00H
	DB	00H
	DB	00H
	DB	099H
	DB	00H
	DB	00H
	DB	00H
	DB	099H
	DB	00H
	DB	00H
	DB	00H
	DB	099H
	DB	00H
	DB	00H
	DB	00H
	DB	099H
	DB	00H
	DB	00H
	DB	00H
	DB	099H
	DB	00H
	DB	00H
	DB	00H
	DB	099H
	DB	00H
	DB	00H
	DB	00H
	DB	099H
	DB	00H
	DB	00H
	DB	00H
	DB	099H
	DB	00H
	DB	00H
	DB	00H
	DB	099H
	DB	00H
	DB	00H
	DB	00H
	DB	099H
	DB	00H
	DB	00H
	DB	00H
	DB	099H
	DB	00H
	DB	00H
	DB	00H
	DB	099H
	DB	00H
	DB	00H
	DB	00H
	DB	099H
	DB	00H
	DB	00H
	DB	00H
	DB	099H
	DB	00H
	DB	00H
	DB	00H
	DB	099H
	DB	00H
	DB	00H
	DB	00H
	DB	099H
	DB	00H
	DB	00H
	DB	00H
	DB	099H
	DB	00H
	DB	00H
	DB	00H
	DB	099H
	DB	00H
	DB	00H
	DB	00H
	DB	099H
	DB	00H
	DB	00H
	DB	00H
	DB	099H
	DB	00H
	DB	00H
	DB	00H
	DB	099H
	DB	00H
	DB	00H
	DB	00H
	DB	099H
	DB	00H
	DB	00H
	DB	00H
	DB	099H
	DB	00H
	DB	00H
	DB	00H
	DB	099H
	DB	00H
	DB	00H
	DB	00H
	DB	099H
	DB	00H
	DB	00H
	DB	00H
	DB	099H
	DB	00H
	DB	00H
	DB	00H
	DB	099H
	DB	00H
	DB	00H
	DB	00H
	DB	099H
	DB	00H
	DB	00H
	DB	00H
	DB	099H
	DB	00H
	DB	00H
	DB	00H
	DB	099H
	DB	00H
	DB	00H
	DB	00H
	DB	099H
	DB	00H
	DB	00H
	DB	00H
	DB	099H
	DB	00H
	DB	00H
	DB	00H
	DB	099H
	DB	00H
	DB	00H
	DB	00H
	DB	099H
	DB	00H
	DB	00H
	DB	00H
	DB	099H
	DB	00H
	DB	00H
	DB	00H
	DB	099H
	DB	00H
	DB	00H
	DB	00H
	DB	099H
	DB	00H
	DB	00H
	DB	00H
	DB	099H
	DB	00H
	DB	00H
	DB	00H
	DB	099H
	DB	00H
	DB	00H
	DB	00H
	DB	099H
	DB	00H
	DB	00H
	DB	00H
	DB	099H
	DB	00H
	DB	00H
	DB	00H
	DB	099H
	DB	00H
	DB	00H
	DB	00H
	DB	099H
	DB	00H
	DB	00H
	DB	00H
	DB	099H
	DB	00H
	DB	00H
	DB	00H
	DB	099H
	DB	00H
	DB	00H
	DB	00H
	DB	099H
	DB	00H
	DB	00H
	DB	00H
	DB	099H
	DB	00H
	DB	00H
	DB	00H
	DB	099H
	DB	00H
	DB	00H
	DB	00H
	DB	099H
	DB	00H
	DB	00H
	DB	00H
	DB	099H
	DB	00H
	DB	00H
	DB	00H
	DB	099H
	DB	00H
	DB	00H
	DB	00H
	DB	099H
	DB	00H
	DB	00H
	DB	00H
	DB	099H
	DB	00H
	DB	00H
	DB	00H
	DB	099H
	DB	00H
	DB	00H
	DB	00H
	DB	099H
	DB	00H
	DB	00H
	DB	00H
	DB	099H
	DB	00H
	DB	00H
	DB	00H
	DB	099H
	DB	00H
	DB	00H
	DB	00H
	DB	099H
	DB	00H
	DB	00H
	DB	00H
	DB	099H
	DB	00H
	DB	00H
	DB	00H
	DB	099H
	DB	00H
	DB	00H
	DB	00H
	DB	099H
	DB	00H
	DB	00H
	DB	00H
	DB	099H
	DB	00H
	DB	00H
	DB	00H
	DB	099H
	DB	00H
	DB	00H
	DB	00H
	DB	099H
	DB	00H
	DB	00H
	DB	00H
	DB	099H
	DB	00H
	DB	00H
	DB	00H
	DB	099H
	DB	00H
	DB	00H
	DB	00H
	DB	099H
	DB	00H
	DB	00H
	DB	00H
	DB	099H
	DB	00H
	DB	00H
	DB	00H
	DB	099H
	DB	00H
	DB	00H
	DB	00H
	DB	099H
	DB	00H
	DB	00H
	DB	00H
	DB	099H
	DB	00H
	DB	00H
	DB	00H
	DB	099H
	DB	00H
	DB	00H
	DB	00H
	DB	099H
	DB	00H
	DB	00H
	DB	00H
	DB	099H
	DB	00H
	DB	00H
	DB	00H
	DB	099H
	DB	00H
	DB	00H
	DB	00H
	DB	099H
	DB	00H
	DB	00H
	DB	00H
	DB	099H
	DB	00H
	DB	00H
	DB	00H
	DB	099H
	DB	00H
	DB	00H
	DB	00H
	DB	099H
	DB	00H
	DB	00H
	DB	00H
	DB	099H
	DB	00H
	DB	00H
	DB	00H
	DB	099H
	DB	00H
	DB	00H
	DB	00H
	DB	099H
	DB	00H
	DB	00H
	DB	00H
	DB	099H
	DB	00H
	DB	00H
	DB	00H
	DB	099H
	DB	00H
	DB	00H
	DB	00H
	DB	099H
	DB	00H
	DB	00H
	DB	00H
	DB	099H
	DB	00H
	DB	00H
	DB	00H
	DB	099H
	DB	00H
	DB	00H
	DB	00H
	DB	099H
	DB	00H
	DB	00H
	DB	00H
	DB	099H
	DB	00H
	DB	00H
	DB	00H
	DB	099H
	DB	00H
	DB	00H
	DB	00H
	DB	099H
	DB	00H
	DB	00H
	DB	00H
	DB	099H
	DB	00H
	DB	00H
	DB	00H
	DB	099H
	DB	00H
	DB	00H
	DB	00H
	DB	099H
	DB	00H
	DB	00H
	DB	00H
	DB	099H
	DB	00H
	DB	00H
	DB	00H
	DB	099H
	DB	00H
	DB	00H
	DB	00H
	DB	099H
	DB	00H
	DB	00H
	DB	00H
	DB	099H
	DB	00H
	DB	00H
	DB	00H
	DB	099H
	DB	00H
	DB	00H
	DB	00H
	DB	099H
	DB	00H
	DB	00H
	DB	00H
	DB	099H
	DB	00H
	DB	00H
	DB	00H
	DB	099H
	DB	00H
	DB	00H
	DB	00H
	DB	099H
	DB	00H
	DB	00H
	DB	00H
	DB	099H
	DB	00H
	DB	00H
	DB	00H
	DB	099H
	DB	00H
	DB	00H
	DB	00H
	DB	099H
	DB	00H
	DB	00H
	DB	00H
	DB	099H
	DB	00H
	DB	00H
	DB	00H
	DB	099H
	DB	00H
	DB	00H
	DB	00H
	DB	099H
	DB	00H
	DB	00H
	DB	00H
	DB	099H
	DB	00H
	DB	00H
	DB	00H
	DB	099H
	DB	00H
	DB	00H
	DB	00H
	DB	099H
	DB	00H
	DB	00H
	DB	00H
	DB	099H
	DB	00H
	DB	00H
	DB	00H
	DB	099H
	DB	00H
	DB	00H
	DB	00H
	DB	099H
	DB	00H
	DB	00H
	DB	00H
	DB	099H
	DB	00H
	DB	00H
	DB	00H
	DB	099H
	DB	00H
	DB	00H
	DB	00H
	DB	099H
	DB	00H
	DB	00H
	DB	00H
	DB	099H
	DB	00H
	DB	00H
	DB	00H
	DB	099H
	DB	00H
	DB	00H
	DB	00H
	DB	099H
	DB	00H
	DB	00H
	DB	00H
	DB	099H
	DB	00H
	DB	00H
	DB	00H
	DB	099H
	DB	00H
	DB	00H
	DB	00H
	DB	099H
	DB	00H
	DB	00H
	DB	00H
	DB	099H
	DB	00H
	DB	00H
	DB	00H
	DB	099H
	DB	00H
	DB	00H
	DB	00H
	DB	099H
	DB	00H
	DB	00H
	DB	00H
	DB	099H
	DB	00H
	DB	00H
	DB	00H
	DB	099H
	DB	00H
	DB	00H
	DB	00H
	DB	099H
	DB	00H
	DB	00H
	DB	00H
	DB	099H
	DB	00H
	DB	00H
	DB	00H
	DB	099H
	DB	00H
	DB	00H
	DB	00H
	DB	099H
	DB	00H
	DB	00H
	DB	00H
	DB	099H
	DB	00H
	DB	00H
	DB	00H
	DB	099H
	DB	00H
	DB	00H
	DB	00H
	DB	099H
	DB	00H
	DB	00H
	DB	00H
	DB	099H
	DB	00H
	DB	00H
	DB	00H
	DB	099H
	DB	00H
	DB	00H
	DB	00H
	DB	099H
	DB	00H
	DB	00H
	DB	00H
	DB	099H
	DB	00H
	DB	00H
	DB	00H
	DB	099H
	DB	00H
	DB	00H
	DB	00H
	DB	099H
	DB	00H
	DB	00H
	DB	00H
	DB	099H
	DB	00H
	DB	00H
	DB	00H
	DB	099H
	DB	00H
	DB	00H
	DB	00H
	DB	099H
	DB	00H
	DB	00H
	DB	00H
	DB	099H
	DB	00H
	DB	00H
	DB	00H
	DB	099H
	DB	00H
	DB	00H
	DB	00H
	DB	099H
	DB	00H
	DB	00H
	DB	00H
	DB	099H
	DB	00H
	DB	00H
	DB	00H
	DB	099H
	DB	00H
	DB	00H
	DB	00H
	DB	099H
	DB	00H
	DB	00H
	DB	00H
	DB	099H
	DB	00H
	DB	00H
	DB	00H
	DB	099H
	DB	00H
	DB	00H
	DB	00H
	DB	099H
	DB	00H
	DB	00H
	DB	00H
	DB	099H
	DB	00H
	DB	00H
	DB	00H
	DB	099H
	DB	00H
	DB	00H
	DB	00H
	DB	099H
	DB	00H
	DB	00H
	DB	00H
	DB	099H
	DB	00H
	DB	00H
	DB	00H
	DB	099H
	DB	00H
	DB	00H
	DB	00H
	DB	099H
	DB	00H
	DB	00H
	DB	00H
	DB	099H
	DB	00H
	DB	00H
	DB	00H
	DB	099H
	DB	00H
	DB	00H
	DB	00H
	DB	099H
	DB	00H
	DB	00H
	DB	00H
	DB	099H
	DB	00H
	DB	00H
	DB	00H
	DB	099H
	DB	00H
	DB	00H
	DB	00H
	DB	099H
	DB	00H
	DB	00H
	DB	00H
	DB	099H
	DB	00H
	DB	00H
	DB	00H
	DB	099H
	DB	00H
	DB	00H
	DB	00H
	DB	099H
	DB	00H
	DB	00H
	DB	00H
	DB	099H
	DB	00H
	DB	00H
	DB	00H
	DB	099H
	DB	00H
	DB	00H
	DB	00H
	DB	099H
	DB	00H
	DB	00H
	DB	00H
	DB	099H
	DB	00H
	DB	00H
	DB	00H
	DB	099H
	DB	00H
	DB	00H
	DB	00H
	DB	099H
	DB	00H
	DB	00H
	DB	00H
	DB	08fH
	DB	00H
	DB	00H
	DB	00H
	DB	087H
	DB	00H
	DB	00H
	DB	00H
	DB	07aH
	DB	00H
	DB	00H
	DB	00H
	DB	061H
	DB	00H
	DB	00H
	DB	00H
	DB	048H
	DB	00H
	DB	00H
	DB	00H
	DB	025H
	DB	00H
	DB	00H
	DB	00H
	DB	03H
	DB	00H
	DB	00H
	DB	00H
	DB	00H
	DB	00H
	DB	00H
	DB	00H
	DB	00H
	DB	00H
	DB	00H
	DB	00H
	DB	00H
	DB	00H
	DB	00H
	DB	00H
	DB	00H
	DB	00H
	DB	00H
	DB	00H
	DB	00H
	DB	00H
	DB	00H
	DB	00H
	DB	00H
	DB	00H
	DB	00H
	DB	00H
	DB	00H
	DB	00H
	DB	00H
	DB	00H
	DB	00H
	DB	00H
	DB	00H
	DB	00H
	DB	00H
	DB	00H
	DB	00H
	DB	00H
	DB	00H
	DB	00H
	DB	00H
	DB	00H
	DB	00H
	DB	00H
	DB	00H
	DB	00H
	DB	00H
	DB	00H
	DB	00H
	DB	00H
	DB	00H
	DB	00H
	DB	00H
	DB	00H
	DB	00H
	DB	00H
	DB	00H
	DB	00H
	DB	00H
	DB	00H
	DB	00H
	DB	00H
	DB	00H
	DB	00H
	DB	00H
	DB	00H
	DB	00H
	DB	00H
	DB	00H
	DB	00H
	DB	00H
	DB	00H
	DB	00H
	DB	00H
	DB	00H
	DB	00H
	DB	00H
	DB	00H
	DB	00H
	DB	00H
	DB	00H
	DB	00H
	DB	00H
	DB	00H
	DB	00H
	DB	00H
	DB	00H
	DB	00H
	DB	00H
	DB	00H
	DB	00H
	DB	00H
	DB	00H
	DB	00H
	DB	00H
	DB	00H
	DB	00H
	DB	00H
	DB	00H
	DB	00H
	DB	00H
	DB	00H
	DB	00H
	DB	00H
	DB	00H
	DB	00H
	DB	00H
	DB	00H
	DB	00H
	DB	00H
	DB	00H
	DB	00H
	DB	00H
	DB	00H
	DB	00H
	DB	00H
	DB	00H
	DB	00H
	DB	00H
	DB	00H
	DB	00H
	DB	00H
	DB	00H
	DB	00H
	DB	00H
	DB	00H
	DB	00H
	DB	00H
	DB	00H
	DB	00H
	DB	00H
	DB	00H
	DB	00H
	DB	00H
	DB	00H
	DB	00H
	DB	00H
	DB	00H
	DB	00H
	DB	00H
	DB	00H
	DB	00H
	DB	00H
	DB	00H
	DB	00H
	DB	00H
	DB	00H
	DB	00H
	DB	00H
	DB	00H
	DB	02H
	DB	00H
	DB	00H
	DB	00H
	DB	02fH
	DB	00H
	DB	00H
	DB	00H
	DB	068H
	DB	00H
	DB	00H
	DB	00H
	DB	091H
	DB	00H
	DB	00H
	DB	00H
	DB	099H
	DB	00H
	DB	00H
	DB	00H
	DB	099H
	DB	00H
	DB	00H
	DB	00H
	DB	099H
	DB	00H
	DB	00H
	DB	00H
	DB	099H
	DB	00H
	DB	00H
	DB	00H
	DB	099H
	DB	00H
	DB	00H
	DB	00H
	DB	099H
	DB	00H
	DB	00H
	DB	00H
	DB	099H
	DB	00H
	DB	00H
	DB	00H
	DB	099H
	DB	00H
	DB	00H
	DB	00H
	DB	099H
	DB	00H
	DB	00H
	DB	00H
	DB	099H
	DB	00H
	DB	00H
	DB	00H
	DB	099H
	DB	00H
	DB	00H
	DB	00H
	DB	099H
	DB	00H
	DB	00H
	DB	00H
	DB	099H
	DB	00H
	DB	00H
	DB	00H
	DB	099H
	DB	00H
	DB	00H
	DB	00H
	DB	099H
	DB	00H
	DB	00H
	DB	00H
	DB	099H
	DB	00H
	DB	00H
	DB	00H
	DB	099H
	DB	00H
	DB	00H
	DB	00H
	DB	099H
	DB	00H
	DB	00H
	DB	00H
	DB	099H
	DB	00H
	DB	00H
	DB	00H
	DB	099H
	DB	00H
	DB	00H
	DB	00H
	DB	099H
	DB	00H
	DB	00H
	DB	00H
	DB	099H
	DB	00H
	DB	00H
	DB	00H
	DB	099H
	DB	00H
	DB	00H
	DB	00H
	DB	099H
	DB	00H
	DB	00H
	DB	00H
	DB	099H
	DB	00H
	DB	00H
	DB	00H
	DB	099H
	DB	00H
	DB	00H
	DB	00H
	DB	099H
	DB	00H
	DB	00H
	DB	00H
	DB	099H
	DB	00H
	DB	00H
	DB	00H
	DB	099H
	DB	00H
	DB	00H
	DB	00H
	DB	099H
	DB	00H
	DB	00H
	DB	00H
	DB	099H
	DB	00H
	DB	00H
	DB	00H
	DB	099H
	DB	00H
	DB	00H
	DB	00H
	DB	099H
	DB	00H
	DB	00H
	DB	00H
	DB	099H
	DB	00H
	DB	00H
	DB	00H
	DB	099H
	DB	00H
	DB	00H
	DB	00H
	DB	099H
	DB	00H
	DB	00H
	DB	00H
	DB	099H
	DB	00H
	DB	00H
	DB	00H
	DB	099H
	DB	00H
	DB	00H
	DB	00H
	DB	099H
	DB	00H
	DB	00H
	DB	00H
	DB	099H
	DB	00H
	DB	00H
	DB	00H
	DB	099H
	DB	00H
	DB	00H
	DB	00H
	DB	099H
	DB	00H
	DB	00H
	DB	00H
	DB	099H
	DB	00H
	DB	00H
	DB	00H
	DB	099H
	DB	00H
	DB	00H
	DB	00H
	DB	099H
	DB	00H
	DB	00H
	DB	00H
	DB	099H
	DB	00H
	DB	00H
	DB	00H
	DB	099H
	DB	00H
	DB	00H
	DB	00H
	DB	099H
	DB	00H
	DB	00H
	DB	00H
	DB	099H
	DB	00H
	DB	00H
	DB	00H
	DB	099H
	DB	00H
	DB	00H
	DB	00H
	DB	099H
	DB	00H
	DB	00H
	DB	00H
	DB	099H
	DB	00H
	DB	00H
	DB	00H
	DB	099H
	DB	00H
	DB	00H
	DB	00H
	DB	099H
	DB	00H
	DB	00H
	DB	00H
	DB	099H
	DB	00H
	DB	00H
	DB	00H
	DB	099H
	DB	00H
	DB	00H
	DB	00H
	DB	099H
	DB	00H
	DB	00H
	DB	00H
	DB	099H
	DB	00H
	DB	00H
	DB	00H
	DB	099H
	DB	00H
	DB	00H
	DB	00H
	DB	099H
	DB	00H
	DB	00H
	DB	00H
	DB	099H
	DB	00H
	DB	00H
	DB	00H
	DB	099H
	DB	00H
	DB	00H
	DB	00H
	DB	099H
	DB	00H
	DB	00H
	DB	00H
	DB	099H
	DB	00H
	DB	00H
	DB	00H
	DB	099H
	DB	00H
	DB	00H
	DB	00H
	DB	099H
	DB	00H
	DB	00H
	DB	00H
	DB	099H
	DB	00H
	DB	00H
	DB	00H
	DB	099H
	DB	00H
	DB	00H
	DB	00H
	DB	099H
	DB	00H
	DB	00H
	DB	00H
	DB	099H
	DB	00H
	DB	00H
	DB	00H
	DB	099H
	DB	00H
	DB	00H
	DB	00H
	DB	099H
	DB	00H
	DB	00H
	DB	00H
	DB	099H
	DB	00H
	DB	00H
	DB	00H
	DB	099H
	DB	00H
	DB	00H
	DB	00H
	DB	099H
	DB	00H
	DB	00H
	DB	00H
	DB	099H
	DB	00H
	DB	00H
	DB	00H
	DB	099H
	DB	00H
	DB	00H
	DB	00H
	DB	099H
	DB	00H
	DB	00H
	DB	00H
	DB	099H
	DB	00H
	DB	00H
	DB	00H
	DB	099H
	DB	00H
	DB	00H
	DB	00H
	DB	099H
	DB	00H
	DB	00H
	DB	00H
	DB	099H
	DB	00H
	DB	00H
	DB	00H
	DB	099H
	DB	00H
	DB	00H
	DB	00H
	DB	099H
	DB	00H
	DB	00H
	DB	00H
	DB	099H
	DB	00H
	DB	00H
	DB	00H
	DB	099H
	DB	00H
	DB	00H
	DB	00H
	DB	099H
	DB	00H
	DB	00H
	DB	00H
	DB	099H
	DB	00H
	DB	00H
	DB	00H
	DB	099H
	DB	00H
	DB	00H
	DB	00H
	DB	099H
	DB	00H
	DB	00H
	DB	00H
	DB	099H
	DB	00H
	DB	00H
	DB	00H
	DB	099H
	DB	00H
	DB	00H
	DB	00H
	DB	099H
	DB	00H
	DB	00H
	DB	00H
	DB	099H
	DB	00H
	DB	00H
	DB	00H
	DB	099H
	DB	00H
	DB	00H
	DB	00H
	DB	099H
	DB	00H
	DB	00H
	DB	00H
	DB	099H
	DB	00H
	DB	00H
	DB	00H
	DB	099H
	DB	00H
	DB	00H
	DB	00H
	DB	099H
	DB	00H
	DB	00H
	DB	00H
	DB	099H
	DB	00H
	DB	00H
	DB	00H
	DB	099H
	DB	00H
	DB	00H
	DB	00H
	DB	099H
	DB	00H
	DB	00H
	DB	00H
	DB	099H
	DB	00H
	DB	00H
	DB	00H
	DB	099H
	DB	00H
	DB	00H
	DB	00H
	DB	099H
	DB	00H
	DB	00H
	DB	00H
	DB	099H
	DB	00H
	DB	00H
	DB	00H
	DB	099H
	DB	00H
	DB	00H
	DB	00H
	DB	099H
	DB	00H
	DB	00H
	DB	00H
	DB	099H
	DB	00H
	DB	00H
	DB	00H
	DB	099H
	DB	00H
	DB	00H
	DB	00H
	DB	099H
	DB	00H
	DB	00H
	DB	00H
	DB	099H
	DB	00H
	DB	00H
	DB	00H
	DB	099H
	DB	00H
	DB	00H
	DB	00H
	DB	099H
	DB	00H
	DB	00H
	DB	00H
	DB	099H
	DB	00H
	DB	00H
	DB	00H
	DB	099H
	DB	00H
	DB	00H
	DB	00H
	DB	099H
	DB	00H
	DB	00H
	DB	00H
	DB	099H
	DB	00H
	DB	00H
	DB	00H
	DB	099H
	DB	00H
	DB	00H
	DB	00H
	DB	099H
	DB	00H
	DB	00H
	DB	00H
	DB	099H
	DB	00H
	DB	00H
	DB	00H
	DB	099H
	DB	00H
	DB	00H
	DB	00H
	DB	099H
	DB	00H
	DB	00H
	DB	00H
	DB	099H
	DB	00H
	DB	00H
	DB	00H
	DB	099H
	DB	00H
	DB	00H
	DB	00H
	DB	099H
	DB	00H
	DB	00H
	DB	00H
	DB	099H
	DB	00H
	DB	00H
	DB	00H
	DB	099H
	DB	00H
	DB	00H
	DB	00H
	DB	099H
	DB	00H
	DB	00H
	DB	00H
	DB	099H
	DB	00H
	DB	00H
	DB	00H
	DB	099H
	DB	00H
	DB	00H
	DB	00H
	DB	099H
	DB	00H
	DB	00H
	DB	00H
	DB	099H
	DB	00H
	DB	00H
	DB	00H
	DB	099H
	DB	00H
	DB	00H
	DB	00H
	DB	099H
	DB	00H
	DB	00H
	DB	00H
	DB	099H
	DB	00H
	DB	00H
	DB	00H
	DB	099H
	DB	00H
	DB	00H
	DB	00H
	DB	099H
	DB	00H
	DB	00H
	DB	00H
	DB	099H
	DB	00H
	DB	00H
	DB	00H
	DB	099H
	DB	00H
	DB	00H
	DB	00H
	DB	099H
	DB	00H
	DB	00H
	DB	00H
	DB	099H
	DB	00H
	DB	00H
	DB	00H
	DB	099H
	DB	00H
	DB	00H
	DB	00H
	DB	099H
	DB	00H
	DB	00H
	DB	00H
	DB	099H
	DB	00H
	DB	00H
	DB	00H
	DB	099H
	DB	00H
	DB	00H
	DB	00H
	DB	099H
	DB	00H
	DB	00H
	DB	00H
	DB	099H
	DB	00H
	DB	00H
	DB	00H
	DB	099H
	DB	00H
	DB	00H
	DB	00H
	DB	099H
	DB	00H
	DB	00H
	DB	00H
	DB	099H
	DB	00H
	DB	00H
	DB	00H
	DB	099H
	DB	00H
	DB	00H
	DB	00H
	DB	099H
	DB	00H
	DB	00H
	DB	00H
	DB	099H
	DB	00H
	DB	00H
	DB	00H
	DB	099H
	DB	00H
	DB	00H
	DB	00H
	DB	099H
	DB	00H
	DB	00H
	DB	00H
	DB	099H
	DB	00H
	DB	00H
	DB	00H
	DB	099H
	DB	00H
	DB	00H
	DB	00H
	DB	099H
	DB	00H
	DB	00H
	DB	00H
	DB	099H
	DB	00H
	DB	00H
	DB	00H
	DB	099H
	DB	00H
	DB	00H
	DB	00H
	DB	099H
	DB	00H
	DB	00H
	DB	00H
	DB	099H
	DB	00H
	DB	00H
	DB	00H
	DB	099H
	DB	00H
	DB	00H
	DB	00H
	DB	099H
	DB	00H
	DB	00H
	DB	00H
	DB	099H
	DB	00H
	DB	00H
	DB	00H
	DB	099H
	DB	00H
	DB	00H
	DB	00H
	DB	099H
	DB	00H
	DB	00H
	DB	00H
	DB	099H
	DB	00H
	DB	00H
	DB	00H
	DB	099H
	DB	00H
	DB	00H
	DB	00H
	DB	099H
	DB	00H
	DB	00H
	DB	00H
	DB	099H
	DB	00H
	DB	00H
	DB	00H
	DB	099H
	DB	00H
	DB	00H
	DB	00H
	DB	099H
	DB	00H
	DB	00H
	DB	00H
	DB	099H
	DB	00H
	DB	00H
	DB	00H
	DB	099H
	DB	00H
	DB	00H
	DB	00H
	DB	099H
	DB	00H
	DB	00H
	DB	00H
	DB	099H
	DB	00H
	DB	00H
	DB	00H
	DB	099H
	DB	00H
	DB	00H
	DB	00H
	DB	099H
	DB	00H
	DB	00H
	DB	00H
	DB	099H
	DB	00H
	DB	00H
	DB	00H
	DB	099H
	DB	00H
	DB	00H
	DB	00H
	DB	099H
	DB	00H
	DB	00H
	DB	00H
	DB	099H
	DB	00H
	DB	00H
	DB	00H
	DB	099H
	DB	00H
	DB	00H
	DB	00H
	DB	099H
	DB	00H
	DB	00H
	DB	00H
	DB	099H
	DB	00H
	DB	00H
	DB	00H
	DB	099H
	DB	00H
	DB	00H
	DB	00H
	DB	099H
	DB	00H
	DB	00H
	DB	00H
	DB	099H
	DB	00H
	DB	00H
	DB	00H
	DB	099H
	DB	00H
	DB	00H
	DB	00H
	DB	099H
	DB	00H
	DB	00H
	DB	00H
	DB	099H
	DB	00H
	DB	00H
	DB	00H
	DB	099H
	DB	00H
	DB	00H
	DB	00H
	DB	099H
	DB	00H
	DB	00H
	DB	00H
	DB	099H
	DB	00H
	DB	00H
	DB	00H
	DB	099H
	DB	00H
	DB	00H
	DB	00H
	DB	099H
	DB	00H
	DB	00H
	DB	00H
	DB	099H
	DB	00H
	DB	00H
	DB	00H
	DB	099H
	DB	00H
	DB	00H
	DB	00H
	DB	099H
	DB	00H
	DB	00H
	DB	00H
	DB	099H
	DB	00H
	DB	00H
	DB	00H
	DB	099H
	DB	00H
	DB	00H
	DB	00H
	DB	099H
	DB	00H
	DB	00H
	DB	00H
	DB	099H
	DB	00H
	DB	00H
	DB	00H
	DB	099H
	DB	00H
	DB	00H
	DB	00H
	DB	099H
	DB	00H
	DB	00H
	DB	00H
	DB	099H
	DB	00H
	DB	00H
	DB	00H
	DB	099H
	DB	00H
	DB	00H
	DB	00H
	DB	099H
	DB	00H
	DB	00H
	DB	00H
	DB	099H
	DB	00H
	DB	00H
	DB	00H
	DB	099H
	DB	00H
	DB	00H
	DB	00H
	DB	099H
	DB	00H
	DB	00H
	DB	00H
	DB	099H
	DB	00H
	DB	00H
	DB	00H
	DB	099H
	DB	00H
	DB	00H
	DB	00H
	DB	099H
	DB	00H
	DB	00H
	DB	00H
	DB	099H
	DB	00H
	DB	00H
	DB	00H
	DB	099H
	DB	00H
	DB	00H
	DB	00H
	DB	099H
	DB	00H
	DB	00H
	DB	00H
	DB	099H
	DB	00H
	DB	00H
	DB	00H
	DB	099H
	DB	00H
	DB	00H
	DB	00H
	DB	099H
	DB	00H
	DB	00H
	DB	00H
	DB	099H
	DB	00H
	DB	00H
	DB	00H
	DB	099H
	DB	00H
	DB	00H
	DB	00H
	DB	099H
	DB	00H
	DB	00H
	DB	00H
	DB	099H
	DB	00H
	DB	00H
	DB	00H
	DB	099H
	DB	00H
	DB	00H
	DB	00H
	DB	099H
	DB	00H
	DB	00H
	DB	00H
	DB	091H
	DB	00H
	DB	00H
	DB	00H
	DB	068H
	DB	00H
	DB	00H
	DB	00H
	DB	02eH
	DB	00H
	DB	00H
	DB	00H
	DB	02H
	DB	00H
	DB	00H
	DB	00H
	DB	00H
	DB	00H
	DB	00H
	DB	00H
	DB	00H
	DB	00H
	DB	00H
	DB	00H
	DB	00H
	DB	00H
	DB	00H
	DB	00H
	DB	00H
	DB	00H
	DB	00H
	DB	00H
	DB	00H
	DB	00H
	DB	00H
	DB	00H
	DB	00H
	DB	00H
	DB	00H
	DB	00H
	DB	00H
	DB	00H
	DB	00H
	DB	00H
	DB	00H
	DB	00H
	DB	00H
	DB	00H
	DB	00H
	DB	00H
	DB	00H
	DB	00H
	DB	00H
	DB	00H
	DB	00H
	DB	00H
	DB	00H
	DB	00H
	DB	00H
	DB	00H
	DB	00H
	DB	00H
	DB	00H
	DB	00H
	DB	00H
	DB	00H
	DB	00H
	DB	00H
	DB	00H
	DB	00H
	DB	00H
	DB	00H
	DB	00H
	DB	00H
	DB	00H
	DB	00H
	DB	00H
	DB	00H
	DB	00H
	DB	00H
	DB	00H
	DB	00H
	DB	00H
	DB	00H
	DB	00H
	DB	00H
	DB	00H
	DB	00H
	DB	00H
	DB	00H
	DB	00H
	DB	00H
	DB	00H
	DB	00H
	DB	00H
	DB	00H
	DB	00H
	DB	00H
	DB	00H
	DB	00H
	DB	00H
	DB	00H
	DB	00H
	DB	00H
	DB	00H
	DB	00H
	DB	00H
	DB	00H
	DB	00H
	DB	00H
	DB	00H
	DB	00H
	DB	00H
	DB	00H
	DB	00H
	DB	00H
	DB	00H
	DB	00H
	DB	00H
	DB	00H
	DB	00H
	DB	00H
	DB	00H
	DB	00H
	DB	00H
	DB	00H
	DB	00H
	DB	00H
	DB	00H
	DB	00H
	DB	00H
	DB	00H
	DB	00H
	DB	00H
	DB	00H
	DB	00H
	DB	00H
	DB	00H
	DB	00H
	DB	00H
	DB	00H
	DB	00H
	DB	00H
	DB	00H
	DB	06H
	DB	00H
	DB	00H
	DB	00H
	DB	047H
	DB	00H
	DB	00H
	DB	00H
	DB	089H
	DB	00H
	DB	00H
	DB	00H
	DB	099H
	DB	00H
	DB	00H
	DB	00H
	DB	099H
	DB	00H
	DB	00H
	DB	00H
	DB	099H
	DB	00H
	DB	00H
	DB	00H
	DB	099H
	DB	00H
	DB	00H
	DB	00H
	DB	099H
	DB	00H
	DB	00H
	DB	00H
	DB	099H
	DB	00H
	DB	00H
	DB	00H
	DB	099H
	DB	00H
	DB	00H
	DB	00H
	DB	099H
	DB	00H
	DB	00H
	DB	00H
	DB	099H
	DB	00H
	DB	00H
	DB	00H
	DB	099H
	DB	00H
	DB	00H
	DB	00H
	DB	099H
	DB	00H
	DB	00H
	DB	00H
	DB	099H
	DB	00H
	DB	00H
	DB	00H
	DB	099H
	DB	00H
	DB	00H
	DB	00H
	DB	099H
	DB	00H
	DB	00H
	DB	00H
	DB	099H
	DB	00H
	DB	00H
	DB	00H
	DB	099H
	DB	00H
	DB	00H
	DB	00H
	DB	099H
	DB	00H
	DB	00H
	DB	00H
	DB	099H
	DB	00H
	DB	00H
	DB	00H
	DB	099H
	DB	00H
	DB	00H
	DB	00H
	DB	099H
	DB	00H
	DB	00H
	DB	00H
	DB	099H
	DB	00H
	DB	00H
	DB	00H
	DB	099H
	DB	00H
	DB	00H
	DB	00H
	DB	099H
	DB	00H
	DB	00H
	DB	00H
	DB	099H
	DB	00H
	DB	00H
	DB	00H
	DB	099H
	DB	00H
	DB	00H
	DB	00H
	DB	099H
	DB	00H
	DB	00H
	DB	00H
	DB	099H
	DB	00H
	DB	00H
	DB	00H
	DB	099H
	DB	00H
	DB	00H
	DB	00H
	DB	099H
	DB	00H
	DB	00H
	DB	00H
	DB	099H
	DB	00H
	DB	00H
	DB	00H
	DB	099H
	DB	00H
	DB	00H
	DB	00H
	DB	099H
	DB	00H
	DB	00H
	DB	00H
	DB	099H
	DB	00H
	DB	00H
	DB	00H
	DB	099H
	DB	00H
	DB	00H
	DB	00H
	DB	099H
	DB	00H
	DB	00H
	DB	00H
	DB	099H
	DB	00H
	DB	00H
	DB	00H
	DB	099H
	DB	00H
	DB	00H
	DB	00H
	DB	099H
	DB	00H
	DB	00H
	DB	00H
	DB	099H
	DB	00H
	DB	00H
	DB	00H
	DB	099H
	DB	00H
	DB	00H
	DB	00H
	DB	099H
	DB	00H
	DB	00H
	DB	00H
	DB	099H
	DB	00H
	DB	00H
	DB	00H
	DB	099H
	DB	00H
	DB	00H
	DB	00H
	DB	099H
	DB	00H
	DB	00H
	DB	00H
	DB	099H
	DB	00H
	DB	00H
	DB	00H
	DB	099H
	DB	00H
	DB	00H
	DB	00H
	DB	099H
	DB	00H
	DB	00H
	DB	00H
	DB	099H
	DB	00H
	DB	00H
	DB	00H
	DB	099H
	DB	00H
	DB	00H
	DB	00H
	DB	099H
	DB	00H
	DB	00H
	DB	00H
	DB	099H
	DB	00H
	DB	00H
	DB	00H
	DB	099H
	DB	00H
	DB	00H
	DB	00H
	DB	099H
	DB	00H
	DB	00H
	DB	00H
	DB	099H
	DB	00H
	DB	00H
	DB	00H
	DB	099H
	DB	00H
	DB	00H
	DB	00H
	DB	099H
	DB	00H
	DB	00H
	DB	00H
	DB	099H
	DB	00H
	DB	00H
	DB	00H
	DB	099H
	DB	00H
	DB	00H
	DB	00H
	DB	099H
	DB	00H
	DB	00H
	DB	00H
	DB	099H
	DB	00H
	DB	00H
	DB	00H
	DB	099H
	DB	00H
	DB	00H
	DB	00H
	DB	099H
	DB	00H
	DB	00H
	DB	00H
	DB	099H
	DB	00H
	DB	00H
	DB	00H
	DB	099H
	DB	00H
	DB	00H
	DB	00H
	DB	099H
	DB	00H
	DB	00H
	DB	00H
	DB	099H
	DB	00H
	DB	00H
	DB	00H
	DB	099H
	DB	00H
	DB	00H
	DB	00H
	DB	099H
	DB	00H
	DB	00H
	DB	00H
	DB	099H
	DB	00H
	DB	00H
	DB	00H
	DB	099H
	DB	00H
	DB	00H
	DB	00H
	DB	099H
	DB	00H
	DB	00H
	DB	00H
	DB	099H
	DB	00H
	DB	00H
	DB	00H
	DB	099H
	DB	00H
	DB	00H
	DB	00H
	DB	099H
	DB	00H
	DB	00H
	DB	00H
	DB	099H
	DB	00H
	DB	00H
	DB	00H
	DB	099H
	DB	00H
	DB	00H
	DB	00H
	DB	099H
	DB	00H
	DB	00H
	DB	00H
	DB	099H
	DB	00H
	DB	00H
	DB	00H
	DB	099H
	DB	00H
	DB	00H
	DB	00H
	DB	099H
	DB	00H
	DB	00H
	DB	00H
	DB	099H
	DB	00H
	DB	00H
	DB	00H
	DB	099H
	DB	00H
	DB	00H
	DB	00H
	DB	099H
	DB	00H
	DB	00H
	DB	00H
	DB	099H
	DB	00H
	DB	00H
	DB	00H
	DB	099H
	DB	00H
	DB	00H
	DB	00H
	DB	099H
	DB	00H
	DB	00H
	DB	00H
	DB	099H
	DB	00H
	DB	00H
	DB	00H
	DB	099H
	DB	00H
	DB	00H
	DB	00H
	DB	099H
	DB	00H
	DB	00H
	DB	00H
	DB	099H
	DB	00H
	DB	00H
	DB	00H
	DB	099H
	DB	00H
	DB	00H
	DB	00H
	DB	099H
	DB	00H
	DB	00H
	DB	00H
	DB	099H
	DB	00H
	DB	00H
	DB	00H
	DB	099H
	DB	00H
	DB	00H
	DB	00H
	DB	099H
	DB	00H
	DB	00H
	DB	00H
	DB	099H
	DB	00H
	DB	00H
	DB	00H
	DB	099H
	DB	00H
	DB	00H
	DB	00H
	DB	099H
	DB	00H
	DB	00H
	DB	00H
	DB	099H
	DB	00H
	DB	00H
	DB	00H
	DB	099H
	DB	00H
	DB	00H
	DB	00H
	DB	099H
	DB	00H
	DB	00H
	DB	00H
	DB	099H
	DB	00H
	DB	00H
	DB	00H
	DB	099H
	DB	00H
	DB	00H
	DB	00H
	DB	099H
	DB	00H
	DB	00H
	DB	00H
	DB	099H
	DB	00H
	DB	00H
	DB	00H
	DB	099H
	DB	00H
	DB	00H
	DB	00H
	DB	099H
	DB	00H
	DB	00H
	DB	00H
	DB	099H
	DB	00H
	DB	00H
	DB	00H
	DB	099H
	DB	00H
	DB	00H
	DB	00H
	DB	099H
	DB	00H
	DB	00H
	DB	00H
	DB	099H
	DB	00H
	DB	00H
	DB	00H
	DB	099H
	DB	00H
	DB	00H
	DB	00H
	DB	099H
	DB	00H
	DB	00H
	DB	00H
	DB	099H
	DB	00H
	DB	00H
	DB	00H
	DB	099H
	DB	00H
	DB	00H
	DB	00H
	DB	099H
	DB	00H
	DB	00H
	DB	00H
	DB	099H
	DB	00H
	DB	00H
	DB	00H
	DB	099H
	DB	00H
	DB	00H
	DB	00H
	DB	099H
	DB	00H
	DB	00H
	DB	00H
	DB	099H
	DB	00H
	DB	00H
	DB	00H
	DB	099H
	DB	00H
	DB	00H
	DB	00H
	DB	099H
	DB	00H
	DB	00H
	DB	00H
	DB	099H
	DB	00H
	DB	00H
	DB	00H
	DB	099H
	DB	00H
	DB	00H
	DB	00H
	DB	099H
	DB	00H
	DB	00H
	DB	00H
	DB	099H
	DB	00H
	DB	00H
	DB	00H
	DB	099H
	DB	00H
	DB	00H
	DB	00H
	DB	099H
	DB	00H
	DB	00H
	DB	00H
	DB	099H
	DB	00H
	DB	00H
	DB	00H
	DB	099H
	DB	00H
	DB	00H
	DB	00H
	DB	099H
	DB	00H
	DB	00H
	DB	00H
	DB	099H
	DB	00H
	DB	00H
	DB	00H
	DB	099H
	DB	00H
	DB	00H
	DB	00H
	DB	099H
	DB	00H
	DB	00H
	DB	00H
	DB	099H
	DB	00H
	DB	00H
	DB	00H
	DB	099H
	DB	00H
	DB	00H
	DB	00H
	DB	099H
	DB	00H
	DB	00H
	DB	00H
	DB	099H
	DB	00H
	DB	00H
	DB	00H
	DB	099H
	DB	00H
	DB	00H
	DB	00H
	DB	099H
	DB	00H
	DB	00H
	DB	00H
	DB	099H
	DB	00H
	DB	00H
	DB	00H
	DB	099H
	DB	00H
	DB	00H
	DB	00H
	DB	099H
	DB	00H
	DB	00H
	DB	00H
	DB	099H
	DB	00H
	DB	00H
	DB	00H
	DB	099H
	DB	00H
	DB	00H
	DB	00H
	DB	099H
	DB	00H
	DB	00H
	DB	00H
	DB	099H
	DB	00H
	DB	00H
	DB	00H
	DB	099H
	DB	00H
	DB	00H
	DB	00H
	DB	099H
	DB	00H
	DB	00H
	DB	00H
	DB	099H
	DB	00H
	DB	00H
	DB	00H
	DB	099H
	DB	00H
	DB	00H
	DB	00H
	DB	099H
	DB	00H
	DB	00H
	DB	00H
	DB	099H
	DB	00H
	DB	00H
	DB	00H
	DB	099H
	DB	00H
	DB	00H
	DB	00H
	DB	099H
	DB	00H
	DB	00H
	DB	00H
	DB	099H
	DB	00H
	DB	00H
	DB	00H
	DB	099H
	DB	00H
	DB	00H
	DB	00H
	DB	099H
	DB	00H
	DB	00H
	DB	00H
	DB	099H
	DB	00H
	DB	00H
	DB	00H
	DB	099H
	DB	00H
	DB	00H
	DB	00H
	DB	099H
	DB	00H
	DB	00H
	DB	00H
	DB	099H
	DB	00H
	DB	00H
	DB	00H
	DB	099H
	DB	00H
	DB	00H
	DB	00H
	DB	099H
	DB	00H
	DB	00H
	DB	00H
	DB	099H
	DB	00H
	DB	00H
	DB	00H
	DB	099H
	DB	00H
	DB	00H
	DB	00H
	DB	099H
	DB	00H
	DB	00H
	DB	00H
	DB	099H
	DB	00H
	DB	00H
	DB	00H
	DB	099H
	DB	00H
	DB	00H
	DB	00H
	DB	099H
	DB	00H
	DB	00H
	DB	00H
	DB	099H
	DB	00H
	DB	00H
	DB	00H
	DB	099H
	DB	00H
	DB	00H
	DB	00H
	DB	099H
	DB	00H
	DB	00H
	DB	00H
	DB	099H
	DB	00H
	DB	00H
	DB	00H
	DB	099H
	DB	00H
	DB	00H
	DB	00H
	DB	099H
	DB	00H
	DB	00H
	DB	00H
	DB	099H
	DB	00H
	DB	00H
	DB	00H
	DB	099H
	DB	00H
	DB	00H
	DB	00H
	DB	099H
	DB	00H
	DB	00H
	DB	00H
	DB	099H
	DB	00H
	DB	00H
	DB	00H
	DB	099H
	DB	00H
	DB	00H
	DB	00H
	DB	099H
	DB	00H
	DB	00H
	DB	00H
	DB	099H
	DB	00H
	DB	00H
	DB	00H
	DB	099H
	DB	00H
	DB	00H
	DB	00H
	DB	099H
	DB	00H
	DB	00H
	DB	00H
	DB	099H
	DB	00H
	DB	00H
	DB	00H
	DB	099H
	DB	00H
	DB	00H
	DB	00H
	DB	099H
	DB	00H
	DB	00H
	DB	00H
	DB	099H
	DB	00H
	DB	00H
	DB	00H
	DB	099H
	DB	00H
	DB	00H
	DB	00H
	DB	099H
	DB	00H
	DB	00H
	DB	00H
	DB	099H
	DB	00H
	DB	00H
	DB	00H
	DB	099H
	DB	00H
	DB	00H
	DB	00H
	DB	099H
	DB	00H
	DB	00H
	DB	00H
	DB	099H
	DB	00H
	DB	00H
	DB	00H
	DB	099H
	DB	00H
	DB	00H
	DB	00H
	DB	099H
	DB	00H
	DB	00H
	DB	00H
	DB	099H
	DB	00H
	DB	00H
	DB	00H
	DB	099H
	DB	00H
	DB	00H
	DB	00H
	DB	099H
	DB	00H
	DB	00H
	DB	00H
	DB	099H
	DB	00H
	DB	00H
	DB	00H
	DB	099H
	DB	00H
	DB	00H
	DB	00H
	DB	099H
	DB	00H
	DB	00H
	DB	00H
	DB	099H
	DB	00H
	DB	00H
	DB	00H
	DB	099H
	DB	00H
	DB	00H
	DB	00H
	DB	099H
	DB	00H
	DB	00H
	DB	00H
	DB	099H
	DB	00H
	DB	00H
	DB	00H
	DB	099H
	DB	00H
	DB	00H
	DB	00H
	DB	099H
	DB	00H
	DB	00H
	DB	00H
	DB	099H
	DB	00H
	DB	00H
	DB	00H
	DB	099H
	DB	00H
	DB	00H
	DB	00H
	DB	099H
	DB	00H
	DB	00H
	DB	00H
	DB	099H
	DB	00H
	DB	00H
	DB	00H
	DB	099H
	DB	00H
	DB	00H
	DB	00H
	DB	099H
	DB	00H
	DB	00H
	DB	00H
	DB	099H
	DB	00H
	DB	00H
	DB	00H
	DB	099H
	DB	00H
	DB	00H
	DB	00H
	DB	099H
	DB	00H
	DB	00H
	DB	00H
	DB	099H
	DB	00H
	DB	00H
	DB	00H
	DB	099H
	DB	00H
	DB	00H
	DB	00H
	DB	099H
	DB	00H
	DB	00H
	DB	00H
	DB	099H
	DB	00H
	DB	00H
	DB	00H
	DB	099H
	DB	00H
	DB	00H
	DB	00H
	DB	099H
	DB	00H
	DB	00H
	DB	00H
	DB	099H
	DB	00H
	DB	00H
	DB	00H
	DB	099H
	DB	00H
	DB	00H
	DB	00H
	DB	099H
	DB	00H
	DB	00H
	DB	00H
	DB	099H
	DB	00H
	DB	00H
	DB	00H
	DB	099H
	DB	00H
	DB	00H
	DB	00H
	DB	099H
	DB	00H
	DB	00H
	DB	00H
	DB	099H
	DB	00H
	DB	00H
	DB	00H
	DB	099H
	DB	00H
	DB	00H
	DB	00H
	DB	099H
	DB	00H
	DB	00H
	DB	00H
	DB	099H
	DB	00H
	DB	00H
	DB	00H
	DB	088H
	DB	00H
	DB	00H
	DB	00H
	DB	046H
	DB	00H
	DB	00H
	DB	00H
	DB	05H
	DB	00H
	DB	00H
	DB	00H
	DB	00H
	DB	00H
	DB	00H
	DB	00H
	DB	00H
	DB	00H
	DB	00H
	DB	00H
	DB	00H
	DB	00H
	DB	00H
	DB	00H
	DB	00H
	DB	00H
	DB	00H
	DB	00H
	DB	00H
	DB	00H
	DB	00H
	DB	00H
	DB	00H
	DB	00H
	DB	00H
	DB	00H
	DB	00H
	DB	00H
	DB	00H
	DB	00H
	DB	00H
	DB	00H
	DB	00H
	DB	00H
	DB	00H
	DB	00H
	DB	00H
	DB	00H
	DB	00H
	DB	00H
	DB	00H
	DB	00H
	DB	00H
	DB	00H
	DB	00H
	DB	00H
	DB	00H
	DB	00H
	DB	00H
	DB	00H
	DB	00H
	DB	00H
	DB	00H
	DB	00H
	DB	00H
	DB	00H
	DB	00H
	DB	00H
	DB	00H
	DB	00H
	DB	00H
	DB	00H
	DB	00H
	DB	00H
	DB	00H
	DB	00H
	DB	00H
	DB	00H
	DB	00H
	DB	00H
	DB	00H
	DB	00H
	DB	00H
	DB	00H
	DB	00H
	DB	00H
	DB	00H
	DB	00H
	DB	00H
	DB	00H
	DB	00H
	DB	00H
	DB	00H
	DB	00H
	DB	00H
	DB	00H
	DB	00H
	DB	00H
	DB	00H
	DB	00H
	DB	00H
	DB	00H
	DB	00H
	DB	00H
	DB	00H
	DB	00H
	DB	00H
	DB	00H
	DB	00H
	DB	00H
	DB	00H
	DB	00H
	DB	00H
	DB	00H
	DB	00H
	DB	00H
	DB	00H
	DB	00H
	DB	00H
	DB	00H
	DB	00H
	DB	00H
	DB	00H
	DB	00H
	DB	01H
	DB	00H
	DB	00H
	DB	00H
	DB	03eH
	DB	00H
	DB	00H
	DB	00H
	DB	08aH
	DB	00H
	DB	00H
	DB	00H
	DB	099H
	DB	00H
	DB	00H
	DB	00H
	DB	099H
	DB	00H
	DB	00H
	DB	00H
	DB	099H
	DB	00H
	DB	00H
	DB	00H
	DB	099H
	DB	00H
	DB	00H
	DB	00H
	DB	099H
	DB	00H
	DB	00H
	DB	00H
	DB	099H
	DB	00H
	DB	00H
	DB	00H
	DB	099H
	DB	00H
	DB	00H
	DB	00H
	DB	099H
	DB	00H
	DB	00H
	DB	00H
	DB	099H
	DB	00H
	DB	00H
	DB	00H
	DB	099H
	DB	00H
	DB	00H
	DB	00H
	DB	099H
	DB	00H
	DB	00H
	DB	00H
	DB	099H
	DB	00H
	DB	00H
	DB	00H
	DB	099H
	DB	00H
	DB	00H
	DB	00H
	DB	099H
	DB	00H
	DB	00H
	DB	00H
	DB	099H
	DB	00H
	DB	00H
	DB	00H
	DB	099H
	DB	00H
	DB	00H
	DB	00H
	DB	099H
	DB	00H
	DB	00H
	DB	00H
	DB	099H
	DB	00H
	DB	00H
	DB	00H
	DB	099H
	DB	00H
	DB	00H
	DB	00H
	DB	099H
	DB	00H
	DB	00H
	DB	00H
	DB	099H
	DB	00H
	DB	00H
	DB	00H
	DB	099H
	DB	00H
	DB	00H
	DB	00H
	DB	099H
	DB	00H
	DB	00H
	DB	00H
	DB	099H
	DB	00H
	DB	00H
	DB	00H
	DB	099H
	DB	00H
	DB	00H
	DB	00H
	DB	099H
	DB	00H
	DB	00H
	DB	00H
	DB	099H
	DB	00H
	DB	00H
	DB	00H
	DB	099H
	DB	00H
	DB	00H
	DB	00H
	DB	099H
	DB	00H
	DB	00H
	DB	00H
	DB	099H
	DB	00H
	DB	00H
	DB	00H
	DB	099H
	DB	00H
	DB	00H
	DB	00H
	DB	099H
	DB	00H
	DB	00H
	DB	00H
	DB	099H
	DB	00H
	DB	00H
	DB	00H
	DB	099H
	DB	00H
	DB	00H
	DB	00H
	DB	099H
	DB	00H
	DB	00H
	DB	00H
	DB	099H
	DB	00H
	DB	00H
	DB	00H
	DB	099H
	DB	00H
	DB	00H
	DB	00H
	DB	099H
	DB	00H
	DB	00H
	DB	00H
	DB	099H
	DB	00H
	DB	00H
	DB	00H
	DB	099H
	DB	00H
	DB	00H
	DB	00H
	DB	099H
	DB	00H
	DB	00H
	DB	00H
	DB	099H
	DB	00H
	DB	00H
	DB	00H
	DB	099H
	DB	00H
	DB	00H
	DB	00H
	DB	099H
	DB	00H
	DB	00H
	DB	00H
	DB	099H
	DB	00H
	DB	00H
	DB	00H
	DB	099H
	DB	00H
	DB	00H
	DB	00H
	DB	099H
	DB	00H
	DB	00H
	DB	00H
	DB	099H
	DB	00H
	DB	00H
	DB	00H
	DB	099H
	DB	00H
	DB	00H
	DB	00H
	DB	099H
	DB	00H
	DB	00H
	DB	00H
	DB	099H
	DB	00H
	DB	00H
	DB	00H
	DB	099H
	DB	00H
	DB	00H
	DB	00H
	DB	099H
	DB	00H
	DB	00H
	DB	00H
	DB	099H
	DB	00H
	DB	00H
	DB	00H
	DB	099H
	DB	00H
	DB	00H
	DB	00H
	DB	099H
	DB	00H
	DB	00H
	DB	00H
	DB	099H
	DB	00H
	DB	00H
	DB	00H
	DB	099H
	DB	00H
	DB	00H
	DB	00H
	DB	099H
	DB	00H
	DB	00H
	DB	00H
	DB	099H
	DB	00H
	DB	00H
	DB	00H
	DB	099H
	DB	00H
	DB	00H
	DB	00H
	DB	099H
	DB	00H
	DB	00H
	DB	00H
	DB	099H
	DB	00H
	DB	00H
	DB	00H
	DB	099H
	DB	00H
	DB	00H
	DB	00H
	DB	099H
	DB	00H
	DB	00H
	DB	00H
	DB	099H
	DB	00H
	DB	00H
	DB	00H
	DB	099H
	DB	00H
	DB	00H
	DB	00H
	DB	099H
	DB	00H
	DB	00H
	DB	00H
	DB	099H
	DB	00H
	DB	00H
	DB	00H
	DB	099H
	DB	00H
	DB	00H
	DB	00H
	DB	099H
	DB	00H
	DB	00H
	DB	00H
	DB	099H
	DB	00H
	DB	00H
	DB	00H
	DB	099H
	DB	00H
	DB	00H
	DB	00H
	DB	099H
	DB	00H
	DB	00H
	DB	00H
	DB	099H
	DB	00H
	DB	00H
	DB	00H
	DB	099H
	DB	00H
	DB	00H
	DB	00H
	DB	099H
	DB	00H
	DB	00H
	DB	00H
	DB	099H
	DB	00H
	DB	00H
	DB	00H
	DB	099H
	DB	00H
	DB	00H
	DB	00H
	DB	099H
	DB	00H
	DB	00H
	DB	00H
	DB	099H
	DB	00H
	DB	00H
	DB	00H
	DB	099H
	DB	00H
	DB	00H
	DB	00H
	DB	099H
	DB	00H
	DB	00H
	DB	00H
	DB	099H
	DB	00H
	DB	00H
	DB	00H
	DB	099H
	DB	00H
	DB	00H
	DB	00H
	DB	099H
	DB	00H
	DB	00H
	DB	00H
	DB	099H
	DB	00H
	DB	00H
	DB	00H
	DB	099H
	DB	00H
	DB	00H
	DB	00H
	DB	099H
	DB	00H
	DB	00H
	DB	00H
	DB	099H
	DB	00H
	DB	00H
	DB	00H
	DB	099H
	DB	00H
	DB	00H
	DB	00H
	DB	099H
	DB	00H
	DB	00H
	DB	00H
	DB	099H
	DB	00H
	DB	00H
	DB	00H
	DB	099H
	DB	00H
	DB	00H
	DB	00H
	DB	099H
	DB	00H
	DB	00H
	DB	00H
	DB	099H
	DB	00H
	DB	00H
	DB	00H
	DB	099H
	DB	00H
	DB	00H
	DB	00H
	DB	099H
	DB	00H
	DB	00H
	DB	00H
	DB	099H
	DB	00H
	DB	00H
	DB	00H
	DB	099H
	DB	00H
	DB	00H
	DB	00H
	DB	099H
	DB	00H
	DB	00H
	DB	00H
	DB	099H
	DB	00H
	DB	00H
	DB	00H
	DB	099H
	DB	00H
	DB	00H
	DB	00H
	DB	099H
	DB	00H
	DB	00H
	DB	00H
	DB	099H
	DB	00H
	DB	00H
	DB	00H
	DB	099H
	DB	00H
	DB	00H
	DB	00H
	DB	099H
	DB	00H
	DB	00H
	DB	00H
	DB	099H
	DB	00H
	DB	00H
	DB	00H
	DB	099H
	DB	00H
	DB	00H
	DB	00H
	DB	099H
	DB	00H
	DB	00H
	DB	00H
	DB	099H
	DB	00H
	DB	00H
	DB	00H
	DB	099H
	DB	00H
	DB	00H
	DB	00H
	DB	099H
	DB	00H
	DB	00H
	DB	00H
	DB	099H
	DB	00H
	DB	00H
	DB	00H
	DB	099H
	DB	00H
	DB	00H
	DB	00H
	DB	099H
	DB	00H
	DB	00H
	DB	00H
	DB	099H
	DB	00H
	DB	00H
	DB	00H
	DB	099H
	DB	00H
	DB	00H
	DB	00H
	DB	099H
	DB	00H
	DB	00H
	DB	00H
	DB	099H
	DB	00H
	DB	00H
	DB	00H
	DB	099H
	DB	00H
	DB	00H
	DB	00H
	DB	099H
	DB	00H
	DB	00H
	DB	00H
	DB	099H
	DB	00H
	DB	00H
	DB	00H
	DB	099H
	DB	00H
	DB	00H
	DB	00H
	DB	099H
	DB	00H
	DB	00H
	DB	00H
	DB	099H
	DB	00H
	DB	00H
	DB	00H
	DB	099H
	DB	00H
	DB	00H
	DB	00H
	DB	099H
	DB	00H
	DB	00H
	DB	00H
	DB	099H
	DB	00H
	DB	00H
	DB	00H
	DB	099H
	DB	00H
	DB	00H
	DB	00H
	DB	099H
	DB	00H
	DB	00H
	DB	00H
	DB	099H
	DB	00H
	DB	00H
	DB	00H
	DB	099H
	DB	00H
	DB	00H
	DB	00H
	DB	099H
	DB	00H
	DB	00H
	DB	00H
	DB	099H
	DB	00H
	DB	00H
	DB	00H
	DB	099H
	DB	00H
	DB	00H
	DB	00H
	DB	099H
	DB	00H
	DB	00H
	DB	00H
	DB	099H
	DB	00H
	DB	00H
	DB	00H
	DB	099H
	DB	00H
	DB	00H
	DB	00H
	DB	099H
	DB	00H
	DB	00H
	DB	00H
	DB	099H
	DB	00H
	DB	00H
	DB	00H
	DB	099H
	DB	00H
	DB	00H
	DB	00H
	DB	099H
	DB	00H
	DB	00H
	DB	00H
	DB	099H
	DB	00H
	DB	00H
	DB	00H
	DB	099H
	DB	00H
	DB	00H
	DB	00H
	DB	099H
	DB	00H
	DB	00H
	DB	00H
	DB	099H
	DB	00H
	DB	00H
	DB	00H
	DB	099H
	DB	00H
	DB	00H
	DB	00H
	DB	099H
	DB	00H
	DB	00H
	DB	00H
	DB	099H
	DB	00H
	DB	00H
	DB	00H
	DB	099H
	DB	00H
	DB	00H
	DB	00H
	DB	099H
	DB	00H
	DB	00H
	DB	00H
	DB	099H
	DB	00H
	DB	00H
	DB	00H
	DB	099H
	DB	00H
	DB	00H
	DB	00H
	DB	099H
	DB	00H
	DB	00H
	DB	00H
	DB	099H
	DB	00H
	DB	00H
	DB	00H
	DB	099H
	DB	00H
	DB	00H
	DB	00H
	DB	099H
	DB	00H
	DB	00H
	DB	00H
	DB	099H
	DB	00H
	DB	00H
	DB	00H
	DB	099H
	DB	00H
	DB	00H
	DB	00H
	DB	099H
	DB	00H
	DB	00H
	DB	00H
	DB	099H
	DB	00H
	DB	00H
	DB	00H
	DB	099H
	DB	00H
	DB	00H
	DB	00H
	DB	099H
	DB	00H
	DB	00H
	DB	00H
	DB	099H
	DB	00H
	DB	00H
	DB	00H
	DB	099H
	DB	00H
	DB	00H
	DB	00H
	DB	099H
	DB	00H
	DB	00H
	DB	00H
	DB	099H
	DB	00H
	DB	00H
	DB	00H
	DB	099H
	DB	00H
	DB	00H
	DB	00H
	DB	099H
	DB	00H
	DB	00H
	DB	00H
	DB	099H
	DB	00H
	DB	00H
	DB	00H
	DB	099H
	DB	00H
	DB	00H
	DB	00H
	DB	099H
	DB	00H
	DB	00H
	DB	00H
	DB	099H
	DB	00H
	DB	00H
	DB	00H
	DB	099H
	DB	00H
	DB	00H
	DB	00H
	DB	099H
	DB	00H
	DB	00H
	DB	00H
	DB	099H
	DB	00H
	DB	00H
	DB	00H
	DB	099H
	DB	00H
	DB	00H
	DB	00H
	DB	099H
	DB	00H
	DB	00H
	DB	00H
	DB	099H
	DB	00H
	DB	00H
	DB	00H
	DB	099H
	DB	00H
	DB	00H
	DB	00H
	DB	099H
	DB	00H
	DB	00H
	DB	00H
	DB	099H
	DB	00H
	DB	00H
	DB	00H
	DB	099H
	DB	00H
	DB	00H
	DB	00H
	DB	099H
	DB	00H
	DB	00H
	DB	00H
	DB	099H
	DB	00H
	DB	00H
	DB	00H
	DB	099H
	DB	00H
	DB	00H
	DB	00H
	DB	099H
	DB	00H
	DB	00H
	DB	00H
	DB	099H
	DB	00H
	DB	00H
	DB	00H
	DB	099H
	DB	00H
	DB	00H
	DB	00H
	DB	099H
	DB	00H
	DB	00H
	DB	00H
	DB	099H
	DB	00H
	DB	00H
	DB	00H
	DB	099H
	DB	00H
	DB	00H
	DB	00H
	DB	099H
	DB	00H
	DB	00H
	DB	00H
	DB	099H
	DB	00H
	DB	00H
	DB	00H
	DB	099H
	DB	00H
	DB	00H
	DB	00H
	DB	099H
	DB	00H
	DB	00H
	DB	00H
	DB	099H
	DB	00H
	DB	00H
	DB	00H
	DB	099H
	DB	00H
	DB	00H
	DB	00H
	DB	099H
	DB	00H
	DB	00H
	DB	00H
	DB	099H
	DB	00H
	DB	00H
	DB	00H
	DB	099H
	DB	00H
	DB	00H
	DB	00H
	DB	099H
	DB	00H
	DB	00H
	DB	00H
	DB	099H
	DB	00H
	DB	00H
	DB	00H
	DB	099H
	DB	00H
	DB	00H
	DB	00H
	DB	099H
	DB	00H
	DB	00H
	DB	00H
	DB	099H
	DB	00H
	DB	00H
	DB	00H
	DB	099H
	DB	00H
	DB	00H
	DB	00H
	DB	099H
	DB	00H
	DB	00H
	DB	00H
	DB	099H
	DB	00H
	DB	00H
	DB	00H
	DB	099H
	DB	00H
	DB	00H
	DB	00H
	DB	099H
	DB	00H
	DB	00H
	DB	00H
	DB	099H
	DB	00H
	DB	00H
	DB	00H
	DB	099H
	DB	00H
	DB	00H
	DB	00H
	DB	099H
	DB	00H
	DB	00H
	DB	00H
	DB	099H
	DB	00H
	DB	00H
	DB	00H
	DB	099H
	DB	00H
	DB	00H
	DB	00H
	DB	099H
	DB	00H
	DB	00H
	DB	00H
	DB	099H
	DB	00H
	DB	00H
	DB	00H
	DB	099H
	DB	00H
	DB	00H
	DB	00H
	DB	099H
	DB	00H
	DB	00H
	DB	00H
	DB	099H
	DB	00H
	DB	00H
	DB	00H
	DB	099H
	DB	00H
	DB	00H
	DB	00H
	DB	099H
	DB	00H
	DB	00H
	DB	00H
	DB	099H
	DB	00H
	DB	00H
	DB	00H
	DB	099H
	DB	00H
	DB	00H
	DB	00H
	DB	099H
	DB	00H
	DB	00H
	DB	00H
	DB	099H
	DB	00H
	DB	00H
	DB	00H
	DB	099H
	DB	00H
	DB	00H
	DB	00H
	DB	099H
	DB	00H
	DB	00H
	DB	00H
	DB	099H
	DB	00H
	DB	00H
	DB	00H
	DB	099H
	DB	00H
	DB	00H
	DB	00H
	DB	099H
	DB	00H
	DB	00H
	DB	00H
	DB	099H
	DB	00H
	DB	00H
	DB	00H
	DB	099H
	DB	00H
	DB	00H
	DB	00H
	DB	099H
	DB	00H
	DB	00H
	DB	00H
	DB	099H
	DB	00H
	DB	00H
	DB	00H
	DB	099H
	DB	00H
	DB	00H
	DB	00H
	DB	089H
	DB	00H
	DB	00H
	DB	00H
	DB	03dH
	DB	00H
	DB	00H
	DB	00H
	DB	01H
	DB	00H
	DB	00H
	DB	00H
	DB	00H
	DB	00H
	DB	00H
	DB	00H
	DB	00H
	DB	00H
	DB	00H
	DB	00H
	DB	00H
	DB	00H
	DB	00H
	DB	00H
	DB	00H
	DB	00H
	DB	00H
	DB	00H
	DB	00H
	DB	00H
	DB	00H
	DB	00H
	DB	00H
	DB	00H
	DB	00H
	DB	00H
	DB	00H
	DB	00H
	DB	00H
	DB	00H
	DB	00H
	DB	00H
	DB	00H
	DB	00H
	DB	00H
	DB	00H
	DB	00H
	DB	00H
	DB	00H
	DB	00H
	DB	00H
	DB	00H
	DB	00H
	DB	00H
	DB	00H
	DB	00H
	DB	00H
	DB	00H
	DB	00H
	DB	00H
	DB	00H
	DB	00H
	DB	00H
	DB	00H
	DB	00H
	DB	00H
	DB	00H
	DB	00H
	DB	00H
	DB	00H
	DB	00H
	DB	00H
	DB	00H
	DB	00H
	DB	00H
	DB	00H
	DB	00H
	DB	00H
	DB	00H
	DB	00H
	DB	00H
	DB	00H
	DB	00H
	DB	00H
	DB	00H
	DB	00H
	DB	00H
	DB	00H
	DB	00H
	DB	00H
	DB	00H
	DB	00H
	DB	00H
	DB	00H
	DB	00H
	DB	00H
	DB	00H
	DB	00H
	DB	00H
	DB	00H
	DB	00H
	DB	00H
	DB	00H
	DB	00H
	DB	00H
	DB	00H
	DB	00H
	DB	00H
	DB	00H
	DB	00H
	DB	00H
	DB	00H
	DB	014H
	DB	00H
	DB	00H
	DB	00H
	DB	072H
	DB	00H
	DB	00H
	DB	00H
	DB	099H
	DB	00H
	DB	00H
	DB	00H
	DB	099H
	DB	00H
	DB	00H
	DB	00H
	DB	099H
	DB	00H
	DB	00H
	DB	00H
	DB	099H
	DB	00H
	DB	00H
	DB	00H
	DB	099H
	DB	00H
	DB	00H
	DB	00H
	DB	099H
	DB	00H
	DB	00H
	DB	00H
	DB	099H
	DB	00H
	DB	00H
	DB	00H
	DB	099H
	DB	00H
	DB	00H
	DB	00H
	DB	099H
	DB	00H
	DB	00H
	DB	00H
	DB	099H
	DB	00H
	DB	00H
	DB	00H
	DB	099H
	DB	00H
	DB	00H
	DB	00H
	DB	099H
	DB	00H
	DB	00H
	DB	00H
	DB	099H
	DB	00H
	DB	00H
	DB	00H
	DB	099H
	DB	00H
	DB	00H
	DB	00H
	DB	099H
	DB	00H
	DB	00H
	DB	00H
	DB	099H
	DB	00H
	DB	00H
	DB	00H
	DB	099H
	DB	00H
	DB	00H
	DB	00H
	DB	099H
	DB	00H
	DB	00H
	DB	00H
	DB	099H
	DB	00H
	DB	00H
	DB	00H
	DB	099H
	DB	00H
	DB	00H
	DB	00H
	DB	099H
	DB	00H
	DB	00H
	DB	00H
	DB	099H
	DB	00H
	DB	00H
	DB	00H
	DB	099H
	DB	00H
	DB	00H
	DB	00H
	DB	099H
	DB	00H
	DB	00H
	DB	00H
	DB	099H
	DB	00H
	DB	00H
	DB	00H
	DB	099H
	DB	00H
	DB	00H
	DB	00H
	DB	099H
	DB	00H
	DB	00H
	DB	00H
	DB	099H
	DB	00H
	DB	00H
	DB	00H
	DB	099H
	DB	00H
	DB	00H
	DB	00H
	DB	099H
	DB	00H
	DB	00H
	DB	00H
	DB	099H
	DB	00H
	DB	00H
	DB	00H
	DB	099H
	DB	00H
	DB	00H
	DB	00H
	DB	099H
	DB	00H
	DB	00H
	DB	00H
	DB	099H
	DB	00H
	DB	00H
	DB	00H
	DB	099H
	DB	00H
	DB	00H
	DB	00H
	DB	099H
	DB	00H
	DB	00H
	DB	00H
	DB	099H
	DB	00H
	DB	00H
	DB	00H
	DB	099H
	DB	00H
	DB	00H
	DB	00H
	DB	099H
	DB	00H
	DB	00H
	DB	00H
	DB	099H
	DB	00H
	DB	00H
	DB	00H
	DB	099H
	DB	00H
	DB	00H
	DB	00H
	DB	099H
	DB	00H
	DB	00H
	DB	00H
	DB	099H
	DB	00H
	DB	00H
	DB	00H
	DB	099H
	DB	00H
	DB	00H
	DB	00H
	DB	099H
	DB	00H
	DB	00H
	DB	00H
	DB	099H
	DB	00H
	DB	00H
	DB	00H
	DB	099H
	DB	00H
	DB	00H
	DB	00H
	DB	099H
	DB	00H
	DB	00H
	DB	00H
	DB	099H
	DB	00H
	DB	00H
	DB	00H
	DB	099H
	DB	00H
	DB	00H
	DB	00H
	DB	099H
	DB	00H
	DB	00H
	DB	00H
	DB	099H
	DB	00H
	DB	00H
	DB	00H
	DB	099H
	DB	00H
	DB	00H
	DB	00H
	DB	099H
	DB	00H
	DB	00H
	DB	00H
	DB	099H
	DB	00H
	DB	00H
	DB	00H
	DB	099H
	DB	00H
	DB	00H
	DB	00H
	DB	099H
	DB	00H
	DB	00H
	DB	00H
	DB	099H
	DB	00H
	DB	00H
	DB	00H
	DB	099H
	DB	00H
	DB	00H
	DB	00H
	DB	099H
	DB	00H
	DB	00H
	DB	00H
	DB	099H
	DB	00H
	DB	00H
	DB	00H
	DB	099H
	DB	00H
	DB	00H
	DB	00H
	DB	099H
	DB	00H
	DB	00H
	DB	00H
	DB	099H
	DB	00H
	DB	00H
	DB	00H
	DB	099H
	DB	00H
	DB	00H
	DB	00H
	DB	099H
	DB	00H
	DB	00H
	DB	00H
	DB	099H
	DB	00H
	DB	00H
	DB	00H
	DB	099H
	DB	00H
	DB	00H
	DB	00H
	DB	099H
	DB	00H
	DB	00H
	DB	00H
	DB	099H
	DB	00H
	DB	00H
	DB	00H
	DB	099H
	DB	00H
	DB	00H
	DB	00H
	DB	099H
	DB	00H
	DB	00H
	DB	00H
	DB	099H
	DB	00H
	DB	00H
	DB	00H
	DB	099H
	DB	00H
	DB	00H
	DB	00H
	DB	099H
	DB	00H
	DB	00H
	DB	00H
	DB	099H
	DB	00H
	DB	00H
	DB	00H
	DB	099H
	DB	00H
	DB	00H
	DB	00H
	DB	099H
	DB	00H
	DB	00H
	DB	00H
	DB	099H
	DB	00H
	DB	00H
	DB	00H
	DB	099H
	DB	00H
	DB	00H
	DB	00H
	DB	099H
	DB	00H
	DB	00H
	DB	00H
	DB	099H
	DB	00H
	DB	00H
	DB	00H
	DB	099H
	DB	00H
	DB	00H
	DB	00H
	DB	099H
	DB	00H
	DB	00H
	DB	00H
	DB	099H
	DB	00H
	DB	00H
	DB	00H
	DB	099H
	DB	00H
	DB	00H
	DB	00H
	DB	099H
	DB	00H
	DB	00H
	DB	00H
	DB	099H
	DB	00H
	DB	00H
	DB	00H
	DB	099H
	DB	00H
	DB	00H
	DB	00H
	DB	099H
	DB	00H
	DB	00H
	DB	00H
	DB	099H
	DB	00H
	DB	00H
	DB	00H
	DB	099H
	DB	00H
	DB	00H
	DB	00H
	DB	099H
	DB	00H
	DB	00H
	DB	00H
	DB	099H
	DB	00H
	DB	00H
	DB	00H
	DB	099H
	DB	00H
	DB	00H
	DB	00H
	DB	099H
	DB	00H
	DB	00H
	DB	00H
	DB	099H
	DB	00H
	DB	00H
	DB	00H
	DB	099H
	DB	00H
	DB	00H
	DB	00H
	DB	099H
	DB	00H
	DB	00H
	DB	00H
	DB	099H
	DB	00H
	DB	00H
	DB	00H
	DB	099H
	DB	00H
	DB	00H
	DB	00H
	DB	099H
	DB	00H
	DB	00H
	DB	00H
	DB	099H
	DB	00H
	DB	00H
	DB	00H
	DB	099H
	DB	00H
	DB	00H
	DB	00H
	DB	099H
	DB	00H
	DB	00H
	DB	00H
	DB	099H
	DB	00H
	DB	00H
	DB	00H
	DB	099H
	DB	00H
	DB	00H
	DB	00H
	DB	099H
	DB	00H
	DB	00H
	DB	00H
	DB	099H
	DB	00H
	DB	00H
	DB	00H
	DB	099H
	DB	00H
	DB	00H
	DB	00H
	DB	099H
	DB	00H
	DB	00H
	DB	00H
	DB	099H
	DB	00H
	DB	00H
	DB	00H
	DB	099H
	DB	00H
	DB	00H
	DB	00H
	DB	099H
	DB	00H
	DB	00H
	DB	00H
	DB	099H
	DB	00H
	DB	00H
	DB	00H
	DB	099H
	DB	00H
	DB	00H
	DB	00H
	DB	099H
	DB	00H
	DB	00H
	DB	00H
	DB	099H
	DB	00H
	DB	00H
	DB	00H
	DB	099H
	DB	00H
	DB	00H
	DB	00H
	DB	099H
	DB	00H
	DB	00H
	DB	00H
	DB	099H
	DB	00H
	DB	00H
	DB	00H
	DB	099H
	DB	00H
	DB	00H
	DB	00H
	DB	099H
	DB	00H
	DB	00H
	DB	00H
	DB	099H
	DB	00H
	DB	00H
	DB	00H
	DB	099H
	DB	00H
	DB	00H
	DB	00H
	DB	099H
	DB	00H
	DB	00H
	DB	00H
	DB	099H
	DB	00H
	DB	00H
	DB	00H
	DB	099H
	DB	00H
	DB	00H
	DB	00H
	DB	099H
	DB	00H
	DB	00H
	DB	00H
	DB	099H
	DB	00H
	DB	00H
	DB	00H
	DB	099H
	DB	00H
	DB	00H
	DB	00H
	DB	099H
	DB	00H
	DB	00H
	DB	00H
	DB	099H
	DB	00H
	DB	00H
	DB	00H
	DB	099H
	DB	00H
	DB	00H
	DB	00H
	DB	099H
	DB	00H
	DB	00H
	DB	00H
	DB	099H
	DB	00H
	DB	00H
	DB	00H
	DB	099H
	DB	00H
	DB	00H
	DB	00H
	DB	099H
	DB	00H
	DB	00H
	DB	00H
	DB	099H
	DB	00H
	DB	00H
	DB	00H
	DB	099H
	DB	00H
	DB	00H
	DB	00H
	DB	099H
	DB	00H
	DB	00H
	DB	00H
	DB	099H
	DB	00H
	DB	00H
	DB	00H
	DB	099H
	DB	00H
	DB	00H
	DB	00H
	DB	099H
	DB	00H
	DB	00H
	DB	00H
	DB	099H
	DB	00H
	DB	00H
	DB	00H
	DB	099H
	DB	00H
	DB	00H
	DB	00H
	DB	099H
	DB	00H
	DB	00H
	DB	00H
	DB	099H
	DB	00H
	DB	00H
	DB	00H
	DB	099H
	DB	00H
	DB	00H
	DB	00H
	DB	099H
	DB	00H
	DB	00H
	DB	00H
	DB	099H
	DB	00H
	DB	00H
	DB	00H
	DB	099H
	DB	00H
	DB	00H
	DB	00H
	DB	099H
	DB	00H
	DB	00H
	DB	00H
	DB	099H
	DB	00H
	DB	00H
	DB	00H
	DB	099H
	DB	00H
	DB	00H
	DB	00H
	DB	099H
	DB	00H
	DB	00H
	DB	00H
	DB	099H
	DB	00H
	DB	00H
	DB	00H
	DB	099H
	DB	00H
	DB	00H
	DB	00H
	DB	099H
	DB	00H
	DB	00H
	DB	00H
	DB	099H
	DB	00H
	DB	00H
	DB	00H
	DB	099H
	DB	00H
	DB	00H
	DB	00H
	DB	099H
	DB	00H
	DB	00H
	DB	00H
	DB	099H
	DB	00H
	DB	00H
	DB	00H
	DB	099H
	DB	00H
	DB	00H
	DB	00H
	DB	099H
	DB	00H
	DB	00H
	DB	00H
	DB	099H
	DB	00H
	DB	00H
	DB	00H
	DB	099H
	DB	00H
	DB	00H
	DB	00H
	DB	099H
	DB	00H
	DB	00H
	DB	00H
	DB	099H
	DB	00H
	DB	00H
	DB	00H
	DB	099H
	DB	00H
	DB	00H
	DB	00H
	DB	099H
	DB	00H
	DB	00H
	DB	00H
	DB	099H
	DB	00H
	DB	00H
	DB	00H
	DB	099H
	DB	00H
	DB	00H
	DB	00H
	DB	099H
	DB	00H
	DB	00H
	DB	00H
	DB	099H
	DB	00H
	DB	00H
	DB	00H
	DB	099H
	DB	00H
	DB	00H
	DB	00H
	DB	099H
	DB	00H
	DB	00H
	DB	00H
	DB	099H
	DB	00H
	DB	00H
	DB	00H
	DB	099H
	DB	00H
	DB	00H
	DB	00H
	DB	099H
	DB	00H
	DB	00H
	DB	00H
	DB	099H
	DB	00H
	DB	00H
	DB	00H
	DB	099H
	DB	00H
	DB	00H
	DB	00H
	DB	099H
	DB	00H
	DB	00H
	DB	00H
	DB	099H
	DB	00H
	DB	00H
	DB	00H
	DB	099H
	DB	00H
	DB	00H
	DB	00H
	DB	099H
	DB	00H
	DB	00H
	DB	00H
	DB	099H
	DB	00H
	DB	00H
	DB	00H
	DB	099H
	DB	00H
	DB	00H
	DB	00H
	DB	099H
	DB	00H
	DB	00H
	DB	00H
	DB	099H
	DB	00H
	DB	00H
	DB	00H
	DB	099H
	DB	00H
	DB	00H
	DB	00H
	DB	099H
	DB	00H
	DB	00H
	DB	00H
	DB	099H
	DB	00H
	DB	00H
	DB	00H
	DB	099H
	DB	00H
	DB	00H
	DB	00H
	DB	099H
	DB	00H
	DB	00H
	DB	00H
	DB	099H
	DB	00H
	DB	00H
	DB	00H
	DB	099H
	DB	00H
	DB	00H
	DB	00H
	DB	099H
	DB	00H
	DB	00H
	DB	00H
	DB	099H
	DB	00H
	DB	00H
	DB	00H
	DB	099H
	DB	00H
	DB	00H
	DB	00H
	DB	099H
	DB	00H
	DB	00H
	DB	00H
	DB	099H
	DB	00H
	DB	00H
	DB	00H
	DB	099H
	DB	00H
	DB	00H
	DB	00H
	DB	099H
	DB	00H
	DB	00H
	DB	00H
	DB	099H
	DB	00H
	DB	00H
	DB	00H
	DB	099H
	DB	00H
	DB	00H
	DB	00H
	DB	099H
	DB	00H
	DB	00H
	DB	00H
	DB	099H
	DB	00H
	DB	00H
	DB	00H
	DB	099H
	DB	00H
	DB	00H
	DB	00H
	DB	099H
	DB	00H
	DB	00H
	DB	00H
	DB	099H
	DB	00H
	DB	00H
	DB	00H
	DB	099H
	DB	00H
	DB	00H
	DB	00H
	DB	099H
	DB	00H
	DB	00H
	DB	00H
	DB	099H
	DB	00H
	DB	00H
	DB	00H
	DB	099H
	DB	00H
	DB	00H
	DB	00H
	DB	099H
	DB	00H
	DB	00H
	DB	00H
	DB	099H
	DB	00H
	DB	00H
	DB	00H
	DB	099H
	DB	00H
	DB	00H
	DB	00H
	DB	099H
	DB	00H
	DB	00H
	DB	00H
	DB	099H
	DB	00H
	DB	00H
	DB	00H
	DB	099H
	DB	00H
	DB	00H
	DB	00H
	DB	099H
	DB	00H
	DB	00H
	DB	00H
	DB	099H
	DB	00H
	DB	00H
	DB	00H
	DB	099H
	DB	00H
	DB	00H
	DB	00H
	DB	099H
	DB	00H
	DB	00H
	DB	00H
	DB	099H
	DB	00H
	DB	00H
	DB	00H
	DB	099H
	DB	00H
	DB	00H
	DB	00H
	DB	099H
	DB	00H
	DB	00H
	DB	00H
	DB	099H
	DB	00H
	DB	00H
	DB	00H
	DB	099H
	DB	00H
	DB	00H
	DB	00H
	DB	099H
	DB	00H
	DB	00H
	DB	00H
	DB	099H
	DB	00H
	DB	00H
	DB	00H
	DB	099H
	DB	00H
	DB	00H
	DB	00H
	DB	099H
	DB	00H
	DB	00H
	DB	00H
	DB	099H
	DB	00H
	DB	00H
	DB	00H
	DB	099H
	DB	00H
	DB	00H
	DB	00H
	DB	099H
	DB	00H
	DB	00H
	DB	00H
	DB	099H
	DB	00H
	DB	00H
	DB	00H
	DB	099H
	DB	00H
	DB	00H
	DB	00H
	DB	099H
	DB	00H
	DB	00H
	DB	00H
	DB	099H
	DB	00H
	DB	00H
	DB	00H
	DB	099H
	DB	00H
	DB	00H
	DB	00H
	DB	076H
	DB	00H
	DB	00H
	DB	00H
	DB	017H
	DB	00H
	DB	00H
	DB	00H
	DB	00H
	DB	00H
	DB	00H
	DB	00H
	DB	00H
	DB	00H
	DB	00H
	DB	00H
	DB	00H
	DB	00H
	DB	00H
	DB	00H
	DB	00H
	DB	00H
	DB	00H
	DB	00H
	DB	00H
	DB	00H
	DB	00H
	DB	00H
	DB	00H
	DB	00H
	DB	00H
	DB	00H
	DB	00H
	DB	00H
	DB	00H
	DB	00H
	DB	00H
	DB	00H
	DB	00H
	DB	00H
	DB	00H
	DB	00H
	DB	00H
	DB	00H
	DB	00H
	DB	00H
	DB	00H
	DB	00H
	DB	00H
	DB	00H
	DB	00H
	DB	00H
	DB	00H
	DB	00H
	DB	00H
	DB	00H
	DB	00H
	DB	00H
	DB	00H
	DB	00H
	DB	00H
	DB	00H
	DB	00H
	DB	00H
	DB	00H
	DB	00H
	DB	00H
	DB	00H
	DB	00H
	DB	00H
	DB	00H
	DB	00H
	DB	00H
	DB	00H
	DB	00H
	DB	00H
	DB	00H
	DB	00H
	DB	00H
	DB	00H
	DB	00H
	DB	00H
	DB	00H
	DB	00H
	DB	00H
	DB	00H
	DB	00H
	DB	00H
	DB	00H
	DB	00H
	DB	00H
	DB	00H
	DB	00H
	DB	00H
	DB	00H
	DB	00H
	DB	00H
	DB	00H
	DB	00H
	DB	00H
	DB	035H
	DB	00H
	DB	00H
	DB	00H
	DB	093H
	DB	00H
	DB	00H
	DB	00H
	DB	099H
	DB	00H
	DB	00H
	DB	00H
	DB	099H
	DB	00H
	DB	00H
	DB	00H
	DB	099H
	DB	00H
	DB	00H
	DB	00H
	DB	099H
	DB	00H
	DB	00H
	DB	00H
	DB	099H
	DB	00H
	DB	00H
	DB	00H
	DB	099H
	DB	00H
	DB	00H
	DB	00H
	DB	099H
	DB	00H
	DB	00H
	DB	00H
	DB	099H
	DB	00H
	DB	00H
	DB	00H
	DB	099H
	DB	00H
	DB	00H
	DB	00H
	DB	099H
	DB	00H
	DB	00H
	DB	00H
	DB	099H
	DB	00H
	DB	00H
	DB	00H
	DB	099H
	DB	00H
	DB	00H
	DB	00H
	DB	099H
	DB	00H
	DB	00H
	DB	00H
	DB	099H
	DB	00H
	DB	00H
	DB	00H
	DB	099H
	DB	00H
	DB	00H
	DB	00H
	DB	099H
	DB	00H
	DB	00H
	DB	00H
	DB	099H
	DB	00H
	DB	00H
	DB	00H
	DB	099H
	DB	00H
	DB	00H
	DB	00H
	DB	099H
	DB	00H
	DB	00H
	DB	00H
	DB	099H
	DB	00H
	DB	00H
	DB	00H
	DB	099H
	DB	00H
	DB	00H
	DB	00H
	DB	099H
	DB	00H
	DB	00H
	DB	00H
	DB	099H
	DB	00H
	DB	00H
	DB	00H
	DB	099H
	DB	00H
	DB	00H
	DB	00H
	DB	099H
	DB	00H
	DB	00H
	DB	00H
	DB	099H
	DB	00H
	DB	00H
	DB	00H
	DB	099H
	DB	00H
	DB	00H
	DB	00H
	DB	099H
	DB	00H
	DB	00H
	DB	00H
	DB	099H
	DB	00H
	DB	00H
	DB	00H
	DB	099H
	DB	00H
	DB	00H
	DB	00H
	DB	099H
	DB	00H
	DB	00H
	DB	00H
	DB	099H
	DB	00H
	DB	00H
	DB	00H
	DB	099H
	DB	00H
	DB	00H
	DB	00H
	DB	099H
	DB	00H
	DB	00H
	DB	00H
	DB	099H
	DB	00H
	DB	00H
	DB	00H
	DB	099H
	DB	00H
	DB	00H
	DB	00H
	DB	099H
	DB	00H
	DB	00H
	DB	00H
	DB	099H
	DB	00H
	DB	00H
	DB	00H
	DB	099H
	DB	00H
	DB	00H
	DB	00H
	DB	099H
	DB	00H
	DB	00H
	DB	00H
	DB	099H
	DB	00H
	DB	00H
	DB	00H
	DB	099H
	DB	00H
	DB	00H
	DB	00H
	DB	099H
	DB	00H
	DB	00H
	DB	00H
	DB	099H
	DB	00H
	DB	00H
	DB	00H
	DB	099H
	DB	00H
	DB	00H
	DB	00H
	DB	099H
	DB	00H
	DB	00H
	DB	00H
	DB	099H
	DB	00H
	DB	00H
	DB	00H
	DB	099H
	DB	00H
	DB	00H
	DB	00H
	DB	099H
	DB	00H
	DB	00H
	DB	00H
	DB	099H
	DB	00H
	DB	00H
	DB	00H
	DB	099H
	DB	00H
	DB	00H
	DB	00H
	DB	099H
	DB	00H
	DB	00H
	DB	00H
	DB	099H
	DB	00H
	DB	00H
	DB	00H
	DB	099H
	DB	00H
	DB	00H
	DB	00H
	DB	099H
	DB	00H
	DB	00H
	DB	00H
	DB	099H
	DB	00H
	DB	00H
	DB	00H
	DB	099H
	DB	00H
	DB	00H
	DB	00H
	DB	099H
	DB	00H
	DB	00H
	DB	00H
	DB	099H
	DB	00H
	DB	00H
	DB	00H
	DB	099H
	DB	00H
	DB	00H
	DB	00H
	DB	099H
	DB	00H
	DB	00H
	DB	00H
	DB	099H
	DB	00H
	DB	00H
	DB	00H
	DB	099H
	DB	00H
	DB	00H
	DB	00H
	DB	099H
	DB	00H
	DB	00H
	DB	00H
	DB	099H
	DB	00H
	DB	00H
	DB	00H
	DB	099H
	DB	00H
	DB	00H
	DB	00H
	DB	099H
	DB	00H
	DB	00H
	DB	00H
	DB	099H
	DB	00H
	DB	00H
	DB	00H
	DB	099H
	DB	00H
	DB	00H
	DB	00H
	DB	099H
	DB	00H
	DB	00H
	DB	00H
	DB	099H
	DB	00H
	DB	00H
	DB	00H
	DB	099H
	DB	00H
	DB	00H
	DB	00H
	DB	099H
	DB	00H
	DB	00H
	DB	00H
	DB	099H
	DB	00H
	DB	00H
	DB	00H
	DB	099H
	DB	00H
	DB	00H
	DB	00H
	DB	099H
	DB	00H
	DB	00H
	DB	00H
	DB	099H
	DB	00H
	DB	00H
	DB	00H
	DB	099H
	DB	00H
	DB	00H
	DB	00H
	DB	099H
	DB	00H
	DB	00H
	DB	00H
	DB	099H
	DB	00H
	DB	00H
	DB	00H
	DB	099H
	DB	00H
	DB	00H
	DB	00H
	DB	099H
	DB	00H
	DB	00H
	DB	00H
	DB	099H
	DB	00H
	DB	00H
	DB	00H
	DB	099H
	DB	00H
	DB	00H
	DB	00H
	DB	099H
	DB	00H
	DB	00H
	DB	00H
	DB	099H
	DB	00H
	DB	00H
	DB	00H
	DB	099H
	DB	00H
	DB	00H
	DB	00H
	DB	099H
	DB	00H
	DB	00H
	DB	00H
	DB	099H
	DB	00H
	DB	00H
	DB	00H
	DB	099H
	DB	00H
	DB	00H
	DB	00H
	DB	099H
	DB	00H
	DB	00H
	DB	00H
	DB	099H
	DB	00H
	DB	00H
	DB	00H
	DB	099H
	DB	00H
	DB	00H
	DB	00H
	DB	099H
	DB	00H
	DB	00H
	DB	00H
	DB	099H
	DB	00H
	DB	00H
	DB	00H
	DB	099H
	DB	00H
	DB	00H
	DB	00H
	DB	099H
	DB	00H
	DB	00H
	DB	00H
	DB	099H
	DB	00H
	DB	00H
	DB	00H
	DB	099H
	DB	00H
	DB	00H
	DB	00H
	DB	099H
	DB	00H
	DB	00H
	DB	00H
	DB	099H
	DB	00H
	DB	00H
	DB	00H
	DB	099H
	DB	00H
	DB	00H
	DB	00H
	DB	099H
	DB	00H
	DB	00H
	DB	00H
	DB	099H
	DB	00H
	DB	00H
	DB	00H
	DB	099H
	DB	00H
	DB	00H
	DB	00H
	DB	099H
	DB	00H
	DB	00H
	DB	00H
	DB	099H
	DB	00H
	DB	00H
	DB	00H
	DB	099H
	DB	00H
	DB	00H
	DB	00H
	DB	099H
	DB	00H
	DB	00H
	DB	00H
	DB	099H
	DB	00H
	DB	00H
	DB	00H
	DB	099H
	DB	00H
	DB	00H
	DB	00H
	DB	099H
	DB	00H
	DB	00H
	DB	00H
	DB	099H
	DB	00H
	DB	00H
	DB	00H
	DB	099H
	DB	00H
	DB	00H
	DB	00H
	DB	099H
	DB	00H
	DB	00H
	DB	00H
	DB	099H
	DB	00H
	DB	00H
	DB	00H
	DB	099H
	DB	00H
	DB	00H
	DB	00H
	DB	099H
	DB	00H
	DB	00H
	DB	00H
	DB	099H
	DB	00H
	DB	00H
	DB	00H
	DB	099H
	DB	00H
	DB	00H
	DB	00H
	DB	099H
	DB	00H
	DB	00H
	DB	00H
	DB	099H
	DB	00H
	DB	00H
	DB	00H
	DB	099H
	DB	00H
	DB	00H
	DB	00H
	DB	099H
	DB	00H
	DB	00H
	DB	00H
	DB	099H
	DB	00H
	DB	00H
	DB	00H
	DB	099H
	DB	00H
	DB	00H
	DB	00H
	DB	099H
	DB	00H
	DB	00H
	DB	00H
	DB	099H
	DB	00H
	DB	00H
	DB	00H
	DB	099H
	DB	00H
	DB	00H
	DB	00H
	DB	099H
	DB	00H
	DB	00H
	DB	00H
	DB	099H
	DB	00H
	DB	00H
	DB	00H
	DB	099H
	DB	00H
	DB	00H
	DB	00H
	DB	099H
	DB	00H
	DB	00H
	DB	00H
	DB	099H
	DB	00H
	DB	00H
	DB	00H
	DB	099H
	DB	00H
	DB	00H
	DB	00H
	DB	099H
	DB	00H
	DB	00H
	DB	00H
	DB	099H
	DB	00H
	DB	00H
	DB	00H
	DB	099H
	DB	00H
	DB	00H
	DB	00H
	DB	099H
	DB	00H
	DB	00H
	DB	00H
	DB	099H
	DB	00H
	DB	00H
	DB	00H
	DB	099H
	DB	00H
	DB	00H
	DB	00H
	DB	099H
	DB	00H
	DB	00H
	DB	00H
	DB	099H
	DB	00H
	DB	00H
	DB	00H
	DB	099H
	DB	00H
	DB	00H
	DB	00H
	DB	099H
	DB	00H
	DB	00H
	DB	00H
	DB	099H
	DB	00H
	DB	00H
	DB	00H
	DB	099H
	DB	00H
	DB	00H
	DB	00H
	DB	099H
	DB	00H
	DB	00H
	DB	00H
	DB	099H
	DB	00H
	DB	00H
	DB	00H
	DB	099H
	DB	00H
	DB	00H
	DB	00H
	DB	099H
	DB	00H
	DB	00H
	DB	00H
	DB	099H
	DB	00H
	DB	00H
	DB	00H
	DB	099H
	DB	00H
	DB	00H
	DB	00H
	DB	099H
	DB	00H
	DB	00H
	DB	00H
	DB	099H
	DB	00H
	DB	00H
	DB	00H
	DB	099H
	DB	00H
	DB	00H
	DB	00H
	DB	099H
	DB	00H
	DB	00H
	DB	00H
	DB	099H
	DB	00H
	DB	00H
	DB	00H
	DB	099H
	DB	00H
	DB	00H
	DB	00H
	DB	099H
	DB	00H
	DB	00H
	DB	00H
	DB	099H
	DB	00H
	DB	00H
	DB	00H
	DB	099H
	DB	00H
	DB	00H
	DB	00H
	DB	099H
	DB	00H
	DB	00H
	DB	00H
	DB	099H
	DB	00H
	DB	00H
	DB	00H
	DB	099H
	DB	00H
	DB	00H
	DB	00H
	DB	099H
	DB	00H
	DB	00H
	DB	00H
	DB	099H
	DB	00H
	DB	00H
	DB	00H
	DB	099H
	DB	00H
	DB	00H
	DB	00H
	DB	099H
	DB	00H
	DB	00H
	DB	00H
	DB	099H
	DB	00H
	DB	00H
	DB	00H
	DB	099H
	DB	00H
	DB	00H
	DB	00H
	DB	099H
	DB	00H
	DB	00H
	DB	00H
	DB	099H
	DB	00H
	DB	00H
	DB	00H
	DB	099H
	DB	00H
	DB	00H
	DB	00H
	DB	099H
	DB	00H
	DB	00H
	DB	00H
	DB	099H
	DB	00H
	DB	00H
	DB	00H
	DB	099H
	DB	00H
	DB	00H
	DB	00H
	DB	099H
	DB	00H
	DB	00H
	DB	00H
	DB	099H
	DB	00H
	DB	00H
	DB	00H
	DB	099H
	DB	00H
	DB	00H
	DB	00H
	DB	099H
	DB	00H
	DB	00H
	DB	00H
	DB	099H
	DB	00H
	DB	00H
	DB	00H
	DB	099H
	DB	00H
	DB	00H
	DB	00H
	DB	099H
	DB	00H
	DB	00H
	DB	00H
	DB	099H
	DB	00H
	DB	00H
	DB	00H
	DB	099H
	DB	00H
	DB	00H
	DB	00H
	DB	099H
	DB	00H
	DB	00H
	DB	00H
	DB	099H
	DB	00H
	DB	00H
	DB	00H
	DB	099H
	DB	00H
	DB	00H
	DB	00H
	DB	099H
	DB	00H
	DB	00H
	DB	00H
	DB	099H
	DB	00H
	DB	00H
	DB	00H
	DB	099H
	DB	00H
	DB	00H
	DB	00H
	DB	099H
	DB	00H
	DB	00H
	DB	00H
	DB	099H
	DB	00H
	DB	00H
	DB	00H
	DB	099H
	DB	00H
	DB	00H
	DB	00H
	DB	099H
	DB	00H
	DB	00H
	DB	00H
	DB	099H
	DB	00H
	DB	00H
	DB	00H
	DB	099H
	DB	00H
	DB	00H
	DB	00H
	DB	099H
	DB	00H
	DB	00H
	DB	00H
	DB	099H
	DB	00H
	DB	00H
	DB	00H
	DB	099H
	DB	00H
	DB	00H
	DB	00H
	DB	099H
	DB	00H
	DB	00H
	DB	00H
	DB	099H
	DB	00H
	DB	00H
	DB	00H
	DB	099H
	DB	00H
	DB	00H
	DB	00H
	DB	099H
	DB	00H
	DB	00H
	DB	00H
	DB	099H
	DB	00H
	DB	00H
	DB	00H
	DB	099H
	DB	00H
	DB	00H
	DB	00H
	DB	099H
	DB	00H
	DB	00H
	DB	00H
	DB	099H
	DB	00H
	DB	00H
	DB	00H
	DB	099H
	DB	00H
	DB	00H
	DB	00H
	DB	099H
	DB	00H
	DB	00H
	DB	00H
	DB	099H
	DB	00H
	DB	00H
	DB	00H
	DB	099H
	DB	00H
	DB	00H
	DB	00H
	DB	099H
	DB	00H
	DB	00H
	DB	00H
	DB	099H
	DB	00H
	DB	00H
	DB	00H
	DB	099H
	DB	00H
	DB	00H
	DB	00H
	DB	099H
	DB	00H
	DB	00H
	DB	00H
	DB	099H
	DB	00H
	DB	00H
	DB	00H
	DB	099H
	DB	00H
	DB	00H
	DB	00H
	DB	099H
	DB	00H
	DB	00H
	DB	00H
	DB	099H
	DB	00H
	DB	00H
	DB	00H
	DB	099H
	DB	00H
	DB	00H
	DB	00H
	DB	099H
	DB	00H
	DB	00H
	DB	00H
	DB	099H
	DB	00H
	DB	00H
	DB	00H
	DB	099H
	DB	00H
	DB	00H
	DB	00H
	DB	099H
	DB	00H
	DB	00H
	DB	00H
	DB	099H
	DB	00H
	DB	00H
	DB	00H
	DB	099H
	DB	00H
	DB	00H
	DB	00H
	DB	099H
	DB	00H
	DB	00H
	DB	00H
	DB	099H
	DB	00H
	DB	00H
	DB	00H
	DB	099H
	DB	00H
	DB	00H
	DB	00H
	DB	099H
	DB	00H
	DB	00H
	DB	00H
	DB	099H
	DB	00H
	DB	00H
	DB	00H
	DB	099H
	DB	00H
	DB	00H
	DB	00H
	DB	099H
	DB	00H
	DB	00H
	DB	00H
	DB	099H
	DB	00H
	DB	00H
	DB	00H
	DB	099H
	DB	00H
	DB	00H
	DB	00H
	DB	099H
	DB	00H
	DB	00H
	DB	00H
	DB	099H
	DB	00H
	DB	00H
	DB	00H
	DB	099H
	DB	00H
	DB	00H
	DB	00H
	DB	099H
	DB	00H
	DB	00H
	DB	00H
	DB	099H
	DB	00H
	DB	00H
	DB	00H
	DB	099H
	DB	00H
	DB	00H
	DB	00H
	DB	099H
	DB	00H
	DB	00H
	DB	00H
	DB	092H
	DB	00H
	DB	00H
	DB	00H
	DB	034H
	DB	00H
	DB	00H
	DB	00H
	DB	00H
	DB	00H
	DB	00H
	DB	00H
	DB	00H
	DB	00H
	DB	00H
	DB	00H
	DB	00H
	DB	00H
	DB	00H
	DB	00H
	DB	00H
	DB	00H
	DB	00H
	DB	00H
	DB	00H
	DB	00H
	DB	00H
	DB	00H
	DB	00H
	DB	00H
	DB	00H
	DB	00H
	DB	00H
	DB	00H
	DB	00H
	DB	00H
	DB	00H
	DB	00H
	DB	00H
	DB	00H
	DB	00H
	DB	00H
	DB	00H
	DB	00H
	DB	00H
	DB	00H
	DB	00H
	DB	00H
	DB	00H
	DB	00H
	DB	00H
	DB	00H
	DB	00H
	DB	00H
	DB	00H
	DB	00H
	DB	00H
	DB	00H
	DB	00H
	DB	00H
	DB	00H
	DB	00H
	DB	00H
	DB	00H
	DB	00H
	DB	00H
	DB	00H
	DB	00H
	DB	00H
	DB	00H
	DB	00H
	DB	00H
	DB	00H
	DB	00H
	DB	00H
	DB	00H
	DB	00H
	DB	00H
	DB	00H
	DB	00H
	DB	00H
	DB	00H
	DB	00H
	DB	00H
	DB	00H
	DB	00H
	DB	00H
	DB	00H
	DB	01H
	DB	00H
	DB	00H
	DB	00H
	DB	052H
	DB	00H
	DB	00H
	DB	00H
	DB	098H
	DB	00H
	DB	00H
	DB	00H
	DB	099H
	DB	00H
	DB	00H
	DB	00H
	DB	099H
	DB	00H
	DB	00H
	DB	00H
	DB	099H
	DB	00H
	DB	00H
	DB	00H
	DB	099H
	DB	00H
	DB	00H
	DB	00H
	DB	099H
	DB	00H
	DB	00H
	DB	00H
	DB	099H
	DB	00H
	DB	00H
	DB	00H
	DB	099H
	DB	00H
	DB	00H
	DB	00H
	DB	099H
	DB	00H
	DB	00H
	DB	00H
	DB	099H
	DB	00H
	DB	00H
	DB	00H
	DB	099H
	DB	00H
	DB	00H
	DB	00H
	DB	099H
	DB	00H
	DB	00H
	DB	00H
	DB	099H
	DB	00H
	DB	00H
	DB	00H
	DB	099H
	DB	00H
	DB	00H
	DB	00H
	DB	099H
	DB	00H
	DB	00H
	DB	00H
	DB	099H
	DB	00H
	DB	00H
	DB	00H
	DB	099H
	DB	00H
	DB	00H
	DB	00H
	DB	099H
	DB	00H
	DB	00H
	DB	00H
	DB	099H
	DB	00H
	DB	00H
	DB	00H
	DB	099H
	DB	00H
	DB	00H
	DB	00H
	DB	099H
	DB	00H
	DB	00H
	DB	00H
	DB	099H
	DB	00H
	DB	00H
	DB	00H
	DB	099H
	DB	00H
	DB	00H
	DB	00H
	DB	099H
	DB	00H
	DB	00H
	DB	00H
	DB	099H
	DB	00H
	DB	00H
	DB	00H
	DB	099H
	DB	00H
	DB	00H
	DB	00H
	DB	099H
	DB	00H
	DB	00H
	DB	00H
	DB	099H
	DB	00H
	DB	00H
	DB	00H
	DB	099H
	DB	00H
	DB	00H
	DB	00H
	DB	099H
	DB	00H
	DB	00H
	DB	00H
	DB	099H
	DB	00H
	DB	00H
	DB	00H
	DB	099H
	DB	00H
	DB	00H
	DB	00H
	DB	099H
	DB	00H
	DB	00H
	DB	00H
	DB	099H
	DB	00H
	DB	00H
	DB	00H
	DB	099H
	DB	00H
	DB	00H
	DB	00H
	DB	099H
	DB	00H
	DB	00H
	DB	00H
	DB	099H
	DB	00H
	DB	00H
	DB	00H
	DB	099H
	DB	00H
	DB	00H
	DB	00H
	DB	099H
	DB	00H
	DB	00H
	DB	00H
	DB	099H
	DB	00H
	DB	00H
	DB	00H
	DB	099H
	DB	00H
	DB	00H
	DB	00H
	DB	099H
	DB	00H
	DB	00H
	DB	00H
	DB	099H
	DB	00H
	DB	00H
	DB	00H
	DB	099H
	DB	00H
	DB	00H
	DB	00H
	DB	099H
	DB	00H
	DB	00H
	DB	00H
	DB	099H
	DB	00H
	DB	00H
	DB	00H
	DB	099H
	DB	00H
	DB	00H
	DB	00H
	DB	099H
	DB	00H
	DB	00H
	DB	00H
	DB	099H
	DB	00H
	DB	00H
	DB	00H
	DB	099H
	DB	00H
	DB	00H
	DB	00H
	DB	099H
	DB	00H
	DB	00H
	DB	00H
	DB	099H
	DB	00H
	DB	00H
	DB	00H
	DB	099H
	DB	00H
	DB	00H
	DB	00H
	DB	099H
	DB	00H
	DB	00H
	DB	00H
	DB	099H
	DB	00H
	DB	00H
	DB	00H
	DB	099H
	DB	00H
	DB	00H
	DB	00H
	DB	099H
	DB	00H
	DB	00H
	DB	00H
	DB	099H
	DB	00H
	DB	00H
	DB	00H
	DB	099H
	DB	00H
	DB	00H
	DB	00H
	DB	099H
	DB	00H
	DB	00H
	DB	00H
	DB	099H
	DB	00H
	DB	00H
	DB	00H
	DB	099H
	DB	00H
	DB	00H
	DB	00H
	DB	099H
	DB	00H
	DB	00H
	DB	00H
	DB	099H
	DB	00H
	DB	00H
	DB	00H
	DB	099H
	DB	00H
	DB	00H
	DB	00H
	DB	099H
	DB	00H
	DB	00H
	DB	00H
	DB	099H
	DB	00H
	DB	00H
	DB	00H
	DB	099H
	DB	00H
	DB	00H
	DB	00H
	DB	099H
	DB	00H
	DB	00H
	DB	00H
	DB	099H
	DB	00H
	DB	00H
	DB	00H
	DB	099H
	DB	00H
	DB	00H
	DB	00H
	DB	099H
	DB	00H
	DB	00H
	DB	00H
	DB	099H
	DB	00H
	DB	00H
	DB	00H
	DB	099H
	DB	00H
	DB	00H
	DB	00H
	DB	099H
	DB	00H
	DB	00H
	DB	00H
	DB	099H
	DB	00H
	DB	00H
	DB	00H
	DB	099H
	DB	00H
	DB	00H
	DB	00H
	DB	099H
	DB	00H
	DB	00H
	DB	00H
	DB	099H
	DB	00H
	DB	00H
	DB	00H
	DB	099H
	DB	00H
	DB	00H
	DB	00H
	DB	099H
	DB	00H
	DB	00H
	DB	00H
	DB	099H
	DB	00H
	DB	00H
	DB	00H
	DB	099H
	DB	00H
	DB	00H
	DB	00H
	DB	099H
	DB	00H
	DB	00H
	DB	00H
	DB	099H
	DB	00H
	DB	00H
	DB	00H
	DB	099H
	DB	00H
	DB	00H
	DB	00H
	DB	099H
	DB	00H
	DB	00H
	DB	00H
	DB	099H
	DB	00H
	DB	00H
	DB	00H
	DB	099H
	DB	00H
	DB	00H
	DB	00H
	DB	099H
	DB	00H
	DB	00H
	DB	00H
	DB	099H
	DB	00H
	DB	00H
	DB	00H
	DB	099H
	DB	00H
	DB	00H
	DB	00H
	DB	099H
	DB	00H
	DB	00H
	DB	00H
	DB	099H
	DB	00H
	DB	00H
	DB	00H
	DB	099H
	DB	00H
	DB	00H
	DB	00H
	DB	099H
	DB	00H
	DB	00H
	DB	00H
	DB	099H
	DB	00H
	DB	00H
	DB	00H
	DB	099H
	DB	00H
	DB	00H
	DB	00H
	DB	099H
	DB	00H
	DB	00H
	DB	00H
	DB	099H
	DB	00H
	DB	00H
	DB	00H
	DB	099H
	DB	00H
	DB	00H
	DB	00H
	DB	099H
	DB	00H
	DB	00H
	DB	00H
	DB	099H
	DB	00H
	DB	00H
	DB	00H
	DB	099H
	DB	00H
	DB	00H
	DB	00H
	DB	099H
	DB	00H
	DB	00H
	DB	00H
	DB	099H
	DB	00H
	DB	00H
	DB	00H
	DB	099H
	DB	00H
	DB	00H
	DB	00H
	DB	099H
	DB	00H
	DB	00H
	DB	00H
	DB	099H
	DB	00H
	DB	00H
	DB	00H
	DB	099H
	DB	00H
	DB	00H
	DB	00H
	DB	099H
	DB	00H
	DB	00H
	DB	00H
	DB	099H
	DB	00H
	DB	00H
	DB	00H
	DB	099H
	DB	00H
	DB	00H
	DB	00H
	DB	099H
	DB	00H
	DB	00H
	DB	00H
	DB	099H
	DB	00H
	DB	00H
	DB	00H
	DB	099H
	DB	00H
	DB	00H
	DB	00H
	DB	099H
	DB	00H
	DB	00H
	DB	00H
	DB	099H
	DB	00H
	DB	00H
	DB	00H
	DB	099H
	DB	00H
	DB	00H
	DB	00H
	DB	099H
	DB	00H
	DB	00H
	DB	00H
	DB	099H
	DB	00H
	DB	00H
	DB	00H
	DB	099H
	DB	00H
	DB	00H
	DB	00H
	DB	099H
	DB	00H
	DB	00H
	DB	00H
	DB	099H
	DB	00H
	DB	00H
	DB	00H
	DB	099H
	DB	00H
	DB	00H
	DB	00H
	DB	099H
	DB	00H
	DB	00H
	DB	00H
	DB	099H
	DB	00H
	DB	00H
	DB	00H
	DB	099H
	DB	00H
	DB	00H
	DB	00H
	DB	099H
	DB	00H
	DB	00H
	DB	00H
	DB	099H
	DB	00H
	DB	00H
	DB	00H
	DB	099H
	DB	00H
	DB	00H
	DB	00H
	DB	099H
	DB	00H
	DB	00H
	DB	00H
	DB	099H
	DB	00H
	DB	00H
	DB	00H
	DB	099H
	DB	00H
	DB	00H
	DB	00H
	DB	099H
	DB	00H
	DB	00H
	DB	00H
	DB	099H
	DB	00H
	DB	00H
	DB	00H
	DB	099H
	DB	00H
	DB	00H
	DB	00H
	DB	099H
	DB	00H
	DB	00H
	DB	00H
	DB	099H
	DB	00H
	DB	00H
	DB	00H
	DB	099H
	DB	00H
	DB	00H
	DB	00H
	DB	099H
	DB	00H
	DB	00H
	DB	00H
	DB	099H
	DB	00H
	DB	00H
	DB	00H
	DB	099H
	DB	00H
	DB	00H
	DB	00H
	DB	099H
	DB	00H
	DB	00H
	DB	00H
	DB	099H
	DB	00H
	DB	00H
	DB	00H
	DB	099H
	DB	00H
	DB	00H
	DB	00H
	DB	099H
	DB	00H
	DB	00H
	DB	00H
	DB	099H
	DB	00H
	DB	00H
	DB	00H
	DB	099H
	DB	00H
	DB	00H
	DB	00H
	DB	099H
	DB	00H
	DB	00H
	DB	00H
	DB	099H
	DB	00H
	DB	00H
	DB	00H
	DB	099H
	DB	00H
	DB	00H
	DB	00H
	DB	099H
	DB	00H
	DB	00H
	DB	00H
	DB	099H
	DB	00H
	DB	00H
	DB	00H
	DB	099H
	DB	00H
	DB	00H
	DB	00H
	DB	099H
	DB	00H
	DB	00H
	DB	00H
	DB	099H
	DB	00H
	DB	00H
	DB	00H
	DB	099H
	DB	00H
	DB	00H
	DB	00H
	DB	099H
	DB	00H
	DB	00H
	DB	00H
	DB	099H
	DB	00H
	DB	00H
	DB	00H
	DB	099H
	DB	00H
	DB	00H
	DB	00H
	DB	099H
	DB	00H
	DB	00H
	DB	00H
	DB	099H
	DB	00H
	DB	00H
	DB	00H
	DB	099H
	DB	00H
	DB	00H
	DB	00H
	DB	099H
	DB	00H
	DB	00H
	DB	00H
	DB	099H
	DB	00H
	DB	00H
	DB	00H
	DB	099H
	DB	00H
	DB	00H
	DB	00H
	DB	099H
	DB	00H
	DB	00H
	DB	00H
	DB	099H
	DB	00H
	DB	00H
	DB	00H
	DB	099H
	DB	00H
	DB	00H
	DB	00H
	DB	099H
	DB	00H
	DB	00H
	DB	00H
	DB	099H
	DB	00H
	DB	00H
	DB	00H
	DB	099H
	DB	00H
	DB	00H
	DB	00H
	DB	099H
	DB	00H
	DB	00H
	DB	00H
	DB	099H
	DB	00H
	DB	00H
	DB	00H
	DB	099H
	DB	00H
	DB	00H
	DB	00H
	DB	099H
	DB	00H
	DB	00H
	DB	00H
	DB	099H
	DB	00H
	DB	00H
	DB	00H
	DB	099H
	DB	00H
	DB	00H
	DB	00H
	DB	099H
	DB	00H
	DB	00H
	DB	00H
	DB	099H
	DB	00H
	DB	00H
	DB	00H
	DB	099H
	DB	00H
	DB	00H
	DB	00H
	DB	099H
	DB	00H
	DB	00H
	DB	00H
	DB	099H
	DB	00H
	DB	00H
	DB	00H
	DB	099H
	DB	00H
	DB	00H
	DB	00H
	DB	099H
	DB	00H
	DB	00H
	DB	00H
	DB	099H
	DB	00H
	DB	00H
	DB	00H
	DB	099H
	DB	00H
	DB	00H
	DB	00H
	DB	099H
	DB	00H
	DB	00H
	DB	00H
	DB	099H
	DB	00H
	DB	00H
	DB	00H
	DB	099H
	DB	00H
	DB	00H
	DB	00H
	DB	099H
	DB	00H
	DB	00H
	DB	00H
	DB	099H
	DB	00H
	DB	00H
	DB	00H
	DB	099H
	DB	00H
	DB	00H
	DB	00H
	DB	099H
	DB	00H
	DB	00H
	DB	00H
	DB	099H
	DB	00H
	DB	00H
	DB	00H
	DB	099H
	DB	00H
	DB	00H
	DB	00H
	DB	099H
	DB	00H
	DB	00H
	DB	00H
	DB	099H
	DB	00H
	DB	00H
	DB	00H
	DB	099H
	DB	00H
	DB	00H
	DB	00H
	DB	099H
	DB	00H
	DB	00H
	DB	00H
	DB	099H
	DB	00H
	DB	00H
	DB	00H
	DB	099H
	DB	00H
	DB	00H
	DB	00H
	DB	099H
	DB	00H
	DB	00H
	DB	00H
	DB	099H
	DB	00H
	DB	00H
	DB	00H
	DB	099H
	DB	00H
	DB	00H
	DB	00H
	DB	099H
	DB	00H
	DB	00H
	DB	00H
	DB	099H
	DB	00H
	DB	00H
	DB	00H
	DB	099H
	DB	00H
	DB	00H
	DB	00H
	DB	099H
	DB	00H
	DB	00H
	DB	00H
	DB	099H
	DB	00H
	DB	00H
	DB	00H
	DB	099H
	DB	00H
	DB	00H
	DB	00H
	DB	099H
	DB	00H
	DB	00H
	DB	00H
	DB	099H
	DB	00H
	DB	00H
	DB	00H
	DB	099H
	DB	00H
	DB	00H
	DB	00H
	DB	099H
	DB	00H
	DB	00H
	DB	00H
	DB	099H
	DB	00H
	DB	00H
	DB	00H
	DB	099H
	DB	00H
	DB	00H
	DB	00H
	DB	099H
	DB	00H
	DB	00H
	DB	00H
	DB	099H
	DB	00H
	DB	00H
	DB	00H
	DB	099H
	DB	00H
	DB	00H
	DB	00H
	DB	099H
	DB	00H
	DB	00H
	DB	00H
	DB	099H
	DB	00H
	DB	00H
	DB	00H
	DB	099H
	DB	00H
	DB	00H
	DB	00H
	DB	099H
	DB	00H
	DB	00H
	DB	00H
	DB	099H
	DB	00H
	DB	00H
	DB	00H
	DB	099H
	DB	00H
	DB	00H
	DB	00H
	DB	099H
	DB	00H
	DB	00H
	DB	00H
	DB	099H
	DB	00H
	DB	00H
	DB	00H
	DB	099H
	DB	00H
	DB	00H
	DB	00H
	DB	099H
	DB	00H
	DB	00H
	DB	00H
	DB	099H
	DB	00H
	DB	00H
	DB	00H
	DB	099H
	DB	00H
	DB	00H
	DB	00H
	DB	099H
	DB	00H
	DB	00H
	DB	00H
	DB	099H
	DB	00H
	DB	00H
	DB	00H
	DB	099H
	DB	00H
	DB	00H
	DB	00H
	DB	099H
	DB	00H
	DB	00H
	DB	00H
	DB	099H
	DB	00H
	DB	00H
	DB	00H
	DB	099H
	DB	00H
	DB	00H
	DB	00H
	DB	099H
	DB	00H
	DB	00H
	DB	00H
	DB	099H
	DB	00H
	DB	00H
	DB	00H
	DB	099H
	DB	00H
	DB	00H
	DB	00H
	DB	099H
	DB	00H
	DB	00H
	DB	00H
	DB	099H
	DB	00H
	DB	00H
	DB	00H
	DB	099H
	DB	00H
	DB	00H
	DB	00H
	DB	099H
	DB	00H
	DB	00H
	DB	00H
	DB	099H
	DB	00H
	DB	00H
	DB	00H
	DB	098H
	DB	00H
	DB	00H
	DB	00H
	DB	050H
	DB	00H
	DB	00H
	DB	00H
	DB	01H
	DB	00H
	DB	00H
	DB	00H
	DB	00H
	DB	00H
	DB	00H
	DB	00H
	DB	00H
	DB	00H
	DB	00H
	DB	00H
	DB	00H
	DB	00H
	DB	00H
	DB	00H
	DB	00H
	DB	00H
	DB	00H
	DB	00H
	DB	00H
	DB	00H
	DB	00H
	DB	00H
	DB	00H
	DB	00H
	DB	00H
	DB	00H
	DB	00H
	DB	00H
	DB	00H
	DB	00H
	DB	00H
	DB	00H
	DB	00H
	DB	00H
	DB	00H
	DB	00H
	DB	00H
	DB	00H
	DB	00H
	DB	00H
	DB	00H
	DB	00H
	DB	00H
	DB	00H
	DB	00H
	DB	00H
	DB	00H
	DB	00H
	DB	00H
	DB	00H
	DB	00H
	DB	00H
	DB	00H
	DB	00H
	DB	00H
	DB	00H
	DB	00H
	DB	00H
	DB	00H
	DB	00H
	DB	00H
	DB	00H
	DB	00H
	DB	00H
	DB	00H
	DB	00H
	DB	00H
	DB	00H
	DB	00H
	DB	00H
	DB	01H
	DB	00H
	DB	00H
	DB	00H
	DB	05bH
	DB	00H
	DB	00H
	DB	00H
	DB	099H
	DB	00H
	DB	00H
	DB	00H
	DB	099H
	DB	00H
	DB	00H
	DB	00H
	DB	099H
	DB	00H
	DB	00H
	DB	00H
	DB	099H
	DB	00H
	DB	00H
	DB	00H
	DB	099H
	DB	00H
	DB	00H
	DB	00H
	DB	099H
	DB	00H
	DB	00H
	DB	00H
	DB	099H
	DB	00H
	DB	00H
	DB	00H
	DB	099H
	DB	00H
	DB	00H
	DB	00H
	DB	099H
	DB	00H
	DB	00H
	DB	00H
	DB	099H
	DB	00H
	DB	00H
	DB	00H
	DB	099H
	DB	00H
	DB	00H
	DB	00H
	DB	099H
	DB	00H
	DB	00H
	DB	00H
	DB	099H
	DB	00H
	DB	00H
	DB	00H
	DB	099H
	DB	00H
	DB	00H
	DB	00H
	DB	099H
	DB	00H
	DB	00H
	DB	00H
	DB	099H
	DB	00H
	DB	00H
	DB	00H
	DB	099H
	DB	00H
	DB	00H
	DB	00H
	DB	099H
	DB	00H
	DB	00H
	DB	00H
	DB	099H
	DB	00H
	DB	00H
	DB	00H
	DB	099H
	DB	00H
	DB	00H
	DB	00H
	DB	099H
	DB	00H
	DB	00H
	DB	00H
	DB	099H
	DB	00H
	DB	00H
	DB	00H
	DB	099H
	DB	00H
	DB	00H
	DB	00H
	DB	099H
	DB	00H
	DB	00H
	DB	00H
	DB	099H
	DB	00H
	DB	00H
	DB	00H
	DB	099H
	DB	00H
	DB	00H
	DB	00H
	DB	099H
	DB	00H
	DB	00H
	DB	00H
	DB	099H
	DB	00H
	DB	00H
	DB	00H
	DB	099H
	DB	00H
	DB	00H
	DB	00H
	DB	099H
	DB	00H
	DB	00H
	DB	00H
	DB	099H
	DB	00H
	DB	00H
	DB	00H
	DB	099H
	DB	00H
	DB	00H
	DB	00H
	DB	099H
	DB	00H
	DB	00H
	DB	00H
	DB	099H
	DB	00H
	DB	00H
	DB	00H
	DB	099H
	DB	00H
	DB	00H
	DB	00H
	DB	099H
	DB	00H
	DB	00H
	DB	00H
	DB	099H
	DB	00H
	DB	00H
	DB	00H
	DB	099H
	DB	00H
	DB	00H
	DB	00H
	DB	099H
	DB	00H
	DB	00H
	DB	00H
	DB	099H
	DB	00H
	DB	00H
	DB	00H
	DB	099H
	DB	00H
	DB	00H
	DB	00H
	DB	099H
	DB	00H
	DB	00H
	DB	00H
	DB	099H
	DB	00H
	DB	00H
	DB	00H
	DB	099H
	DB	00H
	DB	00H
	DB	00H
	DB	099H
	DB	00H
	DB	00H
	DB	00H
	DB	099H
	DB	00H
	DB	00H
	DB	00H
	DB	099H
	DB	00H
	DB	00H
	DB	00H
	DB	099H
	DB	00H
	DB	00H
	DB	00H
	DB	099H
	DB	00H
	DB	00H
	DB	00H
	DB	099H
	DB	00H
	DB	00H
	DB	00H
	DB	099H
	DB	00H
	DB	00H
	DB	00H
	DB	099H
	DB	00H
	DB	00H
	DB	00H
	DB	099H
	DB	00H
	DB	00H
	DB	00H
	DB	099H
	DB	00H
	DB	00H
	DB	00H
	DB	099H
	DB	00H
	DB	00H
	DB	00H
	DB	099H
	DB	00H
	DB	00H
	DB	00H
	DB	099H
	DB	00H
	DB	00H
	DB	00H
	DB	099H
	DB	00H
	DB	00H
	DB	00H
	DB	099H
	DB	00H
	DB	00H
	DB	00H
	DB	099H
	DB	00H
	DB	00H
	DB	00H
	DB	099H
	DB	00H
	DB	00H
	DB	00H
	DB	099H
	DB	00H
	DB	00H
	DB	00H
	DB	099H
	DB	00H
	DB	00H
	DB	00H
	DB	099H
	DB	00H
	DB	00H
	DB	00H
	DB	099H
	DB	00H
	DB	00H
	DB	00H
	DB	099H
	DB	00H
	DB	00H
	DB	00H
	DB	099H
	DB	00H
	DB	00H
	DB	00H
	DB	099H
	DB	00H
	DB	00H
	DB	00H
	DB	099H
	DB	00H
	DB	00H
	DB	00H
	DB	099H
	DB	00H
	DB	00H
	DB	00H
	DB	099H
	DB	00H
	DB	00H
	DB	00H
	DB	099H
	DB	00H
	DB	00H
	DB	00H
	DB	099H
	DB	00H
	DB	00H
	DB	00H
	DB	099H
	DB	00H
	DB	00H
	DB	00H
	DB	099H
	DB	00H
	DB	00H
	DB	00H
	DB	099H
	DB	00H
	DB	00H
	DB	00H
	DB	099H
	DB	00H
	DB	00H
	DB	00H
	DB	099H
	DB	00H
	DB	00H
	DB	00H
	DB	099H
	DB	00H
	DB	00H
	DB	00H
	DB	099H
	DB	00H
	DB	00H
	DB	00H
	DB	099H
	DB	00H
	DB	00H
	DB	00H
	DB	099H
	DB	00H
	DB	00H
	DB	00H
	DB	099H
	DB	00H
	DB	00H
	DB	00H
	DB	099H
	DB	00H
	DB	00H
	DB	00H
	DB	099H
	DB	00H
	DB	00H
	DB	00H
	DB	099H
	DB	00H
	DB	00H
	DB	00H
	DB	099H
	DB	00H
	DB	00H
	DB	00H
	DB	099H
	DB	00H
	DB	00H
	DB	00H
	DB	099H
	DB	00H
	DB	00H
	DB	00H
	DB	099H
	DB	00H
	DB	00H
	DB	00H
	DB	099H
	DB	00H
	DB	00H
	DB	00H
	DB	099H
	DB	00H
	DB	00H
	DB	00H
	DB	099H
	DB	00H
	DB	00H
	DB	00H
	DB	099H
	DB	00H
	DB	00H
	DB	00H
	DB	099H
	DB	00H
	DB	00H
	DB	00H
	DB	099H
	DB	00H
	DB	00H
	DB	00H
	DB	099H
	DB	00H
	DB	00H
	DB	00H
	DB	099H
	DB	00H
	DB	00H
	DB	00H
	DB	099H
	DB	00H
	DB	00H
	DB	00H
	DB	099H
	DB	00H
	DB	00H
	DB	00H
	DB	099H
	DB	00H
	DB	00H
	DB	00H
	DB	099H
	DB	00H
	DB	00H
	DB	00H
	DB	099H
	DB	00H
	DB	00H
	DB	00H
	DB	099H
	DB	00H
	DB	00H
	DB	00H
	DB	099H
	DB	00H
	DB	00H
	DB	00H
	DB	099H
	DB	00H
	DB	00H
	DB	00H
	DB	099H
	DB	00H
	DB	00H
	DB	00H
	DB	099H
	DB	00H
	DB	00H
	DB	00H
	DB	099H
	DB	00H
	DB	00H
	DB	00H
	DB	099H
	DB	00H
	DB	00H
	DB	00H
	DB	099H
	DB	00H
	DB	00H
	DB	00H
	DB	099H
	DB	00H
	DB	00H
	DB	00H
	DB	099H
	DB	00H
	DB	00H
	DB	00H
	DB	099H
	DB	00H
	DB	00H
	DB	00H
	DB	099H
	DB	00H
	DB	00H
	DB	00H
	DB	099H
	DB	00H
	DB	00H
	DB	00H
	DB	099H
	DB	00H
	DB	00H
	DB	00H
	DB	099H
	DB	00H
	DB	00H
	DB	00H
	DB	099H
	DB	00H
	DB	00H
	DB	00H
	DB	099H
	DB	00H
	DB	00H
	DB	00H
	DB	099H
	DB	00H
	DB	00H
	DB	00H
	DB	099H
	DB	00H
	DB	00H
	DB	00H
	DB	099H
	DB	00H
	DB	00H
	DB	00H
	DB	099H
	DB	00H
	DB	00H
	DB	00H
	DB	099H
	DB	00H
	DB	00H
	DB	00H
	DB	099H
	DB	00H
	DB	00H
	DB	00H
	DB	099H
	DB	00H
	DB	00H
	DB	00H
	DB	099H
	DB	00H
	DB	00H
	DB	00H
	DB	099H
	DB	00H
	DB	00H
	DB	00H
	DB	099H
	DB	00H
	DB	00H
	DB	00H
	DB	099H
	DB	00H
	DB	00H
	DB	00H
	DB	099H
	DB	00H
	DB	00H
	DB	00H
	DB	099H
	DB	00H
	DB	00H
	DB	00H
	DB	099H
	DB	00H
	DB	00H
	DB	00H
	DB	099H
	DB	00H
	DB	00H
	DB	00H
	DB	099H
	DB	00H
	DB	00H
	DB	00H
	DB	099H
	DB	00H
	DB	00H
	DB	00H
	DB	099H
	DB	00H
	DB	00H
	DB	00H
	DB	099H
	DB	00H
	DB	00H
	DB	00H
	DB	099H
	DB	00H
	DB	00H
	DB	00H
	DB	099H
	DB	00H
	DB	00H
	DB	00H
	DB	099H
	DB	00H
	DB	00H
	DB	00H
	DB	099H
	DB	00H
	DB	00H
	DB	00H
	DB	099H
	DB	00H
	DB	00H
	DB	00H
	DB	099H
	DB	00H
	DB	00H
	DB	00H
	DB	099H
	DB	00H
	DB	00H
	DB	00H
	DB	099H
	DB	00H
	DB	00H
	DB	00H
	DB	099H
	DB	00H
	DB	00H
	DB	00H
	DB	099H
	DB	00H
	DB	00H
	DB	00H
	DB	099H
	DB	00H
	DB	00H
	DB	00H
	DB	099H
	DB	00H
	DB	00H
	DB	00H
	DB	099H
	DB	00H
	DB	00H
	DB	00H
	DB	099H
	DB	00H
	DB	00H
	DB	00H
	DB	099H
	DB	00H
	DB	00H
	DB	00H
	DB	099H
	DB	00H
	DB	00H
	DB	00H
	DB	099H
	DB	00H
	DB	00H
	DB	00H
	DB	099H
	DB	00H
	DB	00H
	DB	00H
	DB	099H
	DB	00H
	DB	00H
	DB	00H
	DB	099H
	DB	00H
	DB	00H
	DB	00H
	DB	099H
	DB	00H
	DB	00H
	DB	00H
	DB	099H
	DB	00H
	DB	00H
	DB	00H
	DB	099H
	DB	00H
	DB	00H
	DB	00H
	DB	099H
	DB	00H
	DB	00H
	DB	00H
	DB	099H
	DB	00H
	DB	00H
	DB	00H
	DB	099H
	DB	00H
	DB	00H
	DB	00H
	DB	099H
	DB	00H
	DB	00H
	DB	00H
	DB	099H
	DB	00H
	DB	00H
	DB	00H
	DB	099H
	DB	00H
	DB	00H
	DB	00H
	DB	099H
	DB	00H
	DB	00H
	DB	00H
	DB	099H
	DB	00H
	DB	00H
	DB	00H
	DB	099H
	DB	00H
	DB	00H
	DB	00H
	DB	099H
	DB	00H
	DB	00H
	DB	00H
	DB	099H
	DB	00H
	DB	00H
	DB	00H
	DB	099H
	DB	00H
	DB	00H
	DB	00H
	DB	099H
	DB	00H
	DB	00H
	DB	00H
	DB	099H
	DB	00H
	DB	00H
	DB	00H
	DB	099H
	DB	00H
	DB	00H
	DB	00H
	DB	099H
	DB	00H
	DB	00H
	DB	00H
	DB	099H
	DB	00H
	DB	00H
	DB	00H
	DB	099H
	DB	00H
	DB	00H
	DB	00H
	DB	099H
	DB	00H
	DB	00H
	DB	00H
	DB	099H
	DB	00H
	DB	00H
	DB	00H
	DB	099H
	DB	00H
	DB	00H
	DB	00H
	DB	099H
	DB	00H
	DB	00H
	DB	00H
	DB	099H
	DB	00H
	DB	00H
	DB	00H
	DB	099H
	DB	00H
	DB	00H
	DB	00H
	DB	099H
	DB	00H
	DB	00H
	DB	00H
	DB	099H
	DB	00H
	DB	00H
	DB	00H
	DB	099H
	DB	00H
	DB	00H
	DB	00H
	DB	099H
	DB	00H
	DB	00H
	DB	00H
	DB	099H
	DB	00H
	DB	00H
	DB	00H
	DB	099H
	DB	00H
	DB	00H
	DB	00H
	DB	099H
	DB	00H
	DB	00H
	DB	00H
	DB	099H
	DB	00H
	DB	00H
	DB	00H
	DB	099H
	DB	00H
	DB	00H
	DB	00H
	DB	099H
	DB	00H
	DB	00H
	DB	00H
	DB	099H
	DB	00H
	DB	00H
	DB	00H
	DB	099H
	DB	00H
	DB	00H
	DB	00H
	DB	099H
	DB	00H
	DB	00H
	DB	00H
	DB	099H
	DB	00H
	DB	00H
	DB	00H
	DB	099H
	DB	00H
	DB	00H
	DB	00H
	DB	099H
	DB	00H
	DB	00H
	DB	00H
	DB	099H
	DB	00H
	DB	00H
	DB	00H
	DB	099H
	DB	00H
	DB	00H
	DB	00H
	DB	099H
	DB	00H
	DB	00H
	DB	00H
	DB	099H
	DB	00H
	DB	00H
	DB	00H
	DB	099H
	DB	00H
	DB	00H
	DB	00H
	DB	099H
	DB	00H
	DB	00H
	DB	00H
	DB	099H
	DB	00H
	DB	00H
	DB	00H
	DB	099H
	DB	00H
	DB	00H
	DB	00H
	DB	099H
	DB	00H
	DB	00H
	DB	00H
	DB	099H
	DB	00H
	DB	00H
	DB	00H
	DB	099H
	DB	00H
	DB	00H
	DB	00H
	DB	099H
	DB	00H
	DB	00H
	DB	00H
	DB	099H
	DB	00H
	DB	00H
	DB	00H
	DB	099H
	DB	00H
	DB	00H
	DB	00H
	DB	099H
	DB	00H
	DB	00H
	DB	00H
	DB	099H
	DB	00H
	DB	00H
	DB	00H
	DB	099H
	DB	00H
	DB	00H
	DB	00H
	DB	099H
	DB	00H
	DB	00H
	DB	00H
	DB	099H
	DB	00H
	DB	00H
	DB	00H
	DB	099H
	DB	00H
	DB	00H
	DB	00H
	DB	099H
	DB	00H
	DB	00H
	DB	00H
	DB	099H
	DB	00H
	DB	00H
	DB	00H
	DB	099H
	DB	00H
	DB	00H
	DB	00H
	DB	099H
	DB	00H
	DB	00H
	DB	00H
	DB	099H
	DB	00H
	DB	00H
	DB	00H
	DB	099H
	DB	00H
	DB	00H
	DB	00H
	DB	099H
	DB	00H
	DB	00H
	DB	00H
	DB	099H
	DB	00H
	DB	00H
	DB	00H
	DB	099H
	DB	00H
	DB	00H
	DB	00H
	DB	099H
	DB	00H
	DB	00H
	DB	00H
	DB	099H
	DB	00H
	DB	00H
	DB	00H
	DB	099H
	DB	00H
	DB	00H
	DB	00H
	DB	099H
	DB	00H
	DB	00H
	DB	00H
	DB	099H
	DB	00H
	DB	00H
	DB	00H
	DB	099H
	DB	00H
	DB	00H
	DB	00H
	DB	099H
	DB	00H
	DB	00H
	DB	00H
	DB	099H
	DB	00H
	DB	00H
	DB	00H
	DB	099H
	DB	00H
	DB	00H
	DB	00H
	DB	099H
	DB	00H
	DB	00H
	DB	00H
	DB	099H
	DB	00H
	DB	00H
	DB	00H
	DB	099H
	DB	00H
	DB	00H
	DB	00H
	DB	099H
	DB	00H
	DB	00H
	DB	00H
	DB	099H
	DB	00H
	DB	00H
	DB	00H
	DB	099H
	DB	00H
	DB	00H
	DB	00H
	DB	099H
	DB	00H
	DB	00H
	DB	00H
	DB	099H
	DB	00H
	DB	00H
	DB	00H
	DB	099H
	DB	00H
	DB	00H
	DB	00H
	DB	099H
	DB	00H
	DB	00H
	DB	00H
	DB	05eH
	DB	00H
	DB	00H
	DB	00H
	DB	01H
	DB	00H
	DB	00H
	DB	00H
	DB	00H
	DB	00H
	DB	00H
	DB	00H
	DB	00H
	DB	00H
	DB	00H
	DB	00H
	DB	00H
	DB	00H
	DB	00H
	DB	00H
	DB	00H
	DB	00H
	DB	00H
	DB	00H
	DB	00H
	DB	00H
	DB	00H
	DB	00H
	DB	00H
	DB	00H
	DB	00H
	DB	00H
	DB	00H
	DB	00H
	DB	00H
	DB	00H
	DB	00H
	DB	00H
	DB	00H
	DB	00H
	DB	00H
	DB	00H
	DB	00H
	DB	00H
	DB	00H
	DB	00H
	DB	00H
	DB	00H
	DB	00H
	DB	00H
	DB	00H
	DB	00H
	DB	00H
	DB	00H
	DB	00H
	DB	00H
	DB	00H
	DB	00H
	DB	00H
	DB	00H
	DB	00H
	DB	00H
	DB	00H
	DB	00H
	DB	00H
	DB	00H
	DB	00H
	DB	00H
	DB	01H
	DB	00H
	DB	00H
	DB	00H
	DB	05fH
	DB	00H
	DB	00H
	DB	00H
	DB	099H
	DB	00H
	DB	00H
	DB	00H
	DB	099H
	DB	00H
	DB	00H
	DB	00H
	DB	099H
	DB	00H
	DB	00H
	DB	00H
	DB	099H
	DB	00H
	DB	00H
	DB	00H
	DB	099H
	DB	00H
	DB	00H
	DB	00H
	DB	099H
	DB	00H
	DB	00H
	DB	00H
	DB	099H
	DB	00H
	DB	00H
	DB	00H
	DB	099H
	DB	00H
	DB	00H
	DB	00H
	DB	099H
	DB	00H
	DB	00H
	DB	00H
	DB	099H
	DB	00H
	DB	00H
	DB	00H
	DB	099H
	DB	00H
	DB	00H
	DB	00H
	DB	099H
	DB	00H
	DB	00H
	DB	00H
	DB	099H
	DB	00H
	DB	00H
	DB	00H
	DB	099H
	DB	00H
	DB	00H
	DB	00H
	DB	099H
	DB	00H
	DB	00H
	DB	00H
	DB	099H
	DB	00H
	DB	00H
	DB	00H
	DB	099H
	DB	00H
	DB	00H
	DB	00H
	DB	099H
	DB	00H
	DB	00H
	DB	00H
	DB	099H
	DB	00H
	DB	00H
	DB	00H
	DB	099H
	DB	00H
	DB	00H
	DB	00H
	DB	099H
	DB	00H
	DB	00H
	DB	00H
	DB	099H
	DB	00H
	DB	00H
	DB	00H
	DB	099H
	DB	00H
	DB	00H
	DB	00H
	DB	099H
	DB	00H
	DB	00H
	DB	00H
	DB	099H
	DB	00H
	DB	00H
	DB	00H
	DB	099H
	DB	00H
	DB	00H
	DB	00H
	DB	099H
	DB	00H
	DB	00H
	DB	00H
	DB	099H
	DB	00H
	DB	00H
	DB	00H
	DB	099H
	DB	00H
	DB	00H
	DB	00H
	DB	099H
	DB	00H
	DB	00H
	DB	00H
	DB	099H
	DB	00H
	DB	00H
	DB	00H
	DB	099H
	DB	00H
	DB	00H
	DB	00H
	DB	099H
	DB	00H
	DB	00H
	DB	00H
	DB	099H
	DB	00H
	DB	00H
	DB	00H
	DB	099H
	DB	00H
	DB	00H
	DB	00H
	DB	099H
	DB	00H
	DB	00H
	DB	00H
	DB	099H
	DB	00H
	DB	00H
	DB	00H
	DB	099H
	DB	00H
	DB	00H
	DB	00H
	DB	099H
	DB	00H
	DB	00H
	DB	00H
	DB	099H
	DB	00H
	DB	00H
	DB	00H
	DB	099H
	DB	00H
	DB	00H
	DB	00H
	DB	099H
	DB	00H
	DB	00H
	DB	00H
	DB	099H
	DB	00H
	DB	00H
	DB	00H
	DB	099H
	DB	00H
	DB	00H
	DB	00H
	DB	099H
	DB	00H
	DB	00H
	DB	00H
	DB	099H
	DB	00H
	DB	00H
	DB	00H
	DB	099H
	DB	00H
	DB	00H
	DB	00H
	DB	099H
	DB	00H
	DB	00H
	DB	00H
	DB	099H
	DB	00H
	DB	00H
	DB	00H
	DB	099H
	DB	00H
	DB	00H
	DB	00H
	DB	099H
	DB	00H
	DB	00H
	DB	00H
	DB	099H
	DB	00H
	DB	00H
	DB	00H
	DB	099H
	DB	00H
	DB	00H
	DB	00H
	DB	099H
	DB	00H
	DB	00H
	DB	00H
	DB	099H
	DB	00H
	DB	00H
	DB	00H
	DB	099H
	DB	00H
	DB	00H
	DB	00H
	DB	099H
	DB	00H
	DB	00H
	DB	00H
	DB	099H
	DB	00H
	DB	00H
	DB	00H
	DB	099H
	DB	00H
	DB	00H
	DB	00H
	DB	099H
	DB	00H
	DB	00H
	DB	00H
	DB	099H
	DB	00H
	DB	00H
	DB	00H
	DB	099H
	DB	00H
	DB	00H
	DB	00H
	DB	099H
	DB	00H
	DB	00H
	DB	00H
	DB	099H
	DB	00H
	DB	00H
	DB	00H
	DB	099H
	DB	00H
	DB	00H
	DB	00H
	DB	099H
	DB	00H
	DB	00H
	DB	00H
	DB	099H
	DB	00H
	DB	00H
	DB	00H
	DB	099H
	DB	00H
	DB	00H
	DB	00H
	DB	099H
	DB	00H
	DB	00H
	DB	00H
	DB	099H
	DB	00H
	DB	00H
	DB	00H
	DB	099H
	DB	00H
	DB	00H
	DB	00H
	DB	099H
	DB	00H
	DB	00H
	DB	00H
	DB	099H
	DB	00H
	DB	00H
	DB	00H
	DB	099H
	DB	00H
	DB	00H
	DB	00H
	DB	099H
	DB	00H
	DB	00H
	DB	00H
	DB	099H
	DB	00H
	DB	00H
	DB	00H
	DB	099H
	DB	00H
	DB	00H
	DB	00H
	DB	099H
	DB	00H
	DB	00H
	DB	00H
	DB	099H
	DB	00H
	DB	00H
	DB	00H
	DB	099H
	DB	00H
	DB	00H
	DB	00H
	DB	099H
	DB	00H
	DB	00H
	DB	00H
	DB	099H
	DB	00H
	DB	00H
	DB	00H
	DB	099H
	DB	00H
	DB	00H
	DB	00H
	DB	099H
	DB	00H
	DB	00H
	DB	00H
	DB	099H
	DB	00H
	DB	00H
	DB	00H
	DB	099H
	DB	00H
	DB	00H
	DB	00H
	DB	099H
	DB	00H
	DB	00H
	DB	00H
	DB	099H
	DB	00H
	DB	00H
	DB	00H
	DB	099H
	DB	00H
	DB	00H
	DB	00H
	DB	099H
	DB	00H
	DB	00H
	DB	00H
	DB	099H
	DB	00H
	DB	00H
	DB	00H
	DB	099H
	DB	00H
	DB	00H
	DB	00H
	DB	099H
	DB	00H
	DB	00H
	DB	00H
	DB	099H
	DB	00H
	DB	00H
	DB	00H
	DB	099H
	DB	00H
	DB	00H
	DB	00H
	DB	099H
	DB	00H
	DB	00H
	DB	00H
	DB	099H
	DB	00H
	DB	00H
	DB	00H
	DB	099H
	DB	00H
	DB	00H
	DB	00H
	DB	099H
	DB	00H
	DB	00H
	DB	00H
	DB	099H
	DB	00H
	DB	00H
	DB	00H
	DB	099H
	DB	00H
	DB	00H
	DB	00H
	DB	099H
	DB	00H
	DB	00H
	DB	00H
	DB	099H
	DB	00H
	DB	00H
	DB	00H
	DB	099H
	DB	00H
	DB	00H
	DB	00H
	DB	099H
	DB	00H
	DB	00H
	DB	00H
	DB	099H
	DB	00H
	DB	00H
	DB	00H
	DB	099H
	DB	00H
	DB	00H
	DB	00H
	DB	099H
	DB	00H
	DB	00H
	DB	00H
	DB	099H
	DB	00H
	DB	00H
	DB	00H
	DB	099H
	DB	00H
	DB	00H
	DB	00H
	DB	099H
	DB	00H
	DB	00H
	DB	00H
	DB	099H
	DB	00H
	DB	00H
	DB	00H
	DB	099H
	DB	00H
	DB	00H
	DB	00H
	DB	099H
	DB	00H
	DB	00H
	DB	00H
	DB	099H
	DB	00H
	DB	00H
	DB	00H
	DB	099H
	DB	00H
	DB	00H
	DB	00H
	DB	099H
	DB	00H
	DB	00H
	DB	00H
	DB	099H
	DB	00H
	DB	00H
	DB	00H
	DB	099H
	DB	00H
	DB	00H
	DB	00H
	DB	099H
	DB	00H
	DB	00H
	DB	00H
	DB	099H
	DB	00H
	DB	00H
	DB	00H
	DB	099H
	DB	00H
	DB	00H
	DB	00H
	DB	099H
	DB	00H
	DB	00H
	DB	00H
	DB	099H
	DB	00H
	DB	00H
	DB	00H
	DB	099H
	DB	00H
	DB	00H
	DB	00H
	DB	099H
	DB	00H
	DB	00H
	DB	00H
	DB	099H
	DB	00H
	DB	00H
	DB	00H
	DB	099H
	DB	00H
	DB	00H
	DB	00H
	DB	099H
	DB	00H
	DB	00H
	DB	00H
	DB	099H
	DB	00H
	DB	00H
	DB	00H
	DB	099H
	DB	00H
	DB	00H
	DB	00H
	DB	099H
	DB	00H
	DB	00H
	DB	00H
	DB	099H
	DB	00H
	DB	00H
	DB	00H
	DB	099H
	DB	00H
	DB	00H
	DB	00H
	DB	099H
	DB	00H
	DB	00H
	DB	00H
	DB	099H
	DB	00H
	DB	00H
	DB	00H
	DB	099H
	DB	00H
	DB	00H
	DB	00H
	DB	099H
	DB	00H
	DB	00H
	DB	00H
	DB	099H
	DB	00H
	DB	00H
	DB	00H
	DB	099H
	DB	00H
	DB	00H
	DB	00H
	DB	099H
	DB	00H
	DB	00H
	DB	00H
	DB	099H
	DB	00H
	DB	00H
	DB	00H
	DB	099H
	DB	00H
	DB	00H
	DB	00H
	DB	099H
	DB	00H
	DB	00H
	DB	00H
	DB	099H
	DB	00H
	DB	00H
	DB	00H
	DB	099H
	DB	00H
	DB	00H
	DB	00H
	DB	099H
	DB	00H
	DB	00H
	DB	00H
	DB	099H
	DB	00H
	DB	00H
	DB	00H
	DB	099H
	DB	00H
	DB	00H
	DB	00H
	DB	099H
	DB	00H
	DB	00H
	DB	00H
	DB	099H
	DB	00H
	DB	00H
	DB	00H
	DB	099H
	DB	00H
	DB	00H
	DB	00H
	DB	099H
	DB	00H
	DB	00H
	DB	00H
	DB	099H
	DB	00H
	DB	00H
	DB	00H
	DB	099H
	DB	00H
	DB	00H
	DB	00H
	DB	099H
	DB	00H
	DB	00H
	DB	00H
	DB	099H
	DB	00H
	DB	00H
	DB	00H
	DB	099H
	DB	00H
	DB	00H
	DB	00H
	DB	099H
	DB	00H
	DB	00H
	DB	00H
	DB	099H
	DB	00H
	DB	00H
	DB	00H
	DB	099H
	DB	00H
	DB	00H
	DB	00H
	DB	099H
	DB	00H
	DB	00H
	DB	00H
	DB	099H
	DB	00H
	DB	00H
	DB	00H
	DB	099H
	DB	00H
	DB	00H
	DB	00H
	DB	099H
	DB	00H
	DB	00H
	DB	00H
	DB	099H
	DB	00H
	DB	00H
	DB	00H
	DB	099H
	DB	00H
	DB	00H
	DB	00H
	DB	099H
	DB	00H
	DB	00H
	DB	00H
	DB	099H
	DB	00H
	DB	00H
	DB	00H
	DB	099H
	DB	00H
	DB	00H
	DB	00H
	DB	099H
	DB	00H
	DB	00H
	DB	00H
	DB	099H
	DB	00H
	DB	00H
	DB	00H
	DB	099H
	DB	00H
	DB	00H
	DB	00H
	DB	099H
	DB	00H
	DB	00H
	DB	00H
	DB	099H
	DB	00H
	DB	00H
	DB	00H
	DB	099H
	DB	00H
	DB	00H
	DB	00H
	DB	099H
	DB	00H
	DB	00H
	DB	00H
	DB	099H
	DB	00H
	DB	00H
	DB	00H
	DB	099H
	DB	00H
	DB	00H
	DB	00H
	DB	099H
	DB	00H
	DB	00H
	DB	00H
	DB	099H
	DB	00H
	DB	00H
	DB	00H
	DB	099H
	DB	00H
	DB	00H
	DB	00H
	DB	099H
	DB	00H
	DB	00H
	DB	00H
	DB	099H
	DB	00H
	DB	00H
	DB	00H
	DB	099H
	DB	00H
	DB	00H
	DB	00H
	DB	099H
	DB	00H
	DB	00H
	DB	00H
	DB	099H
	DB	00H
	DB	00H
	DB	00H
	DB	099H
	DB	00H
	DB	00H
	DB	00H
	DB	099H
	DB	00H
	DB	00H
	DB	00H
	DB	099H
	DB	00H
	DB	00H
	DB	00H
	DB	099H
	DB	00H
	DB	00H
	DB	00H
	DB	099H
	DB	00H
	DB	00H
	DB	00H
	DB	099H
	DB	00H
	DB	00H
	DB	00H
	DB	099H
	DB	00H
	DB	00H
	DB	00H
	DB	099H
	DB	00H
	DB	00H
	DB	00H
	DB	099H
	DB	00H
	DB	00H
	DB	00H
	DB	099H
	DB	00H
	DB	00H
	DB	00H
	DB	099H
	DB	00H
	DB	00H
	DB	00H
	DB	099H
	DB	00H
	DB	00H
	DB	00H
	DB	099H
	DB	00H
	DB	00H
	DB	00H
	DB	099H
	DB	00H
	DB	00H
	DB	00H
	DB	099H
	DB	00H
	DB	00H
	DB	00H
	DB	099H
	DB	00H
	DB	00H
	DB	00H
	DB	099H
	DB	00H
	DB	00H
	DB	00H
	DB	099H
	DB	00H
	DB	00H
	DB	00H
	DB	099H
	DB	00H
	DB	00H
	DB	00H
	DB	099H
	DB	00H
	DB	00H
	DB	00H
	DB	099H
	DB	00H
	DB	00H
	DB	00H
	DB	099H
	DB	00H
	DB	00H
	DB	00H
	DB	099H
	DB	00H
	DB	00H
	DB	00H
	DB	099H
	DB	00H
	DB	00H
	DB	00H
	DB	099H
	DB	00H
	DB	00H
	DB	00H
	DB	099H
	DB	00H
	DB	00H
	DB	00H
	DB	099H
	DB	00H
	DB	00H
	DB	00H
	DB	099H
	DB	00H
	DB	00H
	DB	00H
	DB	099H
	DB	00H
	DB	00H
	DB	00H
	DB	099H
	DB	00H
	DB	00H
	DB	00H
	DB	099H
	DB	00H
	DB	00H
	DB	00H
	DB	099H
	DB	00H
	DB	00H
	DB	00H
	DB	099H
	DB	00H
	DB	00H
	DB	00H
	DB	099H
	DB	00H
	DB	00H
	DB	00H
	DB	099H
	DB	00H
	DB	00H
	DB	00H
	DB	099H
	DB	00H
	DB	00H
	DB	00H
	DB	099H
	DB	00H
	DB	00H
	DB	00H
	DB	099H
	DB	00H
	DB	00H
	DB	00H
	DB	099H
	DB	00H
	DB	00H
	DB	00H
	DB	099H
	DB	00H
	DB	00H
	DB	00H
	DB	099H
	DB	00H
	DB	00H
	DB	00H
	DB	099H
	DB	00H
	DB	00H
	DB	00H
	DB	099H
	DB	00H
	DB	00H
	DB	00H
	DB	099H
	DB	00H
	DB	00H
	DB	00H
	DB	099H
	DB	00H
	DB	00H
	DB	00H
	DB	099H
	DB	00H
	DB	00H
	DB	00H
	DB	099H
	DB	00H
	DB	00H
	DB	00H
	DB	099H
	DB	00H
	DB	00H
	DB	00H
	DB	099H
	DB	00H
	DB	00H
	DB	00H
	DB	099H
	DB	00H
	DB	00H
	DB	00H
	DB	099H
	DB	00H
	DB	00H
	DB	00H
	DB	099H
	DB	00H
	DB	00H
	DB	00H
	DB	099H
	DB	00H
	DB	00H
	DB	00H
	DB	099H
	DB	00H
	DB	00H
	DB	00H
	DB	099H
	DB	00H
	DB	00H
	DB	00H
	DB	099H
	DB	00H
	DB	00H
	DB	00H
	DB	099H
	DB	00H
	DB	00H
	DB	00H
	DB	099H
	DB	00H
	DB	00H
	DB	00H
	DB	099H
	DB	00H
	DB	00H
	DB	00H
	DB	099H
	DB	00H
	DB	00H
	DB	00H
	DB	099H
	DB	00H
	DB	00H
	DB	00H
	DB	099H
	DB	00H
	DB	00H
	DB	00H
	DB	099H
	DB	00H
	DB	00H
	DB	00H
	DB	099H
	DB	00H
	DB	00H
	DB	00H
	DB	099H
	DB	00H
	DB	00H
	DB	00H
	DB	05eH
	DB	00H
	DB	00H
	DB	00H
	DB	01H
	DB	00H
	DB	00H
	DB	00H
	DB	00H
	DB	00H
	DB	00H
	DB	00H
	DB	00H
	DB	00H
	DB	00H
	DB	00H
	DB	00H
	DB	00H
	DB	00H
	DB	00H
	DB	00H
	DB	00H
	DB	00H
	DB	00H
	DB	00H
	DB	00H
	DB	00H
	DB	00H
	DB	00H
	DB	00H
	DB	00H
	DB	00H
	DB	00H
	DB	00H
	DB	00H
	DB	00H
	DB	00H
	DB	00H
	DB	00H
	DB	00H
	DB	00H
	DB	00H
	DB	00H
	DB	00H
	DB	00H
	DB	00H
	DB	00H
	DB	00H
	DB	00H
	DB	00H
	DB	00H
	DB	00H
	DB	00H
	DB	00H
	DB	00H
	DB	00H
	DB	00H
	DB	00H
	DB	00H
	DB	00H
	DB	00H
	DB	00H
	DB	00H
	DB	00H
	DB	050H
	DB	00H
	DB	00H
	DB	00H
	DB	099H
	DB	00H
	DB	00H
	DB	00H
	DB	099H
	DB	00H
	DB	00H
	DB	00H
	DB	099H
	DB	00H
	DB	00H
	DB	00H
	DB	099H
	DB	00H
	DB	00H
	DB	00H
	DB	099H
	DB	00H
	DB	00H
	DB	00H
	DB	099H
	DB	00H
	DB	00H
	DB	00H
	DB	099H
	DB	00H
	DB	00H
	DB	00H
	DB	099H
	DB	00H
	DB	00H
	DB	00H
	DB	099H
	DB	00H
	DB	00H
	DB	00H
	DB	099H
	DB	00H
	DB	00H
	DB	00H
	DB	099H
	DB	00H
	DB	00H
	DB	00H
	DB	099H
	DB	00H
	DB	00H
	DB	00H
	DB	099H
	DB	00H
	DB	00H
	DB	00H
	DB	099H
	DB	00H
	DB	00H
	DB	00H
	DB	099H
	DB	00H
	DB	00H
	DB	00H
	DB	099H
	DB	00H
	DB	00H
	DB	00H
	DB	099H
	DB	00H
	DB	00H
	DB	00H
	DB	099H
	DB	00H
	DB	00H
	DB	00H
	DB	099H
	DB	00H
	DB	00H
	DB	00H
	DB	099H
	DB	00H
	DB	00H
	DB	00H
	DB	099H
	DB	00H
	DB	00H
	DB	00H
	DB	099H
	DB	00H
	DB	00H
	DB	00H
	DB	099H
	DB	00H
	DB	00H
	DB	00H
	DB	099H
	DB	00H
	DB	00H
	DB	00H
	DB	099H
	DB	00H
	DB	00H
	DB	00H
	DB	099H
	DB	00H
	DB	00H
	DB	00H
	DB	099H
	DB	00H
	DB	00H
	DB	00H
	DB	099H
	DB	00H
	DB	00H
	DB	00H
	DB	099H
	DB	00H
	DB	00H
	DB	00H
	DB	099H
	DB	00H
	DB	00H
	DB	00H
	DB	099H
	DB	00H
	DB	00H
	DB	00H
	DB	099H
	DB	00H
	DB	00H
	DB	00H
	DB	099H
	DB	00H
	DB	00H
	DB	00H
	DB	099H
	DB	00H
	DB	00H
	DB	00H
	DB	099H
	DB	00H
	DB	00H
	DB	00H
	DB	099H
	DB	00H
	DB	00H
	DB	00H
	DB	099H
	DB	00H
	DB	00H
	DB	00H
	DB	099H
	DB	00H
	DB	00H
	DB	00H
	DB	099H
	DB	00H
	DB	00H
	DB	00H
	DB	099H
	DB	00H
	DB	00H
	DB	00H
	DB	099H
	DB	00H
	DB	00H
	DB	00H
	DB	099H
	DB	00H
	DB	00H
	DB	00H
	DB	099H
	DB	00H
	DB	00H
	DB	00H
	DB	099H
	DB	00H
	DB	00H
	DB	00H
	DB	099H
	DB	00H
	DB	00H
	DB	00H
	DB	099H
	DB	00H
	DB	00H
	DB	00H
	DB	099H
	DB	00H
	DB	00H
	DB	00H
	DB	099H
	DB	00H
	DB	00H
	DB	00H
	DB	099H
	DB	00H
	DB	00H
	DB	00H
	DB	099H
	DB	00H
	DB	00H
	DB	00H
	DB	099H
	DB	00H
	DB	00H
	DB	00H
	DB	099H
	DB	00H
	DB	00H
	DB	00H
	DB	099H
	DB	00H
	DB	00H
	DB	00H
	DB	099H
	DB	00H
	DB	00H
	DB	00H
	DB	099H
	DB	00H
	DB	00H
	DB	00H
	DB	099H
	DB	00H
	DB	00H
	DB	00H
	DB	099H
	DB	00H
	DB	00H
	DB	00H
	DB	099H
	DB	00H
	DB	00H
	DB	00H
	DB	099H
	DB	00H
	DB	00H
	DB	00H
	DB	099H
	DB	00H
	DB	00H
	DB	00H
	DB	099H
	DB	00H
	DB	00H
	DB	00H
	DB	099H
	DB	00H
	DB	00H
	DB	00H
	DB	099H
	DB	00H
	DB	00H
	DB	00H
	DB	099H
	DB	00H
	DB	00H
	DB	00H
	DB	099H
	DB	00H
	DB	00H
	DB	00H
	DB	099H
	DB	00H
	DB	00H
	DB	00H
	DB	099H
	DB	00H
	DB	00H
	DB	00H
	DB	099H
	DB	00H
	DB	00H
	DB	00H
	DB	099H
	DB	00H
	DB	00H
	DB	00H
	DB	099H
	DB	00H
	DB	00H
	DB	00H
	DB	099H
	DB	00H
	DB	00H
	DB	00H
	DB	099H
	DB	00H
	DB	00H
	DB	00H
	DB	099H
	DB	00H
	DB	00H
	DB	00H
	DB	099H
	DB	00H
	DB	00H
	DB	00H
	DB	099H
	DB	00H
	DB	00H
	DB	00H
	DB	099H
	DB	00H
	DB	00H
	DB	00H
	DB	099H
	DB	00H
	DB	00H
	DB	00H
	DB	099H
	DB	00H
	DB	00H
	DB	00H
	DB	099H
	DB	00H
	DB	00H
	DB	00H
	DB	099H
	DB	00H
	DB	00H
	DB	00H
	DB	099H
	DB	00H
	DB	00H
	DB	00H
	DB	099H
	DB	00H
	DB	00H
	DB	00H
	DB	099H
	DB	00H
	DB	00H
	DB	00H
	DB	099H
	DB	00H
	DB	00H
	DB	00H
	DB	099H
	DB	00H
	DB	00H
	DB	00H
	DB	099H
	DB	00H
	DB	00H
	DB	00H
	DB	099H
	DB	00H
	DB	00H
	DB	00H
	DB	099H
	DB	00H
	DB	00H
	DB	00H
	DB	099H
	DB	00H
	DB	00H
	DB	00H
	DB	099H
	DB	00H
	DB	00H
	DB	00H
	DB	099H
	DB	00H
	DB	00H
	DB	00H
	DB	099H
	DB	00H
	DB	00H
	DB	00H
	DB	099H
	DB	00H
	DB	00H
	DB	00H
	DB	099H
	DB	00H
	DB	00H
	DB	00H
	DB	099H
	DB	00H
	DB	00H
	DB	00H
	DB	099H
	DB	00H
	DB	00H
	DB	00H
	DB	099H
	DB	00H
	DB	00H
	DB	00H
	DB	099H
	DB	00H
	DB	00H
	DB	00H
	DB	099H
	DB	00H
	DB	00H
	DB	00H
	DB	099H
	DB	00H
	DB	00H
	DB	00H
	DB	099H
	DB	00H
	DB	00H
	DB	00H
	DB	099H
	DB	00H
	DB	00H
	DB	00H
	DB	099H
	DB	00H
	DB	00H
	DB	00H
	DB	099H
	DB	00H
	DB	00H
	DB	00H
	DB	099H
	DB	00H
	DB	00H
	DB	00H
	DB	099H
	DB	00H
	DB	00H
	DB	00H
	DB	099H
	DB	00H
	DB	00H
	DB	00H
	DB	099H
	DB	00H
	DB	00H
	DB	00H
	DB	099H
	DB	00H
	DB	00H
	DB	00H
	DB	099H
	DB	00H
	DB	00H
	DB	00H
	DB	099H
	DB	00H
	DB	00H
	DB	00H
	DB	099H
	DB	00H
	DB	00H
	DB	00H
	DB	099H
	DB	00H
	DB	00H
	DB	00H
	DB	099H
	DB	00H
	DB	00H
	DB	00H
	DB	099H
	DB	00H
	DB	00H
	DB	00H
	DB	099H
	DB	00H
	DB	00H
	DB	00H
	DB	099H
	DB	00H
	DB	00H
	DB	00H
	DB	099H
	DB	00H
	DB	00H
	DB	00H
	DB	099H
	DB	00H
	DB	00H
	DB	00H
	DB	099H
	DB	00H
	DB	00H
	DB	00H
	DB	099H
	DB	00H
	DB	00H
	DB	00H
	DB	099H
	DB	00H
	DB	00H
	DB	00H
	DB	099H
	DB	00H
	DB	00H
	DB	00H
	DB	099H
	DB	00H
	DB	00H
	DB	00H
	DB	099H
	DB	00H
	DB	00H
	DB	00H
	DB	099H
	DB	00H
	DB	00H
	DB	00H
	DB	099H
	DB	00H
	DB	00H
	DB	00H
	DB	099H
	DB	00H
	DB	00H
	DB	00H
	DB	099H
	DB	00H
	DB	00H
	DB	00H
	DB	099H
	DB	00H
	DB	00H
	DB	00H
	DB	099H
	DB	00H
	DB	00H
	DB	00H
	DB	099H
	DB	00H
	DB	00H
	DB	00H
	DB	099H
	DB	00H
	DB	00H
	DB	00H
	DB	099H
	DB	00H
	DB	00H
	DB	00H
	DB	099H
	DB	00H
	DB	00H
	DB	00H
	DB	099H
	DB	00H
	DB	00H
	DB	00H
	DB	099H
	DB	00H
	DB	00H
	DB	00H
	DB	099H
	DB	00H
	DB	00H
	DB	00H
	DB	099H
	DB	00H
	DB	00H
	DB	00H
	DB	099H
	DB	00H
	DB	00H
	DB	00H
	DB	099H
	DB	00H
	DB	00H
	DB	00H
	DB	099H
	DB	00H
	DB	00H
	DB	00H
	DB	099H
	DB	00H
	DB	00H
	DB	00H
	DB	099H
	DB	00H
	DB	00H
	DB	00H
	DB	099H
	DB	00H
	DB	00H
	DB	00H
	DB	099H
	DB	00H
	DB	00H
	DB	00H
	DB	099H
	DB	00H
	DB	00H
	DB	00H
	DB	099H
	DB	00H
	DB	00H
	DB	00H
	DB	099H
	DB	00H
	DB	00H
	DB	00H
	DB	099H
	DB	00H
	DB	00H
	DB	00H
	DB	099H
	DB	00H
	DB	00H
	DB	00H
	DB	099H
	DB	00H
	DB	00H
	DB	00H
	DB	099H
	DB	00H
	DB	00H
	DB	00H
	DB	099H
	DB	00H
	DB	00H
	DB	00H
	DB	099H
	DB	00H
	DB	00H
	DB	00H
	DB	099H
	DB	00H
	DB	00H
	DB	00H
	DB	099H
	DB	00H
	DB	00H
	DB	00H
	DB	099H
	DB	00H
	DB	00H
	DB	00H
	DB	099H
	DB	00H
	DB	00H
	DB	00H
	DB	099H
	DB	00H
	DB	00H
	DB	00H
	DB	099H
	DB	00H
	DB	00H
	DB	00H
	DB	099H
	DB	00H
	DB	00H
	DB	00H
	DB	099H
	DB	00H
	DB	00H
	DB	00H
	DB	099H
	DB	00H
	DB	00H
	DB	00H
	DB	099H
	DB	00H
	DB	00H
	DB	00H
	DB	099H
	DB	00H
	DB	00H
	DB	00H
	DB	099H
	DB	00H
	DB	00H
	DB	00H
	DB	099H
	DB	00H
	DB	00H
	DB	00H
	DB	099H
	DB	00H
	DB	00H
	DB	00H
	DB	099H
	DB	00H
	DB	00H
	DB	00H
	DB	099H
	DB	00H
	DB	00H
	DB	00H
	DB	099H
	DB	00H
	DB	00H
	DB	00H
	DB	099H
	DB	00H
	DB	00H
	DB	00H
	DB	099H
	DB	00H
	DB	00H
	DB	00H
	DB	099H
	DB	00H
	DB	00H
	DB	00H
	DB	099H
	DB	00H
	DB	00H
	DB	00H
	DB	099H
	DB	00H
	DB	00H
	DB	00H
	DB	099H
	DB	00H
	DB	00H
	DB	00H
	DB	099H
	DB	00H
	DB	00H
	DB	00H
	DB	099H
	DB	00H
	DB	00H
	DB	00H
	DB	099H
	DB	00H
	DB	00H
	DB	00H
	DB	099H
	DB	00H
	DB	00H
	DB	00H
	DB	099H
	DB	00H
	DB	00H
	DB	00H
	DB	099H
	DB	00H
	DB	00H
	DB	00H
	DB	099H
	DB	00H
	DB	00H
	DB	00H
	DB	099H
	DB	00H
	DB	00H
	DB	00H
	DB	099H
	DB	00H
	DB	00H
	DB	00H
	DB	099H
	DB	00H
	DB	00H
	DB	00H
	DB	099H
	DB	00H
	DB	00H
	DB	00H
	DB	099H
	DB	00H
	DB	00H
	DB	00H
	DB	099H
	DB	00H
	DB	00H
	DB	00H
	DB	099H
	DB	00H
	DB	00H
	DB	00H
	DB	099H
	DB	00H
	DB	00H
	DB	00H
	DB	099H
	DB	00H
	DB	00H
	DB	00H
	DB	099H
	DB	00H
	DB	00H
	DB	00H
	DB	099H
	DB	00H
	DB	00H
	DB	00H
	DB	099H
	DB	00H
	DB	00H
	DB	00H
	DB	099H
	DB	00H
	DB	00H
	DB	00H
	DB	099H
	DB	00H
	DB	00H
	DB	00H
	DB	099H
	DB	00H
	DB	00H
	DB	00H
	DB	099H
	DB	00H
	DB	00H
	DB	00H
	DB	099H
	DB	00H
	DB	00H
	DB	00H
	DB	099H
	DB	00H
	DB	00H
	DB	00H
	DB	099H
	DB	00H
	DB	00H
	DB	00H
	DB	099H
	DB	00H
	DB	00H
	DB	00H
	DB	099H
	DB	00H
	DB	00H
	DB	00H
	DB	099H
	DB	00H
	DB	00H
	DB	00H
	DB	099H
	DB	00H
	DB	00H
	DB	00H
	DB	099H
	DB	00H
	DB	00H
	DB	00H
	DB	099H
	DB	00H
	DB	00H
	DB	00H
	DB	099H
	DB	00H
	DB	00H
	DB	00H
	DB	099H
	DB	00H
	DB	00H
	DB	00H
	DB	099H
	DB	00H
	DB	00H
	DB	00H
	DB	099H
	DB	00H
	DB	00H
	DB	00H
	DB	099H
	DB	00H
	DB	00H
	DB	00H
	DB	099H
	DB	00H
	DB	00H
	DB	00H
	DB	099H
	DB	00H
	DB	00H
	DB	00H
	DB	099H
	DB	00H
	DB	00H
	DB	00H
	DB	099H
	DB	00H
	DB	00H
	DB	00H
	DB	099H
	DB	00H
	DB	00H
	DB	00H
	DB	099H
	DB	00H
	DB	00H
	DB	00H
	DB	099H
	DB	00H
	DB	00H
	DB	00H
	DB	099H
	DB	00H
	DB	00H
	DB	00H
	DB	099H
	DB	00H
	DB	00H
	DB	00H
	DB	099H
	DB	00H
	DB	00H
	DB	00H
	DB	099H
	DB	00H
	DB	00H
	DB	00H
	DB	099H
	DB	00H
	DB	00H
	DB	00H
	DB	099H
	DB	00H
	DB	00H
	DB	00H
	DB	099H
	DB	00H
	DB	00H
	DB	00H
	DB	099H
	DB	00H
	DB	00H
	DB	00H
	DB	099H
	DB	00H
	DB	00H
	DB	00H
	DB	099H
	DB	00H
	DB	00H
	DB	00H
	DB	099H
	DB	00H
	DB	00H
	DB	00H
	DB	099H
	DB	00H
	DB	00H
	DB	00H
	DB	099H
	DB	00H
	DB	00H
	DB	00H
	DB	099H
	DB	00H
	DB	00H
	DB	00H
	DB	099H
	DB	00H
	DB	00H
	DB	00H
	DB	099H
	DB	00H
	DB	00H
	DB	00H
	DB	099H
	DB	00H
	DB	00H
	DB	00H
	DB	099H
	DB	00H
	DB	00H
	DB	00H
	DB	099H
	DB	00H
	DB	00H
	DB	00H
	DB	099H
	DB	00H
	DB	00H
	DB	00H
	DB	099H
	DB	00H
	DB	00H
	DB	00H
	DB	099H
	DB	00H
	DB	00H
	DB	00H
	DB	099H
	DB	00H
	DB	00H
	DB	00H
	DB	099H
	DB	00H
	DB	00H
	DB	00H
	DB	099H
	DB	00H
	DB	00H
	DB	00H
	DB	099H
	DB	00H
	DB	00H
	DB	00H
	DB	099H
	DB	00H
	DB	00H
	DB	00H
	DB	099H
	DB	00H
	DB	00H
	DB	00H
	DB	099H
	DB	00H
	DB	00H
	DB	00H
	DB	099H
	DB	00H
	DB	00H
	DB	00H
	DB	099H
	DB	00H
	DB	00H
	DB	00H
	DB	099H
	DB	00H
	DB	00H
	DB	00H
	DB	04eH
	DB	00H
	DB	00H
	DB	00H
	DB	00H
	DB	00H
	DB	00H
	DB	00H
	DB	00H
	DB	00H
	DB	00H
	DB	00H
	DB	00H
	DB	00H
	DB	00H
	DB	00H
	DB	00H
	DB	00H
	DB	00H
	DB	00H
	DB	00H
	DB	00H
	DB	00H
	DB	00H
	DB	00H
	DB	00H
	DB	00H
	DB	00H
	DB	00H
	DB	00H
	DB	00H
	DB	00H
	DB	00H
	DB	00H
	DB	00H
	DB	00H
	DB	00H
	DB	00H
	DB	00H
	DB	00H
	DB	00H
	DB	00H
	DB	00H
	DB	00H
	DB	00H
	DB	00H
	DB	00H
	DB	00H
	DB	00H
	DB	00H
	DB	00H
	DB	00H
	DB	00H
	DB	00H
	DB	00H
	DB	00H
	DB	037H
	DB	00H
	DB	00H
	DB	00H
	DB	098H
	DB	00H
	DB	00H
	DB	00H
	DB	099H
	DB	00H
	DB	00H
	DB	00H
	DB	099H
	DB	00H
	DB	00H
	DB	00H
	DB	099H
	DB	00H
	DB	00H
	DB	00H
	DB	099H
	DB	00H
	DB	00H
	DB	00H
	DB	099H
	DB	00H
	DB	00H
	DB	00H
	DB	099H
	DB	00H
	DB	00H
	DB	00H
	DB	099H
	DB	00H
	DB	00H
	DB	00H
	DB	099H
	DB	00H
	DB	00H
	DB	00H
	DB	099H
	DB	00H
	DB	00H
	DB	00H
	DB	099H
	DB	00H
	DB	00H
	DB	00H
	DB	099H
	DB	00H
	DB	00H
	DB	00H
	DB	099H
	DB	00H
	DB	00H
	DB	00H
	DB	099H
	DB	00H
	DB	00H
	DB	00H
	DB	099H
	DB	00H
	DB	00H
	DB	00H
	DB	099H
	DB	00H
	DB	00H
	DB	00H
	DB	099H
	DB	00H
	DB	00H
	DB	00H
	DB	099H
	DB	00H
	DB	00H
	DB	00H
	DB	099H
	DB	00H
	DB	00H
	DB	00H
	DB	099H
	DB	00H
	DB	00H
	DB	00H
	DB	099H
	DB	00H
	DB	00H
	DB	00H
	DB	099H
	DB	00H
	DB	00H
	DB	00H
	DB	099H
	DB	00H
	DB	00H
	DB	00H
	DB	099H
	DB	00H
	DB	00H
	DB	00H
	DB	099H
	DB	00H
	DB	00H
	DB	00H
	DB	099H
	DB	00H
	DB	00H
	DB	00H
	DB	099H
	DB	00H
	DB	00H
	DB	00H
	DB	099H
	DB	00H
	DB	00H
	DB	00H
	DB	099H
	DB	00H
	DB	00H
	DB	00H
	DB	099H
	DB	00H
	DB	00H
	DB	00H
	DB	099H
	DB	00H
	DB	00H
	DB	00H
	DB	099H
	DB	00H
	DB	00H
	DB	00H
	DB	099H
	DB	00H
	DB	00H
	DB	00H
	DB	099H
	DB	00H
	DB	00H
	DB	00H
	DB	099H
	DB	00H
	DB	00H
	DB	00H
	DB	099H
	DB	00H
	DB	00H
	DB	00H
	DB	099H
	DB	00H
	DB	00H
	DB	00H
	DB	099H
	DB	00H
	DB	00H
	DB	00H
	DB	099H
	DB	00H
	DB	00H
	DB	00H
	DB	099H
	DB	00H
	DB	00H
	DB	00H
	DB	099H
	DB	00H
	DB	00H
	DB	00H
	DB	099H
	DB	00H
	DB	00H
	DB	00H
	DB	099H
	DB	00H
	DB	00H
	DB	00H
	DB	099H
	DB	00H
	DB	00H
	DB	00H
	DB	099H
	DB	00H
	DB	00H
	DB	00H
	DB	099H
	DB	00H
	DB	00H
	DB	00H
	DB	099H
	DB	00H
	DB	00H
	DB	00H
	DB	099H
	DB	00H
	DB	00H
	DB	00H
	DB	099H
	DB	00H
	DB	00H
	DB	00H
	DB	099H
	DB	00H
	DB	00H
	DB	00H
	DB	099H
	DB	00H
	DB	00H
	DB	00H
	DB	099H
	DB	00H
	DB	00H
	DB	00H
	DB	099H
	DB	00H
	DB	00H
	DB	00H
	DB	099H
	DB	00H
	DB	00H
	DB	00H
	DB	099H
	DB	00H
	DB	00H
	DB	00H
	DB	099H
	DB	00H
	DB	00H
	DB	00H
	DB	099H
	DB	00H
	DB	00H
	DB	00H
	DB	099H
	DB	00H
	DB	00H
	DB	00H
	DB	099H
	DB	00H
	DB	00H
	DB	00H
	DB	099H
	DB	00H
	DB	00H
	DB	00H
	DB	099H
	DB	00H
	DB	00H
	DB	00H
	DB	099H
	DB	00H
	DB	00H
	DB	00H
	DB	099H
	DB	00H
	DB	00H
	DB	00H
	DB	099H
	DB	00H
	DB	00H
	DB	00H
	DB	099H
	DB	00H
	DB	00H
	DB	00H
	DB	099H
	DB	00H
	DB	00H
	DB	00H
	DB	099H
	DB	00H
	DB	00H
	DB	00H
	DB	099H
	DB	00H
	DB	00H
	DB	00H
	DB	099H
	DB	00H
	DB	00H
	DB	00H
	DB	099H
	DB	00H
	DB	00H
	DB	00H
	DB	099H
	DB	00H
	DB	00H
	DB	00H
	DB	099H
	DB	00H
	DB	00H
	DB	00H
	DB	099H
	DB	00H
	DB	00H
	DB	00H
	DB	099H
	DB	00H
	DB	00H
	DB	00H
	DB	099H
	DB	00H
	DB	00H
	DB	00H
	DB	099H
	DB	00H
	DB	00H
	DB	00H
	DB	099H
	DB	00H
	DB	00H
	DB	00H
	DB	099H
	DB	00H
	DB	00H
	DB	00H
	DB	099H
	DB	00H
	DB	00H
	DB	00H
	DB	099H
	DB	00H
	DB	00H
	DB	00H
	DB	099H
	DB	00H
	DB	00H
	DB	00H
	DB	099H
	DB	00H
	DB	00H
	DB	00H
	DB	099H
	DB	00H
	DB	00H
	DB	00H
	DB	099H
	DB	00H
	DB	00H
	DB	00H
	DB	099H
	DB	00H
	DB	00H
	DB	00H
	DB	099H
	DB	00H
	DB	00H
	DB	00H
	DB	099H
	DB	00H
	DB	00H
	DB	00H
	DB	099H
	DB	00H
	DB	00H
	DB	00H
	DB	099H
	DB	00H
	DB	00H
	DB	00H
	DB	099H
	DB	00H
	DB	00H
	DB	00H
	DB	099H
	DB	00H
	DB	00H
	DB	00H
	DB	099H
	DB	00H
	DB	00H
	DB	00H
	DB	099H
	DB	00H
	DB	00H
	DB	00H
	DB	099H
	DB	00H
	DB	00H
	DB	00H
	DB	099H
	DB	00H
	DB	00H
	DB	00H
	DB	099H
	DB	00H
	DB	00H
	DB	00H
	DB	099H
	DB	00H
	DB	00H
	DB	00H
	DB	099H
	DB	00H
	DB	00H
	DB	00H
	DB	099H
	DB	00H
	DB	00H
	DB	00H
	DB	099H
	DB	00H
	DB	00H
	DB	00H
	DB	099H
	DB	00H
	DB	00H
	DB	00H
	DB	099H
	DB	00H
	DB	00H
	DB	00H
	DB	099H
	DB	00H
	DB	00H
	DB	00H
	DB	099H
	DB	00H
	DB	00H
	DB	00H
	DB	099H
	DB	00H
	DB	00H
	DB	00H
	DB	099H
	DB	00H
	DB	00H
	DB	00H
	DB	099H
	DB	00H
	DB	00H
	DB	00H
	DB	099H
	DB	00H
	DB	00H
	DB	00H
	DB	099H
	DB	00H
	DB	00H
	DB	00H
	DB	099H
	DB	00H
	DB	00H
	DB	00H
	DB	099H
	DB	00H
	DB	00H
	DB	00H
	DB	099H
	DB	00H
	DB	00H
	DB	00H
	DB	099H
	DB	00H
	DB	00H
	DB	00H
	DB	099H
	DB	00H
	DB	00H
	DB	00H
	DB	099H
	DB	00H
	DB	00H
	DB	00H
	DB	099H
	DB	00H
	DB	00H
	DB	00H
	DB	099H
	DB	00H
	DB	00H
	DB	00H
	DB	099H
	DB	00H
	DB	00H
	DB	00H
	DB	099H
	DB	00H
	DB	00H
	DB	00H
	DB	099H
	DB	00H
	DB	00H
	DB	00H
	DB	099H
	DB	00H
	DB	00H
	DB	00H
	DB	099H
	DB	00H
	DB	00H
	DB	00H
	DB	099H
	DB	00H
	DB	00H
	DB	00H
	DB	099H
	DB	00H
	DB	00H
	DB	00H
	DB	099H
	DB	00H
	DB	00H
	DB	00H
	DB	099H
	DB	00H
	DB	00H
	DB	00H
	DB	099H
	DB	00H
	DB	00H
	DB	00H
	DB	099H
	DB	00H
	DB	00H
	DB	00H
	DB	099H
	DB	00H
	DB	00H
	DB	00H
	DB	099H
	DB	00H
	DB	00H
	DB	00H
	DB	099H
	DB	00H
	DB	00H
	DB	00H
	DB	099H
	DB	00H
	DB	00H
	DB	00H
	DB	099H
	DB	00H
	DB	00H
	DB	00H
	DB	099H
	DB	00H
	DB	00H
	DB	00H
	DB	099H
	DB	00H
	DB	00H
	DB	00H
	DB	099H
	DB	00H
	DB	00H
	DB	00H
	DB	099H
	DB	00H
	DB	00H
	DB	00H
	DB	099H
	DB	00H
	DB	00H
	DB	00H
	DB	099H
	DB	00H
	DB	00H
	DB	00H
	DB	099H
	DB	00H
	DB	00H
	DB	00H
	DB	099H
	DB	00H
	DB	00H
	DB	00H
	DB	099H
	DB	00H
	DB	00H
	DB	00H
	DB	099H
	DB	00H
	DB	00H
	DB	00H
	DB	099H
	DB	00H
	DB	00H
	DB	00H
	DB	099H
	DB	00H
	DB	00H
	DB	00H
	DB	099H
	DB	00H
	DB	00H
	DB	00H
	DB	099H
	DB	00H
	DB	00H
	DB	00H
	DB	099H
	DB	00H
	DB	00H
	DB	00H
	DB	099H
	DB	00H
	DB	00H
	DB	00H
	DB	099H
	DB	00H
	DB	00H
	DB	00H
	DB	099H
	DB	00H
	DB	00H
	DB	00H
	DB	099H
	DB	00H
	DB	00H
	DB	00H
	DB	099H
	DB	00H
	DB	00H
	DB	00H
	DB	099H
	DB	00H
	DB	00H
	DB	00H
	DB	099H
	DB	00H
	DB	00H
	DB	00H
	DB	099H
	DB	00H
	DB	00H
	DB	00H
	DB	099H
	DB	00H
	DB	00H
	DB	00H
	DB	099H
	DB	00H
	DB	00H
	DB	00H
	DB	099H
	DB	00H
	DB	00H
	DB	00H
	DB	099H
	DB	00H
	DB	00H
	DB	00H
	DB	099H
	DB	00H
	DB	00H
	DB	00H
	DB	099H
	DB	00H
	DB	00H
	DB	00H
	DB	099H
	DB	00H
	DB	00H
	DB	00H
	DB	099H
	DB	00H
	DB	00H
	DB	00H
	DB	099H
	DB	00H
	DB	00H
	DB	00H
	DB	099H
	DB	00H
	DB	00H
	DB	00H
	DB	099H
	DB	00H
	DB	00H
	DB	00H
	DB	099H
	DB	00H
	DB	00H
	DB	00H
	DB	099H
	DB	00H
	DB	00H
	DB	00H
	DB	099H
	DB	00H
	DB	00H
	DB	00H
	DB	099H
	DB	00H
	DB	00H
	DB	00H
	DB	099H
	DB	00H
	DB	00H
	DB	00H
	DB	099H
	DB	00H
	DB	00H
	DB	00H
	DB	099H
	DB	00H
	DB	00H
	DB	00H
	DB	099H
	DB	00H
	DB	00H
	DB	00H
	DB	099H
	DB	00H
	DB	00H
	DB	00H
	DB	099H
	DB	00H
	DB	00H
	DB	00H
	DB	099H
	DB	00H
	DB	00H
	DB	00H
	DB	099H
	DB	00H
	DB	00H
	DB	00H
	DB	099H
	DB	00H
	DB	00H
	DB	00H
	DB	099H
	DB	00H
	DB	00H
	DB	00H
	DB	099H
	DB	00H
	DB	00H
	DB	00H
	DB	099H
	DB	00H
	DB	00H
	DB	00H
	DB	099H
	DB	00H
	DB	00H
	DB	00H
	DB	099H
	DB	00H
	DB	00H
	DB	00H
	DB	099H
	DB	00H
	DB	00H
	DB	00H
	DB	099H
	DB	00H
	DB	00H
	DB	00H
	DB	099H
	DB	00H
	DB	00H
	DB	00H
	DB	099H
	DB	00H
	DB	00H
	DB	00H
	DB	099H
	DB	00H
	DB	00H
	DB	00H
	DB	099H
	DB	00H
	DB	00H
	DB	00H
	DB	099H
	DB	00H
	DB	00H
	DB	00H
	DB	099H
	DB	00H
	DB	00H
	DB	00H
	DB	099H
	DB	00H
	DB	00H
	DB	00H
	DB	099H
	DB	00H
	DB	00H
	DB	00H
	DB	099H
	DB	00H
	DB	00H
	DB	00H
	DB	099H
	DB	00H
	DB	00H
	DB	00H
	DB	099H
	DB	00H
	DB	00H
	DB	00H
	DB	099H
	DB	00H
	DB	00H
	DB	00H
	DB	099H
	DB	00H
	DB	00H
	DB	00H
	DB	099H
	DB	00H
	DB	00H
	DB	00H
	DB	099H
	DB	00H
	DB	00H
	DB	00H
	DB	099H
	DB	00H
	DB	00H
	DB	00H
	DB	099H
	DB	00H
	DB	00H
	DB	00H
	DB	099H
	DB	00H
	DB	00H
	DB	00H
	DB	099H
	DB	00H
	DB	00H
	DB	00H
	DB	099H
	DB	00H
	DB	00H
	DB	00H
	DB	099H
	DB	00H
	DB	00H
	DB	00H
	DB	099H
	DB	00H
	DB	00H
	DB	00H
	DB	099H
	DB	00H
	DB	00H
	DB	00H
	DB	099H
	DB	00H
	DB	00H
	DB	00H
	DB	099H
	DB	00H
	DB	00H
	DB	00H
	DB	099H
	DB	00H
	DB	00H
	DB	00H
	DB	099H
	DB	00H
	DB	00H
	DB	00H
	DB	099H
	DB	00H
	DB	00H
	DB	00H
	DB	099H
	DB	00H
	DB	00H
	DB	00H
	DB	099H
	DB	00H
	DB	00H
	DB	00H
	DB	099H
	DB	00H
	DB	00H
	DB	00H
	DB	099H
	DB	00H
	DB	00H
	DB	00H
	DB	099H
	DB	00H
	DB	00H
	DB	00H
	DB	099H
	DB	00H
	DB	00H
	DB	00H
	DB	099H
	DB	00H
	DB	00H
	DB	00H
	DB	099H
	DB	00H
	DB	00H
	DB	00H
	DB	099H
	DB	00H
	DB	00H
	DB	00H
	DB	099H
	DB	00H
	DB	00H
	DB	00H
	DB	099H
	DB	00H
	DB	00H
	DB	00H
	DB	099H
	DB	00H
	DB	00H
	DB	00H
	DB	099H
	DB	00H
	DB	00H
	DB	00H
	DB	099H
	DB	00H
	DB	00H
	DB	00H
	DB	099H
	DB	00H
	DB	00H
	DB	00H
	DB	099H
	DB	00H
	DB	00H
	DB	00H
	DB	099H
	DB	00H
	DB	00H
	DB	00H
	DB	099H
	DB	00H
	DB	00H
	DB	00H
	DB	099H
	DB	00H
	DB	00H
	DB	00H
	DB	099H
	DB	00H
	DB	00H
	DB	00H
	DB	099H
	DB	00H
	DB	00H
	DB	00H
	DB	099H
	DB	00H
	DB	00H
	DB	00H
	DB	099H
	DB	00H
	DB	00H
	DB	00H
	DB	099H
	DB	00H
	DB	00H
	DB	00H
	DB	099H
	DB	00H
	DB	00H
	DB	00H
	DB	099H
	DB	00H
	DB	00H
	DB	00H
	DB	099H
	DB	00H
	DB	00H
	DB	00H
	DB	099H
	DB	00H
	DB	00H
	DB	00H
	DB	099H
	DB	00H
	DB	00H
	DB	00H
	DB	099H
	DB	00H
	DB	00H
	DB	00H
	DB	099H
	DB	00H
	DB	00H
	DB	00H
	DB	099H
	DB	00H
	DB	00H
	DB	00H
	DB	099H
	DB	00H
	DB	00H
	DB	00H
	DB	099H
	DB	00H
	DB	00H
	DB	00H
	DB	099H
	DB	00H
	DB	00H
	DB	00H
	DB	099H
	DB	00H
	DB	00H
	DB	00H
	DB	099H
	DB	00H
	DB	00H
	DB	00H
	DB	099H
	DB	00H
	DB	00H
	DB	00H
	DB	099H
	DB	00H
	DB	00H
	DB	00H
	DB	099H
	DB	00H
	DB	00H
	DB	00H
	DB	098H
	DB	00H
	DB	00H
	DB	00H
	DB	035H
	DB	00H
	DB	00H
	DB	00H
	DB	00H
	DB	00H
	DB	00H
	DB	00H
	DB	00H
	DB	00H
	DB	00H
	DB	00H
	DB	00H
	DB	00H
	DB	00H
	DB	00H
	DB	00H
	DB	00H
	DB	00H
	DB	00H
	DB	00H
	DB	00H
	DB	00H
	DB	00H
	DB	00H
	DB	00H
	DB	00H
	DB	00H
	DB	00H
	DB	00H
	DB	00H
	DB	00H
	DB	00H
	DB	00H
	DB	00H
	DB	00H
	DB	00H
	DB	00H
	DB	00H
	DB	00H
	DB	00H
	DB	00H
	DB	00H
	DB	00H
	DB	00H
	DB	00H
	DB	00H
	DB	00H
	DB	015H
	DB	00H
	DB	00H
	DB	00H
	DB	092H
	DB	00H
	DB	00H
	DB	00H
	DB	099H
	DB	00H
	DB	00H
	DB	00H
	DB	099H
	DB	00H
	DB	00H
	DB	00H
	DB	099H
	DB	00H
	DB	00H
	DB	00H
	DB	099H
	DB	00H
	DB	00H
	DB	00H
	DB	099H
	DB	00H
	DB	00H
	DB	00H
	DB	099H
	DB	00H
	DB	00H
	DB	00H
	DB	099H
	DB	00H
	DB	00H
	DB	00H
	DB	099H
	DB	00H
	DB	00H
	DB	00H
	DB	099H
	DB	00H
	DB	00H
	DB	00H
	DB	099H
	DB	00H
	DB	00H
	DB	00H
	DB	099H
	DB	00H
	DB	00H
	DB	00H
	DB	099H
	DB	00H
	DB	00H
	DB	00H
	DB	099H
	DB	00H
	DB	00H
	DB	00H
	DB	099H
	DB	00H
	DB	00H
	DB	00H
	DB	099H
	DB	00H
	DB	00H
	DB	00H
	DB	099H
	DB	00H
	DB	00H
	DB	00H
	DB	099H
	DB	00H
	DB	00H
	DB	00H
	DB	099H
	DB	00H
	DB	00H
	DB	00H
	DB	099H
	DB	00H
	DB	00H
	DB	00H
	DB	099H
	DB	00H
	DB	00H
	DB	00H
	DB	099H
	DB	00H
	DB	00H
	DB	00H
	DB	099H
	DB	00H
	DB	00H
	DB	00H
	DB	099H
	DB	00H
	DB	00H
	DB	00H
	DB	099H
	DB	00H
	DB	00H
	DB	00H
	DB	099H
	DB	00H
	DB	00H
	DB	00H
	DB	099H
	DB	00H
	DB	00H
	DB	00H
	DB	099H
	DB	00H
	DB	00H
	DB	00H
	DB	099H
	DB	00H
	DB	00H
	DB	00H
	DB	099H
	DB	00H
	DB	00H
	DB	00H
	DB	099H
	DB	00H
	DB	00H
	DB	00H
	DB	099H
	DB	00H
	DB	00H
	DB	00H
	DB	099H
	DB	00H
	DB	00H
	DB	00H
	DB	099H
	DB	00H
	DB	00H
	DB	00H
	DB	099H
	DB	00H
	DB	00H
	DB	00H
	DB	099H
	DB	00H
	DB	00H
	DB	00H
	DB	099H
	DB	00H
	DB	00H
	DB	00H
	DB	099H
	DB	00H
	DB	00H
	DB	00H
	DB	099H
	DB	00H
	DB	00H
	DB	00H
	DB	099H
	DB	00H
	DB	00H
	DB	00H
	DB	099H
	DB	00H
	DB	00H
	DB	00H
	DB	099H
	DB	00H
	DB	00H
	DB	00H
	DB	099H
	DB	00H
	DB	00H
	DB	00H
	DB	099H
	DB	00H
	DB	00H
	DB	00H
	DB	099H
	DB	00H
	DB	00H
	DB	00H
	DB	099H
	DB	00H
	DB	00H
	DB	00H
	DB	099H
	DB	00H
	DB	00H
	DB	00H
	DB	099H
	DB	00H
	DB	00H
	DB	00H
	DB	099H
	DB	00H
	DB	00H
	DB	00H
	DB	099H
	DB	00H
	DB	00H
	DB	00H
	DB	099H
	DB	00H
	DB	00H
	DB	00H
	DB	099H
	DB	00H
	DB	00H
	DB	00H
	DB	099H
	DB	00H
	DB	00H
	DB	00H
	DB	099H
	DB	00H
	DB	00H
	DB	00H
	DB	099H
	DB	00H
	DB	00H
	DB	00H
	DB	099H
	DB	00H
	DB	00H
	DB	00H
	DB	099H
	DB	00H
	DB	00H
	DB	00H
	DB	099H
	DB	00H
	DB	00H
	DB	00H
	DB	099H
	DB	00H
	DB	00H
	DB	00H
	DB	099H
	DB	00H
	DB	00H
	DB	00H
	DB	099H
	DB	00H
	DB	00H
	DB	00H
	DB	099H
	DB	00H
	DB	00H
	DB	00H
	DB	099H
	DB	00H
	DB	00H
	DB	00H
	DB	099H
	DB	00H
	DB	00H
	DB	00H
	DB	099H
	DB	00H
	DB	00H
	DB	00H
	DB	099H
	DB	00H
	DB	00H
	DB	00H
	DB	099H
	DB	00H
	DB	00H
	DB	00H
	DB	099H
	DB	00H
	DB	00H
	DB	00H
	DB	099H
	DB	00H
	DB	00H
	DB	00H
	DB	099H
	DB	00H
	DB	00H
	DB	00H
	DB	099H
	DB	00H
	DB	00H
	DB	00H
	DB	099H
	DB	00H
	DB	00H
	DB	00H
	DB	099H
	DB	00H
	DB	00H
	DB	00H
	DB	099H
	DB	00H
	DB	00H
	DB	00H
	DB	099H
	DB	00H
	DB	00H
	DB	00H
	DB	099H
	DB	00H
	DB	00H
	DB	00H
	DB	099H
	DB	00H
	DB	00H
	DB	00H
	DB	099H
	DB	00H
	DB	00H
	DB	00H
	DB	099H
	DB	00H
	DB	00H
	DB	00H
	DB	099H
	DB	00H
	DB	00H
	DB	00H
	DB	099H
	DB	00H
	DB	00H
	DB	00H
	DB	099H
	DB	00H
	DB	00H
	DB	00H
	DB	099H
	DB	00H
	DB	00H
	DB	00H
	DB	099H
	DB	00H
	DB	00H
	DB	00H
	DB	099H
	DB	00H
	DB	00H
	DB	00H
	DB	099H
	DB	00H
	DB	00H
	DB	00H
	DB	099H
	DB	00H
	DB	00H
	DB	00H
	DB	099H
	DB	00H
	DB	00H
	DB	00H
	DB	099H
	DB	00H
	DB	00H
	DB	00H
	DB	099H
	DB	00H
	DB	00H
	DB	00H
	DB	099H
	DB	00H
	DB	00H
	DB	00H
	DB	099H
	DB	00H
	DB	00H
	DB	00H
	DB	099H
	DB	00H
	DB	00H
	DB	00H
	DB	099H
	DB	00H
	DB	00H
	DB	00H
	DB	099H
	DB	00H
	DB	00H
	DB	00H
	DB	099H
	DB	00H
	DB	00H
	DB	00H
	DB	099H
	DB	00H
	DB	00H
	DB	00H
	DB	099H
	DB	00H
	DB	00H
	DB	00H
	DB	099H
	DB	00H
	DB	00H
	DB	00H
	DB	099H
	DB	00H
	DB	00H
	DB	00H
	DB	099H
	DB	00H
	DB	00H
	DB	00H
	DB	099H
	DB	00H
	DB	00H
	DB	00H
	DB	099H
	DB	00H
	DB	00H
	DB	00H
	DB	099H
	DB	00H
	DB	00H
	DB	00H
	DB	099H
	DB	00H
	DB	00H
	DB	00H
	DB	099H
	DB	00H
	DB	00H
	DB	00H
	DB	099H
	DB	00H
	DB	00H
	DB	00H
	DB	099H
	DB	00H
	DB	00H
	DB	00H
	DB	099H
	DB	00H
	DB	00H
	DB	00H
	DB	099H
	DB	00H
	DB	00H
	DB	00H
	DB	099H
	DB	00H
	DB	00H
	DB	00H
	DB	099H
	DB	00H
	DB	00H
	DB	00H
	DB	099H
	DB	00H
	DB	00H
	DB	00H
	DB	099H
	DB	00H
	DB	00H
	DB	00H
	DB	099H
	DB	00H
	DB	00H
	DB	00H
	DB	099H
	DB	00H
	DB	00H
	DB	00H
	DB	099H
	DB	00H
	DB	00H
	DB	00H
	DB	099H
	DB	00H
	DB	00H
	DB	00H
	DB	099H
	DB	00H
	DB	00H
	DB	00H
	DB	099H
	DB	00H
	DB	00H
	DB	00H
	DB	099H
	DB	00H
	DB	00H
	DB	00H
	DB	099H
	DB	00H
	DB	00H
	DB	00H
	DB	099H
	DB	00H
	DB	00H
	DB	00H
	DB	099H
	DB	00H
	DB	00H
	DB	00H
	DB	099H
	DB	00H
	DB	00H
	DB	00H
	DB	099H
	DB	00H
	DB	00H
	DB	00H
	DB	099H
	DB	00H
	DB	00H
	DB	00H
	DB	099H
	DB	00H
	DB	00H
	DB	00H
	DB	099H
	DB	00H
	DB	00H
	DB	00H
	DB	099H
	DB	00H
	DB	00H
	DB	00H
	DB	099H
	DB	00H
	DB	00H
	DB	00H
	DB	099H
	DB	00H
	DB	00H
	DB	00H
	DB	099H
	DB	00H
	DB	00H
	DB	00H
	DB	099H
	DB	00H
	DB	00H
	DB	00H
	DB	099H
	DB	00H
	DB	00H
	DB	00H
	DB	099H
	DB	00H
	DB	00H
	DB	00H
	DB	099H
	DB	00H
	DB	00H
	DB	00H
	DB	099H
	DB	00H
	DB	00H
	DB	00H
	DB	099H
	DB	00H
	DB	00H
	DB	00H
	DB	099H
	DB	00H
	DB	00H
	DB	00H
	DB	099H
	DB	00H
	DB	00H
	DB	00H
	DB	099H
	DB	00H
	DB	00H
	DB	00H
	DB	099H
	DB	00H
	DB	00H
	DB	00H
	DB	099H
	DB	00H
	DB	00H
	DB	00H
	DB	099H
	DB	00H
	DB	00H
	DB	00H
	DB	099H
	DB	00H
	DB	00H
	DB	00H
	DB	099H
	DB	00H
	DB	00H
	DB	00H
	DB	099H
	DB	00H
	DB	00H
	DB	00H
	DB	099H
	DB	00H
	DB	00H
	DB	00H
	DB	099H
	DB	00H
	DB	00H
	DB	00H
	DB	099H
	DB	00H
	DB	00H
	DB	00H
	DB	099H
	DB	00H
	DB	00H
	DB	00H
	DB	099H
	DB	00H
	DB	00H
	DB	00H
	DB	099H
	DB	00H
	DB	00H
	DB	00H
	DB	099H
	DB	00H
	DB	00H
	DB	00H
	DB	099H
	DB	00H
	DB	00H
	DB	00H
	DB	099H
	DB	00H
	DB	00H
	DB	00H
	DB	099H
	DB	00H
	DB	00H
	DB	00H
	DB	099H
	DB	00H
	DB	00H
	DB	00H
	DB	099H
	DB	00H
	DB	00H
	DB	00H
	DB	099H
	DB	00H
	DB	00H
	DB	00H
	DB	099H
	DB	00H
	DB	00H
	DB	00H
	DB	099H
	DB	00H
	DB	00H
	DB	00H
	DB	099H
	DB	00H
	DB	00H
	DB	00H
	DB	099H
	DB	00H
	DB	00H
	DB	00H
	DB	099H
	DB	00H
	DB	00H
	DB	00H
	DB	099H
	DB	00H
	DB	00H
	DB	00H
	DB	099H
	DB	00H
	DB	00H
	DB	00H
	DB	099H
	DB	00H
	DB	00H
	DB	00H
	DB	099H
	DB	00H
	DB	00H
	DB	00H
	DB	099H
	DB	00H
	DB	00H
	DB	00H
	DB	099H
	DB	00H
	DB	00H
	DB	00H
	DB	099H
	DB	00H
	DB	00H
	DB	00H
	DB	099H
	DB	00H
	DB	00H
	DB	00H
	DB	099H
	DB	00H
	DB	00H
	DB	00H
	DB	099H
	DB	00H
	DB	00H
	DB	00H
	DB	099H
	DB	00H
	DB	00H
	DB	00H
	DB	099H
	DB	00H
	DB	00H
	DB	00H
	DB	099H
	DB	00H
	DB	00H
	DB	00H
	DB	099H
	DB	00H
	DB	00H
	DB	00H
	DB	099H
	DB	00H
	DB	00H
	DB	00H
	DB	099H
	DB	00H
	DB	00H
	DB	00H
	DB	099H
	DB	00H
	DB	00H
	DB	00H
	DB	099H
	DB	00H
	DB	00H
	DB	00H
	DB	099H
	DB	00H
	DB	00H
	DB	00H
	DB	099H
	DB	00H
	DB	00H
	DB	00H
	DB	099H
	DB	00H
	DB	00H
	DB	00H
	DB	099H
	DB	00H
	DB	00H
	DB	00H
	DB	099H
	DB	00H
	DB	00H
	DB	00H
	DB	099H
	DB	00H
	DB	00H
	DB	00H
	DB	099H
	DB	00H
	DB	00H
	DB	00H
	DB	099H
	DB	00H
	DB	00H
	DB	00H
	DB	099H
	DB	00H
	DB	00H
	DB	00H
	DB	099H
	DB	00H
	DB	00H
	DB	00H
	DB	099H
	DB	00H
	DB	00H
	DB	00H
	DB	099H
	DB	00H
	DB	00H
	DB	00H
	DB	099H
	DB	00H
	DB	00H
	DB	00H
	DB	099H
	DB	00H
	DB	00H
	DB	00H
	DB	099H
	DB	00H
	DB	00H
	DB	00H
	DB	099H
	DB	00H
	DB	00H
	DB	00H
	DB	099H
	DB	00H
	DB	00H
	DB	00H
	DB	099H
	DB	00H
	DB	00H
	DB	00H
	DB	099H
	DB	00H
	DB	00H
	DB	00H
	DB	099H
	DB	00H
	DB	00H
	DB	00H
	DB	099H
	DB	00H
	DB	00H
	DB	00H
	DB	099H
	DB	00H
	DB	00H
	DB	00H
	DB	099H
	DB	00H
	DB	00H
	DB	00H
	DB	099H
	DB	00H
	DB	00H
	DB	00H
	DB	099H
	DB	00H
	DB	00H
	DB	00H
	DB	099H
	DB	00H
	DB	00H
	DB	00H
	DB	099H
	DB	00H
	DB	00H
	DB	00H
	DB	099H
	DB	00H
	DB	00H
	DB	00H
	DB	099H
	DB	00H
	DB	00H
	DB	00H
	DB	099H
	DB	00H
	DB	00H
	DB	00H
	DB	099H
	DB	00H
	DB	00H
	DB	00H
	DB	099H
	DB	00H
	DB	00H
	DB	00H
	DB	099H
	DB	00H
	DB	00H
	DB	00H
	DB	099H
	DB	00H
	DB	00H
	DB	00H
	DB	099H
	DB	00H
	DB	00H
	DB	00H
	DB	099H
	DB	00H
	DB	00H
	DB	00H
	DB	099H
	DB	00H
	DB	00H
	DB	00H
	DB	099H
	DB	00H
	DB	00H
	DB	00H
	DB	099H
	DB	00H
	DB	00H
	DB	00H
	DB	099H
	DB	00H
	DB	00H
	DB	00H
	DB	099H
	DB	00H
	DB	00H
	DB	00H
	DB	099H
	DB	00H
	DB	00H
	DB	00H
	DB	099H
	DB	00H
	DB	00H
	DB	00H
	DB	099H
	DB	00H
	DB	00H
	DB	00H
	DB	099H
	DB	00H
	DB	00H
	DB	00H
	DB	099H
	DB	00H
	DB	00H
	DB	00H
	DB	099H
	DB	00H
	DB	00H
	DB	00H
	DB	099H
	DB	00H
	DB	00H
	DB	00H
	DB	099H
	DB	00H
	DB	00H
	DB	00H
	DB	099H
	DB	00H
	DB	00H
	DB	00H
	DB	099H
	DB	00H
	DB	00H
	DB	00H
	DB	099H
	DB	00H
	DB	00H
	DB	00H
	DB	099H
	DB	00H
	DB	00H
	DB	00H
	DB	099H
	DB	00H
	DB	00H
	DB	00H
	DB	099H
	DB	00H
	DB	00H
	DB	00H
	DB	099H
	DB	00H
	DB	00H
	DB	00H
	DB	099H
	DB	00H
	DB	00H
	DB	00H
	DB	099H
	DB	00H
	DB	00H
	DB	00H
	DB	099H
	DB	00H
	DB	00H
	DB	00H
	DB	099H
	DB	00H
	DB	00H
	DB	00H
	DB	099H
	DB	00H
	DB	00H
	DB	00H
	DB	099H
	DB	00H
	DB	00H
	DB	00H
	DB	099H
	DB	00H
	DB	00H
	DB	00H
	DB	099H
	DB	00H
	DB	00H
	DB	00H
	DB	099H
	DB	00H
	DB	00H
	DB	00H
	DB	099H
	DB	00H
	DB	00H
	DB	00H
	DB	099H
	DB	00H
	DB	00H
	DB	00H
	DB	099H
	DB	00H
	DB	00H
	DB	00H
	DB	099H
	DB	00H
	DB	00H
	DB	00H
	DB	099H
	DB	00H
	DB	00H
	DB	00H
	DB	099H
	DB	00H
	DB	00H
	DB	00H
	DB	099H
	DB	00H
	DB	00H
	DB	00H
	DB	099H
	DB	00H
	DB	00H
	DB	00H
	DB	093H
	DB	00H
	DB	00H
	DB	00H
	DB	017H
	DB	00H
	DB	00H
	DB	00H
	DB	00H
	DB	00H
	DB	00H
	DB	00H
	DB	00H
	DB	00H
	DB	00H
	DB	00H
	DB	00H
	DB	00H
	DB	00H
	DB	00H
	DB	00H
	DB	00H
	DB	00H
	DB	00H
	DB	00H
	DB	00H
	DB	00H
	DB	00H
	DB	00H
	DB	00H
	DB	00H
	DB	00H
	DB	00H
	DB	00H
	DB	00H
	DB	00H
	DB	00H
	DB	00H
	DB	00H
	DB	00H
	DB	00H
	DB	00H
	DB	00H
	DB	00H
	DB	02H
	DB	00H
	DB	00H
	DB	00H
	DB	078H
	DB	00H
	DB	00H
	DB	00H
	DB	099H
	DB	00H
	DB	00H
	DB	00H
	DB	099H
	DB	00H
	DB	00H
	DB	00H
	DB	099H
	DB	00H
	DB	00H
	DB	00H
	DB	099H
	DB	00H
	DB	00H
	DB	00H
	DB	099H
	DB	00H
	DB	00H
	DB	00H
	DB	099H
	DB	00H
	DB	00H
	DB	00H
	DB	099H
	DB	00H
	DB	00H
	DB	00H
	DB	099H
	DB	00H
	DB	00H
	DB	00H
	DB	099H
	DB	00H
	DB	00H
	DB	00H
	DB	099H
	DB	00H
	DB	00H
	DB	00H
	DB	099H
	DB	00H
	DB	00H
	DB	00H
	DB	099H
	DB	00H
	DB	00H
	DB	00H
	DB	099H
	DB	00H
	DB	00H
	DB	00H
	DB	099H
	DB	00H
	DB	00H
	DB	00H
	DB	099H
	DB	00H
	DB	00H
	DB	00H
	DB	099H
	DB	00H
	DB	00H
	DB	00H
	DB	099H
	DB	00H
	DB	00H
	DB	00H
	DB	099H
	DB	00H
	DB	00H
	DB	00H
	DB	099H
	DB	00H
	DB	00H
	DB	00H
	DB	099H
	DB	00H
	DB	00H
	DB	00H
	DB	099H
	DB	00H
	DB	00H
	DB	00H
	DB	099H
	DB	00H
	DB	00H
	DB	00H
	DB	099H
	DB	00H
	DB	00H
	DB	00H
	DB	099H
	DB	00H
	DB	00H
	DB	00H
	DB	099H
	DB	00H
	DB	00H
	DB	00H
	DB	099H
	DB	00H
	DB	00H
	DB	00H
	DB	099H
	DB	00H
	DB	00H
	DB	00H
	DB	099H
	DB	00H
	DB	00H
	DB	00H
	DB	099H
	DB	00H
	DB	00H
	DB	00H
	DB	099H
	DB	00H
	DB	00H
	DB	00H
	DB	099H
	DB	00H
	DB	00H
	DB	00H
	DB	099H
	DB	00H
	DB	00H
	DB	00H
	DB	099H
	DB	00H
	DB	00H
	DB	00H
	DB	099H
	DB	00H
	DB	00H
	DB	00H
	DB	099H
	DB	00H
	DB	00H
	DB	00H
	DB	099H
	DB	00H
	DB	00H
	DB	00H
	DB	099H
	DB	00H
	DB	00H
	DB	00H
	DB	099H
	DB	00H
	DB	00H
	DB	00H
	DB	099H
	DB	00H
	DB	00H
	DB	00H
	DB	099H
	DB	00H
	DB	00H
	DB	00H
	DB	099H
	DB	00H
	DB	00H
	DB	00H
	DB	099H
	DB	00H
	DB	00H
	DB	00H
	DB	099H
	DB	00H
	DB	00H
	DB	00H
	DB	099H
	DB	00H
	DB	00H
	DB	00H
	DB	099H
	DB	00H
	DB	00H
	DB	00H
	DB	099H
	DB	00H
	DB	00H
	DB	00H
	DB	099H
	DB	00H
	DB	00H
	DB	00H
	DB	099H
	DB	00H
	DB	00H
	DB	00H
	DB	099H
	DB	00H
	DB	00H
	DB	00H
	DB	099H
	DB	00H
	DB	00H
	DB	00H
	DB	099H
	DB	00H
	DB	00H
	DB	00H
	DB	099H
	DB	00H
	DB	00H
	DB	00H
	DB	099H
	DB	00H
	DB	00H
	DB	00H
	DB	099H
	DB	00H
	DB	00H
	DB	00H
	DB	099H
	DB	00H
	DB	00H
	DB	00H
	DB	099H
	DB	00H
	DB	00H
	DB	00H
	DB	099H
	DB	00H
	DB	00H
	DB	00H
	DB	099H
	DB	00H
	DB	00H
	DB	00H
	DB	099H
	DB	00H
	DB	00H
	DB	00H
	DB	099H
	DB	00H
	DB	00H
	DB	00H
	DB	099H
	DB	00H
	DB	00H
	DB	00H
	DB	099H
	DB	00H
	DB	00H
	DB	00H
	DB	099H
	DB	00H
	DB	00H
	DB	00H
	DB	099H
	DB	00H
	DB	00H
	DB	00H
	DB	099H
	DB	00H
	DB	00H
	DB	00H
	DB	099H
	DB	00H
	DB	00H
	DB	00H
	DB	099H
	DB	00H
	DB	00H
	DB	00H
	DB	099H
	DB	00H
	DB	00H
	DB	00H
	DB	099H
	DB	00H
	DB	00H
	DB	00H
	DB	099H
	DB	00H
	DB	00H
	DB	00H
	DB	099H
	DB	00H
	DB	00H
	DB	00H
	DB	099H
	DB	00H
	DB	00H
	DB	00H
	DB	099H
	DB	00H
	DB	00H
	DB	00H
	DB	099H
	DB	00H
	DB	00H
	DB	00H
	DB	099H
	DB	00H
	DB	00H
	DB	00H
	DB	099H
	DB	00H
	DB	00H
	DB	00H
	DB	099H
	DB	00H
	DB	00H
	DB	00H
	DB	099H
	DB	00H
	DB	00H
	DB	00H
	DB	099H
	DB	00H
	DB	00H
	DB	00H
	DB	099H
	DB	00H
	DB	00H
	DB	00H
	DB	099H
	DB	00H
	DB	00H
	DB	00H
	DB	099H
	DB	00H
	DB	00H
	DB	00H
	DB	099H
	DB	00H
	DB	00H
	DB	00H
	DB	099H
	DB	00H
	DB	00H
	DB	00H
	DB	099H
	DB	00H
	DB	00H
	DB	00H
	DB	099H
	DB	00H
	DB	00H
	DB	00H
	DB	099H
	DB	00H
	DB	00H
	DB	00H
	DB	099H
	DB	00H
	DB	00H
	DB	00H
	DB	099H
	DB	00H
	DB	00H
	DB	00H
	DB	099H
	DB	00H
	DB	00H
	DB	00H
	DB	099H
	DB	00H
	DB	00H
	DB	00H
	DB	099H
	DB	00H
	DB	00H
	DB	00H
	DB	099H
	DB	00H
	DB	00H
	DB	00H
	DB	099H
	DB	00H
	DB	00H
	DB	00H
	DB	099H
	DB	00H
	DB	00H
	DB	00H
	DB	099H
	DB	00H
	DB	00H
	DB	00H
	DB	099H
	DB	00H
	DB	00H
	DB	00H
	DB	099H
	DB	00H
	DB	00H
	DB	00H
	DB	099H
	DB	00H
	DB	00H
	DB	00H
	DB	099H
	DB	00H
	DB	00H
	DB	00H
	DB	099H
	DB	00H
	DB	00H
	DB	00H
	DB	099H
	DB	00H
	DB	00H
	DB	00H
	DB	099H
	DB	00H
	DB	00H
	DB	00H
	DB	099H
	DB	00H
	DB	00H
	DB	00H
	DB	099H
	DB	00H
	DB	00H
	DB	00H
	DB	099H
	DB	00H
	DB	00H
	DB	00H
	DB	099H
	DB	00H
	DB	00H
	DB	00H
	DB	099H
	DB	00H
	DB	00H
	DB	00H
	DB	099H
	DB	00H
	DB	00H
	DB	00H
	DB	099H
	DB	00H
	DB	00H
	DB	00H
	DB	099H
	DB	00H
	DB	00H
	DB	00H
	DB	099H
	DB	00H
	DB	00H
	DB	00H
	DB	099H
	DB	00H
	DB	00H
	DB	00H
	DB	099H
	DB	00H
	DB	00H
	DB	00H
	DB	099H
	DB	00H
	DB	00H
	DB	00H
	DB	099H
	DB	00H
	DB	00H
	DB	00H
	DB	099H
	DB	00H
	DB	00H
	DB	00H
	DB	099H
	DB	00H
	DB	00H
	DB	00H
	DB	099H
	DB	00H
	DB	00H
	DB	00H
	DB	099H
	DB	00H
	DB	00H
	DB	00H
	DB	099H
	DB	00H
	DB	00H
	DB	00H
	DB	099H
	DB	00H
	DB	00H
	DB	00H
	DB	099H
	DB	00H
	DB	00H
	DB	00H
	DB	099H
	DB	00H
	DB	00H
	DB	00H
	DB	099H
	DB	00H
	DB	00H
	DB	00H
	DB	099H
	DB	00H
	DB	00H
	DB	00H
	DB	099H
	DB	00H
	DB	00H
	DB	00H
	DB	099H
	DB	00H
	DB	00H
	DB	00H
	DB	099H
	DB	00H
	DB	00H
	DB	00H
	DB	099H
	DB	00H
	DB	00H
	DB	00H
	DB	099H
	DB	00H
	DB	00H
	DB	00H
	DB	099H
	DB	00H
	DB	00H
	DB	00H
	DB	099H
	DB	00H
	DB	00H
	DB	00H
	DB	099H
	DB	00H
	DB	00H
	DB	00H
	DB	099H
	DB	00H
	DB	00H
	DB	00H
	DB	099H
	DB	00H
	DB	00H
	DB	00H
	DB	099H
	DB	00H
	DB	00H
	DB	00H
	DB	099H
	DB	00H
	DB	00H
	DB	00H
	DB	099H
	DB	00H
	DB	00H
	DB	00H
	DB	099H
	DB	00H
	DB	00H
	DB	00H
	DB	099H
	DB	00H
	DB	00H
	DB	00H
	DB	099H
	DB	00H
	DB	00H
	DB	00H
	DB	099H
	DB	00H
	DB	00H
	DB	00H
	DB	099H
	DB	00H
	DB	00H
	DB	00H
	DB	099H
	DB	00H
	DB	00H
	DB	00H
	DB	099H
	DB	00H
	DB	00H
	DB	00H
	DB	099H
	DB	00H
	DB	00H
	DB	00H
	DB	099H
	DB	00H
	DB	00H
	DB	00H
	DB	099H
	DB	00H
	DB	00H
	DB	00H
	DB	099H
	DB	00H
	DB	00H
	DB	00H
	DB	099H
	DB	00H
	DB	00H
	DB	00H
	DB	099H
	DB	00H
	DB	00H
	DB	00H
	DB	099H
	DB	00H
	DB	00H
	DB	00H
	DB	099H
	DB	00H
	DB	00H
	DB	00H
	DB	099H
	DB	00H
	DB	00H
	DB	00H
	DB	099H
	DB	00H
	DB	00H
	DB	00H
	DB	099H
	DB	00H
	DB	00H
	DB	00H
	DB	099H
	DB	00H
	DB	00H
	DB	00H
	DB	099H
	DB	00H
	DB	00H
	DB	00H
	DB	099H
	DB	00H
	DB	00H
	DB	00H
	DB	099H
	DB	00H
	DB	00H
	DB	00H
	DB	099H
	DB	00H
	DB	00H
	DB	00H
	DB	099H
	DB	00H
	DB	00H
	DB	00H
	DB	099H
	DB	00H
	DB	00H
	DB	00H
	DB	099H
	DB	00H
	DB	00H
	DB	00H
	DB	099H
	DB	00H
	DB	00H
	DB	00H
	DB	099H
	DB	00H
	DB	00H
	DB	00H
	DB	099H
	DB	00H
	DB	00H
	DB	00H
	DB	099H
	DB	00H
	DB	00H
	DB	00H
	DB	099H
	DB	00H
	DB	00H
	DB	00H
	DB	099H
	DB	00H
	DB	00H
	DB	00H
	DB	099H
	DB	00H
	DB	00H
	DB	00H
	DB	099H
	DB	00H
	DB	00H
	DB	00H
	DB	099H
	DB	00H
	DB	00H
	DB	00H
	DB	099H
	DB	00H
	DB	00H
	DB	00H
	DB	099H
	DB	00H
	DB	00H
	DB	00H
	DB	099H
	DB	00H
	DB	00H
	DB	00H
	DB	099H
	DB	00H
	DB	00H
	DB	00H
	DB	099H
	DB	00H
	DB	00H
	DB	00H
	DB	099H
	DB	00H
	DB	00H
	DB	00H
	DB	099H
	DB	00H
	DB	00H
	DB	00H
	DB	099H
	DB	00H
	DB	00H
	DB	00H
	DB	099H
	DB	00H
	DB	00H
	DB	00H
	DB	099H
	DB	00H
	DB	00H
	DB	00H
	DB	099H
	DB	00H
	DB	00H
	DB	00H
	DB	099H
	DB	00H
	DB	00H
	DB	00H
	DB	099H
	DB	00H
	DB	00H
	DB	00H
	DB	099H
	DB	00H
	DB	00H
	DB	00H
	DB	099H
	DB	00H
	DB	00H
	DB	00H
	DB	099H
	DB	00H
	DB	00H
	DB	00H
	DB	099H
	DB	00H
	DB	00H
	DB	00H
	DB	099H
	DB	00H
	DB	00H
	DB	00H
	DB	099H
	DB	00H
	DB	00H
	DB	00H
	DB	099H
	DB	00H
	DB	00H
	DB	00H
	DB	099H
	DB	00H
	DB	00H
	DB	00H
	DB	099H
	DB	00H
	DB	00H
	DB	00H
	DB	099H
	DB	00H
	DB	00H
	DB	00H
	DB	099H
	DB	00H
	DB	00H
	DB	00H
	DB	099H
	DB	00H
	DB	00H
	DB	00H
	DB	099H
	DB	00H
	DB	00H
	DB	00H
	DB	099H
	DB	00H
	DB	00H
	DB	00H
	DB	099H
	DB	00H
	DB	00H
	DB	00H
	DB	099H
	DB	00H
	DB	00H
	DB	00H
	DB	099H
	DB	00H
	DB	00H
	DB	00H
	DB	099H
	DB	00H
	DB	00H
	DB	00H
	DB	099H
	DB	00H
	DB	00H
	DB	00H
	DB	099H
	DB	00H
	DB	00H
	DB	00H
	DB	099H
	DB	00H
	DB	00H
	DB	00H
	DB	099H
	DB	00H
	DB	00H
	DB	00H
	DB	099H
	DB	00H
	DB	00H
	DB	00H
	DB	099H
	DB	00H
	DB	00H
	DB	00H
	DB	099H
	DB	00H
	DB	00H
	DB	00H
	DB	099H
	DB	00H
	DB	00H
	DB	00H
	DB	099H
	DB	00H
	DB	00H
	DB	00H
	DB	099H
	DB	00H
	DB	00H
	DB	00H
	DB	099H
	DB	00H
	DB	00H
	DB	00H
	DB	099H
	DB	00H
	DB	00H
	DB	00H
	DB	099H
	DB	00H
	DB	00H
	DB	00H
	DB	099H
	DB	00H
	DB	00H
	DB	00H
	DB	099H
	DB	00H
	DB	00H
	DB	00H
	DB	099H
	DB	00H
	DB	00H
	DB	00H
	DB	099H
	DB	00H
	DB	00H
	DB	00H
	DB	099H
	DB	00H
	DB	00H
	DB	00H
	DB	099H
	DB	00H
	DB	00H
	DB	00H
	DB	099H
	DB	00H
	DB	00H
	DB	00H
	DB	099H
	DB	00H
	DB	00H
	DB	00H
	DB	099H
	DB	00H
	DB	00H
	DB	00H
	DB	099H
	DB	00H
	DB	00H
	DB	00H
	DB	099H
	DB	00H
	DB	00H
	DB	00H
	DB	099H
	DB	00H
	DB	00H
	DB	00H
	DB	099H
	DB	00H
	DB	00H
	DB	00H
	DB	099H
	DB	00H
	DB	00H
	DB	00H
	DB	099H
	DB	00H
	DB	00H
	DB	00H
	DB	099H
	DB	00H
	DB	00H
	DB	00H
	DB	099H
	DB	00H
	DB	00H
	DB	00H
	DB	099H
	DB	00H
	DB	00H
	DB	00H
	DB	099H
	DB	00H
	DB	00H
	DB	00H
	DB	099H
	DB	00H
	DB	00H
	DB	00H
	DB	099H
	DB	00H
	DB	00H
	DB	00H
	DB	099H
	DB	00H
	DB	00H
	DB	00H
	DB	099H
	DB	00H
	DB	00H
	DB	00H
	DB	099H
	DB	00H
	DB	00H
	DB	00H
	DB	099H
	DB	00H
	DB	00H
	DB	00H
	DB	099H
	DB	00H
	DB	00H
	DB	00H
	DB	099H
	DB	00H
	DB	00H
	DB	00H
	DB	099H
	DB	00H
	DB	00H
	DB	00H
	DB	099H
	DB	00H
	DB	00H
	DB	00H
	DB	099H
	DB	00H
	DB	00H
	DB	00H
	DB	099H
	DB	00H
	DB	00H
	DB	00H
	DB	099H
	DB	00H
	DB	00H
	DB	00H
	DB	099H
	DB	00H
	DB	00H
	DB	00H
	DB	099H
	DB	00H
	DB	00H
	DB	00H
	DB	099H
	DB	00H
	DB	00H
	DB	00H
	DB	099H
	DB	00H
	DB	00H
	DB	00H
	DB	099H
	DB	00H
	DB	00H
	DB	00H
	DB	099H
	DB	00H
	DB	00H
	DB	00H
	DB	099H
	DB	00H
	DB	00H
	DB	00H
	DB	099H
	DB	00H
	DB	00H
	DB	00H
	DB	077H
	DB	00H
	DB	00H
	DB	00H
	DB	02H
	DB	00H
	DB	00H
	DB	00H
	DB	00H
	DB	00H
	DB	00H
	DB	00H
	DB	00H
	DB	00H
	DB	00H
	DB	00H
	DB	00H
	DB	00H
	DB	00H
	DB	00H
	DB	00H
	DB	00H
	DB	00H
	DB	00H
	DB	00H
	DB	00H
	DB	00H
	DB	00H
	DB	00H
	DB	00H
	DB	00H
	DB	00H
	DB	00H
	DB	00H
	DB	00H
	DB	00H
	DB	00H
	DB	00H
	DB	00H
	DB	00H
	DB	044H
	DB	00H
	DB	00H
	DB	00H
	DB	099H
	DB	00H
	DB	00H
	DB	00H
	DB	099H
	DB	00H
	DB	00H
	DB	00H
	DB	099H
	DB	00H
	DB	00H
	DB	00H
	DB	099H
	DB	00H
	DB	00H
	DB	00H
	DB	099H
	DB	00H
	DB	00H
	DB	00H
	DB	099H
	DB	00H
	DB	00H
	DB	00H
	DB	099H
	DB	00H
	DB	00H
	DB	00H
	DB	099H
	DB	00H
	DB	00H
	DB	00H
	DB	099H
	DB	00H
	DB	00H
	DB	00H
	DB	099H
	DB	00H
	DB	00H
	DB	00H
	DB	099H
	DB	00H
	DB	00H
	DB	00H
	DB	099H
	DB	00H
	DB	00H
	DB	00H
	DB	099H
	DB	00H
	DB	00H
	DB	00H
	DB	099H
	DB	00H
	DB	00H
	DB	00H
	DB	099H
	DB	00H
	DB	00H
	DB	00H
	DB	099H
	DB	00H
	DB	00H
	DB	00H
	DB	099H
	DB	00H
	DB	00H
	DB	00H
	DB	099H
	DB	00H
	DB	00H
	DB	00H
	DB	099H
	DB	00H
	DB	00H
	DB	00H
	DB	099H
	DB	00H
	DB	00H
	DB	00H
	DB	099H
	DB	00H
	DB	00H
	DB	00H
	DB	099H
	DB	00H
	DB	00H
	DB	00H
	DB	099H
	DB	00H
	DB	00H
	DB	00H
	DB	099H
	DB	00H
	DB	00H
	DB	00H
	DB	099H
	DB	00H
	DB	00H
	DB	00H
	DB	099H
	DB	00H
	DB	00H
	DB	00H
	DB	099H
	DB	00H
	DB	00H
	DB	00H
	DB	099H
	DB	00H
	DB	00H
	DB	00H
	DB	099H
	DB	00H
	DB	00H
	DB	00H
	DB	099H
	DB	00H
	DB	00H
	DB	00H
	DB	099H
	DB	00H
	DB	00H
	DB	00H
	DB	099H
	DB	00H
	DB	00H
	DB	00H
	DB	099H
	DB	00H
	DB	00H
	DB	00H
	DB	099H
	DB	00H
	DB	00H
	DB	00H
	DB	099H
	DB	00H
	DB	00H
	DB	00H
	DB	099H
	DB	00H
	DB	00H
	DB	00H
	DB	099H
	DB	00H
	DB	00H
	DB	00H
	DB	099H
	DB	00H
	DB	00H
	DB	00H
	DB	099H
	DB	00H
	DB	00H
	DB	00H
	DB	099H
	DB	00H
	DB	00H
	DB	00H
	DB	099H
	DB	00H
	DB	00H
	DB	00H
	DB	099H
	DB	00H
	DB	00H
	DB	00H
	DB	099H
	DB	00H
	DB	00H
	DB	00H
	DB	099H
	DB	00H
	DB	00H
	DB	00H
	DB	099H
	DB	00H
	DB	00H
	DB	00H
	DB	099H
	DB	00H
	DB	00H
	DB	00H
	DB	099H
	DB	00H
	DB	00H
	DB	00H
	DB	099H
	DB	00H
	DB	00H
	DB	00H
	DB	099H
	DB	00H
	DB	00H
	DB	00H
	DB	099H
	DB	00H
	DB	00H
	DB	00H
	DB	099H
	DB	00H
	DB	00H
	DB	00H
	DB	099H
	DB	00H
	DB	00H
	DB	00H
	DB	099H
	DB	00H
	DB	00H
	DB	00H
	DB	099H
	DB	00H
	DB	00H
	DB	00H
	DB	099H
	DB	00H
	DB	00H
	DB	00H
	DB	099H
	DB	00H
	DB	00H
	DB	00H
	DB	099H
	DB	00H
	DB	00H
	DB	00H
	DB	099H
	DB	00H
	DB	00H
	DB	00H
	DB	099H
	DB	00H
	DB	00H
	DB	00H
	DB	099H
	DB	00H
	DB	00H
	DB	00H
	DB	099H
	DB	00H
	DB	00H
	DB	00H
	DB	099H
	DB	00H
	DB	00H
	DB	00H
	DB	099H
	DB	00H
	DB	00H
	DB	00H
	DB	099H
	DB	00H
	DB	00H
	DB	00H
	DB	099H
	DB	00H
	DB	00H
	DB	00H
	DB	099H
	DB	00H
	DB	00H
	DB	00H
	DB	099H
	DB	00H
	DB	00H
	DB	00H
	DB	099H
	DB	00H
	DB	00H
	DB	00H
	DB	099H
	DB	00H
	DB	00H
	DB	00H
	DB	099H
	DB	00H
	DB	00H
	DB	00H
	DB	099H
	DB	00H
	DB	00H
	DB	00H
	DB	099H
	DB	00H
	DB	00H
	DB	00H
	DB	099H
	DB	00H
	DB	00H
	DB	00H
	DB	099H
	DB	00H
	DB	00H
	DB	00H
	DB	099H
	DB	00H
	DB	00H
	DB	00H
	DB	099H
	DB	00H
	DB	00H
	DB	00H
	DB	099H
	DB	00H
	DB	00H
	DB	00H
	DB	099H
	DB	00H
	DB	00H
	DB	00H
	DB	099H
	DB	00H
	DB	00H
	DB	00H
	DB	099H
	DB	00H
	DB	00H
	DB	00H
	DB	099H
	DB	00H
	DB	00H
	DB	00H
	DB	099H
	DB	00H
	DB	00H
	DB	00H
	DB	099H
	DB	00H
	DB	00H
	DB	00H
	DB	099H
	DB	00H
	DB	00H
	DB	00H
	DB	099H
	DB	00H
	DB	00H
	DB	00H
	DB	099H
	DB	00H
	DB	00H
	DB	00H
	DB	099H
	DB	00H
	DB	00H
	DB	00H
	DB	099H
	DB	00H
	DB	00H
	DB	00H
	DB	099H
	DB	00H
	DB	00H
	DB	00H
	DB	099H
	DB	00H
	DB	00H
	DB	00H
	DB	099H
	DB	00H
	DB	00H
	DB	00H
	DB	099H
	DB	00H
	DB	00H
	DB	00H
	DB	099H
	DB	00H
	DB	00H
	DB	00H
	DB	099H
	DB	00H
	DB	00H
	DB	00H
	DB	099H
	DB	00H
	DB	00H
	DB	00H
	DB	099H
	DB	00H
	DB	00H
	DB	00H
	DB	099H
	DB	00H
	DB	00H
	DB	00H
	DB	099H
	DB	00H
	DB	00H
	DB	00H
	DB	099H
	DB	00H
	DB	00H
	DB	00H
	DB	099H
	DB	00H
	DB	00H
	DB	00H
	DB	099H
	DB	00H
	DB	00H
	DB	00H
	DB	099H
	DB	00H
	DB	00H
	DB	00H
	DB	099H
	DB	00H
	DB	00H
	DB	00H
	DB	099H
	DB	00H
	DB	00H
	DB	00H
	DB	099H
	DB	00H
	DB	00H
	DB	00H
	DB	099H
	DB	00H
	DB	00H
	DB	00H
	DB	099H
	DB	00H
	DB	00H
	DB	00H
	DB	099H
	DB	00H
	DB	00H
	DB	00H
	DB	099H
	DB	00H
	DB	00H
	DB	00H
	DB	099H
	DB	00H
	DB	00H
	DB	00H
	DB	099H
	DB	00H
	DB	00H
	DB	00H
	DB	099H
	DB	00H
	DB	00H
	DB	00H
	DB	099H
	DB	00H
	DB	00H
	DB	00H
	DB	099H
	DB	00H
	DB	00H
	DB	00H
	DB	099H
	DB	00H
	DB	00H
	DB	00H
	DB	099H
	DB	00H
	DB	00H
	DB	00H
	DB	099H
	DB	00H
	DB	00H
	DB	00H
	DB	099H
	DB	00H
	DB	00H
	DB	00H
	DB	099H
	DB	00H
	DB	00H
	DB	00H
	DB	099H
	DB	00H
	DB	00H
	DB	00H
	DB	099H
	DB	00H
	DB	00H
	DB	00H
	DB	099H
	DB	00H
	DB	00H
	DB	00H
	DB	099H
	DB	00H
	DB	00H
	DB	00H
	DB	099H
	DB	00H
	DB	00H
	DB	00H
	DB	099H
	DB	00H
	DB	00H
	DB	00H
	DB	099H
	DB	00H
	DB	00H
	DB	00H
	DB	099H
	DB	00H
	DB	00H
	DB	00H
	DB	099H
	DB	00H
	DB	00H
	DB	00H
	DB	099H
	DB	00H
	DB	00H
	DB	00H
	DB	099H
	DB	00H
	DB	00H
	DB	00H
	DB	099H
	DB	00H
	DB	00H
	DB	00H
	DB	099H
	DB	00H
	DB	00H
	DB	00H
	DB	099H
	DB	00H
	DB	00H
	DB	00H
	DB	099H
	DB	00H
	DB	00H
	DB	00H
	DB	099H
	DB	00H
	DB	00H
	DB	00H
	DB	099H
	DB	00H
	DB	00H
	DB	00H
	DB	099H
	DB	00H
	DB	00H
	DB	00H
	DB	099H
	DB	00H
	DB	00H
	DB	00H
	DB	099H
	DB	00H
	DB	00H
	DB	00H
	DB	099H
	DB	00H
	DB	00H
	DB	00H
	DB	099H
	DB	00H
	DB	00H
	DB	00H
	DB	099H
	DB	00H
	DB	00H
	DB	00H
	DB	099H
	DB	00H
	DB	00H
	DB	00H
	DB	099H
	DB	00H
	DB	00H
	DB	00H
	DB	099H
	DB	00H
	DB	00H
	DB	00H
	DB	099H
	DB	00H
	DB	00H
	DB	00H
	DB	099H
	DB	00H
	DB	00H
	DB	00H
	DB	099H
	DB	00H
	DB	00H
	DB	00H
	DB	099H
	DB	00H
	DB	00H
	DB	00H
	DB	099H
	DB	00H
	DB	00H
	DB	00H
	DB	099H
	DB	00H
	DB	00H
	DB	00H
	DB	099H
	DB	00H
	DB	00H
	DB	00H
	DB	099H
	DB	00H
	DB	00H
	DB	00H
	DB	099H
	DB	00H
	DB	00H
	DB	00H
	DB	099H
	DB	00H
	DB	00H
	DB	00H
	DB	099H
	DB	00H
	DB	00H
	DB	00H
	DB	099H
	DB	00H
	DB	00H
	DB	00H
	DB	099H
	DB	00H
	DB	00H
	DB	00H
	DB	099H
	DB	00H
	DB	00H
	DB	00H
	DB	099H
	DB	00H
	DB	00H
	DB	00H
	DB	099H
	DB	00H
	DB	00H
	DB	00H
	DB	099H
	DB	00H
	DB	00H
	DB	00H
	DB	099H
	DB	00H
	DB	00H
	DB	00H
	DB	099H
	DB	00H
	DB	00H
	DB	00H
	DB	099H
	DB	00H
	DB	00H
	DB	00H
	DB	099H
	DB	00H
	DB	00H
	DB	00H
	DB	099H
	DB	00H
	DB	00H
	DB	00H
	DB	099H
	DB	00H
	DB	00H
	DB	00H
	DB	099H
	DB	00H
	DB	00H
	DB	00H
	DB	099H
	DB	00H
	DB	00H
	DB	00H
	DB	099H
	DB	00H
	DB	00H
	DB	00H
	DB	099H
	DB	00H
	DB	00H
	DB	00H
	DB	099H
	DB	00H
	DB	00H
	DB	00H
	DB	099H
	DB	00H
	DB	00H
	DB	00H
	DB	099H
	DB	00H
	DB	00H
	DB	00H
	DB	099H
	DB	00H
	DB	00H
	DB	00H
	DB	099H
	DB	00H
	DB	00H
	DB	00H
	DB	099H
	DB	00H
	DB	00H
	DB	00H
	DB	099H
	DB	00H
	DB	00H
	DB	00H
	DB	099H
	DB	00H
	DB	00H
	DB	00H
	DB	099H
	DB	00H
	DB	00H
	DB	00H
	DB	099H
	DB	00H
	DB	00H
	DB	00H
	DB	099H
	DB	00H
	DB	00H
	DB	00H
	DB	099H
	DB	00H
	DB	00H
	DB	00H
	DB	099H
	DB	00H
	DB	00H
	DB	00H
	DB	099H
	DB	00H
	DB	00H
	DB	00H
	DB	099H
	DB	00H
	DB	00H
	DB	00H
	DB	099H
	DB	00H
	DB	00H
	DB	00H
	DB	099H
	DB	00H
	DB	00H
	DB	00H
	DB	099H
	DB	00H
	DB	00H
	DB	00H
	DB	099H
	DB	00H
	DB	00H
	DB	00H
	DB	099H
	DB	00H
	DB	00H
	DB	00H
	DB	099H
	DB	00H
	DB	00H
	DB	00H
	DB	099H
	DB	00H
	DB	00H
	DB	00H
	DB	099H
	DB	00H
	DB	00H
	DB	00H
	DB	099H
	DB	00H
	DB	00H
	DB	00H
	DB	099H
	DB	00H
	DB	00H
	DB	00H
	DB	099H
	DB	00H
	DB	00H
	DB	00H
	DB	099H
	DB	00H
	DB	00H
	DB	00H
	DB	099H
	DB	00H
	DB	00H
	DB	00H
	DB	099H
	DB	00H
	DB	00H
	DB	00H
	DB	099H
	DB	00H
	DB	00H
	DB	00H
	DB	099H
	DB	00H
	DB	00H
	DB	00H
	DB	099H
	DB	00H
	DB	00H
	DB	00H
	DB	099H
	DB	00H
	DB	00H
	DB	00H
	DB	099H
	DB	00H
	DB	00H
	DB	00H
	DB	099H
	DB	00H
	DB	00H
	DB	00H
	DB	099H
	DB	00H
	DB	00H
	DB	00H
	DB	099H
	DB	00H
	DB	00H
	DB	00H
	DB	099H
	DB	00H
	DB	00H
	DB	00H
	DB	099H
	DB	00H
	DB	00H
	DB	00H
	DB	099H
	DB	00H
	DB	00H
	DB	00H
	DB	099H
	DB	00H
	DB	00H
	DB	00H
	DB	099H
	DB	00H
	DB	00H
	DB	00H
	DB	099H
	DB	00H
	DB	00H
	DB	00H
	DB	099H
	DB	00H
	DB	00H
	DB	00H
	DB	099H
	DB	00H
	DB	00H
	DB	00H
	DB	099H
	DB	00H
	DB	00H
	DB	00H
	DB	099H
	DB	00H
	DB	00H
	DB	00H
	DB	099H
	DB	00H
	DB	00H
	DB	00H
	DB	099H
	DB	00H
	DB	00H
	DB	00H
	DB	099H
	DB	00H
	DB	00H
	DB	00H
	DB	099H
	DB	00H
	DB	00H
	DB	00H
	DB	099H
	DB	00H
	DB	00H
	DB	00H
	DB	099H
	DB	00H
	DB	00H
	DB	00H
	DB	099H
	DB	00H
	DB	00H
	DB	00H
	DB	099H
	DB	00H
	DB	00H
	DB	00H
	DB	099H
	DB	00H
	DB	00H
	DB	00H
	DB	099H
	DB	00H
	DB	00H
	DB	00H
	DB	099H
	DB	00H
	DB	00H
	DB	00H
	DB	099H
	DB	00H
	DB	00H
	DB	00H
	DB	099H
	DB	00H
	DB	00H
	DB	00H
	DB	099H
	DB	00H
	DB	00H
	DB	00H
	DB	099H
	DB	00H
	DB	00H
	DB	00H
	DB	099H
	DB	00H
	DB	00H
	DB	00H
	DB	099H
	DB	00H
	DB	00H
	DB	00H
	DB	099H
	DB	00H
	DB	00H
	DB	00H
	DB	099H
	DB	00H
	DB	00H
	DB	00H
	DB	099H
	DB	00H
	DB	00H
	DB	00H
	DB	099H
	DB	00H
	DB	00H
	DB	00H
	DB	099H
	DB	00H
	DB	00H
	DB	00H
	DB	099H
	DB	00H
	DB	00H
	DB	00H
	DB	099H
	DB	00H
	DB	00H
	DB	00H
	DB	099H
	DB	00H
	DB	00H
	DB	00H
	DB	099H
	DB	00H
	DB	00H
	DB	00H
	DB	099H
	DB	00H
	DB	00H
	DB	00H
	DB	099H
	DB	00H
	DB	00H
	DB	00H
	DB	099H
	DB	00H
	DB	00H
	DB	00H
	DB	099H
	DB	00H
	DB	00H
	DB	00H
	DB	099H
	DB	00H
	DB	00H
	DB	00H
	DB	099H
	DB	00H
	DB	00H
	DB	00H
	DB	099H
	DB	00H
	DB	00H
	DB	00H
	DB	099H
	DB	00H
	DB	00H
	DB	00H
	DB	099H
	DB	00H
	DB	00H
	DB	00H
	DB	099H
	DB	00H
	DB	00H
	DB	00H
	DB	099H
	DB	00H
	DB	00H
	DB	00H
	DB	099H
	DB	00H
	DB	00H
	DB	00H
	DB	099H
	DB	00H
	DB	00H
	DB	00H
	DB	099H
	DB	00H
	DB	00H
	DB	00H
	DB	099H
	DB	00H
	DB	00H
	DB	00H
	DB	043H
	DB	00H
	DB	00H
	DB	00H
	DB	00H
	DB	00H
	DB	00H
	DB	00H
	DB	00H
	DB	00H
	DB	00H
	DB	00H
	DB	00H
	DB	00H
	DB	00H
	DB	00H
	DB	00H
	DB	00H
	DB	00H
	DB	00H
	DB	00H
	DB	00H
	DB	00H
	DB	00H
	DB	00H
	DB	00H
	DB	00H
	DB	00H
	DB	00H
	DB	00H
	DB	00H
	DB	00H
	DB	0aH
	DB	00H
	DB	00H
	DB	00H
	DB	08eH
	DB	00H
	DB	00H
	DB	00H
	DB	099H
	DB	00H
	DB	00H
	DB	00H
	DB	099H
	DB	00H
	DB	00H
	DB	00H
	DB	099H
	DB	00H
	DB	00H
	DB	00H
	DB	099H
	DB	00H
	DB	00H
	DB	00H
	DB	099H
	DB	00H
	DB	00H
	DB	00H
	DB	099H
	DB	00H
	DB	00H
	DB	00H
	DB	099H
	DB	00H
	DB	00H
	DB	00H
	DB	099H
	DB	00H
	DB	00H
	DB	00H
	DB	099H
	DB	00H
	DB	00H
	DB	00H
	DB	099H
	DB	00H
	DB	00H
	DB	00H
	DB	099H
	DB	00H
	DB	00H
	DB	00H
	DB	099H
	DB	00H
	DB	00H
	DB	00H
	DB	099H
	DB	00H
	DB	00H
	DB	00H
	DB	099H
	DB	00H
	DB	00H
	DB	00H
	DB	099H
	DB	00H
	DB	00H
	DB	00H
	DB	099H
	DB	00H
	DB	00H
	DB	00H
	DB	099H
	DB	00H
	DB	00H
	DB	00H
	DB	099H
	DB	00H
	DB	00H
	DB	00H
	DB	099H
	DB	00H
	DB	00H
	DB	00H
	DB	099H
	DB	00H
	DB	00H
	DB	00H
	DB	099H
	DB	00H
	DB	00H
	DB	00H
	DB	099H
	DB	00H
	DB	00H
	DB	00H
	DB	099H
	DB	00H
	DB	00H
	DB	00H
	DB	099H
	DB	00H
	DB	00H
	DB	00H
	DB	099H
	DB	00H
	DB	00H
	DB	00H
	DB	099H
	DB	00H
	DB	00H
	DB	00H
	DB	099H
	DB	00H
	DB	00H
	DB	00H
	DB	099H
	DB	00H
	DB	00H
	DB	00H
	DB	099H
	DB	00H
	DB	00H
	DB	00H
	DB	099H
	DB	00H
	DB	00H
	DB	00H
	DB	099H
	DB	00H
	DB	00H
	DB	00H
	DB	099H
	DB	00H
	DB	00H
	DB	00H
	DB	099H
	DB	00H
	DB	00H
	DB	00H
	DB	099H
	DB	00H
	DB	00H
	DB	00H
	DB	099H
	DB	00H
	DB	00H
	DB	00H
	DB	099H
	DB	00H
	DB	00H
	DB	00H
	DB	099H
	DB	00H
	DB	00H
	DB	00H
	DB	099H
	DB	00H
	DB	00H
	DB	00H
	DB	099H
	DB	00H
	DB	00H
	DB	00H
	DB	099H
	DB	00H
	DB	00H
	DB	00H
	DB	099H
	DB	00H
	DB	00H
	DB	00H
	DB	099H
	DB	00H
	DB	00H
	DB	00H
	DB	099H
	DB	00H
	DB	00H
	DB	00H
	DB	099H
	DB	00H
	DB	00H
	DB	00H
	DB	099H
	DB	00H
	DB	00H
	DB	00H
	DB	099H
	DB	00H
	DB	00H
	DB	00H
	DB	099H
	DB	00H
	DB	00H
	DB	00H
	DB	099H
	DB	00H
	DB	00H
	DB	00H
	DB	099H
	DB	00H
	DB	00H
	DB	00H
	DB	099H
	DB	00H
	DB	00H
	DB	00H
	DB	099H
	DB	00H
	DB	00H
	DB	00H
	DB	099H
	DB	00H
	DB	00H
	DB	00H
	DB	099H
	DB	00H
	DB	00H
	DB	00H
	DB	099H
	DB	00H
	DB	00H
	DB	00H
	DB	099H
	DB	00H
	DB	00H
	DB	00H
	DB	099H
	DB	00H
	DB	00H
	DB	00H
	DB	099H
	DB	00H
	DB	00H
	DB	00H
	DB	099H
	DB	00H
	DB	00H
	DB	00H
	DB	099H
	DB	00H
	DB	00H
	DB	00H
	DB	099H
	DB	00H
	DB	00H
	DB	00H
	DB	099H
	DB	00H
	DB	00H
	DB	00H
	DB	099H
	DB	00H
	DB	00H
	DB	00H
	DB	099H
	DB	00H
	DB	00H
	DB	00H
	DB	099H
	DB	00H
	DB	00H
	DB	00H
	DB	099H
	DB	00H
	DB	00H
	DB	00H
	DB	099H
	DB	00H
	DB	00H
	DB	00H
	DB	099H
	DB	00H
	DB	00H
	DB	00H
	DB	099H
	DB	00H
	DB	00H
	DB	00H
	DB	099H
	DB	00H
	DB	00H
	DB	00H
	DB	099H
	DB	00H
	DB	00H
	DB	00H
	DB	099H
	DB	00H
	DB	00H
	DB	00H
	DB	099H
	DB	00H
	DB	00H
	DB	00H
	DB	099H
	DB	00H
	DB	00H
	DB	00H
	DB	099H
	DB	00H
	DB	00H
	DB	00H
	DB	099H
	DB	00H
	DB	00H
	DB	00H
	DB	099H
	DB	00H
	DB	00H
	DB	00H
	DB	099H
	DB	00H
	DB	00H
	DB	00H
	DB	099H
	DB	00H
	DB	00H
	DB	00H
	DB	099H
	DB	00H
	DB	00H
	DB	00H
	DB	099H
	DB	00H
	DB	00H
	DB	00H
	DB	099H
	DB	00H
	DB	00H
	DB	00H
	DB	099H
	DB	00H
	DB	00H
	DB	00H
	DB	099H
	DB	00H
	DB	00H
	DB	00H
	DB	099H
	DB	00H
	DB	00H
	DB	00H
	DB	099H
	DB	00H
	DB	00H
	DB	00H
	DB	099H
	DB	00H
	DB	00H
	DB	00H
	DB	099H
	DB	00H
	DB	00H
	DB	00H
	DB	099H
	DB	00H
	DB	00H
	DB	00H
	DB	099H
	DB	00H
	DB	00H
	DB	00H
	DB	099H
	DB	00H
	DB	00H
	DB	00H
	DB	099H
	DB	00H
	DB	00H
	DB	00H
	DB	099H
	DB	00H
	DB	00H
	DB	00H
	DB	099H
	DB	00H
	DB	00H
	DB	00H
	DB	099H
	DB	00H
	DB	00H
	DB	00H
	DB	099H
	DB	00H
	DB	00H
	DB	00H
	DB	099H
	DB	00H
	DB	00H
	DB	00H
	DB	099H
	DB	00H
	DB	00H
	DB	00H
	DB	099H
	DB	00H
	DB	00H
	DB	00H
	DB	099H
	DB	00H
	DB	00H
	DB	00H
	DB	099H
	DB	00H
	DB	00H
	DB	00H
	DB	099H
	DB	00H
	DB	00H
	DB	00H
	DB	099H
	DB	00H
	DB	00H
	DB	00H
	DB	099H
	DB	00H
	DB	00H
	DB	00H
	DB	099H
	DB	00H
	DB	00H
	DB	00H
	DB	099H
	DB	00H
	DB	00H
	DB	00H
	DB	099H
	DB	00H
	DB	00H
	DB	00H
	DB	099H
	DB	00H
	DB	00H
	DB	00H
	DB	099H
	DB	00H
	DB	00H
	DB	00H
	DB	099H
	DB	00H
	DB	00H
	DB	00H
	DB	099H
	DB	00H
	DB	00H
	DB	00H
	DB	099H
	DB	00H
	DB	00H
	DB	00H
	DB	099H
	DB	00H
	DB	00H
	DB	00H
	DB	099H
	DB	00H
	DB	00H
	DB	00H
	DB	099H
	DB	00H
	DB	00H
	DB	00H
	DB	099H
	DB	00H
	DB	00H
	DB	00H
	DB	099H
	DB	00H
	DB	00H
	DB	00H
	DB	099H
	DB	00H
	DB	00H
	DB	00H
	DB	099H
	DB	00H
	DB	00H
	DB	00H
	DB	099H
	DB	00H
	DB	00H
	DB	00H
	DB	099H
	DB	00H
	DB	00H
	DB	00H
	DB	099H
	DB	00H
	DB	00H
	DB	00H
	DB	099H
	DB	00H
	DB	00H
	DB	00H
	DB	099H
	DB	00H
	DB	00H
	DB	00H
	DB	099H
	DB	00H
	DB	00H
	DB	00H
	DB	099H
	DB	00H
	DB	00H
	DB	00H
	DB	099H
	DB	00H
	DB	00H
	DB	00H
	DB	099H
	DB	00H
	DB	00H
	DB	00H
	DB	099H
	DB	00H
	DB	00H
	DB	00H
	DB	099H
	DB	00H
	DB	00H
	DB	00H
	DB	099H
	DB	00H
	DB	00H
	DB	00H
	DB	099H
	DB	00H
	DB	00H
	DB	00H
	DB	099H
	DB	00H
	DB	00H
	DB	00H
	DB	099H
	DB	00H
	DB	00H
	DB	00H
	DB	099H
	DB	00H
	DB	00H
	DB	00H
	DB	099H
	DB	00H
	DB	00H
	DB	00H
	DB	099H
	DB	00H
	DB	00H
	DB	00H
	DB	099H
	DB	00H
	DB	00H
	DB	00H
	DB	099H
	DB	00H
	DB	00H
	DB	00H
	DB	099H
	DB	00H
	DB	00H
	DB	00H
	DB	099H
	DB	00H
	DB	00H
	DB	00H
	DB	099H
	DB	00H
	DB	00H
	DB	00H
	DB	099H
	DB	00H
	DB	00H
	DB	00H
	DB	099H
	DB	00H
	DB	00H
	DB	00H
	DB	099H
	DB	00H
	DB	00H
	DB	00H
	DB	099H
	DB	00H
	DB	00H
	DB	00H
	DB	099H
	DB	00H
	DB	00H
	DB	00H
	DB	099H
	DB	00H
	DB	00H
	DB	00H
	DB	099H
	DB	00H
	DB	00H
	DB	00H
	DB	099H
	DB	00H
	DB	00H
	DB	00H
	DB	099H
	DB	00H
	DB	00H
	DB	00H
	DB	099H
	DB	00H
	DB	00H
	DB	00H
	DB	099H
	DB	00H
	DB	00H
	DB	00H
	DB	099H
	DB	00H
	DB	00H
	DB	00H
	DB	099H
	DB	00H
	DB	00H
	DB	00H
	DB	099H
	DB	00H
	DB	00H
	DB	00H
	DB	099H
	DB	00H
	DB	00H
	DB	00H
	DB	099H
	DB	00H
	DB	00H
	DB	00H
	DB	099H
	DB	00H
	DB	00H
	DB	00H
	DB	099H
	DB	00H
	DB	00H
	DB	00H
	DB	099H
	DB	00H
	DB	00H
	DB	00H
	DB	099H
	DB	00H
	DB	00H
	DB	00H
	DB	099H
	DB	00H
	DB	00H
	DB	00H
	DB	099H
	DB	00H
	DB	00H
	DB	00H
	DB	099H
	DB	00H
	DB	00H
	DB	00H
	DB	099H
	DB	00H
	DB	00H
	DB	00H
	DB	099H
	DB	00H
	DB	00H
	DB	00H
	DB	099H
	DB	00H
	DB	00H
	DB	00H
	DB	099H
	DB	00H
	DB	00H
	DB	00H
	DB	099H
	DB	00H
	DB	00H
	DB	00H
	DB	099H
	DB	00H
	DB	00H
	DB	00H
	DB	099H
	DB	00H
	DB	00H
	DB	00H
	DB	099H
	DB	00H
	DB	00H
	DB	00H
	DB	099H
	DB	00H
	DB	00H
	DB	00H
	DB	099H
	DB	00H
	DB	00H
	DB	00H
	DB	099H
	DB	00H
	DB	00H
	DB	00H
	DB	099H
	DB	00H
	DB	00H
	DB	00H
	DB	099H
	DB	00H
	DB	00H
	DB	00H
	DB	099H
	DB	00H
	DB	00H
	DB	00H
	DB	099H
	DB	00H
	DB	00H
	DB	00H
	DB	099H
	DB	00H
	DB	00H
	DB	00H
	DB	099H
	DB	00H
	DB	00H
	DB	00H
	DB	099H
	DB	00H
	DB	00H
	DB	00H
	DB	099H
	DB	00H
	DB	00H
	DB	00H
	DB	099H
	DB	00H
	DB	00H
	DB	00H
	DB	099H
	DB	00H
	DB	00H
	DB	00H
	DB	099H
	DB	00H
	DB	00H
	DB	00H
	DB	099H
	DB	00H
	DB	00H
	DB	00H
	DB	099H
	DB	00H
	DB	00H
	DB	00H
	DB	099H
	DB	00H
	DB	00H
	DB	00H
	DB	099H
	DB	00H
	DB	00H
	DB	00H
	DB	099H
	DB	00H
	DB	00H
	DB	00H
	DB	099H
	DB	00H
	DB	00H
	DB	00H
	DB	099H
	DB	00H
	DB	00H
	DB	00H
	DB	099H
	DB	00H
	DB	00H
	DB	00H
	DB	099H
	DB	00H
	DB	00H
	DB	00H
	DB	099H
	DB	00H
	DB	00H
	DB	00H
	DB	099H
	DB	00H
	DB	00H
	DB	00H
	DB	099H
	DB	00H
	DB	00H
	DB	00H
	DB	099H
	DB	00H
	DB	00H
	DB	00H
	DB	099H
	DB	00H
	DB	00H
	DB	00H
	DB	099H
	DB	00H
	DB	00H
	DB	00H
	DB	099H
	DB	00H
	DB	00H
	DB	00H
	DB	099H
	DB	00H
	DB	00H
	DB	00H
	DB	099H
	DB	00H
	DB	00H
	DB	00H
	DB	099H
	DB	00H
	DB	00H
	DB	00H
	DB	099H
	DB	00H
	DB	00H
	DB	00H
	DB	099H
	DB	00H
	DB	00H
	DB	00H
	DB	099H
	DB	00H
	DB	00H
	DB	00H
	DB	099H
	DB	00H
	DB	00H
	DB	00H
	DB	099H
	DB	00H
	DB	00H
	DB	00H
	DB	099H
	DB	00H
	DB	00H
	DB	00H
	DB	099H
	DB	00H
	DB	00H
	DB	00H
	DB	099H
	DB	00H
	DB	00H
	DB	00H
	DB	099H
	DB	00H
	DB	00H
	DB	00H
	DB	099H
	DB	00H
	DB	00H
	DB	00H
	DB	099H
	DB	00H
	DB	00H
	DB	00H
	DB	099H
	DB	00H
	DB	00H
	DB	00H
	DB	099H
	DB	00H
	DB	00H
	DB	00H
	DB	099H
	DB	00H
	DB	00H
	DB	00H
	DB	099H
	DB	00H
	DB	00H
	DB	00H
	DB	099H
	DB	00H
	DB	00H
	DB	00H
	DB	099H
	DB	00H
	DB	00H
	DB	00H
	DB	099H
	DB	00H
	DB	00H
	DB	00H
	DB	099H
	DB	00H
	DB	00H
	DB	00H
	DB	099H
	DB	00H
	DB	00H
	DB	00H
	DB	099H
	DB	00H
	DB	00H
	DB	00H
	DB	099H
	DB	00H
	DB	00H
	DB	00H
	DB	099H
	DB	00H
	DB	00H
	DB	00H
	DB	099H
	DB	00H
	DB	00H
	DB	00H
	DB	099H
	DB	00H
	DB	00H
	DB	00H
	DB	099H
	DB	00H
	DB	00H
	DB	00H
	DB	099H
	DB	00H
	DB	00H
	DB	00H
	DB	099H
	DB	00H
	DB	00H
	DB	00H
	DB	099H
	DB	00H
	DB	00H
	DB	00H
	DB	099H
	DB	00H
	DB	00H
	DB	00H
	DB	099H
	DB	00H
	DB	00H
	DB	00H
	DB	099H
	DB	00H
	DB	00H
	DB	00H
	DB	099H
	DB	00H
	DB	00H
	DB	00H
	DB	099H
	DB	00H
	DB	00H
	DB	00H
	DB	099H
	DB	00H
	DB	00H
	DB	00H
	DB	099H
	DB	00H
	DB	00H
	DB	00H
	DB	099H
	DB	00H
	DB	00H
	DB	00H
	DB	099H
	DB	00H
	DB	00H
	DB	00H
	DB	099H
	DB	00H
	DB	00H
	DB	00H
	DB	099H
	DB	00H
	DB	00H
	DB	00H
	DB	099H
	DB	00H
	DB	00H
	DB	00H
	DB	099H
	DB	00H
	DB	00H
	DB	00H
	DB	099H
	DB	00H
	DB	00H
	DB	00H
	DB	099H
	DB	00H
	DB	00H
	DB	00H
	DB	099H
	DB	00H
	DB	00H
	DB	00H
	DB	099H
	DB	00H
	DB	00H
	DB	00H
	DB	099H
	DB	00H
	DB	00H
	DB	00H
	DB	099H
	DB	00H
	DB	00H
	DB	00H
	DB	099H
	DB	00H
	DB	00H
	DB	00H
	DB	099H
	DB	00H
	DB	00H
	DB	00H
	DB	099H
	DB	00H
	DB	00H
	DB	00H
	DB	099H
	DB	00H
	DB	00H
	DB	00H
	DB	099H
	DB	00H
	DB	00H
	DB	00H
	DB	099H
	DB	00H
	DB	00H
	DB	00H
	DB	099H
	DB	00H
	DB	00H
	DB	00H
	DB	08fH
	DB	00H
	DB	00H
	DB	00H
	DB	0bH
	DB	00H
	DB	00H
	DB	00H
	DB	00H
	DB	00H
	DB	00H
	DB	00H
	DB	00H
	DB	00H
	DB	00H
	DB	00H
	DB	00H
	DB	00H
	DB	00H
	DB	00H
	DB	00H
	DB	00H
	DB	00H
	DB	00H
	DB	00H
	DB	00H
	DB	00H
	DB	00H
	DB	00H
	DB	00H
	DB	00H
	DB	00H
	DB	056H
	DB	00H
	DB	00H
	DB	00H
	DB	099H
	DB	00H
	DB	00H
	DB	00H
	DB	099H
	DB	00H
	DB	00H
	DB	00H
	DB	099H
	DB	00H
	DB	00H
	DB	00H
	DB	099H
	DB	00H
	DB	00H
	DB	00H
	DB	099H
	DB	00H
	DB	00H
	DB	00H
	DB	099H
	DB	00H
	DB	00H
	DB	00H
	DB	099H
	DB	00H
	DB	00H
	DB	00H
	DB	099H
	DB	00H
	DB	00H
	DB	00H
	DB	099H
	DB	00H
	DB	00H
	DB	00H
	DB	099H
	DB	00H
	DB	00H
	DB	00H
	DB	099H
	DB	00H
	DB	00H
	DB	00H
	DB	099H
	DB	00H
	DB	00H
	DB	00H
	DB	099H
	DB	00H
	DB	00H
	DB	00H
	DB	099H
	DB	00H
	DB	00H
	DB	00H
	DB	099H
	DB	00H
	DB	00H
	DB	00H
	DB	099H
	DB	00H
	DB	00H
	DB	00H
	DB	099H
	DB	00H
	DB	00H
	DB	00H
	DB	099H
	DB	00H
	DB	00H
	DB	00H
	DB	099H
	DB	00H
	DB	00H
	DB	00H
	DB	099H
	DB	00H
	DB	00H
	DB	00H
	DB	099H
	DB	00H
	DB	00H
	DB	00H
	DB	099H
	DB	00H
	DB	00H
	DB	00H
	DB	099H
	DB	00H
	DB	00H
	DB	00H
	DB	099H
	DB	00H
	DB	00H
	DB	00H
	DB	099H
	DB	00H
	DB	00H
	DB	00H
	DB	099H
	DB	00H
	DB	00H
	DB	00H
	DB	099H
	DB	00H
	DB	00H
	DB	00H
	DB	099H
	DB	00H
	DB	00H
	DB	00H
	DB	099H
	DB	00H
	DB	00H
	DB	00H
	DB	099H
	DB	00H
	DB	00H
	DB	00H
	DB	099H
	DB	00H
	DB	00H
	DB	00H
	DB	099H
	DB	00H
	DB	00H
	DB	00H
	DB	099H
	DB	00H
	DB	00H
	DB	00H
	DB	099H
	DB	00H
	DB	00H
	DB	00H
	DB	099H
	DB	00H
	DB	00H
	DB	00H
	DB	099H
	DB	00H
	DB	00H
	DB	00H
	DB	099H
	DB	00H
	DB	00H
	DB	00H
	DB	099H
	DB	00H
	DB	00H
	DB	00H
	DB	099H
	DB	00H
	DB	00H
	DB	00H
	DB	099H
	DB	00H
	DB	00H
	DB	00H
	DB	099H
	DB	00H
	DB	00H
	DB	00H
	DB	099H
	DB	00H
	DB	00H
	DB	00H
	DB	099H
	DB	00H
	DB	00H
	DB	00H
	DB	099H
	DB	00H
	DB	00H
	DB	00H
	DB	099H
	DB	00H
	DB	00H
	DB	00H
	DB	099H
	DB	00H
	DB	00H
	DB	00H
	DB	099H
	DB	00H
	DB	00H
	DB	00H
	DB	099H
	DB	00H
	DB	00H
	DB	00H
	DB	099H
	DB	00H
	DB	00H
	DB	00H
	DB	099H
	DB	00H
	DB	00H
	DB	00H
	DB	099H
	DB	00H
	DB	00H
	DB	00H
	DB	099H
	DB	00H
	DB	00H
	DB	00H
	DB	099H
	DB	00H
	DB	00H
	DB	00H
	DB	099H
	DB	00H
	DB	00H
	DB	00H
	DB	099H
	DB	00H
	DB	00H
	DB	00H
	DB	099H
	DB	00H
	DB	00H
	DB	00H
	DB	099H
	DB	00H
	DB	00H
	DB	00H
	DB	099H
	DB	00H
	DB	00H
	DB	00H
	DB	099H
	DB	00H
	DB	00H
	DB	00H
	DB	099H
	DB	00H
	DB	00H
	DB	00H
	DB	099H
	DB	00H
	DB	00H
	DB	00H
	DB	099H
	DB	00H
	DB	00H
	DB	00H
	DB	099H
	DB	00H
	DB	00H
	DB	00H
	DB	099H
	DB	00H
	DB	00H
	DB	00H
	DB	099H
	DB	00H
	DB	00H
	DB	00H
	DB	099H
	DB	00H
	DB	00H
	DB	00H
	DB	099H
	DB	00H
	DB	00H
	DB	00H
	DB	099H
	DB	00H
	DB	00H
	DB	00H
	DB	099H
	DB	00H
	DB	00H
	DB	00H
	DB	099H
	DB	00H
	DB	00H
	DB	00H
	DB	099H
	DB	00H
	DB	00H
	DB	00H
	DB	099H
	DB	00H
	DB	00H
	DB	00H
	DB	099H
	DB	00H
	DB	00H
	DB	00H
	DB	099H
	DB	00H
	DB	00H
	DB	00H
	DB	099H
	DB	00H
	DB	00H
	DB	00H
	DB	099H
	DB	00H
	DB	00H
	DB	00H
	DB	099H
	DB	00H
	DB	00H
	DB	00H
	DB	099H
	DB	00H
	DB	00H
	DB	00H
	DB	099H
	DB	00H
	DB	00H
	DB	00H
	DB	099H
	DB	00H
	DB	00H
	DB	00H
	DB	099H
	DB	00H
	DB	00H
	DB	00H
	DB	099H
	DB	00H
	DB	00H
	DB	00H
	DB	099H
	DB	00H
	DB	00H
	DB	00H
	DB	099H
	DB	00H
	DB	00H
	DB	00H
	DB	099H
	DB	00H
	DB	00H
	DB	00H
	DB	099H
	DB	00H
	DB	00H
	DB	00H
	DB	099H
	DB	00H
	DB	00H
	DB	00H
	DB	099H
	DB	00H
	DB	00H
	DB	00H
	DB	099H
	DB	00H
	DB	00H
	DB	00H
	DB	099H
	DB	00H
	DB	00H
	DB	00H
	DB	099H
	DB	00H
	DB	00H
	DB	00H
	DB	099H
	DB	00H
	DB	00H
	DB	00H
	DB	099H
	DB	00H
	DB	00H
	DB	00H
	DB	099H
	DB	00H
	DB	00H
	DB	00H
	DB	099H
	DB	00H
	DB	00H
	DB	00H
	DB	099H
	DB	00H
	DB	00H
	DB	00H
	DB	099H
	DB	00H
	DB	00H
	DB	00H
	DB	099H
	DB	00H
	DB	00H
	DB	00H
	DB	099H
	DB	00H
	DB	00H
	DB	00H
	DB	099H
	DB	00H
	DB	00H
	DB	00H
	DB	099H
	DB	00H
	DB	00H
	DB	00H
	DB	099H
	DB	00H
	DB	00H
	DB	00H
	DB	099H
	DB	00H
	DB	00H
	DB	00H
	DB	099H
	DB	00H
	DB	00H
	DB	00H
	DB	099H
	DB	00H
	DB	00H
	DB	00H
	DB	099H
	DB	00H
	DB	00H
	DB	00H
	DB	099H
	DB	00H
	DB	00H
	DB	00H
	DB	099H
	DB	00H
	DB	00H
	DB	00H
	DB	099H
	DB	00H
	DB	00H
	DB	00H
	DB	099H
	DB	00H
	DB	00H
	DB	00H
	DB	099H
	DB	00H
	DB	00H
	DB	00H
	DB	099H
	DB	00H
	DB	00H
	DB	00H
	DB	099H
	DB	00H
	DB	00H
	DB	00H
	DB	099H
	DB	00H
	DB	00H
	DB	00H
	DB	099H
	DB	00H
	DB	00H
	DB	00H
	DB	099H
	DB	00H
	DB	00H
	DB	00H
	DB	099H
	DB	00H
	DB	00H
	DB	00H
	DB	099H
	DB	00H
	DB	00H
	DB	00H
	DB	099H
	DB	00H
	DB	00H
	DB	00H
	DB	099H
	DB	00H
	DB	00H
	DB	00H
	DB	099H
	DB	00H
	DB	00H
	DB	00H
	DB	099H
	DB	00H
	DB	00H
	DB	00H
	DB	099H
	DB	00H
	DB	00H
	DB	00H
	DB	099H
	DB	00H
	DB	00H
	DB	00H
	DB	099H
	DB	00H
	DB	00H
	DB	00H
	DB	099H
	DB	00H
	DB	00H
	DB	00H
	DB	099H
	DB	00H
	DB	00H
	DB	00H
	DB	099H
	DB	00H
	DB	00H
	DB	00H
	DB	099H
	DB	00H
	DB	00H
	DB	00H
	DB	099H
	DB	00H
	DB	00H
	DB	00H
	DB	099H
	DB	00H
	DB	00H
	DB	00H
	DB	099H
	DB	00H
	DB	00H
	DB	00H
	DB	099H
	DB	00H
	DB	00H
	DB	00H
	DB	099H
	DB	00H
	DB	00H
	DB	00H
	DB	099H
	DB	00H
	DB	00H
	DB	00H
	DB	099H
	DB	00H
	DB	00H
	DB	00H
	DB	099H
	DB	00H
	DB	00H
	DB	00H
	DB	099H
	DB	00H
	DB	00H
	DB	00H
	DB	099H
	DB	00H
	DB	00H
	DB	00H
	DB	099H
	DB	00H
	DB	00H
	DB	00H
	DB	099H
	DB	00H
	DB	00H
	DB	00H
	DB	099H
	DB	00H
	DB	00H
	DB	00H
	DB	099H
	DB	00H
	DB	00H
	DB	00H
	DB	099H
	DB	00H
	DB	00H
	DB	00H
	DB	099H
	DB	00H
	DB	00H
	DB	00H
	DB	099H
	DB	00H
	DB	00H
	DB	00H
	DB	099H
	DB	00H
	DB	00H
	DB	00H
	DB	099H
	DB	00H
	DB	00H
	DB	00H
	DB	099H
	DB	00H
	DB	00H
	DB	00H
	DB	099H
	DB	00H
	DB	00H
	DB	00H
	DB	099H
	DB	00H
	DB	00H
	DB	00H
	DB	099H
	DB	00H
	DB	00H
	DB	00H
	DB	099H
	DB	00H
	DB	00H
	DB	00H
	DB	099H
	DB	00H
	DB	00H
	DB	00H
	DB	099H
	DB	00H
	DB	00H
	DB	00H
	DB	099H
	DB	00H
	DB	00H
	DB	00H
	DB	099H
	DB	00H
	DB	00H
	DB	00H
	DB	099H
	DB	00H
	DB	00H
	DB	00H
	DB	099H
	DB	00H
	DB	00H
	DB	00H
	DB	099H
	DB	00H
	DB	00H
	DB	00H
	DB	099H
	DB	00H
	DB	00H
	DB	00H
	DB	099H
	DB	00H
	DB	00H
	DB	00H
	DB	099H
	DB	00H
	DB	00H
	DB	00H
	DB	099H
	DB	00H
	DB	00H
	DB	00H
	DB	099H
	DB	00H
	DB	00H
	DB	00H
	DB	099H
	DB	00H
	DB	00H
	DB	00H
	DB	099H
	DB	00H
	DB	00H
	DB	00H
	DB	099H
	DB	00H
	DB	00H
	DB	00H
	DB	099H
	DB	00H
	DB	00H
	DB	00H
	DB	099H
	DB	00H
	DB	00H
	DB	00H
	DB	099H
	DB	00H
	DB	00H
	DB	00H
	DB	099H
	DB	00H
	DB	00H
	DB	00H
	DB	099H
	DB	00H
	DB	00H
	DB	00H
	DB	099H
	DB	00H
	DB	00H
	DB	00H
	DB	099H
	DB	00H
	DB	00H
	DB	00H
	DB	099H
	DB	00H
	DB	00H
	DB	00H
	DB	099H
	DB	00H
	DB	00H
	DB	00H
	DB	099H
	DB	00H
	DB	00H
	DB	00H
	DB	099H
	DB	00H
	DB	00H
	DB	00H
	DB	099H
	DB	00H
	DB	00H
	DB	00H
	DB	099H
	DB	00H
	DB	00H
	DB	00H
	DB	099H
	DB	00H
	DB	00H
	DB	00H
	DB	099H
	DB	00H
	DB	00H
	DB	00H
	DB	099H
	DB	00H
	DB	00H
	DB	00H
	DB	099H
	DB	00H
	DB	00H
	DB	00H
	DB	099H
	DB	00H
	DB	00H
	DB	00H
	DB	099H
	DB	00H
	DB	00H
	DB	00H
	DB	099H
	DB	00H
	DB	00H
	DB	00H
	DB	099H
	DB	00H
	DB	00H
	DB	00H
	DB	099H
	DB	00H
	DB	00H
	DB	00H
	DB	099H
	DB	00H
	DB	00H
	DB	00H
	DB	099H
	DB	00H
	DB	00H
	DB	00H
	DB	099H
	DB	00H
	DB	00H
	DB	00H
	DB	099H
	DB	00H
	DB	00H
	DB	00H
	DB	099H
	DB	00H
	DB	00H
	DB	00H
	DB	099H
	DB	00H
	DB	00H
	DB	00H
	DB	099H
	DB	00H
	DB	00H
	DB	00H
	DB	099H
	DB	00H
	DB	00H
	DB	00H
	DB	099H
	DB	00H
	DB	00H
	DB	00H
	DB	099H
	DB	00H
	DB	00H
	DB	00H
	DB	099H
	DB	00H
	DB	00H
	DB	00H
	DB	099H
	DB	00H
	DB	00H
	DB	00H
	DB	099H
	DB	00H
	DB	00H
	DB	00H
	DB	099H
	DB	00H
	DB	00H
	DB	00H
	DB	099H
	DB	00H
	DB	00H
	DB	00H
	DB	099H
	DB	00H
	DB	00H
	DB	00H
	DB	099H
	DB	00H
	DB	00H
	DB	00H
	DB	099H
	DB	00H
	DB	00H
	DB	00H
	DB	099H
	DB	00H
	DB	00H
	DB	00H
	DB	099H
	DB	00H
	DB	00H
	DB	00H
	DB	099H
	DB	00H
	DB	00H
	DB	00H
	DB	099H
	DB	00H
	DB	00H
	DB	00H
	DB	099H
	DB	00H
	DB	00H
	DB	00H
	DB	099H
	DB	00H
	DB	00H
	DB	00H
	DB	099H
	DB	00H
	DB	00H
	DB	00H
	DB	099H
	DB	00H
	DB	00H
	DB	00H
	DB	099H
	DB	00H
	DB	00H
	DB	00H
	DB	099H
	DB	00H
	DB	00H
	DB	00H
	DB	099H
	DB	00H
	DB	00H
	DB	00H
	DB	099H
	DB	00H
	DB	00H
	DB	00H
	DB	099H
	DB	00H
	DB	00H
	DB	00H
	DB	099H
	DB	00H
	DB	00H
	DB	00H
	DB	099H
	DB	00H
	DB	00H
	DB	00H
	DB	099H
	DB	00H
	DB	00H
	DB	00H
	DB	099H
	DB	00H
	DB	00H
	DB	00H
	DB	099H
	DB	00H
	DB	00H
	DB	00H
	DB	099H
	DB	00H
	DB	00H
	DB	00H
	DB	099H
	DB	00H
	DB	00H
	DB	00H
	DB	099H
	DB	00H
	DB	00H
	DB	00H
	DB	099H
	DB	00H
	DB	00H
	DB	00H
	DB	099H
	DB	00H
	DB	00H
	DB	00H
	DB	099H
	DB	00H
	DB	00H
	DB	00H
	DB	099H
	DB	00H
	DB	00H
	DB	00H
	DB	099H
	DB	00H
	DB	00H
	DB	00H
	DB	099H
	DB	00H
	DB	00H
	DB	00H
	DB	099H
	DB	00H
	DB	00H
	DB	00H
	DB	099H
	DB	00H
	DB	00H
	DB	00H
	DB	099H
	DB	00H
	DB	00H
	DB	00H
	DB	099H
	DB	00H
	DB	00H
	DB	00H
	DB	099H
	DB	00H
	DB	00H
	DB	00H
	DB	099H
	DB	00H
	DB	00H
	DB	00H
	DB	099H
	DB	00H
	DB	00H
	DB	00H
	DB	099H
	DB	00H
	DB	00H
	DB	00H
	DB	099H
	DB	00H
	DB	00H
	DB	00H
	DB	099H
	DB	00H
	DB	00H
	DB	00H
	DB	099H
	DB	00H
	DB	00H
	DB	00H
	DB	099H
	DB	00H
	DB	00H
	DB	00H
	DB	099H
	DB	00H
	DB	00H
	DB	00H
	DB	099H
	DB	00H
	DB	00H
	DB	00H
	DB	099H
	DB	00H
	DB	00H
	DB	00H
	DB	099H
	DB	00H
	DB	00H
	DB	00H
	DB	099H
	DB	00H
	DB	00H
	DB	00H
	DB	099H
	DB	00H
	DB	00H
	DB	00H
	DB	099H
	DB	00H
	DB	00H
	DB	00H
	DB	099H
	DB	00H
	DB	00H
	DB	00H
	DB	099H
	DB	00H
	DB	00H
	DB	00H
	DB	099H
	DB	00H
	DB	00H
	DB	00H
	DB	099H
	DB	00H
	DB	00H
	DB	00H
	DB	099H
	DB	00H
	DB	00H
	DB	00H
	DB	099H
	DB	00H
	DB	00H
	DB	00H
	DB	099H
	DB	00H
	DB	00H
	DB	00H
	DB	099H
	DB	00H
	DB	00H
	DB	00H
	DB	054H
	DB	00H
	DB	00H
	DB	00H
	DB	00H
	DB	00H
	DB	00H
	DB	00H
	DB	00H
	DB	00H
	DB	00H
	DB	00H
	DB	00H
	DB	00H
	DB	00H
	DB	00H
	DB	00H
	DB	00H
	DB	00H
	DB	00H
	DB	00H
	DB	00H
	DB	00H
	DB	00H
	DB	0bH
	DB	00H
	DB	00H
	DB	00H
	DB	092H
	DB	00H
	DB	00H
	DB	00H
	DB	099H
	DB	00H
	DB	00H
	DB	00H
	DB	099H
	DB	00H
	DB	00H
	DB	00H
	DB	099H
	DB	00H
	DB	00H
	DB	00H
	DB	099H
	DB	00H
	DB	00H
	DB	00H
	DB	099H
	DB	00H
	DB	00H
	DB	00H
	DB	099H
	DB	00H
	DB	00H
	DB	00H
	DB	099H
	DB	00H
	DB	00H
	DB	00H
	DB	099H
	DB	00H
	DB	00H
	DB	00H
	DB	099H
	DB	00H
	DB	00H
	DB	00H
	DB	099H
	DB	00H
	DB	00H
	DB	00H
	DB	099H
	DB	00H
	DB	00H
	DB	00H
	DB	099H
	DB	00H
	DB	00H
	DB	00H
	DB	099H
	DB	00H
	DB	00H
	DB	00H
	DB	099H
	DB	00H
	DB	00H
	DB	00H
	DB	099H
	DB	00H
	DB	00H
	DB	00H
	DB	099H
	DB	00H
	DB	00H
	DB	00H
	DB	099H
	DB	00H
	DB	00H
	DB	00H
	DB	099H
	DB	00H
	DB	00H
	DB	00H
	DB	099H
	DB	00H
	DB	00H
	DB	00H
	DB	099H
	DB	00H
	DB	00H
	DB	00H
	DB	099H
	DB	00H
	DB	00H
	DB	00H
	DB	099H
	DB	00H
	DB	00H
	DB	00H
	DB	099H
	DB	00H
	DB	00H
	DB	00H
	DB	099H
	DB	00H
	DB	00H
	DB	00H
	DB	099H
	DB	00H
	DB	00H
	DB	00H
	DB	099H
	DB	00H
	DB	00H
	DB	00H
	DB	099H
	DB	00H
	DB	00H
	DB	00H
	DB	099H
	DB	00H
	DB	00H
	DB	00H
	DB	099H
	DB	00H
	DB	00H
	DB	00H
	DB	099H
	DB	00H
	DB	00H
	DB	00H
	DB	099H
	DB	00H
	DB	00H
	DB	00H
	DB	099H
	DB	00H
	DB	00H
	DB	00H
	DB	099H
	DB	00H
	DB	00H
	DB	00H
	DB	099H
	DB	00H
	DB	00H
	DB	00H
	DB	099H
	DB	00H
	DB	00H
	DB	00H
	DB	099H
	DB	00H
	DB	00H
	DB	00H
	DB	099H
	DB	00H
	DB	00H
	DB	00H
	DB	099H
	DB	00H
	DB	00H
	DB	00H
	DB	099H
	DB	00H
	DB	00H
	DB	00H
	DB	099H
	DB	00H
	DB	00H
	DB	00H
	DB	099H
	DB	00H
	DB	00H
	DB	00H
	DB	099H
	DB	00H
	DB	00H
	DB	00H
	DB	099H
	DB	00H
	DB	00H
	DB	00H
	DB	099H
	DB	00H
	DB	00H
	DB	00H
	DB	099H
	DB	00H
	DB	00H
	DB	00H
	DB	099H
	DB	00H
	DB	00H
	DB	00H
	DB	099H
	DB	00H
	DB	00H
	DB	00H
	DB	099H
	DB	00H
	DB	00H
	DB	00H
	DB	099H
	DB	00H
	DB	00H
	DB	00H
	DB	099H
	DB	00H
	DB	00H
	DB	00H
	DB	099H
	DB	00H
	DB	00H
	DB	00H
	DB	099H
	DB	00H
	DB	00H
	DB	00H
	DB	099H
	DB	00H
	DB	00H
	DB	00H
	DB	099H
	DB	00H
	DB	00H
	DB	00H
	DB	099H
	DB	00H
	DB	00H
	DB	00H
	DB	099H
	DB	00H
	DB	00H
	DB	00H
	DB	099H
	DB	00H
	DB	00H
	DB	00H
	DB	099H
	DB	00H
	DB	00H
	DB	00H
	DB	099H
	DB	00H
	DB	00H
	DB	00H
	DB	099H
	DB	00H
	DB	00H
	DB	00H
	DB	099H
	DB	00H
	DB	00H
	DB	00H
	DB	099H
	DB	00H
	DB	00H
	DB	00H
	DB	099H
	DB	00H
	DB	00H
	DB	00H
	DB	099H
	DB	00H
	DB	00H
	DB	00H
	DB	099H
	DB	00H
	DB	00H
	DB	00H
	DB	099H
	DB	00H
	DB	00H
	DB	00H
	DB	099H
	DB	00H
	DB	00H
	DB	00H
	DB	099H
	DB	00H
	DB	00H
	DB	00H
	DB	099H
	DB	00H
	DB	00H
	DB	00H
	DB	099H
	DB	00H
	DB	00H
	DB	00H
	DB	099H
	DB	00H
	DB	00H
	DB	00H
	DB	099H
	DB	00H
	DB	00H
	DB	00H
	DB	099H
	DB	00H
	DB	00H
	DB	00H
	DB	099H
	DB	00H
	DB	00H
	DB	00H
	DB	099H
	DB	00H
	DB	00H
	DB	00H
	DB	099H
	DB	00H
	DB	00H
	DB	00H
	DB	099H
	DB	00H
	DB	00H
	DB	00H
	DB	099H
	DB	00H
	DB	00H
	DB	00H
	DB	099H
	DB	00H
	DB	00H
	DB	00H
	DB	099H
	DB	00H
	DB	00H
	DB	00H
	DB	099H
	DB	00H
	DB	00H
	DB	00H
	DB	099H
	DB	00H
	DB	00H
	DB	00H
	DB	099H
	DB	00H
	DB	00H
	DB	00H
	DB	099H
	DB	00H
	DB	00H
	DB	00H
	DB	099H
	DB	00H
	DB	00H
	DB	00H
	DB	099H
	DB	00H
	DB	00H
	DB	00H
	DB	099H
	DB	00H
	DB	00H
	DB	00H
	DB	099H
	DB	00H
	DB	00H
	DB	00H
	DB	099H
	DB	00H
	DB	00H
	DB	00H
	DB	099H
	DB	00H
	DB	00H
	DB	00H
	DB	099H
	DB	00H
	DB	00H
	DB	00H
	DB	099H
	DB	00H
	DB	00H
	DB	00H
	DB	099H
	DB	00H
	DB	00H
	DB	00H
	DB	099H
	DB	00H
	DB	00H
	DB	00H
	DB	099H
	DB	00H
	DB	00H
	DB	00H
	DB	099H
	DB	00H
	DB	00H
	DB	00H
	DB	099H
	DB	00H
	DB	00H
	DB	00H
	DB	099H
	DB	00H
	DB	00H
	DB	00H
	DB	099H
	DB	00H
	DB	00H
	DB	00H
	DB	099H
	DB	00H
	DB	00H
	DB	00H
	DB	099H
	DB	00H
	DB	00H
	DB	00H
	DB	099H
	DB	00H
	DB	00H
	DB	00H
	DB	099H
	DB	00H
	DB	00H
	DB	00H
	DB	099H
	DB	00H
	DB	00H
	DB	00H
	DB	099H
	DB	00H
	DB	00H
	DB	00H
	DB	099H
	DB	00H
	DB	00H
	DB	00H
	DB	099H
	DB	00H
	DB	00H
	DB	00H
	DB	099H
	DB	00H
	DB	00H
	DB	00H
	DB	099H
	DB	00H
	DB	00H
	DB	00H
	DB	099H
	DB	00H
	DB	00H
	DB	00H
	DB	099H
	DB	00H
	DB	00H
	DB	00H
	DB	099H
	DB	00H
	DB	00H
	DB	00H
	DB	099H
	DB	00H
	DB	00H
	DB	00H
	DB	099H
	DB	00H
	DB	00H
	DB	00H
	DB	099H
	DB	00H
	DB	00H
	DB	00H
	DB	099H
	DB	00H
	DB	00H
	DB	00H
	DB	099H
	DB	00H
	DB	00H
	DB	00H
	DB	099H
	DB	00H
	DB	00H
	DB	00H
	DB	099H
	DB	00H
	DB	00H
	DB	00H
	DB	099H
	DB	00H
	DB	00H
	DB	00H
	DB	099H
	DB	00H
	DB	00H
	DB	00H
	DB	099H
	DB	00H
	DB	00H
	DB	00H
	DB	099H
	DB	00H
	DB	00H
	DB	00H
	DB	099H
	DB	00H
	DB	00H
	DB	00H
	DB	099H
	DB	00H
	DB	00H
	DB	00H
	DB	099H
	DB	00H
	DB	00H
	DB	00H
	DB	099H
	DB	00H
	DB	00H
	DB	00H
	DB	099H
	DB	00H
	DB	00H
	DB	00H
	DB	099H
	DB	00H
	DB	00H
	DB	00H
	DB	099H
	DB	00H
	DB	00H
	DB	00H
	DB	099H
	DB	00H
	DB	00H
	DB	00H
	DB	099H
	DB	00H
	DB	00H
	DB	00H
	DB	099H
	DB	00H
	DB	00H
	DB	00H
	DB	099H
	DB	00H
	DB	00H
	DB	00H
	DB	099H
	DB	00H
	DB	00H
	DB	00H
	DB	099H
	DB	00H
	DB	00H
	DB	00H
	DB	099H
	DB	00H
	DB	00H
	DB	00H
	DB	099H
	DB	00H
	DB	00H
	DB	00H
	DB	099H
	DB	00H
	DB	00H
	DB	00H
	DB	099H
	DB	00H
	DB	00H
	DB	00H
	DB	099H
	DB	00H
	DB	00H
	DB	00H
	DB	099H
	DB	00H
	DB	00H
	DB	00H
	DB	099H
	DB	00H
	DB	00H
	DB	00H
	DB	099H
	DB	00H
	DB	00H
	DB	00H
	DB	099H
	DB	00H
	DB	00H
	DB	00H
	DB	099H
	DB	00H
	DB	00H
	DB	00H
	DB	099H
	DB	00H
	DB	00H
	DB	00H
	DB	099H
	DB	00H
	DB	00H
	DB	00H
	DB	099H
	DB	00H
	DB	00H
	DB	00H
	DB	099H
	DB	00H
	DB	00H
	DB	00H
	DB	099H
	DB	00H
	DB	00H
	DB	00H
	DB	099H
	DB	00H
	DB	00H
	DB	00H
	DB	099H
	DB	00H
	DB	00H
	DB	00H
	DB	099H
	DB	00H
	DB	00H
	DB	00H
	DB	099H
	DB	00H
	DB	00H
	DB	00H
	DB	099H
	DB	00H
	DB	00H
	DB	00H
	DB	099H
	DB	00H
	DB	00H
	DB	00H
	DB	099H
	DB	00H
	DB	00H
	DB	00H
	DB	099H
	DB	00H
	DB	00H
	DB	00H
	DB	099H
	DB	00H
	DB	00H
	DB	00H
	DB	099H
	DB	00H
	DB	00H
	DB	00H
	DB	099H
	DB	00H
	DB	00H
	DB	00H
	DB	099H
	DB	00H
	DB	00H
	DB	00H
	DB	099H
	DB	00H
	DB	00H
	DB	00H
	DB	099H
	DB	00H
	DB	00H
	DB	00H
	DB	099H
	DB	00H
	DB	00H
	DB	00H
	DB	099H
	DB	00H
	DB	00H
	DB	00H
	DB	099H
	DB	00H
	DB	00H
	DB	00H
	DB	099H
	DB	00H
	DB	00H
	DB	00H
	DB	099H
	DB	00H
	DB	00H
	DB	00H
	DB	099H
	DB	00H
	DB	00H
	DB	00H
	DB	099H
	DB	00H
	DB	00H
	DB	00H
	DB	099H
	DB	00H
	DB	00H
	DB	00H
	DB	099H
	DB	00H
	DB	00H
	DB	00H
	DB	099H
	DB	00H
	DB	00H
	DB	00H
	DB	099H
	DB	00H
	DB	00H
	DB	00H
	DB	099H
	DB	00H
	DB	00H
	DB	00H
	DB	099H
	DB	00H
	DB	00H
	DB	00H
	DB	099H
	DB	00H
	DB	00H
	DB	00H
	DB	099H
	DB	00H
	DB	00H
	DB	00H
	DB	099H
	DB	00H
	DB	00H
	DB	00H
	DB	099H
	DB	00H
	DB	00H
	DB	00H
	DB	099H
	DB	00H
	DB	00H
	DB	00H
	DB	099H
	DB	00H
	DB	00H
	DB	00H
	DB	099H
	DB	00H
	DB	00H
	DB	00H
	DB	099H
	DB	00H
	DB	00H
	DB	00H
	DB	099H
	DB	00H
	DB	00H
	DB	00H
	DB	099H
	DB	00H
	DB	00H
	DB	00H
	DB	099H
	DB	00H
	DB	00H
	DB	00H
	DB	099H
	DB	00H
	DB	00H
	DB	00H
	DB	099H
	DB	00H
	DB	00H
	DB	00H
	DB	099H
	DB	00H
	DB	00H
	DB	00H
	DB	099H
	DB	00H
	DB	00H
	DB	00H
	DB	099H
	DB	00H
	DB	00H
	DB	00H
	DB	099H
	DB	00H
	DB	00H
	DB	00H
	DB	099H
	DB	00H
	DB	00H
	DB	00H
	DB	099H
	DB	00H
	DB	00H
	DB	00H
	DB	099H
	DB	00H
	DB	00H
	DB	00H
	DB	099H
	DB	00H
	DB	00H
	DB	00H
	DB	099H
	DB	00H
	DB	00H
	DB	00H
	DB	099H
	DB	00H
	DB	00H
	DB	00H
	DB	099H
	DB	00H
	DB	00H
	DB	00H
	DB	099H
	DB	00H
	DB	00H
	DB	00H
	DB	099H
	DB	00H
	DB	00H
	DB	00H
	DB	099H
	DB	00H
	DB	00H
	DB	00H
	DB	099H
	DB	00H
	DB	00H
	DB	00H
	DB	099H
	DB	00H
	DB	00H
	DB	00H
	DB	099H
	DB	00H
	DB	00H
	DB	00H
	DB	099H
	DB	00H
	DB	00H
	DB	00H
	DB	099H
	DB	00H
	DB	00H
	DB	00H
	DB	099H
	DB	00H
	DB	00H
	DB	00H
	DB	099H
	DB	00H
	DB	00H
	DB	00H
	DB	099H
	DB	00H
	DB	00H
	DB	00H
	DB	099H
	DB	00H
	DB	00H
	DB	00H
	DB	099H
	DB	00H
	DB	00H
	DB	00H
	DB	099H
	DB	00H
	DB	00H
	DB	00H
	DB	099H
	DB	00H
	DB	00H
	DB	00H
	DB	099H
	DB	00H
	DB	00H
	DB	00H
	DB	099H
	DB	00H
	DB	00H
	DB	00H
	DB	099H
	DB	00H
	DB	00H
	DB	00H
	DB	099H
	DB	00H
	DB	00H
	DB	00H
	DB	099H
	DB	00H
	DB	00H
	DB	00H
	DB	099H
	DB	00H
	DB	00H
	DB	00H
	DB	099H
	DB	00H
	DB	00H
	DB	00H
	DB	099H
	DB	00H
	DB	00H
	DB	00H
	DB	099H
	DB	00H
	DB	00H
	DB	00H
	DB	099H
	DB	00H
	DB	00H
	DB	00H
	DB	099H
	DB	00H
	DB	00H
	DB	00H
	DB	099H
	DB	00H
	DB	00H
	DB	00H
	DB	099H
	DB	00H
	DB	00H
	DB	00H
	DB	099H
	DB	00H
	DB	00H
	DB	00H
	DB	099H
	DB	00H
	DB	00H
	DB	00H
	DB	099H
	DB	00H
	DB	00H
	DB	00H
	DB	099H
	DB	00H
	DB	00H
	DB	00H
	DB	099H
	DB	00H
	DB	00H
	DB	00H
	DB	099H
	DB	00H
	DB	00H
	DB	00H
	DB	099H
	DB	00H
	DB	00H
	DB	00H
	DB	099H
	DB	00H
	DB	00H
	DB	00H
	DB	099H
	DB	00H
	DB	00H
	DB	00H
	DB	099H
	DB	00H
	DB	00H
	DB	00H
	DB	099H
	DB	00H
	DB	00H
	DB	00H
	DB	099H
	DB	00H
	DB	00H
	DB	00H
	DB	099H
	DB	00H
	DB	00H
	DB	00H
	DB	099H
	DB	00H
	DB	00H
	DB	00H
	DB	099H
	DB	00H
	DB	00H
	DB	00H
	DB	099H
	DB	00H
	DB	00H
	DB	00H
	DB	099H
	DB	00H
	DB	00H
	DB	00H
	DB	099H
	DB	00H
	DB	00H
	DB	00H
	DB	099H
	DB	00H
	DB	00H
	DB	00H
	DB	099H
	DB	00H
	DB	00H
	DB	00H
	DB	099H
	DB	00H
	DB	00H
	DB	00H
	DB	099H
	DB	00H
	DB	00H
	DB	00H
	DB	099H
	DB	00H
	DB	00H
	DB	00H
	DB	099H
	DB	00H
	DB	00H
	DB	00H
	DB	099H
	DB	00H
	DB	00H
	DB	00H
	DB	099H
	DB	00H
	DB	00H
	DB	00H
	DB	099H
	DB	00H
	DB	00H
	DB	00H
	DB	099H
	DB	00H
	DB	00H
	DB	00H
	DB	099H
	DB	00H
	DB	00H
	DB	00H
	DB	099H
	DB	00H
	DB	00H
	DB	00H
	DB	099H
	DB	00H
	DB	00H
	DB	00H
	DB	099H
	DB	00H
	DB	00H
	DB	00H
	DB	093H
	DB	00H
	DB	00H
	DB	00H
	DB	0bH
	DB	00H
	DB	00H
	DB	00H
	DB	00H
	DB	00H
	DB	00H
	DB	00H
	DB	00H
	DB	00H
	DB	00H
	DB	00H
	DB	00H
	DB	00H
	DB	00H
	DB	00H
	DB	00H
	DB	00H
	DB	00H
	DB	00H
	DB	049H
	DB	00H
	DB	00H
	DB	00H
	DB	099H
	DB	00H
	DB	00H
	DB	00H
	DB	099H
	DB	00H
	DB	00H
	DB	00H
	DB	099H
	DB	00H
	DB	00H
	DB	00H
	DB	099H
	DB	00H
	DB	00H
	DB	00H
	DB	099H
	DB	00H
	DB	00H
	DB	00H
	DB	099H
	DB	00H
	DB	00H
	DB	00H
	DB	099H
	DB	00H
	DB	00H
	DB	00H
	DB	099H
	DB	00H
	DB	00H
	DB	00H
	DB	099H
	DB	00H
	DB	00H
	DB	00H
	DB	099H
	DB	00H
	DB	00H
	DB	00H
	DB	099H
	DB	00H
	DB	00H
	DB	00H
	DB	099H
	DB	00H
	DB	00H
	DB	00H
	DB	099H
	DB	00H
	DB	00H
	DB	00H
	DB	099H
	DB	00H
	DB	00H
	DB	00H
	DB	099H
	DB	00H
	DB	00H
	DB	00H
	DB	099H
	DB	00H
	DB	00H
	DB	00H
	DB	099H
	DB	00H
	DB	00H
	DB	00H
	DB	099H
	DB	00H
	DB	00H
	DB	00H
	DB	099H
	DB	00H
	DB	00H
	DB	00H
	DB	099H
	DB	00H
	DB	00H
	DB	00H
	DB	099H
	DB	00H
	DB	00H
	DB	00H
	DB	099H
	DB	00H
	DB	00H
	DB	00H
	DB	099H
	DB	00H
	DB	00H
	DB	00H
	DB	099H
	DB	00H
	DB	00H
	DB	00H
	DB	099H
	DB	00H
	DB	00H
	DB	00H
	DB	099H
	DB	00H
	DB	00H
	DB	00H
	DB	099H
	DB	00H
	DB	00H
	DB	00H
	DB	099H
	DB	00H
	DB	00H
	DB	00H
	DB	099H
	DB	00H
	DB	00H
	DB	00H
	DB	099H
	DB	00H
	DB	00H
	DB	00H
	DB	099H
	DB	00H
	DB	00H
	DB	00H
	DB	099H
	DB	00H
	DB	00H
	DB	00H
	DB	099H
	DB	00H
	DB	00H
	DB	00H
	DB	099H
	DB	00H
	DB	00H
	DB	00H
	DB	099H
	DB	00H
	DB	00H
	DB	00H
	DB	099H
	DB	00H
	DB	00H
	DB	00H
	DB	099H
	DB	00H
	DB	00H
	DB	00H
	DB	099H
	DB	00H
	DB	00H
	DB	00H
	DB	099H
	DB	00H
	DB	00H
	DB	00H
	DB	099H
	DB	00H
	DB	00H
	DB	00H
	DB	099H
	DB	00H
	DB	00H
	DB	00H
	DB	099H
	DB	00H
	DB	00H
	DB	00H
	DB	099H
	DB	00H
	DB	00H
	DB	00H
	DB	099H
	DB	00H
	DB	00H
	DB	00H
	DB	099H
	DB	00H
	DB	00H
	DB	00H
	DB	099H
	DB	00H
	DB	00H
	DB	00H
	DB	099H
	DB	00H
	DB	00H
	DB	00H
	DB	099H
	DB	00H
	DB	00H
	DB	00H
	DB	099H
	DB	00H
	DB	00H
	DB	00H
	DB	099H
	DB	00H
	DB	00H
	DB	00H
	DB	099H
	DB	00H
	DB	00H
	DB	00H
	DB	099H
	DB	00H
	DB	00H
	DB	00H
	DB	099H
	DB	00H
	DB	00H
	DB	00H
	DB	099H
	DB	00H
	DB	00H
	DB	00H
	DB	099H
	DB	00H
	DB	00H
	DB	00H
	DB	099H
	DB	00H
	DB	00H
	DB	00H
	DB	099H
	DB	00H
	DB	00H
	DB	00H
	DB	099H
	DB	00H
	DB	00H
	DB	00H
	DB	099H
	DB	00H
	DB	00H
	DB	00H
	DB	099H
	DB	00H
	DB	00H
	DB	00H
	DB	099H
	DB	00H
	DB	00H
	DB	00H
	DB	099H
	DB	00H
	DB	00H
	DB	00H
	DB	099H
	DB	00H
	DB	00H
	DB	00H
	DB	099H
	DB	00H
	DB	00H
	DB	00H
	DB	099H
	DB	00H
	DB	00H
	DB	00H
	DB	099H
	DB	00H
	DB	00H
	DB	00H
	DB	099H
	DB	00H
	DB	00H
	DB	00H
	DB	099H
	DB	00H
	DB	00H
	DB	00H
	DB	099H
	DB	00H
	DB	00H
	DB	00H
	DB	099H
	DB	00H
	DB	00H
	DB	00H
	DB	099H
	DB	00H
	DB	00H
	DB	00H
	DB	099H
	DB	00H
	DB	00H
	DB	00H
	DB	099H
	DB	00H
	DB	00H
	DB	00H
	DB	099H
	DB	00H
	DB	00H
	DB	00H
	DB	099H
	DB	00H
	DB	00H
	DB	00H
	DB	099H
	DB	00H
	DB	00H
	DB	00H
	DB	099H
	DB	00H
	DB	00H
	DB	00H
	DB	099H
	DB	00H
	DB	00H
	DB	00H
	DB	099H
	DB	00H
	DB	00H
	DB	00H
	DB	099H
	DB	00H
	DB	00H
	DB	00H
	DB	099H
	DB	00H
	DB	00H
	DB	00H
	DB	099H
	DB	00H
	DB	00H
	DB	00H
	DB	099H
	DB	00H
	DB	00H
	DB	00H
	DB	099H
	DB	00H
	DB	00H
	DB	00H
	DB	099H
	DB	00H
	DB	00H
	DB	00H
	DB	099H
	DB	00H
	DB	00H
	DB	00H
	DB	099H
	DB	00H
	DB	00H
	DB	00H
	DB	099H
	DB	00H
	DB	00H
	DB	00H
	DB	099H
	DB	00H
	DB	00H
	DB	00H
	DB	099H
	DB	00H
	DB	00H
	DB	00H
	DB	099H
	DB	00H
	DB	00H
	DB	00H
	DB	099H
	DB	00H
	DB	00H
	DB	00H
	DB	099H
	DB	00H
	DB	00H
	DB	00H
	DB	099H
	DB	00H
	DB	00H
	DB	00H
	DB	099H
	DB	00H
	DB	00H
	DB	00H
	DB	099H
	DB	00H
	DB	00H
	DB	00H
	DB	099H
	DB	00H
	DB	00H
	DB	00H
	DB	099H
	DB	00H
	DB	00H
	DB	00H
	DB	099H
	DB	00H
	DB	00H
	DB	00H
	DB	099H
	DB	00H
	DB	00H
	DB	00H
	DB	099H
	DB	00H
	DB	00H
	DB	00H
	DB	099H
	DB	00H
	DB	00H
	DB	00H
	DB	099H
	DB	00H
	DB	00H
	DB	00H
	DB	099H
	DB	00H
	DB	00H
	DB	00H
	DB	099H
	DB	00H
	DB	00H
	DB	00H
	DB	099H
	DB	00H
	DB	00H
	DB	00H
	DB	099H
	DB	00H
	DB	00H
	DB	00H
	DB	099H
	DB	00H
	DB	00H
	DB	00H
	DB	099H
	DB	00H
	DB	00H
	DB	00H
	DB	099H
	DB	00H
	DB	00H
	DB	00H
	DB	099H
	DB	00H
	DB	00H
	DB	00H
	DB	099H
	DB	00H
	DB	00H
	DB	00H
	DB	099H
	DB	00H
	DB	00H
	DB	00H
	DB	099H
	DB	00H
	DB	00H
	DB	00H
	DB	099H
	DB	00H
	DB	00H
	DB	00H
	DB	099H
	DB	00H
	DB	00H
	DB	00H
	DB	099H
	DB	00H
	DB	00H
	DB	00H
	DB	099H
	DB	00H
	DB	00H
	DB	00H
	DB	099H
	DB	00H
	DB	00H
	DB	00H
	DB	099H
	DB	00H
	DB	00H
	DB	00H
	DB	099H
	DB	00H
	DB	00H
	DB	00H
	DB	099H
	DB	00H
	DB	00H
	DB	00H
	DB	099H
	DB	00H
	DB	00H
	DB	00H
	DB	099H
	DB	00H
	DB	00H
	DB	00H
	DB	099H
	DB	00H
	DB	00H
	DB	00H
	DB	099H
	DB	00H
	DB	00H
	DB	00H
	DB	099H
	DB	00H
	DB	00H
	DB	00H
	DB	099H
	DB	00H
	DB	00H
	DB	00H
	DB	099H
	DB	00H
	DB	00H
	DB	00H
	DB	099H
	DB	00H
	DB	00H
	DB	00H
	DB	099H
	DB	00H
	DB	00H
	DB	00H
	DB	099H
	DB	00H
	DB	00H
	DB	00H
	DB	099H
	DB	00H
	DB	00H
	DB	00H
	DB	099H
	DB	00H
	DB	00H
	DB	00H
	DB	099H
	DB	00H
	DB	00H
	DB	00H
	DB	099H
	DB	00H
	DB	00H
	DB	00H
	DB	099H
	DB	00H
	DB	00H
	DB	00H
	DB	099H
	DB	00H
	DB	00H
	DB	00H
	DB	099H
	DB	00H
	DB	00H
	DB	00H
	DB	099H
	DB	00H
	DB	00H
	DB	00H
	DB	099H
	DB	00H
	DB	00H
	DB	00H
	DB	099H
	DB	00H
	DB	00H
	DB	00H
	DB	099H
	DB	00H
	DB	00H
	DB	00H
	DB	099H
	DB	00H
	DB	00H
	DB	00H
	DB	099H
	DB	00H
	DB	00H
	DB	00H
	DB	099H
	DB	00H
	DB	00H
	DB	00H
	DB	099H
	DB	00H
	DB	00H
	DB	00H
	DB	099H
	DB	00H
	DB	00H
	DB	00H
	DB	099H
	DB	00H
	DB	00H
	DB	00H
	DB	099H
	DB	00H
	DB	00H
	DB	00H
	DB	099H
	DB	00H
	DB	00H
	DB	00H
	DB	099H
	DB	00H
	DB	00H
	DB	00H
	DB	099H
	DB	00H
	DB	00H
	DB	00H
	DB	099H
	DB	00H
	DB	00H
	DB	00H
	DB	099H
	DB	00H
	DB	00H
	DB	00H
	DB	099H
	DB	00H
	DB	00H
	DB	00H
	DB	099H
	DB	00H
	DB	00H
	DB	00H
	DB	099H
	DB	00H
	DB	00H
	DB	00H
	DB	099H
	DB	00H
	DB	00H
	DB	00H
	DB	099H
	DB	00H
	DB	00H
	DB	00H
	DB	099H
	DB	00H
	DB	00H
	DB	00H
	DB	099H
	DB	00H
	DB	00H
	DB	00H
	DB	099H
	DB	00H
	DB	00H
	DB	00H
	DB	099H
	DB	00H
	DB	00H
	DB	00H
	DB	099H
	DB	00H
	DB	00H
	DB	00H
	DB	099H
	DB	00H
	DB	00H
	DB	00H
	DB	099H
	DB	00H
	DB	00H
	DB	00H
	DB	099H
	DB	00H
	DB	00H
	DB	00H
	DB	099H
	DB	00H
	DB	00H
	DB	00H
	DB	099H
	DB	00H
	DB	00H
	DB	00H
	DB	099H
	DB	00H
	DB	00H
	DB	00H
	DB	099H
	DB	00H
	DB	00H
	DB	00H
	DB	099H
	DB	00H
	DB	00H
	DB	00H
	DB	099H
	DB	00H
	DB	00H
	DB	00H
	DB	099H
	DB	00H
	DB	00H
	DB	00H
	DB	099H
	DB	00H
	DB	00H
	DB	00H
	DB	099H
	DB	00H
	DB	00H
	DB	00H
	DB	099H
	DB	00H
	DB	00H
	DB	00H
	DB	099H
	DB	00H
	DB	00H
	DB	00H
	DB	099H
	DB	00H
	DB	00H
	DB	00H
	DB	099H
	DB	00H
	DB	00H
	DB	00H
	DB	099H
	DB	00H
	DB	00H
	DB	00H
	DB	099H
	DB	00H
	DB	00H
	DB	00H
	DB	099H
	DB	00H
	DB	00H
	DB	00H
	DB	099H
	DB	00H
	DB	00H
	DB	00H
	DB	099H
	DB	00H
	DB	00H
	DB	00H
	DB	099H
	DB	00H
	DB	00H
	DB	00H
	DB	099H
	DB	00H
	DB	00H
	DB	00H
	DB	099H
	DB	00H
	DB	00H
	DB	00H
	DB	099H
	DB	00H
	DB	00H
	DB	00H
	DB	099H
	DB	00H
	DB	00H
	DB	00H
	DB	099H
	DB	00H
	DB	00H
	DB	00H
	DB	099H
	DB	00H
	DB	00H
	DB	00H
	DB	099H
	DB	00H
	DB	00H
	DB	00H
	DB	099H
	DB	00H
	DB	00H
	DB	00H
	DB	099H
	DB	00H
	DB	00H
	DB	00H
	DB	099H
	DB	00H
	DB	00H
	DB	00H
	DB	099H
	DB	00H
	DB	00H
	DB	00H
	DB	099H
	DB	00H
	DB	00H
	DB	00H
	DB	099H
	DB	00H
	DB	00H
	DB	00H
	DB	099H
	DB	00H
	DB	00H
	DB	00H
	DB	099H
	DB	00H
	DB	00H
	DB	00H
	DB	099H
	DB	00H
	DB	00H
	DB	00H
	DB	099H
	DB	00H
	DB	00H
	DB	00H
	DB	099H
	DB	00H
	DB	00H
	DB	00H
	DB	099H
	DB	00H
	DB	00H
	DB	00H
	DB	099H
	DB	00H
	DB	00H
	DB	00H
	DB	099H
	DB	00H
	DB	00H
	DB	00H
	DB	099H
	DB	00H
	DB	00H
	DB	00H
	DB	099H
	DB	00H
	DB	00H
	DB	00H
	DB	099H
	DB	00H
	DB	00H
	DB	00H
	DB	099H
	DB	00H
	DB	00H
	DB	00H
	DB	099H
	DB	00H
	DB	00H
	DB	00H
	DB	099H
	DB	00H
	DB	00H
	DB	00H
	DB	099H
	DB	00H
	DB	00H
	DB	00H
	DB	099H
	DB	00H
	DB	00H
	DB	00H
	DB	099H
	DB	00H
	DB	00H
	DB	00H
	DB	099H
	DB	00H
	DB	00H
	DB	00H
	DB	099H
	DB	00H
	DB	00H
	DB	00H
	DB	099H
	DB	00H
	DB	00H
	DB	00H
	DB	099H
	DB	00H
	DB	00H
	DB	00H
	DB	099H
	DB	00H
	DB	00H
	DB	00H
	DB	099H
	DB	00H
	DB	00H
	DB	00H
	DB	099H
	DB	00H
	DB	00H
	DB	00H
	DB	099H
	DB	00H
	DB	00H
	DB	00H
	DB	099H
	DB	00H
	DB	00H
	DB	00H
	DB	099H
	DB	00H
	DB	00H
	DB	00H
	DB	099H
	DB	00H
	DB	00H
	DB	00H
	DB	099H
	DB	00H
	DB	00H
	DB	00H
	DB	099H
	DB	00H
	DB	00H
	DB	00H
	DB	099H
	DB	00H
	DB	00H
	DB	00H
	DB	099H
	DB	00H
	DB	00H
	DB	00H
	DB	099H
	DB	00H
	DB	00H
	DB	00H
	DB	099H
	DB	00H
	DB	00H
	DB	00H
	DB	099H
	DB	00H
	DB	00H
	DB	00H
	DB	099H
	DB	00H
	DB	00H
	DB	00H
	DB	099H
	DB	00H
	DB	00H
	DB	00H
	DB	099H
	DB	00H
	DB	00H
	DB	00H
	DB	099H
	DB	00H
	DB	00H
	DB	00H
	DB	099H
	DB	00H
	DB	00H
	DB	00H
	DB	099H
	DB	00H
	DB	00H
	DB	00H
	DB	099H
	DB	00H
	DB	00H
	DB	00H
	DB	099H
	DB	00H
	DB	00H
	DB	00H
	DB	099H
	DB	00H
	DB	00H
	DB	00H
	DB	099H
	DB	00H
	DB	00H
	DB	00H
	DB	099H
	DB	00H
	DB	00H
	DB	00H
	DB	099H
	DB	00H
	DB	00H
	DB	00H
	DB	099H
	DB	00H
	DB	00H
	DB	00H
	DB	099H
	DB	00H
	DB	00H
	DB	00H
	DB	099H
	DB	00H
	DB	00H
	DB	00H
	DB	099H
	DB	00H
	DB	00H
	DB	00H
	DB	099H
	DB	00H
	DB	00H
	DB	00H
	DB	099H
	DB	00H
	DB	00H
	DB	00H
	DB	099H
	DB	00H
	DB	00H
	DB	00H
	DB	099H
	DB	00H
	DB	00H
	DB	00H
	DB	099H
	DB	00H
	DB	00H
	DB	00H
	DB	099H
	DB	00H
	DB	00H
	DB	00H
	DB	099H
	DB	00H
	DB	00H
	DB	00H
	DB	099H
	DB	00H
	DB	00H
	DB	00H
	DB	099H
	DB	00H
	DB	00H
	DB	00H
	DB	099H
	DB	00H
	DB	00H
	DB	00H
	DB	099H
	DB	00H
	DB	00H
	DB	00H
	DB	099H
	DB	00H
	DB	00H
	DB	00H
	DB	099H
	DB	00H
	DB	00H
	DB	00H
	DB	047H
	DB	00H
	DB	00H
	DB	00H
	DB	00H
	DB	00H
	DB	00H
	DB	00H
	DB	00H
	DB	00H
	DB	00H
	DB	00H
	DB	00H
	DB	00H
	DB	00H
	DB	00H
	DB	01H
	DB	00H
	DB	00H
	DB	00H
	DB	088H
	DB	00H
	DB	00H
	DB	00H
	DB	099H
	DB	00H
	DB	00H
	DB	00H
	DB	099H
	DB	00H
	DB	00H
	DB	00H
	DB	099H
	DB	00H
	DB	00H
	DB	00H
	DB	099H
	DB	00H
	DB	00H
	DB	00H
	DB	099H
	DB	00H
	DB	00H
	DB	00H
	DB	099H
	DB	00H
	DB	00H
	DB	00H
	DB	099H
	DB	00H
	DB	00H
	DB	00H
	DB	099H
	DB	00H
	DB	00H
	DB	00H
	DB	099H
	DB	00H
	DB	00H
	DB	00H
	DB	099H
	DB	00H
	DB	00H
	DB	00H
	DB	099H
	DB	00H
	DB	00H
	DB	00H
	DB	099H
	DB	00H
	DB	00H
	DB	00H
	DB	099H
	DB	00H
	DB	00H
	DB	00H
	DB	099H
	DB	00H
	DB	00H
	DB	00H
	DB	099H
	DB	00H
	DB	00H
	DB	00H
	DB	099H
	DB	00H
	DB	00H
	DB	00H
	DB	099H
	DB	00H
	DB	00H
	DB	00H
	DB	099H
	DB	00H
	DB	00H
	DB	00H
	DB	099H
	DB	00H
	DB	00H
	DB	00H
	DB	099H
	DB	00H
	DB	00H
	DB	00H
	DB	099H
	DB	00H
	DB	00H
	DB	00H
	DB	099H
	DB	00H
	DB	00H
	DB	00H
	DB	099H
	DB	00H
	DB	00H
	DB	00H
	DB	099H
	DB	00H
	DB	00H
	DB	00H
	DB	099H
	DB	00H
	DB	00H
	DB	00H
	DB	099H
	DB	00H
	DB	00H
	DB	00H
	DB	099H
	DB	00H
	DB	00H
	DB	00H
	DB	099H
	DB	00H
	DB	00H
	DB	00H
	DB	099H
	DB	00H
	DB	00H
	DB	00H
	DB	099H
	DB	00H
	DB	00H
	DB	00H
	DB	099H
	DB	00H
	DB	00H
	DB	00H
	DB	099H
	DB	00H
	DB	00H
	DB	00H
	DB	099H
	DB	00H
	DB	00H
	DB	00H
	DB	099H
	DB	00H
	DB	00H
	DB	00H
	DB	099H
	DB	00H
	DB	00H
	DB	00H
	DB	099H
	DB	00H
	DB	00H
	DB	00H
	DB	099H
	DB	00H
	DB	00H
	DB	00H
	DB	099H
	DB	00H
	DB	00H
	DB	00H
	DB	099H
	DB	00H
	DB	00H
	DB	00H
	DB	099H
	DB	00H
	DB	00H
	DB	00H
	DB	099H
	DB	00H
	DB	00H
	DB	00H
	DB	099H
	DB	00H
	DB	00H
	DB	00H
	DB	099H
	DB	00H
	DB	00H
	DB	00H
	DB	099H
	DB	00H
	DB	00H
	DB	00H
	DB	099H
	DB	00H
	DB	00H
	DB	00H
	DB	099H
	DB	00H
	DB	00H
	DB	00H
	DB	099H
	DB	00H
	DB	00H
	DB	00H
	DB	099H
	DB	00H
	DB	00H
	DB	00H
	DB	099H
	DB	00H
	DB	00H
	DB	00H
	DB	099H
	DB	00H
	DB	00H
	DB	00H
	DB	099H
	DB	00H
	DB	00H
	DB	00H
	DB	099H
	DB	00H
	DB	00H
	DB	00H
	DB	099H
	DB	00H
	DB	00H
	DB	00H
	DB	099H
	DB	00H
	DB	00H
	DB	00H
	DB	099H
	DB	00H
	DB	00H
	DB	00H
	DB	099H
	DB	00H
	DB	00H
	DB	00H
	DB	099H
	DB	00H
	DB	00H
	DB	00H
	DB	099H
	DB	00H
	DB	00H
	DB	00H
	DB	099H
	DB	00H
	DB	00H
	DB	00H
	DB	099H
	DB	00H
	DB	00H
	DB	00H
	DB	099H
	DB	00H
	DB	00H
	DB	00H
	DB	099H
	DB	00H
	DB	00H
	DB	00H
	DB	099H
	DB	00H
	DB	00H
	DB	00H
	DB	099H
	DB	00H
	DB	00H
	DB	00H
	DB	099H
	DB	00H
	DB	00H
	DB	00H
	DB	099H
	DB	00H
	DB	00H
	DB	00H
	DB	099H
	DB	00H
	DB	00H
	DB	00H
	DB	099H
	DB	00H
	DB	00H
	DB	00H
	DB	099H
	DB	00H
	DB	00H
	DB	00H
	DB	099H
	DB	00H
	DB	00H
	DB	00H
	DB	099H
	DB	00H
	DB	00H
	DB	00H
	DB	099H
	DB	00H
	DB	00H
	DB	00H
	DB	099H
	DB	00H
	DB	00H
	DB	00H
	DB	099H
	DB	00H
	DB	00H
	DB	00H
	DB	099H
	DB	00H
	DB	00H
	DB	00H
	DB	099H
	DB	00H
	DB	00H
	DB	00H
	DB	099H
	DB	00H
	DB	00H
	DB	00H
	DB	099H
	DB	00H
	DB	00H
	DB	00H
	DB	099H
	DB	00H
	DB	00H
	DB	00H
	DB	099H
	DB	00H
	DB	00H
	DB	00H
	DB	099H
	DB	00H
	DB	00H
	DB	00H
	DB	099H
	DB	00H
	DB	00H
	DB	00H
	DB	099H
	DB	00H
	DB	00H
	DB	00H
	DB	099H
	DB	00H
	DB	00H
	DB	00H
	DB	099H
	DB	00H
	DB	00H
	DB	00H
	DB	099H
	DB	00H
	DB	00H
	DB	00H
	DB	099H
	DB	00H
	DB	00H
	DB	00H
	DB	099H
	DB	00H
	DB	00H
	DB	00H
	DB	099H
	DB	00H
	DB	00H
	DB	00H
	DB	099H
	DB	00H
	DB	00H
	DB	00H
	DB	099H
	DB	00H
	DB	00H
	DB	00H
	DB	099H
	DB	00H
	DB	00H
	DB	00H
	DB	099H
	DB	00H
	DB	00H
	DB	00H
	DB	099H
	DB	00H
	DB	00H
	DB	00H
	DB	099H
	DB	00H
	DB	00H
	DB	00H
	DB	099H
	DB	00H
	DB	00H
	DB	00H
	DB	099H
	DB	00H
	DB	00H
	DB	00H
	DB	099H
	DB	00H
	DB	00H
	DB	00H
	DB	099H
	DB	00H
	DB	00H
	DB	00H
	DB	099H
	DB	00H
	DB	00H
	DB	00H
	DB	099H
	DB	00H
	DB	00H
	DB	00H
	DB	099H
	DB	00H
	DB	00H
	DB	00H
	DB	099H
	DB	00H
	DB	00H
	DB	00H
	DB	099H
	DB	00H
	DB	00H
	DB	00H
	DB	099H
	DB	00H
	DB	00H
	DB	00H
	DB	099H
	DB	00H
	DB	00H
	DB	00H
	DB	099H
	DB	00H
	DB	00H
	DB	00H
	DB	099H
	DB	00H
	DB	00H
	DB	00H
	DB	099H
	DB	00H
	DB	00H
	DB	00H
	DB	099H
	DB	00H
	DB	00H
	DB	00H
	DB	099H
	DB	00H
	DB	00H
	DB	00H
	DB	099H
	DB	00H
	DB	00H
	DB	00H
	DB	099H
	DB	00H
	DB	00H
	DB	00H
	DB	099H
	DB	00H
	DB	00H
	DB	00H
	DB	099H
	DB	00H
	DB	00H
	DB	00H
	DB	099H
	DB	00H
	DB	00H
	DB	00H
	DB	099H
	DB	00H
	DB	00H
	DB	00H
	DB	099H
	DB	00H
	DB	00H
	DB	00H
	DB	099H
	DB	00H
	DB	00H
	DB	00H
	DB	099H
	DB	00H
	DB	00H
	DB	00H
	DB	099H
	DB	00H
	DB	00H
	DB	00H
	DB	099H
	DB	00H
	DB	00H
	DB	00H
	DB	099H
	DB	00H
	DB	00H
	DB	00H
	DB	099H
	DB	00H
	DB	00H
	DB	00H
	DB	099H
	DB	00H
	DB	00H
	DB	00H
	DB	099H
	DB	00H
	DB	00H
	DB	00H
	DB	099H
	DB	00H
	DB	00H
	DB	00H
	DB	099H
	DB	00H
	DB	00H
	DB	00H
	DB	099H
	DB	00H
	DB	00H
	DB	00H
	DB	099H
	DB	00H
	DB	00H
	DB	00H
	DB	099H
	DB	00H
	DB	00H
	DB	00H
	DB	099H
	DB	00H
	DB	00H
	DB	00H
	DB	099H
	DB	00H
	DB	00H
	DB	00H
	DB	099H
	DB	00H
	DB	00H
	DB	00H
	DB	099H
	DB	00H
	DB	00H
	DB	00H
	DB	099H
	DB	00H
	DB	00H
	DB	00H
	DB	099H
	DB	00H
	DB	00H
	DB	00H
	DB	099H
	DB	00H
	DB	00H
	DB	00H
	DB	099H
	DB	00H
	DB	00H
	DB	00H
	DB	099H
	DB	00H
	DB	00H
	DB	00H
	DB	099H
	DB	00H
	DB	00H
	DB	00H
	DB	099H
	DB	00H
	DB	00H
	DB	00H
	DB	099H
	DB	00H
	DB	00H
	DB	00H
	DB	099H
	DB	00H
	DB	00H
	DB	00H
	DB	099H
	DB	00H
	DB	00H
	DB	00H
	DB	099H
	DB	00H
	DB	00H
	DB	00H
	DB	099H
	DB	00H
	DB	00H
	DB	00H
	DB	099H
	DB	00H
	DB	00H
	DB	00H
	DB	099H
	DB	00H
	DB	00H
	DB	00H
	DB	099H
	DB	00H
	DB	00H
	DB	00H
	DB	099H
	DB	00H
	DB	00H
	DB	00H
	DB	099H
	DB	00H
	DB	00H
	DB	00H
	DB	099H
	DB	00H
	DB	00H
	DB	00H
	DB	099H
	DB	00H
	DB	00H
	DB	00H
	DB	099H
	DB	00H
	DB	00H
	DB	00H
	DB	099H
	DB	00H
	DB	00H
	DB	00H
	DB	099H
	DB	00H
	DB	00H
	DB	00H
	DB	099H
	DB	00H
	DB	00H
	DB	00H
	DB	099H
	DB	00H
	DB	00H
	DB	00H
	DB	099H
	DB	00H
	DB	00H
	DB	00H
	DB	099H
	DB	00H
	DB	00H
	DB	00H
	DB	099H
	DB	00H
	DB	00H
	DB	00H
	DB	099H
	DB	00H
	DB	00H
	DB	00H
	DB	099H
	DB	00H
	DB	00H
	DB	00H
	DB	099H
	DB	00H
	DB	00H
	DB	00H
	DB	099H
	DB	00H
	DB	00H
	DB	00H
	DB	099H
	DB	00H
	DB	00H
	DB	00H
	DB	099H
	DB	00H
	DB	00H
	DB	00H
	DB	099H
	DB	00H
	DB	00H
	DB	00H
	DB	099H
	DB	00H
	DB	00H
	DB	00H
	DB	099H
	DB	00H
	DB	00H
	DB	00H
	DB	099H
	DB	00H
	DB	00H
	DB	00H
	DB	099H
	DB	00H
	DB	00H
	DB	00H
	DB	099H
	DB	00H
	DB	00H
	DB	00H
	DB	099H
	DB	00H
	DB	00H
	DB	00H
	DB	099H
	DB	00H
	DB	00H
	DB	00H
	DB	099H
	DB	00H
	DB	00H
	DB	00H
	DB	099H
	DB	00H
	DB	00H
	DB	00H
	DB	099H
	DB	00H
	DB	00H
	DB	00H
	DB	099H
	DB	00H
	DB	00H
	DB	00H
	DB	099H
	DB	00H
	DB	00H
	DB	00H
	DB	099H
	DB	00H
	DB	00H
	DB	00H
	DB	099H
	DB	00H
	DB	00H
	DB	00H
	DB	099H
	DB	00H
	DB	00H
	DB	00H
	DB	099H
	DB	00H
	DB	00H
	DB	00H
	DB	099H
	DB	00H
	DB	00H
	DB	00H
	DB	099H
	DB	00H
	DB	00H
	DB	00H
	DB	099H
	DB	00H
	DB	00H
	DB	00H
	DB	099H
	DB	00H
	DB	00H
	DB	00H
	DB	099H
	DB	00H
	DB	00H
	DB	00H
	DB	099H
	DB	00H
	DB	00H
	DB	00H
	DB	099H
	DB	00H
	DB	00H
	DB	00H
	DB	099H
	DB	00H
	DB	00H
	DB	00H
	DB	099H
	DB	00H
	DB	00H
	DB	00H
	DB	099H
	DB	00H
	DB	00H
	DB	00H
	DB	099H
	DB	00H
	DB	00H
	DB	00H
	DB	099H
	DB	00H
	DB	00H
	DB	00H
	DB	099H
	DB	00H
	DB	00H
	DB	00H
	DB	099H
	DB	00H
	DB	00H
	DB	00H
	DB	099H
	DB	00H
	DB	00H
	DB	00H
	DB	099H
	DB	00H
	DB	00H
	DB	00H
	DB	099H
	DB	00H
	DB	00H
	DB	00H
	DB	099H
	DB	00H
	DB	00H
	DB	00H
	DB	099H
	DB	00H
	DB	00H
	DB	00H
	DB	099H
	DB	00H
	DB	00H
	DB	00H
	DB	099H
	DB	00H
	DB	00H
	DB	00H
	DB	099H
	DB	00H
	DB	00H
	DB	00H
	DB	099H
	DB	00H
	DB	00H
	DB	00H
	DB	099H
	DB	00H
	DB	00H
	DB	00H
	DB	099H
	DB	00H
	DB	00H
	DB	00H
	DB	099H
	DB	00H
	DB	00H
	DB	00H
	DB	099H
	DB	00H
	DB	00H
	DB	00H
	DB	099H
	DB	00H
	DB	00H
	DB	00H
	DB	099H
	DB	00H
	DB	00H
	DB	00H
	DB	099H
	DB	00H
	DB	00H
	DB	00H
	DB	099H
	DB	00H
	DB	00H
	DB	00H
	DB	099H
	DB	00H
	DB	00H
	DB	00H
	DB	099H
	DB	00H
	DB	00H
	DB	00H
	DB	099H
	DB	00H
	DB	00H
	DB	00H
	DB	099H
	DB	00H
	DB	00H
	DB	00H
	DB	099H
	DB	00H
	DB	00H
	DB	00H
	DB	099H
	DB	00H
	DB	00H
	DB	00H
	DB	099H
	DB	00H
	DB	00H
	DB	00H
	DB	099H
	DB	00H
	DB	00H
	DB	00H
	DB	099H
	DB	00H
	DB	00H
	DB	00H
	DB	099H
	DB	00H
	DB	00H
	DB	00H
	DB	099H
	DB	00H
	DB	00H
	DB	00H
	DB	099H
	DB	00H
	DB	00H
	DB	00H
	DB	099H
	DB	00H
	DB	00H
	DB	00H
	DB	099H
	DB	00H
	DB	00H
	DB	00H
	DB	099H
	DB	00H
	DB	00H
	DB	00H
	DB	099H
	DB	00H
	DB	00H
	DB	00H
	DB	099H
	DB	00H
	DB	00H
	DB	00H
	DB	099H
	DB	00H
	DB	00H
	DB	00H
	DB	099H
	DB	00H
	DB	00H
	DB	00H
	DB	099H
	DB	00H
	DB	00H
	DB	00H
	DB	099H
	DB	00H
	DB	00H
	DB	00H
	DB	099H
	DB	00H
	DB	00H
	DB	00H
	DB	099H
	DB	00H
	DB	00H
	DB	00H
	DB	099H
	DB	00H
	DB	00H
	DB	00H
	DB	099H
	DB	00H
	DB	00H
	DB	00H
	DB	099H
	DB	00H
	DB	00H
	DB	00H
	DB	099H
	DB	00H
	DB	00H
	DB	00H
	DB	099H
	DB	00H
	DB	00H
	DB	00H
	DB	099H
	DB	00H
	DB	00H
	DB	00H
	DB	099H
	DB	00H
	DB	00H
	DB	00H
	DB	099H
	DB	00H
	DB	00H
	DB	00H
	DB	099H
	DB	00H
	DB	00H
	DB	00H
	DB	099H
	DB	00H
	DB	00H
	DB	00H
	DB	099H
	DB	00H
	DB	00H
	DB	00H
	DB	099H
	DB	00H
	DB	00H
	DB	00H
	DB	099H
	DB	00H
	DB	00H
	DB	00H
	DB	099H
	DB	00H
	DB	00H
	DB	00H
	DB	099H
	DB	00H
	DB	00H
	DB	00H
	DB	099H
	DB	00H
	DB	00H
	DB	00H
	DB	099H
	DB	00H
	DB	00H
	DB	00H
	DB	099H
	DB	00H
	DB	00H
	DB	00H
	DB	099H
	DB	00H
	DB	00H
	DB	00H
	DB	099H
	DB	00H
	DB	00H
	DB	00H
	DB	099H
	DB	00H
	DB	00H
	DB	00H
	DB	099H
	DB	00H
	DB	00H
	DB	00H
	DB	099H
	DB	00H
	DB	00H
	DB	00H
	DB	099H
	DB	00H
	DB	00H
	DB	00H
	DB	099H
	DB	00H
	DB	00H
	DB	00H
	DB	086H
	DB	00H
	DB	00H
	DB	00H
	DB	01H
	DB	00H
	DB	00H
	DB	00H
	DB	00H
	DB	00H
	DB	00H
	DB	00H
	DB	00H
	DB	00H
	DB	00H
	DB	00H
	DB	025H
	DB	00H
	DB	00H
	DB	00H
	DB	099H
	DB	00H
	DB	00H
	DB	00H
	DB	099H
	DB	00H
	DB	00H
	DB	00H
	DB	099H
	DB	00H
	DB	00H
	DB	00H
	DB	099H
	DB	00H
	DB	00H
	DB	00H
	DB	099H
	DB	00H
	DB	00H
	DB	00H
	DB	099H
	DB	00H
	DB	00H
	DB	00H
	DB	099H
	DB	00H
	DB	00H
	DB	00H
	DB	099H
	DB	00H
	DB	00H
	DB	00H
	DB	099H
	DB	00H
	DB	00H
	DB	00H
	DB	099H
	DB	00H
	DB	00H
	DB	00H
	DB	099H
	DB	00H
	DB	00H
	DB	00H
	DB	099H
	DB	00H
	DB	00H
	DB	00H
	DB	099H
	DB	00H
	DB	00H
	DB	00H
	DB	099H
	DB	00H
	DB	00H
	DB	00H
	DB	099H
	DB	00H
	DB	00H
	DB	00H
	DB	099H
	DB	00H
	DB	00H
	DB	00H
	DB	099H
	DB	00H
	DB	00H
	DB	00H
	DB	099H
	DB	00H
	DB	00H
	DB	00H
	DB	099H
	DB	00H
	DB	00H
	DB	00H
	DB	099H
	DB	00H
	DB	00H
	DB	00H
	DB	099H
	DB	00H
	DB	00H
	DB	00H
	DB	099H
	DB	00H
	DB	00H
	DB	00H
	DB	099H
	DB	00H
	DB	00H
	DB	00H
	DB	099H
	DB	00H
	DB	00H
	DB	00H
	DB	099H
	DB	00H
	DB	00H
	DB	00H
	DB	099H
	DB	00H
	DB	00H
	DB	00H
	DB	099H
	DB	00H
	DB	00H
	DB	00H
	DB	099H
	DB	00H
	DB	00H
	DB	00H
	DB	099H
	DB	00H
	DB	00H
	DB	00H
	DB	099H
	DB	00H
	DB	00H
	DB	00H
	DB	099H
	DB	00H
	DB	00H
	DB	00H
	DB	099H
	DB	00H
	DB	00H
	DB	00H
	DB	099H
	DB	00H
	DB	00H
	DB	00H
	DB	099H
	DB	00H
	DB	00H
	DB	00H
	DB	099H
	DB	00H
	DB	00H
	DB	00H
	DB	099H
	DB	00H
	DB	00H
	DB	00H
	DB	099H
	DB	00H
	DB	00H
	DB	00H
	DB	099H
	DB	00H
	DB	00H
	DB	00H
	DB	099H
	DB	00H
	DB	00H
	DB	00H
	DB	099H
	DB	00H
	DB	00H
	DB	00H
	DB	099H
	DB	00H
	DB	00H
	DB	00H
	DB	099H
	DB	00H
	DB	00H
	DB	00H
	DB	099H
	DB	00H
	DB	00H
	DB	00H
	DB	099H
	DB	00H
	DB	00H
	DB	00H
	DB	099H
	DB	00H
	DB	00H
	DB	00H
	DB	099H
	DB	00H
	DB	00H
	DB	00H
	DB	099H
	DB	00H
	DB	00H
	DB	00H
	DB	099H
	DB	00H
	DB	00H
	DB	00H
	DB	099H
	DB	00H
	DB	00H
	DB	00H
	DB	099H
	DB	00H
	DB	00H
	DB	00H
	DB	099H
	DB	00H
	DB	00H
	DB	00H
	DB	099H
	DB	00H
	DB	00H
	DB	00H
	DB	099H
	DB	00H
	DB	00H
	DB	00H
	DB	099H
	DB	00H
	DB	00H
	DB	00H
	DB	099H
	DB	00H
	DB	00H
	DB	00H
	DB	099H
	DB	00H
	DB	00H
	DB	00H
	DB	099H
	DB	00H
	DB	00H
	DB	00H
	DB	099H
	DB	00H
	DB	00H
	DB	00H
	DB	099H
	DB	00H
	DB	00H
	DB	00H
	DB	099H
	DB	00H
	DB	00H
	DB	00H
	DB	099H
	DB	00H
	DB	00H
	DB	00H
	DB	099H
	DB	00H
	DB	00H
	DB	00H
	DB	099H
	DB	00H
	DB	00H
	DB	00H
	DB	099H
	DB	00H
	DB	00H
	DB	00H
	DB	099H
	DB	00H
	DB	00H
	DB	00H
	DB	099H
	DB	00H
	DB	00H
	DB	00H
	DB	099H
	DB	00H
	DB	00H
	DB	00H
	DB	099H
	DB	00H
	DB	00H
	DB	00H
	DB	099H
	DB	00H
	DB	00H
	DB	00H
	DB	099H
	DB	00H
	DB	00H
	DB	00H
	DB	099H
	DB	00H
	DB	00H
	DB	00H
	DB	099H
	DB	00H
	DB	00H
	DB	00H
	DB	099H
	DB	00H
	DB	00H
	DB	00H
	DB	099H
	DB	00H
	DB	00H
	DB	00H
	DB	099H
	DB	00H
	DB	00H
	DB	00H
	DB	099H
	DB	00H
	DB	00H
	DB	00H
	DB	099H
	DB	00H
	DB	00H
	DB	00H
	DB	099H
	DB	00H
	DB	00H
	DB	00H
	DB	099H
	DB	00H
	DB	00H
	DB	00H
	DB	099H
	DB	00H
	DB	00H
	DB	00H
	DB	099H
	DB	00H
	DB	00H
	DB	00H
	DB	099H
	DB	00H
	DB	00H
	DB	00H
	DB	099H
	DB	00H
	DB	00H
	DB	00H
	DB	099H
	DB	00H
	DB	00H
	DB	00H
	DB	099H
	DB	00H
	DB	00H
	DB	00H
	DB	099H
	DB	00H
	DB	00H
	DB	00H
	DB	099H
	DB	00H
	DB	00H
	DB	00H
	DB	099H
	DB	00H
	DB	00H
	DB	00H
	DB	099H
	DB	00H
	DB	00H
	DB	00H
	DB	099H
	DB	00H
	DB	00H
	DB	00H
	DB	099H
	DB	00H
	DB	00H
	DB	00H
	DB	099H
	DB	00H
	DB	00H
	DB	00H
	DB	099H
	DB	00H
	DB	00H
	DB	00H
	DB	099H
	DB	00H
	DB	00H
	DB	00H
	DB	099H
	DB	00H
	DB	00H
	DB	00H
	DB	099H
	DB	00H
	DB	00H
	DB	00H
	DB	099H
	DB	00H
	DB	00H
	DB	00H
	DB	099H
	DB	00H
	DB	00H
	DB	00H
	DB	099H
	DB	00H
	DB	00H
	DB	00H
	DB	099H
	DB	00H
	DB	00H
	DB	00H
	DB	099H
	DB	00H
	DB	00H
	DB	00H
	DB	099H
	DB	00H
	DB	00H
	DB	00H
	DB	099H
	DB	00H
	DB	00H
	DB	00H
	DB	099H
	DB	00H
	DB	00H
	DB	00H
	DB	099H
	DB	00H
	DB	00H
	DB	00H
	DB	099H
	DB	00H
	DB	00H
	DB	00H
	DB	099H
	DB	00H
	DB	00H
	DB	00H
	DB	099H
	DB	00H
	DB	00H
	DB	00H
	DB	099H
	DB	00H
	DB	00H
	DB	00H
	DB	099H
	DB	00H
	DB	00H
	DB	00H
	DB	099H
	DB	00H
	DB	00H
	DB	00H
	DB	099H
	DB	00H
	DB	00H
	DB	00H
	DB	099H
	DB	00H
	DB	00H
	DB	00H
	DB	099H
	DB	00H
	DB	00H
	DB	00H
	DB	099H
	DB	00H
	DB	00H
	DB	00H
	DB	099H
	DB	00H
	DB	00H
	DB	00H
	DB	099H
	DB	00H
	DB	00H
	DB	00H
	DB	099H
	DB	00H
	DB	00H
	DB	00H
	DB	099H
	DB	00H
	DB	00H
	DB	00H
	DB	099H
	DB	00H
	DB	00H
	DB	00H
	DB	099H
	DB	00H
	DB	00H
	DB	00H
	DB	099H
	DB	00H
	DB	00H
	DB	00H
	DB	099H
	DB	00H
	DB	00H
	DB	00H
	DB	099H
	DB	00H
	DB	00H
	DB	00H
	DB	099H
	DB	00H
	DB	00H
	DB	00H
	DB	099H
	DB	00H
	DB	00H
	DB	00H
	DB	099H
	DB	00H
	DB	00H
	DB	00H
	DB	099H
	DB	00H
	DB	00H
	DB	00H
	DB	099H
	DB	00H
	DB	00H
	DB	00H
	DB	099H
	DB	00H
	DB	00H
	DB	00H
	DB	099H
	DB	00H
	DB	00H
	DB	00H
	DB	099H
	DB	00H
	DB	00H
	DB	00H
	DB	099H
	DB	00H
	DB	00H
	DB	00H
	DB	099H
	DB	00H
	DB	00H
	DB	00H
	DB	099H
	DB	00H
	DB	00H
	DB	00H
	DB	099H
	DB	00H
	DB	00H
	DB	00H
	DB	099H
	DB	00H
	DB	00H
	DB	00H
	DB	099H
	DB	00H
	DB	00H
	DB	00H
	DB	099H
	DB	00H
	DB	00H
	DB	00H
	DB	099H
	DB	00H
	DB	00H
	DB	00H
	DB	099H
	DB	00H
	DB	00H
	DB	00H
	DB	099H
	DB	00H
	DB	00H
	DB	00H
	DB	099H
	DB	00H
	DB	00H
	DB	00H
	DB	099H
	DB	00H
	DB	00H
	DB	00H
	DB	099H
	DB	00H
	DB	00H
	DB	00H
	DB	099H
	DB	00H
	DB	00H
	DB	00H
	DB	099H
	DB	00H
	DB	00H
	DB	00H
	DB	099H
	DB	00H
	DB	00H
	DB	00H
	DB	099H
	DB	00H
	DB	00H
	DB	00H
	DB	099H
	DB	00H
	DB	00H
	DB	00H
	DB	099H
	DB	00H
	DB	00H
	DB	00H
	DB	099H
	DB	00H
	DB	00H
	DB	00H
	DB	099H
	DB	00H
	DB	00H
	DB	00H
	DB	099H
	DB	00H
	DB	00H
	DB	00H
	DB	099H
	DB	00H
	DB	00H
	DB	00H
	DB	099H
	DB	00H
	DB	00H
	DB	00H
	DB	099H
	DB	00H
	DB	00H
	DB	00H
	DB	099H
	DB	00H
	DB	00H
	DB	00H
	DB	099H
	DB	00H
	DB	00H
	DB	00H
	DB	099H
	DB	00H
	DB	00H
	DB	00H
	DB	099H
	DB	00H
	DB	00H
	DB	00H
	DB	099H
	DB	00H
	DB	00H
	DB	00H
	DB	099H
	DB	00H
	DB	00H
	DB	00H
	DB	099H
	DB	00H
	DB	00H
	DB	00H
	DB	099H
	DB	00H
	DB	00H
	DB	00H
	DB	099H
	DB	00H
	DB	00H
	DB	00H
	DB	099H
	DB	00H
	DB	00H
	DB	00H
	DB	099H
	DB	00H
	DB	00H
	DB	00H
	DB	099H
	DB	00H
	DB	00H
	DB	00H
	DB	099H
	DB	00H
	DB	00H
	DB	00H
	DB	099H
	DB	00H
	DB	00H
	DB	00H
	DB	099H
	DB	00H
	DB	00H
	DB	00H
	DB	099H
	DB	00H
	DB	00H
	DB	00H
	DB	099H
	DB	00H
	DB	00H
	DB	00H
	DB	099H
	DB	00H
	DB	00H
	DB	00H
	DB	099H
	DB	00H
	DB	00H
	DB	00H
	DB	099H
	DB	00H
	DB	00H
	DB	00H
	DB	099H
	DB	00H
	DB	00H
	DB	00H
	DB	099H
	DB	00H
	DB	00H
	DB	00H
	DB	099H
	DB	00H
	DB	00H
	DB	00H
	DB	099H
	DB	00H
	DB	00H
	DB	00H
	DB	099H
	DB	00H
	DB	00H
	DB	00H
	DB	099H
	DB	00H
	DB	00H
	DB	00H
	DB	099H
	DB	00H
	DB	00H
	DB	00H
	DB	099H
	DB	00H
	DB	00H
	DB	00H
	DB	099H
	DB	00H
	DB	00H
	DB	00H
	DB	099H
	DB	00H
	DB	00H
	DB	00H
	DB	099H
	DB	00H
	DB	00H
	DB	00H
	DB	099H
	DB	00H
	DB	00H
	DB	00H
	DB	099H
	DB	00H
	DB	00H
	DB	00H
	DB	099H
	DB	00H
	DB	00H
	DB	00H
	DB	099H
	DB	00H
	DB	00H
	DB	00H
	DB	099H
	DB	00H
	DB	00H
	DB	00H
	DB	099H
	DB	00H
	DB	00H
	DB	00H
	DB	099H
	DB	00H
	DB	00H
	DB	00H
	DB	099H
	DB	00H
	DB	00H
	DB	00H
	DB	099H
	DB	00H
	DB	00H
	DB	00H
	DB	099H
	DB	00H
	DB	00H
	DB	00H
	DB	099H
	DB	00H
	DB	00H
	DB	00H
	DB	099H
	DB	00H
	DB	00H
	DB	00H
	DB	099H
	DB	00H
	DB	00H
	DB	00H
	DB	099H
	DB	00H
	DB	00H
	DB	00H
	DB	099H
	DB	00H
	DB	00H
	DB	00H
	DB	099H
	DB	00H
	DB	00H
	DB	00H
	DB	099H
	DB	00H
	DB	00H
	DB	00H
	DB	099H
	DB	00H
	DB	00H
	DB	00H
	DB	099H
	DB	00H
	DB	00H
	DB	00H
	DB	099H
	DB	00H
	DB	00H
	DB	00H
	DB	099H
	DB	00H
	DB	00H
	DB	00H
	DB	099H
	DB	00H
	DB	00H
	DB	00H
	DB	099H
	DB	00H
	DB	00H
	DB	00H
	DB	099H
	DB	00H
	DB	00H
	DB	00H
	DB	099H
	DB	00H
	DB	00H
	DB	00H
	DB	099H
	DB	00H
	DB	00H
	DB	00H
	DB	099H
	DB	00H
	DB	00H
	DB	00H
	DB	099H
	DB	00H
	DB	00H
	DB	00H
	DB	099H
	DB	00H
	DB	00H
	DB	00H
	DB	099H
	DB	00H
	DB	00H
	DB	00H
	DB	099H
	DB	00H
	DB	00H
	DB	00H
	DB	099H
	DB	00H
	DB	00H
	DB	00H
	DB	099H
	DB	00H
	DB	00H
	DB	00H
	DB	099H
	DB	00H
	DB	00H
	DB	00H
	DB	099H
	DB	00H
	DB	00H
	DB	00H
	DB	099H
	DB	00H
	DB	00H
	DB	00H
	DB	099H
	DB	00H
	DB	00H
	DB	00H
	DB	099H
	DB	00H
	DB	00H
	DB	00H
	DB	099H
	DB	00H
	DB	00H
	DB	00H
	DB	099H
	DB	00H
	DB	00H
	DB	00H
	DB	099H
	DB	00H
	DB	00H
	DB	00H
	DB	099H
	DB	00H
	DB	00H
	DB	00H
	DB	099H
	DB	00H
	DB	00H
	DB	00H
	DB	099H
	DB	00H
	DB	00H
	DB	00H
	DB	099H
	DB	00H
	DB	00H
	DB	00H
	DB	099H
	DB	00H
	DB	00H
	DB	00H
	DB	099H
	DB	00H
	DB	00H
	DB	00H
	DB	099H
	DB	00H
	DB	00H
	DB	00H
	DB	099H
	DB	00H
	DB	00H
	DB	00H
	DB	099H
	DB	00H
	DB	00H
	DB	00H
	DB	099H
	DB	00H
	DB	00H
	DB	00H
	DB	099H
	DB	00H
	DB	00H
	DB	00H
	DB	099H
	DB	00H
	DB	00H
	DB	00H
	DB	099H
	DB	00H
	DB	00H
	DB	00H
	DB	099H
	DB	00H
	DB	00H
	DB	00H
	DB	099H
	DB	00H
	DB	00H
	DB	00H
	DB	099H
	DB	00H
	DB	00H
	DB	00H
	DB	099H
	DB	00H
	DB	00H
	DB	00H
	DB	099H
	DB	00H
	DB	00H
	DB	00H
	DB	099H
	DB	00H
	DB	00H
	DB	00H
	DB	099H
	DB	00H
	DB	00H
	DB	00H
	DB	099H
	DB	00H
	DB	00H
	DB	00H
	DB	099H
	DB	00H
	DB	00H
	DB	00H
	DB	099H
	DB	00H
	DB	00H
	DB	00H
	DB	099H
	DB	00H
	DB	00H
	DB	00H
	DB	099H
	DB	00H
	DB	00H
	DB	00H
	DB	099H
	DB	00H
	DB	00H
	DB	00H
	DB	099H
	DB	00H
	DB	00H
	DB	00H
	DB	099H
	DB	00H
	DB	00H
	DB	00H
	DB	099H
	DB	00H
	DB	00H
	DB	00H
	DB	099H
	DB	00H
	DB	00H
	DB	00H
	DB	099H
	DB	00H
	DB	00H
	DB	00H
	DB	099H
	DB	00H
	DB	00H
	DB	00H
	DB	099H
	DB	00H
	DB	00H
	DB	00H
	DB	099H
	DB	00H
	DB	00H
	DB	00H
	DB	099H
	DB	00H
	DB	00H
	DB	00H
	DB	099H
	DB	00H
	DB	00H
	DB	00H
	DB	099H
	DB	00H
	DB	00H
	DB	00H
	DB	023H
	DB	00H
	DB	00H
	DB	00H
	DB	00H
	DB	00H
	DB	00H
	DB	00H
	DB	00H
	DB	00H
	DB	00H
	DB	00H
	DB	059H
	DB	00H
	DB	00H
	DB	00H
	DB	099H
	DB	00H
	DB	00H
	DB	00H
	DB	099H
	DB	00H
	DB	00H
	DB	00H
	DB	099H
	DB	00H
	DB	00H
	DB	00H
	DB	099H
	DB	00H
	DB	00H
	DB	00H
	DB	099H
	DB	00H
	DB	00H
	DB	00H
	DB	099H
	DB	00H
	DB	00H
	DB	00H
	DB	099H
	DB	00H
	DB	00H
	DB	00H
	DB	099H
	DB	00H
	DB	00H
	DB	00H
	DB	099H
	DB	00H
	DB	00H
	DB	00H
	DB	099H
	DB	00H
	DB	00H
	DB	00H
	DB	099H
	DB	00H
	DB	00H
	DB	00H
	DB	099H
	DB	00H
	DB	00H
	DB	00H
	DB	099H
	DB	00H
	DB	00H
	DB	00H
	DB	099H
	DB	00H
	DB	00H
	DB	00H
	DB	099H
	DB	00H
	DB	00H
	DB	00H
	DB	099H
	DB	00H
	DB	00H
	DB	00H
	DB	099H
	DB	00H
	DB	00H
	DB	00H
	DB	099H
	DB	00H
	DB	00H
	DB	00H
	DB	099H
	DB	00H
	DB	00H
	DB	00H
	DB	099H
	DB	00H
	DB	00H
	DB	00H
	DB	099H
	DB	00H
	DB	00H
	DB	00H
	DB	099H
	DB	00H
	DB	00H
	DB	00H
	DB	099H
	DB	00H
	DB	00H
	DB	00H
	DB	099H
	DB	00H
	DB	00H
	DB	00H
	DB	099H
	DB	00H
	DB	00H
	DB	00H
	DB	099H
	DB	00H
	DB	00H
	DB	00H
	DB	099H
	DB	00H
	DB	00H
	DB	00H
	DB	099H
	DB	00H
	DB	00H
	DB	00H
	DB	099H
	DB	00H
	DB	00H
	DB	00H
	DB	099H
	DB	00H
	DB	00H
	DB	00H
	DB	099H
	DB	00H
	DB	00H
	DB	00H
	DB	099H
	DB	00H
	DB	00H
	DB	00H
	DB	099H
	DB	00H
	DB	00H
	DB	00H
	DB	099H
	DB	00H
	DB	00H
	DB	00H
	DB	099H
	DB	00H
	DB	00H
	DB	00H
	DB	099H
	DB	00H
	DB	00H
	DB	00H
	DB	099H
	DB	00H
	DB	00H
	DB	00H
	DB	099H
	DB	00H
	DB	00H
	DB	00H
	DB	099H
	DB	00H
	DB	00H
	DB	00H
	DB	099H
	DB	00H
	DB	00H
	DB	00H
	DB	099H
	DB	00H
	DB	00H
	DB	00H
	DB	099H
	DB	00H
	DB	00H
	DB	00H
	DB	099H
	DB	00H
	DB	00H
	DB	00H
	DB	099H
	DB	00H
	DB	00H
	DB	00H
	DB	099H
	DB	00H
	DB	00H
	DB	00H
	DB	099H
	DB	00H
	DB	00H
	DB	00H
	DB	099H
	DB	00H
	DB	00H
	DB	00H
	DB	099H
	DB	00H
	DB	00H
	DB	00H
	DB	099H
	DB	00H
	DB	00H
	DB	00H
	DB	099H
	DB	00H
	DB	00H
	DB	00H
	DB	099H
	DB	00H
	DB	00H
	DB	00H
	DB	099H
	DB	00H
	DB	00H
	DB	00H
	DB	099H
	DB	00H
	DB	00H
	DB	00H
	DB	099H
	DB	00H
	DB	00H
	DB	00H
	DB	099H
	DB	00H
	DB	00H
	DB	00H
	DB	099H
	DB	00H
	DB	00H
	DB	00H
	DB	099H
	DB	00H
	DB	00H
	DB	00H
	DB	099H
	DB	00H
	DB	00H
	DB	00H
	DB	099H
	DB	00H
	DB	00H
	DB	00H
	DB	099H
	DB	00H
	DB	00H
	DB	00H
	DB	099H
	DB	00H
	DB	00H
	DB	00H
	DB	099H
	DB	00H
	DB	00H
	DB	00H
	DB	099H
	DB	00H
	DB	00H
	DB	00H
	DB	099H
	DB	00H
	DB	00H
	DB	00H
	DB	099H
	DB	00H
	DB	00H
	DB	00H
	DB	099H
	DB	00H
	DB	00H
	DB	00H
	DB	099H
	DB	00H
	DB	00H
	DB	00H
	DB	099H
	DB	00H
	DB	00H
	DB	00H
	DB	099H
	DB	00H
	DB	00H
	DB	00H
	DB	099H
	DB	00H
	DB	00H
	DB	00H
	DB	099H
	DB	00H
	DB	00H
	DB	00H
	DB	099H
	DB	00H
	DB	00H
	DB	00H
	DB	099H
	DB	00H
	DB	00H
	DB	00H
	DB	099H
	DB	00H
	DB	00H
	DB	00H
	DB	099H
	DB	00H
	DB	00H
	DB	00H
	DB	099H
	DB	00H
	DB	00H
	DB	00H
	DB	099H
	DB	00H
	DB	00H
	DB	00H
	DB	099H
	DB	00H
	DB	00H
	DB	00H
	DB	099H
	DB	00H
	DB	00H
	DB	00H
	DB	099H
	DB	00H
	DB	00H
	DB	00H
	DB	099H
	DB	00H
	DB	00H
	DB	00H
	DB	099H
	DB	00H
	DB	00H
	DB	00H
	DB	099H
	DB	00H
	DB	00H
	DB	00H
	DB	099H
	DB	00H
	DB	00H
	DB	00H
	DB	099H
	DB	00H
	DB	00H
	DB	00H
	DB	099H
	DB	00H
	DB	00H
	DB	00H
	DB	099H
	DB	00H
	DB	00H
	DB	00H
	DB	099H
	DB	00H
	DB	00H
	DB	00H
	DB	099H
	DB	00H
	DB	00H
	DB	00H
	DB	099H
	DB	00H
	DB	00H
	DB	00H
	DB	099H
	DB	00H
	DB	00H
	DB	00H
	DB	099H
	DB	00H
	DB	00H
	DB	00H
	DB	099H
	DB	00H
	DB	00H
	DB	00H
	DB	099H
	DB	00H
	DB	00H
	DB	00H
	DB	099H
	DB	00H
	DB	00H
	DB	00H
	DB	099H
	DB	00H
	DB	00H
	DB	00H
	DB	099H
	DB	00H
	DB	00H
	DB	00H
	DB	099H
	DB	00H
	DB	00H
	DB	00H
	DB	099H
	DB	00H
	DB	00H
	DB	00H
	DB	099H
	DB	00H
	DB	00H
	DB	00H
	DB	099H
	DB	00H
	DB	00H
	DB	00H
	DB	099H
	DB	00H
	DB	00H
	DB	00H
	DB	099H
	DB	00H
	DB	00H
	DB	00H
	DB	099H
	DB	00H
	DB	00H
	DB	00H
	DB	099H
	DB	00H
	DB	00H
	DB	00H
	DB	099H
	DB	00H
	DB	00H
	DB	00H
	DB	099H
	DB	00H
	DB	00H
	DB	00H
	DB	099H
	DB	00H
	DB	00H
	DB	00H
	DB	099H
	DB	00H
	DB	00H
	DB	00H
	DB	099H
	DB	00H
	DB	00H
	DB	00H
	DB	099H
	DB	00H
	DB	00H
	DB	00H
	DB	099H
	DB	00H
	DB	00H
	DB	00H
	DB	099H
	DB	00H
	DB	00H
	DB	00H
	DB	099H
	DB	00H
	DB	00H
	DB	00H
	DB	099H
	DB	00H
	DB	00H
	DB	00H
	DB	099H
	DB	00H
	DB	00H
	DB	00H
	DB	099H
	DB	00H
	DB	00H
	DB	00H
	DB	099H
	DB	00H
	DB	00H
	DB	00H
	DB	099H
	DB	00H
	DB	00H
	DB	00H
	DB	099H
	DB	00H
	DB	00H
	DB	00H
	DB	099H
	DB	00H
	DB	00H
	DB	00H
	DB	099H
	DB	00H
	DB	00H
	DB	00H
	DB	099H
	DB	00H
	DB	00H
	DB	00H
	DB	099H
	DB	00H
	DB	00H
	DB	00H
	DB	099H
	DB	00H
	DB	00H
	DB	00H
	DB	099H
	DB	00H
	DB	00H
	DB	00H
	DB	099H
	DB	00H
	DB	00H
	DB	00H
	DB	099H
	DB	00H
	DB	00H
	DB	00H
	DB	099H
	DB	00H
	DB	00H
	DB	00H
	DB	099H
	DB	00H
	DB	00H
	DB	00H
	DB	099H
	DB	00H
	DB	00H
	DB	00H
	DB	099H
	DB	00H
	DB	00H
	DB	00H
	DB	099H
	DB	00H
	DB	00H
	DB	00H
	DB	099H
	DB	00H
	DB	00H
	DB	00H
	DB	099H
	DB	00H
	DB	00H
	DB	00H
	DB	099H
	DB	00H
	DB	00H
	DB	00H
	DB	099H
	DB	00H
	DB	00H
	DB	00H
	DB	099H
	DB	00H
	DB	00H
	DB	00H
	DB	099H
	DB	00H
	DB	00H
	DB	00H
	DB	099H
	DB	00H
	DB	00H
	DB	00H
	DB	099H
	DB	00H
	DB	00H
	DB	00H
	DB	099H
	DB	00H
	DB	00H
	DB	00H
	DB	099H
	DB	00H
	DB	00H
	DB	00H
	DB	099H
	DB	00H
	DB	00H
	DB	00H
	DB	099H
	DB	00H
	DB	00H
	DB	00H
	DB	099H
	DB	00H
	DB	00H
	DB	00H
	DB	099H
	DB	00H
	DB	00H
	DB	00H
	DB	099H
	DB	00H
	DB	00H
	DB	00H
	DB	099H
	DB	00H
	DB	00H
	DB	00H
	DB	099H
	DB	00H
	DB	00H
	DB	00H
	DB	099H
	DB	00H
	DB	00H
	DB	00H
	DB	099H
	DB	00H
	DB	00H
	DB	00H
	DB	099H
	DB	00H
	DB	00H
	DB	00H
	DB	099H
	DB	00H
	DB	00H
	DB	00H
	DB	099H
	DB	00H
	DB	00H
	DB	00H
	DB	099H
	DB	00H
	DB	00H
	DB	00H
	DB	099H
	DB	00H
	DB	00H
	DB	00H
	DB	099H
	DB	00H
	DB	00H
	DB	00H
	DB	099H
	DB	00H
	DB	00H
	DB	00H
	DB	099H
	DB	00H
	DB	00H
	DB	00H
	DB	099H
	DB	00H
	DB	00H
	DB	00H
	DB	099H
	DB	00H
	DB	00H
	DB	00H
	DB	099H
	DB	00H
	DB	00H
	DB	00H
	DB	099H
	DB	00H
	DB	00H
	DB	00H
	DB	099H
	DB	00H
	DB	00H
	DB	00H
	DB	099H
	DB	00H
	DB	00H
	DB	00H
	DB	099H
	DB	00H
	DB	00H
	DB	00H
	DB	099H
	DB	00H
	DB	00H
	DB	00H
	DB	099H
	DB	00H
	DB	00H
	DB	00H
	DB	099H
	DB	00H
	DB	00H
	DB	00H
	DB	099H
	DB	00H
	DB	00H
	DB	00H
	DB	099H
	DB	00H
	DB	00H
	DB	00H
	DB	099H
	DB	00H
	DB	00H
	DB	00H
	DB	099H
	DB	00H
	DB	00H
	DB	00H
	DB	099H
	DB	00H
	DB	00H
	DB	00H
	DB	099H
	DB	00H
	DB	00H
	DB	00H
	DB	099H
	DB	00H
	DB	00H
	DB	00H
	DB	099H
	DB	00H
	DB	00H
	DB	00H
	DB	099H
	DB	00H
	DB	00H
	DB	00H
	DB	099H
	DB	00H
	DB	00H
	DB	00H
	DB	099H
	DB	00H
	DB	00H
	DB	00H
	DB	099H
	DB	00H
	DB	00H
	DB	00H
	DB	099H
	DB	00H
	DB	00H
	DB	00H
	DB	099H
	DB	00H
	DB	00H
	DB	00H
	DB	099H
	DB	00H
	DB	00H
	DB	00H
	DB	099H
	DB	00H
	DB	00H
	DB	00H
	DB	099H
	DB	00H
	DB	00H
	DB	00H
	DB	099H
	DB	00H
	DB	00H
	DB	00H
	DB	099H
	DB	00H
	DB	00H
	DB	00H
	DB	099H
	DB	00H
	DB	00H
	DB	00H
	DB	099H
	DB	00H
	DB	00H
	DB	00H
	DB	099H
	DB	00H
	DB	00H
	DB	00H
	DB	099H
	DB	00H
	DB	00H
	DB	00H
	DB	099H
	DB	00H
	DB	00H
	DB	00H
	DB	099H
	DB	00H
	DB	00H
	DB	00H
	DB	099H
	DB	00H
	DB	00H
	DB	00H
	DB	099H
	DB	00H
	DB	00H
	DB	00H
	DB	099H
	DB	00H
	DB	00H
	DB	00H
	DB	099H
	DB	00H
	DB	00H
	DB	00H
	DB	099H
	DB	00H
	DB	00H
	DB	00H
	DB	099H
	DB	00H
	DB	00H
	DB	00H
	DB	099H
	DB	00H
	DB	00H
	DB	00H
	DB	099H
	DB	00H
	DB	00H
	DB	00H
	DB	099H
	DB	00H
	DB	00H
	DB	00H
	DB	099H
	DB	00H
	DB	00H
	DB	00H
	DB	099H
	DB	00H
	DB	00H
	DB	00H
	DB	099H
	DB	00H
	DB	00H
	DB	00H
	DB	099H
	DB	00H
	DB	00H
	DB	00H
	DB	099H
	DB	00H
	DB	00H
	DB	00H
	DB	099H
	DB	00H
	DB	00H
	DB	00H
	DB	099H
	DB	00H
	DB	00H
	DB	00H
	DB	099H
	DB	00H
	DB	00H
	DB	00H
	DB	099H
	DB	00H
	DB	00H
	DB	00H
	DB	099H
	DB	00H
	DB	00H
	DB	00H
	DB	099H
	DB	00H
	DB	00H
	DB	00H
	DB	099H
	DB	00H
	DB	00H
	DB	00H
	DB	099H
	DB	00H
	DB	00H
	DB	00H
	DB	099H
	DB	00H
	DB	00H
	DB	00H
	DB	099H
	DB	00H
	DB	00H
	DB	00H
	DB	099H
	DB	00H
	DB	00H
	DB	00H
	DB	099H
	DB	00H
	DB	00H
	DB	00H
	DB	099H
	DB	00H
	DB	00H
	DB	00H
	DB	099H
	DB	00H
	DB	00H
	DB	00H
	DB	099H
	DB	00H
	DB	00H
	DB	00H
	DB	099H
	DB	00H
	DB	00H
	DB	00H
	DB	099H
	DB	00H
	DB	00H
	DB	00H
	DB	099H
	DB	00H
	DB	00H
	DB	00H
	DB	099H
	DB	00H
	DB	00H
	DB	00H
	DB	099H
	DB	00H
	DB	00H
	DB	00H
	DB	099H
	DB	00H
	DB	00H
	DB	00H
	DB	099H
	DB	00H
	DB	00H
	DB	00H
	DB	099H
	DB	00H
	DB	00H
	DB	00H
	DB	099H
	DB	00H
	DB	00H
	DB	00H
	DB	099H
	DB	00H
	DB	00H
	DB	00H
	DB	099H
	DB	00H
	DB	00H
	DB	00H
	DB	099H
	DB	00H
	DB	00H
	DB	00H
	DB	099H
	DB	00H
	DB	00H
	DB	00H
	DB	099H
	DB	00H
	DB	00H
	DB	00H
	DB	099H
	DB	00H
	DB	00H
	DB	00H
	DB	099H
	DB	00H
	DB	00H
	DB	00H
	DB	099H
	DB	00H
	DB	00H
	DB	00H
	DB	099H
	DB	00H
	DB	00H
	DB	00H
	DB	099H
	DB	00H
	DB	00H
	DB	00H
	DB	099H
	DB	00H
	DB	00H
	DB	00H
	DB	099H
	DB	00H
	DB	00H
	DB	00H
	DB	099H
	DB	00H
	DB	00H
	DB	00H
	DB	099H
	DB	00H
	DB	00H
	DB	00H
	DB	099H
	DB	00H
	DB	00H
	DB	00H
	DB	099H
	DB	00H
	DB	00H
	DB	00H
	DB	099H
	DB	00H
	DB	00H
	DB	00H
	DB	099H
	DB	00H
	DB	00H
	DB	00H
	DB	099H
	DB	00H
	DB	00H
	DB	00H
	DB	099H
	DB	00H
	DB	00H
	DB	00H
	DB	099H
	DB	00H
	DB	00H
	DB	00H
	DB	099H
	DB	00H
	DB	00H
	DB	00H
	DB	099H
	DB	00H
	DB	00H
	DB	00H
	DB	099H
	DB	00H
	DB	00H
	DB	00H
	DB	099H
	DB	00H
	DB	00H
	DB	00H
	DB	099H
	DB	00H
	DB	00H
	DB	00H
	DB	099H
	DB	00H
	DB	00H
	DB	00H
	DB	099H
	DB	00H
	DB	00H
	DB	00H
	DB	099H
	DB	00H
	DB	00H
	DB	00H
	DB	099H
	DB	00H
	DB	00H
	DB	00H
	DB	099H
	DB	00H
	DB	00H
	DB	00H
	DB	099H
	DB	00H
	DB	00H
	DB	00H
	DB	099H
	DB	00H
	DB	00H
	DB	00H
	DB	056H
	DB	00H
	DB	00H
	DB	00H
	DB	00H
	DB	00H
	DB	00H
	DB	00H
	DB	00H
	DB	00H
	DB	00H
	DB	00H
	DB	085H
	DB	00H
	DB	00H
	DB	00H
	DB	099H
	DB	00H
	DB	00H
	DB	00H
	DB	099H
	DB	00H
	DB	00H
	DB	00H
	DB	099H
	DB	00H
	DB	00H
	DB	00H
	DB	099H
	DB	00H
	DB	00H
	DB	00H
	DB	099H
	DB	00H
	DB	00H
	DB	00H
	DB	099H
	DB	00H
	DB	00H
	DB	00H
	DB	099H
	DB	00H
	DB	00H
	DB	00H
	DB	099H
	DB	00H
	DB	00H
	DB	00H
	DB	099H
	DB	00H
	DB	00H
	DB	00H
	DB	099H
	DB	00H
	DB	00H
	DB	00H
	DB	099H
	DB	00H
	DB	00H
	DB	00H
	DB	099H
	DB	00H
	DB	00H
	DB	00H
	DB	099H
	DB	00H
	DB	00H
	DB	00H
	DB	099H
	DB	00H
	DB	00H
	DB	00H
	DB	099H
	DB	00H
	DB	00H
	DB	00H
	DB	099H
	DB	00H
	DB	00H
	DB	00H
	DB	099H
	DB	00H
	DB	00H
	DB	00H
	DB	099H
	DB	00H
	DB	00H
	DB	00H
	DB	099H
	DB	00H
	DB	00H
	DB	00H
	DB	099H
	DB	00H
	DB	00H
	DB	00H
	DB	099H
	DB	00H
	DB	00H
	DB	00H
	DB	099H
	DB	00H
	DB	00H
	DB	00H
	DB	099H
	DB	00H
	DB	00H
	DB	00H
	DB	099H
	DB	00H
	DB	00H
	DB	00H
	DB	099H
	DB	00H
	DB	00H
	DB	00H
	DB	099H
	DB	00H
	DB	00H
	DB	00H
	DB	099H
	DB	00H
	DB	00H
	DB	00H
	DB	099H
	DB	00H
	DB	00H
	DB	00H
	DB	099H
	DB	00H
	DB	00H
	DB	00H
	DB	099H
	DB	00H
	DB	00H
	DB	00H
	DB	099H
	DB	00H
	DB	00H
	DB	00H
	DB	099H
	DB	00H
	DB	00H
	DB	00H
	DB	099H
	DB	00H
	DB	00H
	DB	00H
	DB	099H
	DB	00H
	DB	00H
	DB	00H
	DB	099H
	DB	00H
	DB	00H
	DB	00H
	DB	099H
	DB	00H
	DB	00H
	DB	00H
	DB	099H
	DB	00H
	DB	00H
	DB	00H
	DB	099H
	DB	00H
	DB	00H
	DB	00H
	DB	099H
	DB	00H
	DB	00H
	DB	00H
	DB	099H
	DB	00H
	DB	00H
	DB	00H
	DB	099H
	DB	00H
	DB	00H
	DB	00H
	DB	099H
	DB	00H
	DB	00H
	DB	00H
	DB	099H
	DB	00H
	DB	00H
	DB	00H
	DB	099H
	DB	00H
	DB	00H
	DB	00H
	DB	099H
	DB	00H
	DB	00H
	DB	00H
	DB	099H
	DB	00H
	DB	00H
	DB	00H
	DB	099H
	DB	00H
	DB	00H
	DB	00H
	DB	099H
	DB	00H
	DB	00H
	DB	00H
	DB	099H
	DB	00H
	DB	00H
	DB	00H
	DB	099H
	DB	00H
	DB	00H
	DB	00H
	DB	099H
	DB	00H
	DB	00H
	DB	00H
	DB	099H
	DB	00H
	DB	00H
	DB	00H
	DB	099H
	DB	00H
	DB	00H
	DB	00H
	DB	099H
	DB	00H
	DB	00H
	DB	00H
	DB	099H
	DB	00H
	DB	00H
	DB	00H
	DB	099H
	DB	00H
	DB	00H
	DB	00H
	DB	099H
	DB	00H
	DB	00H
	DB	00H
	DB	099H
	DB	00H
	DB	00H
	DB	00H
	DB	099H
	DB	00H
	DB	00H
	DB	00H
	DB	099H
	DB	00H
	DB	00H
	DB	00H
	DB	099H
	DB	00H
	DB	00H
	DB	00H
	DB	099H
	DB	00H
	DB	00H
	DB	00H
	DB	099H
	DB	00H
	DB	00H
	DB	00H
	DB	099H
	DB	00H
	DB	00H
	DB	00H
	DB	099H
	DB	00H
	DB	00H
	DB	00H
	DB	099H
	DB	00H
	DB	00H
	DB	00H
	DB	099H
	DB	00H
	DB	00H
	DB	00H
	DB	099H
	DB	00H
	DB	00H
	DB	00H
	DB	099H
	DB	00H
	DB	00H
	DB	00H
	DB	099H
	DB	00H
	DB	00H
	DB	00H
	DB	099H
	DB	00H
	DB	00H
	DB	00H
	DB	099H
	DB	00H
	DB	00H
	DB	00H
	DB	099H
	DB	00H
	DB	00H
	DB	00H
	DB	099H
	DB	00H
	DB	00H
	DB	00H
	DB	099H
	DB	00H
	DB	00H
	DB	00H
	DB	099H
	DB	00H
	DB	00H
	DB	00H
	DB	099H
	DB	00H
	DB	00H
	DB	00H
	DB	099H
	DB	00H
	DB	00H
	DB	00H
	DB	099H
	DB	00H
	DB	00H
	DB	00H
	DB	099H
	DB	00H
	DB	00H
	DB	00H
	DB	099H
	DB	00H
	DB	00H
	DB	00H
	DB	099H
	DB	00H
	DB	00H
	DB	00H
	DB	099H
	DB	00H
	DB	00H
	DB	00H
	DB	099H
	DB	00H
	DB	00H
	DB	00H
	DB	099H
	DB	00H
	DB	00H
	DB	00H
	DB	099H
	DB	00H
	DB	00H
	DB	00H
	DB	099H
	DB	00H
	DB	00H
	DB	00H
	DB	099H
	DB	00H
	DB	00H
	DB	00H
	DB	099H
	DB	00H
	DB	00H
	DB	00H
	DB	099H
	DB	00H
	DB	00H
	DB	00H
	DB	099H
	DB	00H
	DB	00H
	DB	00H
	DB	099H
	DB	00H
	DB	00H
	DB	00H
	DB	099H
	DB	00H
	DB	00H
	DB	00H
	DB	099H
	DB	00H
	DB	00H
	DB	00H
	DB	099H
	DB	00H
	DB	00H
	DB	00H
	DB	099H
	DB	00H
	DB	00H
	DB	00H
	DB	099H
	DB	00H
	DB	00H
	DB	00H
	DB	099H
	DB	00H
	DB	00H
	DB	00H
	DB	099H
	DB	00H
	DB	00H
	DB	00H
	DB	099H
	DB	00H
	DB	00H
	DB	00H
	DB	099H
	DB	00H
	DB	00H
	DB	00H
	DB	099H
	DB	00H
	DB	00H
	DB	00H
	DB	099H
	DB	00H
	DB	00H
	DB	00H
	DB	099H
	DB	00H
	DB	00H
	DB	00H
	DB	099H
	DB	00H
	DB	00H
	DB	00H
	DB	099H
	DB	00H
	DB	00H
	DB	00H
	DB	099H
	DB	00H
	DB	00H
	DB	00H
	DB	099H
	DB	00H
	DB	00H
	DB	00H
	DB	099H
	DB	00H
	DB	00H
	DB	00H
	DB	099H
	DB	00H
	DB	00H
	DB	00H
	DB	099H
	DB	00H
	DB	00H
	DB	00H
	DB	099H
	DB	00H
	DB	00H
	DB	00H
	DB	099H
	DB	00H
	DB	00H
	DB	00H
	DB	099H
	DB	00H
	DB	00H
	DB	00H
	DB	099H
	DB	00H
	DB	00H
	DB	00H
	DB	099H
	DB	00H
	DB	00H
	DB	00H
	DB	099H
	DB	00H
	DB	00H
	DB	00H
	DB	099H
	DB	00H
	DB	00H
	DB	00H
	DB	099H
	DB	00H
	DB	00H
	DB	00H
	DB	099H
	DB	00H
	DB	00H
	DB	00H
	DB	099H
	DB	00H
	DB	00H
	DB	00H
	DB	099H
	DB	00H
	DB	00H
	DB	00H
	DB	099H
	DB	00H
	DB	00H
	DB	00H
	DB	099H
	DB	00H
	DB	00H
	DB	00H
	DB	099H
	DB	00H
	DB	00H
	DB	00H
	DB	099H
	DB	00H
	DB	00H
	DB	00H
	DB	099H
	DB	00H
	DB	00H
	DB	00H
	DB	099H
	DB	00H
	DB	00H
	DB	00H
	DB	099H
	DB	00H
	DB	00H
	DB	00H
	DB	099H
	DB	00H
	DB	00H
	DB	00H
	DB	099H
	DB	00H
	DB	00H
	DB	00H
	DB	099H
	DB	00H
	DB	00H
	DB	00H
	DB	099H
	DB	00H
	DB	00H
	DB	00H
	DB	099H
	DB	00H
	DB	00H
	DB	00H
	DB	099H
	DB	00H
	DB	00H
	DB	00H
	DB	099H
	DB	00H
	DB	00H
	DB	00H
	DB	099H
	DB	00H
	DB	00H
	DB	00H
	DB	099H
	DB	00H
	DB	00H
	DB	00H
	DB	099H
	DB	00H
	DB	00H
	DB	00H
	DB	099H
	DB	00H
	DB	00H
	DB	00H
	DB	099H
	DB	00H
	DB	00H
	DB	00H
	DB	099H
	DB	00H
	DB	00H
	DB	00H
	DB	099H
	DB	00H
	DB	00H
	DB	00H
	DB	099H
	DB	00H
	DB	00H
	DB	00H
	DB	099H
	DB	00H
	DB	00H
	DB	00H
	DB	099H
	DB	00H
	DB	00H
	DB	00H
	DB	099H
	DB	00H
	DB	00H
	DB	00H
	DB	099H
	DB	00H
	DB	00H
	DB	00H
	DB	099H
	DB	00H
	DB	00H
	DB	00H
	DB	099H
	DB	00H
	DB	00H
	DB	00H
	DB	099H
	DB	00H
	DB	00H
	DB	00H
	DB	099H
	DB	00H
	DB	00H
	DB	00H
	DB	099H
	DB	00H
	DB	00H
	DB	00H
	DB	099H
	DB	00H
	DB	00H
	DB	00H
	DB	099H
	DB	00H
	DB	00H
	DB	00H
	DB	099H
	DB	00H
	DB	00H
	DB	00H
	DB	099H
	DB	00H
	DB	00H
	DB	00H
	DB	099H
	DB	00H
	DB	00H
	DB	00H
	DB	099H
	DB	00H
	DB	00H
	DB	00H
	DB	099H
	DB	00H
	DB	00H
	DB	00H
	DB	099H
	DB	00H
	DB	00H
	DB	00H
	DB	099H
	DB	00H
	DB	00H
	DB	00H
	DB	099H
	DB	00H
	DB	00H
	DB	00H
	DB	099H
	DB	00H
	DB	00H
	DB	00H
	DB	099H
	DB	00H
	DB	00H
	DB	00H
	DB	099H
	DB	00H
	DB	00H
	DB	00H
	DB	099H
	DB	00H
	DB	00H
	DB	00H
	DB	099H
	DB	00H
	DB	00H
	DB	00H
	DB	099H
	DB	00H
	DB	00H
	DB	00H
	DB	099H
	DB	00H
	DB	00H
	DB	00H
	DB	099H
	DB	00H
	DB	00H
	DB	00H
	DB	099H
	DB	00H
	DB	00H
	DB	00H
	DB	099H
	DB	00H
	DB	00H
	DB	00H
	DB	099H
	DB	00H
	DB	00H
	DB	00H
	DB	099H
	DB	00H
	DB	00H
	DB	00H
	DB	099H
	DB	00H
	DB	00H
	DB	00H
	DB	099H
	DB	00H
	DB	00H
	DB	00H
	DB	099H
	DB	00H
	DB	00H
	DB	00H
	DB	099H
	DB	00H
	DB	00H
	DB	00H
	DB	099H
	DB	00H
	DB	00H
	DB	00H
	DB	099H
	DB	00H
	DB	00H
	DB	00H
	DB	099H
	DB	00H
	DB	00H
	DB	00H
	DB	099H
	DB	00H
	DB	00H
	DB	00H
	DB	099H
	DB	00H
	DB	00H
	DB	00H
	DB	099H
	DB	00H
	DB	00H
	DB	00H
	DB	099H
	DB	00H
	DB	00H
	DB	00H
	DB	099H
	DB	00H
	DB	00H
	DB	00H
	DB	099H
	DB	00H
	DB	00H
	DB	00H
	DB	099H
	DB	00H
	DB	00H
	DB	00H
	DB	099H
	DB	00H
	DB	00H
	DB	00H
	DB	099H
	DB	00H
	DB	00H
	DB	00H
	DB	099H
	DB	00H
	DB	00H
	DB	00H
	DB	099H
	DB	00H
	DB	00H
	DB	00H
	DB	099H
	DB	00H
	DB	00H
	DB	00H
	DB	099H
	DB	00H
	DB	00H
	DB	00H
	DB	099H
	DB	00H
	DB	00H
	DB	00H
	DB	099H
	DB	00H
	DB	00H
	DB	00H
	DB	099H
	DB	00H
	DB	00H
	DB	00H
	DB	099H
	DB	00H
	DB	00H
	DB	00H
	DB	099H
	DB	00H
	DB	00H
	DB	00H
	DB	099H
	DB	00H
	DB	00H
	DB	00H
	DB	099H
	DB	00H
	DB	00H
	DB	00H
	DB	099H
	DB	00H
	DB	00H
	DB	00H
	DB	099H
	DB	00H
	DB	00H
	DB	00H
	DB	099H
	DB	00H
	DB	00H
	DB	00H
	DB	099H
	DB	00H
	DB	00H
	DB	00H
	DB	099H
	DB	00H
	DB	00H
	DB	00H
	DB	099H
	DB	00H
	DB	00H
	DB	00H
	DB	099H
	DB	00H
	DB	00H
	DB	00H
	DB	099H
	DB	00H
	DB	00H
	DB	00H
	DB	099H
	DB	00H
	DB	00H
	DB	00H
	DB	099H
	DB	00H
	DB	00H
	DB	00H
	DB	099H
	DB	00H
	DB	00H
	DB	00H
	DB	099H
	DB	00H
	DB	00H
	DB	00H
	DB	099H
	DB	00H
	DB	00H
	DB	00H
	DB	099H
	DB	00H
	DB	00H
	DB	00H
	DB	099H
	DB	00H
	DB	00H
	DB	00H
	DB	099H
	DB	00H
	DB	00H
	DB	00H
	DB	099H
	DB	00H
	DB	00H
	DB	00H
	DB	099H
	DB	00H
	DB	00H
	DB	00H
	DB	099H
	DB	00H
	DB	00H
	DB	00H
	DB	099H
	DB	00H
	DB	00H
	DB	00H
	DB	099H
	DB	00H
	DB	00H
	DB	00H
	DB	099H
	DB	00H
	DB	00H
	DB	00H
	DB	099H
	DB	00H
	DB	00H
	DB	00H
	DB	099H
	DB	00H
	DB	00H
	DB	00H
	DB	099H
	DB	00H
	DB	00H
	DB	00H
	DB	099H
	DB	00H
	DB	00H
	DB	00H
	DB	099H
	DB	00H
	DB	00H
	DB	00H
	DB	099H
	DB	00H
	DB	00H
	DB	00H
	DB	099H
	DB	00H
	DB	00H
	DB	00H
	DB	099H
	DB	00H
	DB	00H
	DB	00H
	DB	099H
	DB	00H
	DB	00H
	DB	00H
	DB	099H
	DB	00H
	DB	00H
	DB	00H
	DB	099H
	DB	00H
	DB	00H
	DB	00H
	DB	099H
	DB	00H
	DB	00H
	DB	00H
	DB	099H
	DB	00H
	DB	00H
	DB	00H
	DB	099H
	DB	00H
	DB	00H
	DB	00H
	DB	099H
	DB	00H
	DB	00H
	DB	00H
	DB	099H
	DB	00H
	DB	00H
	DB	00H
	DB	099H
	DB	00H
	DB	00H
	DB	00H
	DB	099H
	DB	00H
	DB	00H
	DB	00H
	DB	099H
	DB	00H
	DB	00H
	DB	00H
	DB	099H
	DB	00H
	DB	00H
	DB	00H
	DB	099H
	DB	00H
	DB	00H
	DB	00H
	DB	099H
	DB	00H
	DB	00H
	DB	00H
	DB	099H
	DB	00H
	DB	00H
	DB	00H
	DB	099H
	DB	00H
	DB	00H
	DB	00H
	DB	099H
	DB	00H
	DB	00H
	DB	00H
	DB	099H
	DB	00H
	DB	00H
	DB	00H
	DB	099H
	DB	00H
	DB	00H
	DB	00H
	DB	099H
	DB	00H
	DB	00H
	DB	00H
	DB	099H
	DB	00H
	DB	00H
	DB	00H
	DB	099H
	DB	00H
	DB	00H
	DB	00H
	DB	099H
	DB	00H
	DB	00H
	DB	00H
	DB	099H
	DB	00H
	DB	00H
	DB	00H
	DB	099H
	DB	00H
	DB	00H
	DB	00H
	DB	099H
	DB	00H
	DB	00H
	DB	00H
	DB	099H
	DB	00H
	DB	00H
	DB	00H
	DB	099H
	DB	00H
	DB	00H
	DB	00H
	DB	099H
	DB	00H
	DB	00H
	DB	00H
	DB	099H
	DB	00H
	DB	00H
	DB	00H
	DB	099H
	DB	00H
	DB	00H
	DB	00H
	DB	099H
	DB	00H
	DB	00H
	DB	00H
	DB	099H
	DB	00H
	DB	00H
	DB	00H
	DB	099H
	DB	00H
	DB	00H
	DB	00H
	DB	083H
	DB	00H
	DB	00H
	DB	00H
	DB	00H
	DB	00H
	DB	00H
	DB	00H
	DB	010H
	DB	00H
	DB	00H
	DB	00H
	DB	099H
	DB	00H
	DB	00H
	DB	00H
	DB	099H
	DB	00H
	DB	00H
	DB	00H
	DB	099H
	DB	00H
	DB	00H
	DB	00H
	DB	099H
	DB	00H
	DB	00H
	DB	00H
	DB	099H
	DB	00H
	DB	00H
	DB	00H
	DB	099H
	DB	00H
	DB	00H
	DB	00H
	DB	099H
	DB	00H
	DB	00H
	DB	00H
	DB	099H
	DB	00H
	DB	00H
	DB	00H
	DB	099H
	DB	00H
	DB	00H
	DB	00H
	DB	099H
	DB	00H
	DB	00H
	DB	00H
	DB	099H
	DB	00H
	DB	00H
	DB	00H
	DB	099H
	DB	00H
	DB	00H
	DB	00H
	DB	099H
	DB	00H
	DB	00H
	DB	00H
	DB	099H
	DB	00H
	DB	00H
	DB	00H
	DB	099H
	DB	00H
	DB	00H
	DB	00H
	DB	099H
	DB	00H
	DB	00H
	DB	00H
	DB	099H
	DB	00H
	DB	00H
	DB	00H
	DB	099H
	DB	00H
	DB	00H
	DB	00H
	DB	099H
	DB	00H
	DB	00H
	DB	00H
	DB	099H
	DB	00H
	DB	00H
	DB	00H
	DB	099H
	DB	00H
	DB	00H
	DB	00H
	DB	099H
	DB	00H
	DB	00H
	DB	00H
	DB	099H
	DB	00H
	DB	00H
	DB	00H
	DB	099H
	DB	00H
	DB	00H
	DB	00H
	DB	099H
	DB	00H
	DB	00H
	DB	00H
	DB	099H
	DB	00H
	DB	00H
	DB	00H
	DB	099H
	DB	00H
	DB	00H
	DB	00H
	DB	099H
	DB	00H
	DB	00H
	DB	00H
	DB	099H
	DB	00H
	DB	00H
	DB	00H
	DB	099H
	DB	00H
	DB	00H
	DB	00H
	DB	099H
	DB	00H
	DB	00H
	DB	00H
	DB	099H
	DB	00H
	DB	00H
	DB	00H
	DB	099H
	DB	00H
	DB	00H
	DB	00H
	DB	099H
	DB	00H
	DB	00H
	DB	00H
	DB	099H
	DB	00H
	DB	00H
	DB	00H
	DB	099H
	DB	00H
	DB	00H
	DB	00H
	DB	099H
	DB	00H
	DB	00H
	DB	00H
	DB	099H
	DB	00H
	DB	00H
	DB	00H
	DB	099H
	DB	00H
	DB	00H
	DB	00H
	DB	099H
	DB	00H
	DB	00H
	DB	00H
	DB	099H
	DB	00H
	DB	00H
	DB	00H
	DB	099H
	DB	00H
	DB	00H
	DB	00H
	DB	099H
	DB	00H
	DB	00H
	DB	00H
	DB	099H
	DB	00H
	DB	00H
	DB	00H
	DB	099H
	DB	00H
	DB	00H
	DB	00H
	DB	099H
	DB	00H
	DB	00H
	DB	00H
	DB	099H
	DB	00H
	DB	00H
	DB	00H
	DB	099H
	DB	00H
	DB	00H
	DB	00H
	DB	099H
	DB	00H
	DB	00H
	DB	00H
	DB	099H
	DB	00H
	DB	00H
	DB	00H
	DB	099H
	DB	00H
	DB	00H
	DB	00H
	DB	099H
	DB	00H
	DB	00H
	DB	00H
	DB	099H
	DB	00H
	DB	00H
	DB	00H
	DB	099H
	DB	00H
	DB	00H
	DB	00H
	DB	099H
	DB	00H
	DB	00H
	DB	00H
	DB	099H
	DB	00H
	DB	00H
	DB	00H
	DB	099H
	DB	00H
	DB	00H
	DB	00H
	DB	099H
	DB	00H
	DB	00H
	DB	00H
	DB	099H
	DB	00H
	DB	00H
	DB	00H
	DB	099H
	DB	00H
	DB	00H
	DB	00H
	DB	099H
	DB	00H
	DB	00H
	DB	00H
	DB	099H
	DB	00H
	DB	00H
	DB	00H
	DB	099H
	DB	00H
	DB	00H
	DB	00H
	DB	099H
	DB	00H
	DB	00H
	DB	00H
	DB	099H
	DB	00H
	DB	00H
	DB	00H
	DB	099H
	DB	00H
	DB	00H
	DB	00H
	DB	099H
	DB	00H
	DB	00H
	DB	00H
	DB	099H
	DB	00H
	DB	00H
	DB	00H
	DB	099H
	DB	00H
	DB	00H
	DB	00H
	DB	099H
	DB	00H
	DB	00H
	DB	00H
	DB	099H
	DB	00H
	DB	00H
	DB	00H
	DB	099H
	DB	00H
	DB	00H
	DB	00H
	DB	099H
	DB	00H
	DB	00H
	DB	00H
	DB	099H
	DB	00H
	DB	00H
	DB	00H
	DB	099H
	DB	00H
	DB	00H
	DB	00H
	DB	099H
	DB	00H
	DB	00H
	DB	00H
	DB	099H
	DB	00H
	DB	00H
	DB	00H
	DB	099H
	DB	00H
	DB	00H
	DB	00H
	DB	099H
	DB	00H
	DB	00H
	DB	00H
	DB	099H
	DB	00H
	DB	00H
	DB	00H
	DB	099H
	DB	00H
	DB	00H
	DB	00H
	DB	099H
	DB	00H
	DB	00H
	DB	00H
	DB	099H
	DB	00H
	DB	00H
	DB	00H
	DB	099H
	DB	00H
	DB	00H
	DB	00H
	DB	099H
	DB	00H
	DB	00H
	DB	00H
	DB	099H
	DB	00H
	DB	00H
	DB	00H
	DB	099H
	DB	00H
	DB	00H
	DB	00H
	DB	099H
	DB	00H
	DB	00H
	DB	00H
	DB	099H
	DB	00H
	DB	00H
	DB	00H
	DB	099H
	DB	00H
	DB	00H
	DB	00H
	DB	099H
	DB	00H
	DB	00H
	DB	00H
	DB	099H
	DB	00H
	DB	00H
	DB	00H
	DB	099H
	DB	00H
	DB	00H
	DB	00H
	DB	099H
	DB	00H
	DB	00H
	DB	00H
	DB	099H
	DB	00H
	DB	00H
	DB	00H
	DB	099H
	DB	00H
	DB	00H
	DB	00H
	DB	099H
	DB	00H
	DB	00H
	DB	00H
	DB	099H
	DB	00H
	DB	00H
	DB	00H
	DB	099H
	DB	00H
	DB	00H
	DB	00H
	DB	099H
	DB	00H
	DB	00H
	DB	00H
	DB	099H
	DB	00H
	DB	00H
	DB	00H
	DB	099H
	DB	00H
	DB	00H
	DB	00H
	DB	099H
	DB	00H
	DB	00H
	DB	00H
	DB	099H
	DB	00H
	DB	00H
	DB	00H
	DB	099H
	DB	00H
	DB	00H
	DB	00H
	DB	099H
	DB	00H
	DB	00H
	DB	00H
	DB	099H
	DB	00H
	DB	00H
	DB	00H
	DB	099H
	DB	00H
	DB	00H
	DB	00H
	DB	099H
	DB	00H
	DB	00H
	DB	00H
	DB	099H
	DB	00H
	DB	00H
	DB	00H
	DB	099H
	DB	00H
	DB	00H
	DB	00H
	DB	099H
	DB	00H
	DB	00H
	DB	00H
	DB	099H
	DB	00H
	DB	00H
	DB	00H
	DB	099H
	DB	00H
	DB	00H
	DB	00H
	DB	099H
	DB	00H
	DB	00H
	DB	00H
	DB	099H
	DB	00H
	DB	00H
	DB	00H
	DB	099H
	DB	00H
	DB	00H
	DB	00H
	DB	099H
	DB	00H
	DB	00H
	DB	00H
	DB	099H
	DB	00H
	DB	00H
	DB	00H
	DB	099H
	DB	00H
	DB	00H
	DB	00H
	DB	099H
	DB	00H
	DB	00H
	DB	00H
	DB	099H
	DB	00H
	DB	00H
	DB	00H
	DB	099H
	DB	00H
	DB	00H
	DB	00H
	DB	099H
	DB	00H
	DB	00H
	DB	00H
	DB	099H
	DB	00H
	DB	00H
	DB	00H
	DB	099H
	DB	00H
	DB	00H
	DB	00H
	DB	099H
	DB	00H
	DB	00H
	DB	00H
	DB	099H
	DB	00H
	DB	00H
	DB	00H
	DB	099H
	DB	00H
	DB	00H
	DB	00H
	DB	099H
	DB	00H
	DB	00H
	DB	00H
	DB	099H
	DB	00H
	DB	00H
	DB	00H
	DB	099H
	DB	00H
	DB	00H
	DB	00H
	DB	099H
	DB	00H
	DB	00H
	DB	00H
	DB	099H
	DB	00H
	DB	00H
	DB	00H
	DB	099H
	DB	00H
	DB	00H
	DB	00H
	DB	099H
	DB	00H
	DB	00H
	DB	00H
	DB	099H
	DB	00H
	DB	00H
	DB	00H
	DB	099H
	DB	00H
	DB	00H
	DB	00H
	DB	099H
	DB	00H
	DB	00H
	DB	00H
	DB	099H
	DB	00H
	DB	00H
	DB	00H
	DB	099H
	DB	00H
	DB	00H
	DB	00H
	DB	099H
	DB	00H
	DB	00H
	DB	00H
	DB	099H
	DB	00H
	DB	00H
	DB	00H
	DB	099H
	DB	00H
	DB	00H
	DB	00H
	DB	099H
	DB	00H
	DB	00H
	DB	00H
	DB	099H
	DB	00H
	DB	00H
	DB	00H
	DB	099H
	DB	00H
	DB	00H
	DB	00H
	DB	099H
	DB	00H
	DB	00H
	DB	00H
	DB	099H
	DB	00H
	DB	00H
	DB	00H
	DB	099H
	DB	00H
	DB	00H
	DB	00H
	DB	099H
	DB	00H
	DB	00H
	DB	00H
	DB	099H
	DB	00H
	DB	00H
	DB	00H
	DB	099H
	DB	00H
	DB	00H
	DB	00H
	DB	099H
	DB	00H
	DB	00H
	DB	00H
	DB	099H
	DB	00H
	DB	00H
	DB	00H
	DB	099H
	DB	00H
	DB	00H
	DB	00H
	DB	099H
	DB	00H
	DB	00H
	DB	00H
	DB	099H
	DB	00H
	DB	00H
	DB	00H
	DB	099H
	DB	00H
	DB	00H
	DB	00H
	DB	099H
	DB	00H
	DB	00H
	DB	00H
	DB	099H
	DB	00H
	DB	00H
	DB	00H
	DB	099H
	DB	00H
	DB	00H
	DB	00H
	DB	099H
	DB	00H
	DB	00H
	DB	00H
	DB	099H
	DB	00H
	DB	00H
	DB	00H
	DB	099H
	DB	00H
	DB	00H
	DB	00H
	DB	099H
	DB	00H
	DB	00H
	DB	00H
	DB	099H
	DB	00H
	DB	00H
	DB	00H
	DB	099H
	DB	00H
	DB	00H
	DB	00H
	DB	099H
	DB	00H
	DB	00H
	DB	00H
	DB	099H
	DB	00H
	DB	00H
	DB	00H
	DB	099H
	DB	00H
	DB	00H
	DB	00H
	DB	099H
	DB	00H
	DB	00H
	DB	00H
	DB	099H
	DB	00H
	DB	00H
	DB	00H
	DB	099H
	DB	00H
	DB	00H
	DB	00H
	DB	099H
	DB	00H
	DB	00H
	DB	00H
	DB	099H
	DB	00H
	DB	00H
	DB	00H
	DB	099H
	DB	00H
	DB	00H
	DB	00H
	DB	099H
	DB	00H
	DB	00H
	DB	00H
	DB	099H
	DB	00H
	DB	00H
	DB	00H
	DB	099H
	DB	00H
	DB	00H
	DB	00H
	DB	099H
	DB	00H
	DB	00H
	DB	00H
	DB	099H
	DB	00H
	DB	00H
	DB	00H
	DB	099H
	DB	00H
	DB	00H
	DB	00H
	DB	099H
	DB	00H
	DB	00H
	DB	00H
	DB	099H
	DB	00H
	DB	00H
	DB	00H
	DB	099H
	DB	00H
	DB	00H
	DB	00H
	DB	099H
	DB	00H
	DB	00H
	DB	00H
	DB	099H
	DB	00H
	DB	00H
	DB	00H
	DB	099H
	DB	00H
	DB	00H
	DB	00H
	DB	099H
	DB	00H
	DB	00H
	DB	00H
	DB	099H
	DB	00H
	DB	00H
	DB	00H
	DB	099H
	DB	00H
	DB	00H
	DB	00H
	DB	099H
	DB	00H
	DB	00H
	DB	00H
	DB	099H
	DB	00H
	DB	00H
	DB	00H
	DB	099H
	DB	00H
	DB	00H
	DB	00H
	DB	099H
	DB	00H
	DB	00H
	DB	00H
	DB	099H
	DB	00H
	DB	00H
	DB	00H
	DB	099H
	DB	00H
	DB	00H
	DB	00H
	DB	099H
	DB	00H
	DB	00H
	DB	00H
	DB	099H
	DB	00H
	DB	00H
	DB	00H
	DB	099H
	DB	00H
	DB	00H
	DB	00H
	DB	099H
	DB	00H
	DB	00H
	DB	00H
	DB	099H
	DB	00H
	DB	00H
	DB	00H
	DB	099H
	DB	00H
	DB	00H
	DB	00H
	DB	099H
	DB	00H
	DB	00H
	DB	00H
	DB	099H
	DB	00H
	DB	00H
	DB	00H
	DB	099H
	DB	00H
	DB	00H
	DB	00H
	DB	099H
	DB	00H
	DB	00H
	DB	00H
	DB	099H
	DB	00H
	DB	00H
	DB	00H
	DB	099H
	DB	00H
	DB	00H
	DB	00H
	DB	099H
	DB	00H
	DB	00H
	DB	00H
	DB	099H
	DB	00H
	DB	00H
	DB	00H
	DB	099H
	DB	00H
	DB	00H
	DB	00H
	DB	099H
	DB	00H
	DB	00H
	DB	00H
	DB	099H
	DB	00H
	DB	00H
	DB	00H
	DB	099H
	DB	00H
	DB	00H
	DB	00H
	DB	099H
	DB	00H
	DB	00H
	DB	00H
	DB	099H
	DB	00H
	DB	00H
	DB	00H
	DB	099H
	DB	00H
	DB	00H
	DB	00H
	DB	099H
	DB	00H
	DB	00H
	DB	00H
	DB	099H
	DB	00H
	DB	00H
	DB	00H
	DB	099H
	DB	00H
	DB	00H
	DB	00H
	DB	099H
	DB	00H
	DB	00H
	DB	00H
	DB	099H
	DB	00H
	DB	00H
	DB	00H
	DB	099H
	DB	00H
	DB	00H
	DB	00H
	DB	099H
	DB	00H
	DB	00H
	DB	00H
	DB	099H
	DB	00H
	DB	00H
	DB	00H
	DB	099H
	DB	00H
	DB	00H
	DB	00H
	DB	099H
	DB	00H
	DB	00H
	DB	00H
	DB	099H
	DB	00H
	DB	00H
	DB	00H
	DB	099H
	DB	00H
	DB	00H
	DB	00H
	DB	099H
	DB	00H
	DB	00H
	DB	00H
	DB	099H
	DB	00H
	DB	00H
	DB	00H
	DB	099H
	DB	00H
	DB	00H
	DB	00H
	DB	099H
	DB	00H
	DB	00H
	DB	00H
	DB	099H
	DB	00H
	DB	00H
	DB	00H
	DB	099H
	DB	00H
	DB	00H
	DB	00H
	DB	099H
	DB	00H
	DB	00H
	DB	00H
	DB	099H
	DB	00H
	DB	00H
	DB	00H
	DB	099H
	DB	00H
	DB	00H
	DB	00H
	DB	099H
	DB	00H
	DB	00H
	DB	00H
	DB	099H
	DB	00H
	DB	00H
	DB	00H
	DB	099H
	DB	00H
	DB	00H
	DB	00H
	DB	099H
	DB	00H
	DB	00H
	DB	00H
	DB	099H
	DB	00H
	DB	00H
	DB	00H
	DB	099H
	DB	00H
	DB	00H
	DB	00H
	DB	099H
	DB	00H
	DB	00H
	DB	00H
	DB	099H
	DB	00H
	DB	00H
	DB	00H
	DB	099H
	DB	00H
	DB	00H
	DB	00H
	DB	099H
	DB	00H
	DB	00H
	DB	00H
	DB	099H
	DB	00H
	DB	00H
	DB	00H
	DB	099H
	DB	00H
	DB	00H
	DB	00H
	DB	099H
	DB	00H
	DB	00H
	DB	00H
	DB	099H
	DB	00H
	DB	00H
	DB	00H
	DB	099H
	DB	00H
	DB	00H
	DB	00H
	DB	099H
	DB	00H
	DB	00H
	DB	00H
	DB	099H
	DB	00H
	DB	00H
	DB	00H
	DB	099H
	DB	00H
	DB	00H
	DB	00H
	DB	099H
	DB	00H
	DB	00H
	DB	00H
	DB	099H
	DB	00H
	DB	00H
	DB	00H
	DB	099H
	DB	00H
	DB	00H
	DB	00H
	DB	099H
	DB	00H
	DB	00H
	DB	00H
	DB	099H
	DB	00H
	DB	00H
	DB	00H
	DB	099H
	DB	00H
	DB	00H
	DB	00H
	DB	099H
	DB	00H
	DB	00H
	DB	00H
	DB	099H
	DB	00H
	DB	00H
	DB	00H
	DB	099H
	DB	00H
	DB	00H
	DB	00H
	DB	099H
	DB	00H
	DB	00H
	DB	00H
	DB	0fH
	DB	00H
	DB	00H
	DB	00H
	DB	034H
	DB	00H
	DB	00H
	DB	00H
	DB	099H
	DB	00H
	DB	00H
	DB	00H
	DB	099H
	DB	00H
	DB	00H
	DB	00H
	DB	099H
	DB	00H
	DB	00H
	DB	00H
	DB	099H
	DB	00H
	DB	00H
	DB	00H
	DB	099H
	DB	00H
	DB	00H
	DB	00H
	DB	099H
	DB	00H
	DB	00H
	DB	00H
	DB	099H
	DB	00H
	DB	00H
	DB	00H
	DB	099H
	DB	00H
	DB	00H
	DB	00H
	DB	099H
	DB	00H
	DB	00H
	DB	00H
	DB	099H
	DB	00H
	DB	00H
	DB	00H
	DB	099H
	DB	00H
	DB	00H
	DB	00H
	DB	099H
	DB	00H
	DB	00H
	DB	00H
	DB	099H
	DB	00H
	DB	00H
	DB	00H
	DB	099H
	DB	00H
	DB	00H
	DB	00H
	DB	099H
	DB	00H
	DB	00H
	DB	00H
	DB	099H
	DB	00H
	DB	00H
	DB	00H
	DB	099H
	DB	00H
	DB	00H
	DB	00H
	DB	099H
	DB	00H
	DB	00H
	DB	00H
	DB	099H
	DB	00H
	DB	00H
	DB	00H
	DB	099H
	DB	00H
	DB	00H
	DB	00H
	DB	099H
	DB	00H
	DB	00H
	DB	00H
	DB	099H
	DB	00H
	DB	00H
	DB	00H
	DB	099H
	DB	00H
	DB	00H
	DB	00H
	DB	099H
	DB	00H
	DB	00H
	DB	00H
	DB	099H
	DB	00H
	DB	00H
	DB	00H
	DB	099H
	DB	00H
	DB	00H
	DB	00H
	DB	099H
	DB	00H
	DB	00H
	DB	00H
	DB	099H
	DB	00H
	DB	00H
	DB	00H
	DB	099H
	DB	00H
	DB	00H
	DB	00H
	DB	099H
	DB	00H
	DB	00H
	DB	00H
	DB	099H
	DB	00H
	DB	00H
	DB	00H
	DB	099H
	DB	00H
	DB	00H
	DB	00H
	DB	099H
	DB	00H
	DB	00H
	DB	00H
	DB	099H
	DB	00H
	DB	00H
	DB	00H
	DB	099H
	DB	00H
	DB	00H
	DB	00H
	DB	099H
	DB	00H
	DB	00H
	DB	00H
	DB	099H
	DB	00H
	DB	00H
	DB	00H
	DB	099H
	DB	00H
	DB	00H
	DB	00H
	DB	099H
	DB	00H
	DB	00H
	DB	00H
	DB	099H
	DB	00H
	DB	00H
	DB	00H
	DB	099H
	DB	00H
	DB	00H
	DB	00H
	DB	099H
	DB	00H
	DB	00H
	DB	00H
	DB	099H
	DB	00H
	DB	00H
	DB	00H
	DB	099H
	DB	00H
	DB	00H
	DB	00H
	DB	099H
	DB	00H
	DB	00H
	DB	00H
	DB	099H
	DB	00H
	DB	00H
	DB	00H
	DB	099H
	DB	00H
	DB	00H
	DB	00H
	DB	099H
	DB	00H
	DB	00H
	DB	00H
	DB	099H
	DB	00H
	DB	00H
	DB	00H
	DB	099H
	DB	00H
	DB	00H
	DB	00H
	DB	099H
	DB	00H
	DB	00H
	DB	00H
	DB	099H
	DB	00H
	DB	00H
	DB	00H
	DB	099H
	DB	00H
	DB	00H
	DB	00H
	DB	099H
	DB	00H
	DB	00H
	DB	00H
	DB	099H
	DB	00H
	DB	00H
	DB	00H
	DB	099H
	DB	00H
	DB	00H
	DB	00H
	DB	099H
	DB	00H
	DB	00H
	DB	00H
	DB	099H
	DB	00H
	DB	00H
	DB	00H
	DB	099H
	DB	00H
	DB	00H
	DB	00H
	DB	099H
	DB	00H
	DB	00H
	DB	00H
	DB	099H
	DB	00H
	DB	00H
	DB	00H
	DB	099H
	DB	00H
	DB	00H
	DB	00H
	DB	099H
	DB	00H
	DB	00H
	DB	00H
	DB	099H
	DB	00H
	DB	00H
	DB	00H
	DB	099H
	DB	00H
	DB	00H
	DB	00H
	DB	099H
	DB	00H
	DB	00H
	DB	00H
	DB	099H
	DB	00H
	DB	00H
	DB	00H
	DB	099H
	DB	00H
	DB	00H
	DB	00H
	DB	099H
	DB	00H
	DB	00H
	DB	00H
	DB	099H
	DB	00H
	DB	00H
	DB	00H
	DB	099H
	DB	00H
	DB	00H
	DB	00H
	DB	099H
	DB	00H
	DB	00H
	DB	00H
	DB	099H
	DB	00H
	DB	00H
	DB	00H
	DB	099H
	DB	00H
	DB	00H
	DB	00H
	DB	099H
	DB	00H
	DB	00H
	DB	00H
	DB	099H
	DB	00H
	DB	00H
	DB	00H
	DB	099H
	DB	00H
	DB	00H
	DB	00H
	DB	099H
	DB	00H
	DB	00H
	DB	00H
	DB	099H
	DB	00H
	DB	00H
	DB	00H
	DB	099H
	DB	00H
	DB	00H
	DB	00H
	DB	099H
	DB	00H
	DB	00H
	DB	00H
	DB	099H
	DB	00H
	DB	00H
	DB	00H
	DB	099H
	DB	00H
	DB	00H
	DB	00H
	DB	099H
	DB	00H
	DB	00H
	DB	00H
	DB	099H
	DB	00H
	DB	00H
	DB	00H
	DB	099H
	DB	00H
	DB	00H
	DB	00H
	DB	099H
	DB	00H
	DB	00H
	DB	00H
	DB	099H
	DB	00H
	DB	00H
	DB	00H
	DB	099H
	DB	00H
	DB	00H
	DB	00H
	DB	099H
	DB	00H
	DB	00H
	DB	00H
	DB	099H
	DB	00H
	DB	00H
	DB	00H
	DB	099H
	DB	00H
	DB	00H
	DB	00H
	DB	099H
	DB	00H
	DB	00H
	DB	00H
	DB	099H
	DB	00H
	DB	00H
	DB	00H
	DB	099H
	DB	00H
	DB	00H
	DB	00H
	DB	099H
	DB	00H
	DB	00H
	DB	00H
	DB	099H
	DB	00H
	DB	00H
	DB	00H
	DB	099H
	DB	00H
	DB	00H
	DB	00H
	DB	099H
	DB	00H
	DB	00H
	DB	00H
	DB	099H
	DB	00H
	DB	00H
	DB	00H
	DB	099H
	DB	00H
	DB	00H
	DB	00H
	DB	099H
	DB	00H
	DB	00H
	DB	00H
	DB	099H
	DB	00H
	DB	00H
	DB	00H
	DB	099H
	DB	00H
	DB	00H
	DB	00H
	DB	099H
	DB	00H
	DB	00H
	DB	00H
	DB	099H
	DB	00H
	DB	00H
	DB	00H
	DB	099H
	DB	00H
	DB	00H
	DB	00H
	DB	099H
	DB	00H
	DB	00H
	DB	00H
	DB	099H
	DB	00H
	DB	00H
	DB	00H
	DB	099H
	DB	00H
	DB	00H
	DB	00H
	DB	099H
	DB	00H
	DB	00H
	DB	00H
	DB	099H
	DB	00H
	DB	00H
	DB	00H
	DB	099H
	DB	00H
	DB	00H
	DB	00H
	DB	099H
	DB	00H
	DB	00H
	DB	00H
	DB	099H
	DB	00H
	DB	00H
	DB	00H
	DB	099H
	DB	00H
	DB	00H
	DB	00H
	DB	099H
	DB	00H
	DB	00H
	DB	00H
	DB	099H
	DB	00H
	DB	00H
	DB	00H
	DB	099H
	DB	00H
	DB	00H
	DB	00H
	DB	099H
	DB	00H
	DB	00H
	DB	00H
	DB	099H
	DB	00H
	DB	00H
	DB	00H
	DB	099H
	DB	00H
	DB	00H
	DB	00H
	DB	099H
	DB	00H
	DB	00H
	DB	00H
	DB	099H
	DB	00H
	DB	00H
	DB	00H
	DB	099H
	DB	00H
	DB	00H
	DB	00H
	DB	099H
	DB	00H
	DB	00H
	DB	00H
	DB	099H
	DB	00H
	DB	00H
	DB	00H
	DB	099H
	DB	00H
	DB	00H
	DB	00H
	DB	099H
	DB	00H
	DB	00H
	DB	00H
	DB	099H
	DB	00H
	DB	00H
	DB	00H
	DB	099H
	DB	00H
	DB	00H
	DB	00H
	DB	099H
	DB	00H
	DB	00H
	DB	00H
	DB	099H
	DB	00H
	DB	00H
	DB	00H
	DB	099H
	DB	00H
	DB	00H
	DB	00H
	DB	099H
	DB	00H
	DB	00H
	DB	00H
	DB	099H
	DB	00H
	DB	00H
	DB	00H
	DB	099H
	DB	00H
	DB	00H
	DB	00H
	DB	099H
	DB	00H
	DB	00H
	DB	00H
	DB	099H
	DB	00H
	DB	00H
	DB	00H
	DB	099H
	DB	00H
	DB	00H
	DB	00H
	DB	099H
	DB	00H
	DB	00H
	DB	00H
	DB	099H
	DB	00H
	DB	00H
	DB	00H
	DB	099H
	DB	00H
	DB	00H
	DB	00H
	DB	099H
	DB	00H
	DB	00H
	DB	00H
	DB	099H
	DB	00H
	DB	00H
	DB	00H
	DB	099H
	DB	00H
	DB	00H
	DB	00H
	DB	099H
	DB	00H
	DB	00H
	DB	00H
	DB	099H
	DB	00H
	DB	00H
	DB	00H
	DB	099H
	DB	00H
	DB	00H
	DB	00H
	DB	099H
	DB	00H
	DB	00H
	DB	00H
	DB	099H
	DB	00H
	DB	00H
	DB	00H
	DB	099H
	DB	00H
	DB	00H
	DB	00H
	DB	099H
	DB	00H
	DB	00H
	DB	00H
	DB	099H
	DB	00H
	DB	00H
	DB	00H
	DB	099H
	DB	00H
	DB	00H
	DB	00H
	DB	099H
	DB	00H
	DB	00H
	DB	00H
	DB	099H
	DB	00H
	DB	00H
	DB	00H
	DB	099H
	DB	00H
	DB	00H
	DB	00H
	DB	099H
	DB	00H
	DB	00H
	DB	00H
	DB	099H
	DB	00H
	DB	00H
	DB	00H
	DB	099H
	DB	00H
	DB	00H
	DB	00H
	DB	099H
	DB	00H
	DB	00H
	DB	00H
	DB	099H
	DB	00H
	DB	00H
	DB	00H
	DB	099H
	DB	00H
	DB	00H
	DB	00H
	DB	099H
	DB	00H
	DB	00H
	DB	00H
	DB	099H
	DB	00H
	DB	00H
	DB	00H
	DB	099H
	DB	00H
	DB	00H
	DB	00H
	DB	099H
	DB	00H
	DB	00H
	DB	00H
	DB	099H
	DB	00H
	DB	00H
	DB	00H
	DB	099H
	DB	00H
	DB	00H
	DB	00H
	DB	099H
	DB	00H
	DB	00H
	DB	00H
	DB	099H
	DB	00H
	DB	00H
	DB	00H
	DB	099H
	DB	00H
	DB	00H
	DB	00H
	DB	099H
	DB	00H
	DB	00H
	DB	00H
	DB	099H
	DB	00H
	DB	00H
	DB	00H
	DB	099H
	DB	00H
	DB	00H
	DB	00H
	DB	099H
	DB	00H
	DB	00H
	DB	00H
	DB	099H
	DB	00H
	DB	00H
	DB	00H
	DB	099H
	DB	00H
	DB	00H
	DB	00H
	DB	099H
	DB	00H
	DB	00H
	DB	00H
	DB	099H
	DB	00H
	DB	00H
	DB	00H
	DB	099H
	DB	00H
	DB	00H
	DB	00H
	DB	099H
	DB	00H
	DB	00H
	DB	00H
	DB	099H
	DB	00H
	DB	00H
	DB	00H
	DB	099H
	DB	00H
	DB	00H
	DB	00H
	DB	099H
	DB	00H
	DB	00H
	DB	00H
	DB	099H
	DB	00H
	DB	00H
	DB	00H
	DB	099H
	DB	00H
	DB	00H
	DB	00H
	DB	099H
	DB	00H
	DB	00H
	DB	00H
	DB	099H
	DB	00H
	DB	00H
	DB	00H
	DB	099H
	DB	00H
	DB	00H
	DB	00H
	DB	099H
	DB	00H
	DB	00H
	DB	00H
	DB	099H
	DB	00H
	DB	00H
	DB	00H
	DB	099H
	DB	00H
	DB	00H
	DB	00H
	DB	099H
	DB	00H
	DB	00H
	DB	00H
	DB	099H
	DB	00H
	DB	00H
	DB	00H
	DB	099H
	DB	00H
	DB	00H
	DB	00H
	DB	099H
	DB	00H
	DB	00H
	DB	00H
	DB	099H
	DB	00H
	DB	00H
	DB	00H
	DB	099H
	DB	00H
	DB	00H
	DB	00H
	DB	099H
	DB	00H
	DB	00H
	DB	00H
	DB	099H
	DB	00H
	DB	00H
	DB	00H
	DB	099H
	DB	00H
	DB	00H
	DB	00H
	DB	099H
	DB	00H
	DB	00H
	DB	00H
	DB	099H
	DB	00H
	DB	00H
	DB	00H
	DB	099H
	DB	00H
	DB	00H
	DB	00H
	DB	099H
	DB	00H
	DB	00H
	DB	00H
	DB	099H
	DB	00H
	DB	00H
	DB	00H
	DB	099H
	DB	00H
	DB	00H
	DB	00H
	DB	099H
	DB	00H
	DB	00H
	DB	00H
	DB	099H
	DB	00H
	DB	00H
	DB	00H
	DB	099H
	DB	00H
	DB	00H
	DB	00H
	DB	099H
	DB	00H
	DB	00H
	DB	00H
	DB	099H
	DB	00H
	DB	00H
	DB	00H
	DB	099H
	DB	00H
	DB	00H
	DB	00H
	DB	099H
	DB	00H
	DB	00H
	DB	00H
	DB	099H
	DB	00H
	DB	00H
	DB	00H
	DB	099H
	DB	00H
	DB	00H
	DB	00H
	DB	099H
	DB	00H
	DB	00H
	DB	00H
	DB	099H
	DB	00H
	DB	00H
	DB	00H
	DB	099H
	DB	00H
	DB	00H
	DB	00H
	DB	099H
	DB	00H
	DB	00H
	DB	00H
	DB	099H
	DB	00H
	DB	00H
	DB	00H
	DB	099H
	DB	00H
	DB	00H
	DB	00H
	DB	099H
	DB	00H
	DB	00H
	DB	00H
	DB	099H
	DB	00H
	DB	00H
	DB	00H
	DB	099H
	DB	00H
	DB	00H
	DB	00H
	DB	099H
	DB	00H
	DB	00H
	DB	00H
	DB	099H
	DB	00H
	DB	00H
	DB	00H
	DB	099H
	DB	00H
	DB	00H
	DB	00H
	DB	099H
	DB	00H
	DB	00H
	DB	00H
	DB	099H
	DB	00H
	DB	00H
	DB	00H
	DB	099H
	DB	00H
	DB	00H
	DB	00H
	DB	099H
	DB	00H
	DB	00H
	DB	00H
	DB	099H
	DB	00H
	DB	00H
	DB	00H
	DB	099H
	DB	00H
	DB	00H
	DB	00H
	DB	099H
	DB	00H
	DB	00H
	DB	00H
	DB	099H
	DB	00H
	DB	00H
	DB	00H
	DB	099H
	DB	00H
	DB	00H
	DB	00H
	DB	099H
	DB	00H
	DB	00H
	DB	00H
	DB	099H
	DB	00H
	DB	00H
	DB	00H
	DB	099H
	DB	00H
	DB	00H
	DB	00H
	DB	099H
	DB	00H
	DB	00H
	DB	00H
	DB	099H
	DB	00H
	DB	00H
	DB	00H
	DB	099H
	DB	00H
	DB	00H
	DB	00H
	DB	099H
	DB	00H
	DB	00H
	DB	00H
	DB	099H
	DB	00H
	DB	00H
	DB	00H
	DB	099H
	DB	00H
	DB	00H
	DB	00H
	DB	099H
	DB	00H
	DB	00H
	DB	00H
	DB	099H
	DB	00H
	DB	00H
	DB	00H
	DB	099H
	DB	00H
	DB	00H
	DB	00H
	DB	099H
	DB	00H
	DB	00H
	DB	00H
	DB	099H
	DB	00H
	DB	00H
	DB	00H
	DB	099H
	DB	00H
	DB	00H
	DB	00H
	DB	099H
	DB	00H
	DB	00H
	DB	00H
	DB	099H
	DB	00H
	DB	00H
	DB	00H
	DB	099H
	DB	00H
	DB	00H
	DB	00H
	DB	099H
	DB	00H
	DB	00H
	DB	00H
	DB	099H
	DB	00H
	DB	00H
	DB	00H
	DB	099H
	DB	00H
	DB	00H
	DB	00H
	DB	099H
	DB	00H
	DB	00H
	DB	00H
	DB	099H
	DB	00H
	DB	00H
	DB	00H
	DB	099H
	DB	00H
	DB	00H
	DB	00H
	DB	099H
	DB	00H
	DB	00H
	DB	00H
	DB	099H
	DB	00H
	DB	00H
	DB	00H
	DB	099H
	DB	00H
	DB	00H
	DB	00H
	DB	099H
	DB	00H
	DB	00H
	DB	00H
	DB	099H
	DB	00H
	DB	00H
	DB	00H
	DB	032H
	DB	00H
	DB	00H
	DB	00H
	DB	050H
	DB	00H
	DB	00H
	DB	00H
	DB	099H
	DB	00H
	DB	00H
	DB	00H
	DB	099H
	DB	00H
	DB	00H
	DB	00H
	DB	099H
	DB	00H
	DB	00H
	DB	00H
	DB	099H
	DB	00H
	DB	00H
	DB	00H
	DB	099H
	DB	00H
	DB	00H
	DB	00H
	DB	099H
	DB	00H
	DB	00H
	DB	00H
	DB	099H
	DB	00H
	DB	00H
	DB	00H
	DB	099H
	DB	00H
	DB	00H
	DB	00H
	DB	099H
	DB	00H
	DB	00H
	DB	00H
	DB	099H
	DB	00H
	DB	00H
	DB	00H
	DB	099H
	DB	00H
	DB	00H
	DB	00H
	DB	099H
	DB	00H
	DB	00H
	DB	00H
	DB	099H
	DB	00H
	DB	00H
	DB	00H
	DB	099H
	DB	00H
	DB	00H
	DB	00H
	DB	099H
	DB	00H
	DB	00H
	DB	00H
	DB	099H
	DB	00H
	DB	00H
	DB	00H
	DB	099H
	DB	00H
	DB	00H
	DB	00H
	DB	099H
	DB	00H
	DB	00H
	DB	00H
	DB	099H
	DB	00H
	DB	00H
	DB	00H
	DB	099H
	DB	00H
	DB	00H
	DB	00H
	DB	099H
	DB	00H
	DB	00H
	DB	00H
	DB	099H
	DB	00H
	DB	00H
	DB	00H
	DB	099H
	DB	00H
	DB	00H
	DB	00H
	DB	099H
	DB	00H
	DB	00H
	DB	00H
	DB	099H
	DB	00H
	DB	00H
	DB	00H
	DB	099H
	DB	00H
	DB	00H
	DB	00H
	DB	099H
	DB	00H
	DB	00H
	DB	00H
	DB	099H
	DB	00H
	DB	00H
	DB	00H
	DB	099H
	DB	00H
	DB	00H
	DB	00H
	DB	099H
	DB	00H
	DB	00H
	DB	00H
	DB	099H
	DB	00H
	DB	00H
	DB	00H
	DB	099H
	DB	00H
	DB	00H
	DB	00H
	DB	099H
	DB	00H
	DB	00H
	DB	00H
	DB	099H
	DB	00H
	DB	00H
	DB	00H
	DB	099H
	DB	00H
	DB	00H
	DB	00H
	DB	099H
	DB	00H
	DB	00H
	DB	00H
	DB	099H
	DB	00H
	DB	00H
	DB	00H
	DB	099H
	DB	00H
	DB	00H
	DB	00H
	DB	099H
	DB	00H
	DB	00H
	DB	00H
	DB	099H
	DB	00H
	DB	00H
	DB	00H
	DB	099H
	DB	00H
	DB	00H
	DB	00H
	DB	099H
	DB	00H
	DB	00H
	DB	00H
	DB	099H
	DB	00H
	DB	00H
	DB	00H
	DB	099H
	DB	00H
	DB	00H
	DB	00H
	DB	099H
	DB	00H
	DB	00H
	DB	00H
	DB	099H
	DB	00H
	DB	00H
	DB	00H
	DB	099H
	DB	00H
	DB	00H
	DB	00H
	DB	099H
	DB	00H
	DB	00H
	DB	00H
	DB	099H
	DB	00H
	DB	00H
	DB	00H
	DB	099H
	DB	00H
	DB	00H
	DB	00H
	DB	099H
	DB	00H
	DB	00H
	DB	00H
	DB	099H
	DB	00H
	DB	00H
	DB	00H
	DB	099H
	DB	00H
	DB	00H
	DB	00H
	DB	099H
	DB	00H
	DB	00H
	DB	00H
	DB	099H
	DB	00H
	DB	00H
	DB	00H
	DB	099H
	DB	00H
	DB	00H
	DB	00H
	DB	099H
	DB	00H
	DB	00H
	DB	00H
	DB	099H
	DB	00H
	DB	00H
	DB	00H
	DB	099H
	DB	00H
	DB	00H
	DB	00H
	DB	099H
	DB	00H
	DB	00H
	DB	00H
	DB	099H
	DB	00H
	DB	00H
	DB	00H
	DB	099H
	DB	00H
	DB	00H
	DB	00H
	DB	099H
	DB	00H
	DB	00H
	DB	00H
	DB	099H
	DB	00H
	DB	00H
	DB	00H
	DB	099H
	DB	00H
	DB	00H
	DB	00H
	DB	099H
	DB	00H
	DB	00H
	DB	00H
	DB	099H
	DB	00H
	DB	00H
	DB	00H
	DB	099H
	DB	00H
	DB	00H
	DB	00H
	DB	099H
	DB	00H
	DB	00H
	DB	00H
	DB	099H
	DB	00H
	DB	00H
	DB	00H
	DB	099H
	DB	00H
	DB	00H
	DB	00H
	DB	099H
	DB	00H
	DB	00H
	DB	00H
	DB	099H
	DB	00H
	DB	00H
	DB	00H
	DB	099H
	DB	00H
	DB	00H
	DB	00H
	DB	099H
	DB	00H
	DB	00H
	DB	00H
	DB	099H
	DB	00H
	DB	00H
	DB	00H
	DB	099H
	DB	00H
	DB	00H
	DB	00H
	DB	099H
	DB	00H
	DB	00H
	DB	00H
	DB	099H
	DB	00H
	DB	00H
	DB	00H
	DB	099H
	DB	00H
	DB	00H
	DB	00H
	DB	099H
	DB	00H
	DB	00H
	DB	00H
	DB	099H
	DB	00H
	DB	00H
	DB	00H
	DB	099H
	DB	00H
	DB	00H
	DB	00H
	DB	099H
	DB	00H
	DB	00H
	DB	00H
	DB	099H
	DB	00H
	DB	00H
	DB	00H
	DB	099H
	DB	00H
	DB	00H
	DB	00H
	DB	099H
	DB	00H
	DB	00H
	DB	00H
	DB	099H
	DB	00H
	DB	00H
	DB	00H
	DB	099H
	DB	00H
	DB	00H
	DB	00H
	DB	099H
	DB	00H
	DB	00H
	DB	00H
	DB	099H
	DB	00H
	DB	00H
	DB	00H
	DB	099H
	DB	00H
	DB	00H
	DB	00H
	DB	099H
	DB	00H
	DB	00H
	DB	00H
	DB	099H
	DB	00H
	DB	00H
	DB	00H
	DB	099H
	DB	00H
	DB	00H
	DB	00H
	DB	099H
	DB	00H
	DB	00H
	DB	00H
	DB	099H
	DB	00H
	DB	00H
	DB	00H
	DB	099H
	DB	00H
	DB	00H
	DB	00H
	DB	099H
	DB	00H
	DB	00H
	DB	00H
	DB	099H
	DB	00H
	DB	00H
	DB	00H
	DB	099H
	DB	00H
	DB	00H
	DB	00H
	DB	099H
	DB	00H
	DB	00H
	DB	00H
	DB	099H
	DB	00H
	DB	00H
	DB	00H
	DB	099H
	DB	00H
	DB	00H
	DB	00H
	DB	099H
	DB	00H
	DB	00H
	DB	00H
	DB	099H
	DB	00H
	DB	00H
	DB	00H
	DB	099H
	DB	00H
	DB	00H
	DB	00H
	DB	099H
	DB	00H
	DB	00H
	DB	00H
	DB	099H
	DB	00H
	DB	00H
	DB	00H
	DB	099H
	DB	00H
	DB	00H
	DB	00H
	DB	099H
	DB	00H
	DB	00H
	DB	00H
	DB	099H
	DB	00H
	DB	00H
	DB	00H
	DB	099H
	DB	00H
	DB	00H
	DB	00H
	DB	099H
	DB	00H
	DB	00H
	DB	00H
	DB	099H
	DB	00H
	DB	00H
	DB	00H
	DB	099H
	DB	00H
	DB	00H
	DB	00H
	DB	099H
	DB	00H
	DB	00H
	DB	00H
	DB	099H
	DB	00H
	DB	00H
	DB	00H
	DB	099H
	DB	00H
	DB	00H
	DB	00H
	DB	099H
	DB	00H
	DB	00H
	DB	00H
	DB	099H
	DB	00H
	DB	00H
	DB	00H
	DB	099H
	DB	00H
	DB	00H
	DB	00H
	DB	099H
	DB	00H
	DB	00H
	DB	00H
	DB	099H
	DB	00H
	DB	00H
	DB	00H
	DB	099H
	DB	00H
	DB	00H
	DB	00H
	DB	099H
	DB	00H
	DB	00H
	DB	00H
	DB	099H
	DB	00H
	DB	00H
	DB	00H
	DB	099H
	DB	00H
	DB	00H
	DB	00H
	DB	099H
	DB	00H
	DB	00H
	DB	00H
	DB	099H
	DB	00H
	DB	00H
	DB	00H
	DB	099H
	DB	00H
	DB	00H
	DB	00H
	DB	099H
	DB	00H
	DB	00H
	DB	00H
	DB	099H
	DB	00H
	DB	00H
	DB	00H
	DB	099H
	DB	00H
	DB	00H
	DB	00H
	DB	099H
	DB	00H
	DB	00H
	DB	00H
	DB	099H
	DB	00H
	DB	00H
	DB	00H
	DB	099H
	DB	00H
	DB	00H
	DB	00H
	DB	099H
	DB	00H
	DB	00H
	DB	00H
	DB	099H
	DB	00H
	DB	00H
	DB	00H
	DB	099H
	DB	00H
	DB	00H
	DB	00H
	DB	099H
	DB	00H
	DB	00H
	DB	00H
	DB	099H
	DB	00H
	DB	00H
	DB	00H
	DB	099H
	DB	00H
	DB	00H
	DB	00H
	DB	099H
	DB	00H
	DB	00H
	DB	00H
	DB	099H
	DB	00H
	DB	00H
	DB	00H
	DB	099H
	DB	00H
	DB	00H
	DB	00H
	DB	099H
	DB	00H
	DB	00H
	DB	00H
	DB	099H
	DB	00H
	DB	00H
	DB	00H
	DB	099H
	DB	00H
	DB	00H
	DB	00H
	DB	099H
	DB	00H
	DB	00H
	DB	00H
	DB	099H
	DB	00H
	DB	00H
	DB	00H
	DB	099H
	DB	00H
	DB	00H
	DB	00H
	DB	099H
	DB	00H
	DB	00H
	DB	00H
	DB	099H
	DB	00H
	DB	00H
	DB	00H
	DB	099H
	DB	00H
	DB	00H
	DB	00H
	DB	099H
	DB	00H
	DB	00H
	DB	00H
	DB	099H
	DB	00H
	DB	00H
	DB	00H
	DB	099H
	DB	00H
	DB	00H
	DB	00H
	DB	099H
	DB	00H
	DB	00H
	DB	00H
	DB	099H
	DB	00H
	DB	00H
	DB	00H
	DB	099H
	DB	00H
	DB	00H
	DB	00H
	DB	099H
	DB	00H
	DB	00H
	DB	00H
	DB	099H
	DB	00H
	DB	00H
	DB	00H
	DB	099H
	DB	00H
	DB	00H
	DB	00H
	DB	099H
	DB	00H
	DB	00H
	DB	00H
	DB	099H
	DB	00H
	DB	00H
	DB	00H
	DB	099H
	DB	00H
	DB	00H
	DB	00H
	DB	099H
	DB	00H
	DB	00H
	DB	00H
	DB	099H
	DB	00H
	DB	00H
	DB	00H
	DB	099H
	DB	00H
	DB	00H
	DB	00H
	DB	099H
	DB	00H
	DB	00H
	DB	00H
	DB	099H
	DB	00H
	DB	00H
	DB	00H
	DB	099H
	DB	00H
	DB	00H
	DB	00H
	DB	099H
	DB	00H
	DB	00H
	DB	00H
	DB	099H
	DB	00H
	DB	00H
	DB	00H
	DB	099H
	DB	00H
	DB	00H
	DB	00H
	DB	099H
	DB	00H
	DB	00H
	DB	00H
	DB	099H
	DB	00H
	DB	00H
	DB	00H
	DB	099H
	DB	00H
	DB	00H
	DB	00H
	DB	099H
	DB	00H
	DB	00H
	DB	00H
	DB	099H
	DB	00H
	DB	00H
	DB	00H
	DB	099H
	DB	00H
	DB	00H
	DB	00H
	DB	099H
	DB	00H
	DB	00H
	DB	00H
	DB	099H
	DB	00H
	DB	00H
	DB	00H
	DB	099H
	DB	00H
	DB	00H
	DB	00H
	DB	099H
	DB	00H
	DB	00H
	DB	00H
	DB	099H
	DB	00H
	DB	00H
	DB	00H
	DB	099H
	DB	00H
	DB	00H
	DB	00H
	DB	099H
	DB	00H
	DB	00H
	DB	00H
	DB	099H
	DB	00H
	DB	00H
	DB	00H
	DB	099H
	DB	00H
	DB	00H
	DB	00H
	DB	099H
	DB	00H
	DB	00H
	DB	00H
	DB	099H
	DB	00H
	DB	00H
	DB	00H
	DB	099H
	DB	00H
	DB	00H
	DB	00H
	DB	099H
	DB	00H
	DB	00H
	DB	00H
	DB	099H
	DB	00H
	DB	00H
	DB	00H
	DB	099H
	DB	00H
	DB	00H
	DB	00H
	DB	099H
	DB	00H
	DB	00H
	DB	00H
	DB	099H
	DB	00H
	DB	00H
	DB	00H
	DB	099H
	DB	00H
	DB	00H
	DB	00H
	DB	099H
	DB	00H
	DB	00H
	DB	00H
	DB	099H
	DB	00H
	DB	00H
	DB	00H
	DB	099H
	DB	00H
	DB	00H
	DB	00H
	DB	099H
	DB	00H
	DB	00H
	DB	00H
	DB	099H
	DB	00H
	DB	00H
	DB	00H
	DB	099H
	DB	00H
	DB	00H
	DB	00H
	DB	099H
	DB	00H
	DB	00H
	DB	00H
	DB	099H
	DB	00H
	DB	00H
	DB	00H
	DB	099H
	DB	00H
	DB	00H
	DB	00H
	DB	099H
	DB	00H
	DB	00H
	DB	00H
	DB	099H
	DB	00H
	DB	00H
	DB	00H
	DB	099H
	DB	00H
	DB	00H
	DB	00H
	DB	099H
	DB	00H
	DB	00H
	DB	00H
	DB	099H
	DB	00H
	DB	00H
	DB	00H
	DB	099H
	DB	00H
	DB	00H
	DB	00H
	DB	099H
	DB	00H
	DB	00H
	DB	00H
	DB	099H
	DB	00H
	DB	00H
	DB	00H
	DB	099H
	DB	00H
	DB	00H
	DB	00H
	DB	099H
	DB	00H
	DB	00H
	DB	00H
	DB	099H
	DB	00H
	DB	00H
	DB	00H
	DB	099H
	DB	00H
	DB	00H
	DB	00H
	DB	099H
	DB	00H
	DB	00H
	DB	00H
	DB	099H
	DB	00H
	DB	00H
	DB	00H
	DB	099H
	DB	00H
	DB	00H
	DB	00H
	DB	099H
	DB	00H
	DB	00H
	DB	00H
	DB	099H
	DB	00H
	DB	00H
	DB	00H
	DB	099H
	DB	00H
	DB	00H
	DB	00H
	DB	099H
	DB	00H
	DB	00H
	DB	00H
	DB	099H
	DB	00H
	DB	00H
	DB	00H
	DB	099H
	DB	00H
	DB	00H
	DB	00H
	DB	099H
	DB	00H
	DB	00H
	DB	00H
	DB	099H
	DB	00H
	DB	00H
	DB	00H
	DB	099H
	DB	00H
	DB	00H
	DB	00H
	DB	099H
	DB	00H
	DB	00H
	DB	00H
	DB	099H
	DB	00H
	DB	00H
	DB	00H
	DB	099H
	DB	00H
	DB	00H
	DB	00H
	DB	099H
	DB	00H
	DB	00H
	DB	00H
	DB	099H
	DB	00H
	DB	00H
	DB	00H
	DB	099H
	DB	00H
	DB	00H
	DB	00H
	DB	099H
	DB	00H
	DB	00H
	DB	00H
	DB	099H
	DB	00H
	DB	00H
	DB	00H
	DB	099H
	DB	00H
	DB	00H
	DB	00H
	DB	099H
	DB	00H
	DB	00H
	DB	00H
	DB	099H
	DB	00H
	DB	00H
	DB	00H
	DB	099H
	DB	00H
	DB	00H
	DB	00H
	DB	099H
	DB	00H
	DB	00H
	DB	00H
	DB	099H
	DB	00H
	DB	00H
	DB	00H
	DB	099H
	DB	00H
	DB	00H
	DB	00H
	DB	099H
	DB	00H
	DB	00H
	DB	00H
	DB	099H
	DB	00H
	DB	00H
	DB	00H
	DB	099H
	DB	00H
	DB	00H
	DB	00H
	DB	099H
	DB	00H
	DB	00H
	DB	00H
	DB	099H
	DB	00H
	DB	00H
	DB	00H
	DB	099H
	DB	00H
	DB	00H
	DB	00H
	DB	099H
	DB	00H
	DB	00H
	DB	00H
	DB	099H
	DB	00H
	DB	00H
	DB	00H
	DB	099H
	DB	00H
	DB	00H
	DB	00H
	DB	099H
	DB	00H
	DB	00H
	DB	00H
	DB	099H
	DB	00H
	DB	00H
	DB	00H
	DB	099H
	DB	00H
	DB	00H
	DB	00H
	DB	099H
	DB	00H
	DB	00H
	DB	00H
	DB	099H
	DB	00H
	DB	00H
	DB	00H
	DB	099H
	DB	00H
	DB	00H
	DB	00H
	DB	099H
	DB	00H
	DB	00H
	DB	00H
	DB	099H
	DB	00H
	DB	00H
	DB	00H
	DB	099H
	DB	00H
	DB	00H
	DB	00H
	DB	099H
	DB	00H
	DB	00H
	DB	00H
	DB	099H
	DB	00H
	DB	00H
	DB	00H
	DB	04eH
	DB	00H
	DB	00H
	DB	00H
	DB	065H
	DB	00H
	DB	00H
	DB	00H
	DB	099H
	DB	00H
	DB	00H
	DB	00H
	DB	099H
	DB	00H
	DB	00H
	DB	00H
	DB	099H
	DB	00H
	DB	00H
	DB	00H
	DB	099H
	DB	00H
	DB	00H
	DB	00H
	DB	099H
	DB	00H
	DB	00H
	DB	00H
	DB	099H
	DB	00H
	DB	00H
	DB	00H
	DB	099H
	DB	00H
	DB	00H
	DB	00H
	DB	099H
	DB	00H
	DB	00H
	DB	00H
	DB	099H
	DB	00H
	DB	00H
	DB	00H
	DB	099H
	DB	00H
	DB	00H
	DB	00H
	DB	099H
	DB	00H
	DB	00H
	DB	00H
	DB	099H
	DB	00H
	DB	00H
	DB	00H
	DB	099H
	DB	00H
	DB	00H
	DB	00H
	DB	099H
	DB	00H
	DB	00H
	DB	00H
	DB	099H
	DB	00H
	DB	00H
	DB	00H
	DB	099H
	DB	00H
	DB	00H
	DB	00H
	DB	099H
	DB	00H
	DB	00H
	DB	00H
	DB	099H
	DB	00H
	DB	00H
	DB	00H
	DB	099H
	DB	00H
	DB	00H
	DB	00H
	DB	099H
	DB	00H
	DB	00H
	DB	00H
	DB	099H
	DB	00H
	DB	00H
	DB	00H
	DB	099H
	DB	00H
	DB	00H
	DB	00H
	DB	099H
	DB	00H
	DB	00H
	DB	00H
	DB	099H
	DB	00H
	DB	00H
	DB	00H
	DB	099H
	DB	00H
	DB	00H
	DB	00H
	DB	099H
	DB	00H
	DB	00H
	DB	00H
	DB	099H
	DB	00H
	DB	00H
	DB	00H
	DB	099H
	DB	00H
	DB	00H
	DB	00H
	DB	099H
	DB	00H
	DB	00H
	DB	00H
	DB	099H
	DB	00H
	DB	00H
	DB	00H
	DB	099H
	DB	00H
	DB	00H
	DB	00H
	DB	099H
	DB	00H
	DB	00H
	DB	00H
	DB	099H
	DB	00H
	DB	00H
	DB	00H
	DB	099H
	DB	00H
	DB	00H
	DB	00H
	DB	099H
	DB	00H
	DB	00H
	DB	00H
	DB	099H
	DB	00H
	DB	00H
	DB	00H
	DB	099H
	DB	00H
	DB	00H
	DB	00H
	DB	099H
	DB	00H
	DB	00H
	DB	00H
	DB	099H
	DB	00H
	DB	00H
	DB	00H
	DB	099H
	DB	00H
	DB	00H
	DB	00H
	DB	099H
	DB	00H
	DB	00H
	DB	00H
	DB	099H
	DB	00H
	DB	00H
	DB	00H
	DB	099H
	DB	00H
	DB	00H
	DB	00H
	DB	099H
	DB	00H
	DB	00H
	DB	00H
	DB	099H
	DB	00H
	DB	00H
	DB	00H
	DB	099H
	DB	00H
	DB	00H
	DB	00H
	DB	099H
	DB	00H
	DB	00H
	DB	00H
	DB	099H
	DB	00H
	DB	00H
	DB	00H
	DB	099H
	DB	00H
	DB	00H
	DB	00H
	DB	099H
	DB	00H
	DB	00H
	DB	00H
	DB	099H
	DB	00H
	DB	00H
	DB	00H
	DB	099H
	DB	00H
	DB	00H
	DB	00H
	DB	099H
	DB	00H
	DB	00H
	DB	00H
	DB	099H
	DB	00H
	DB	00H
	DB	00H
	DB	099H
	DB	00H
	DB	00H
	DB	00H
	DB	099H
	DB	00H
	DB	00H
	DB	00H
	DB	099H
	DB	00H
	DB	00H
	DB	00H
	DB	099H
	DB	00H
	DB	00H
	DB	00H
	DB	099H
	DB	00H
	DB	00H
	DB	00H
	DB	099H
	DB	00H
	DB	00H
	DB	00H
	DB	099H
	DB	00H
	DB	00H
	DB	00H
	DB	099H
	DB	00H
	DB	00H
	DB	00H
	DB	099H
	DB	00H
	DB	00H
	DB	00H
	DB	099H
	DB	00H
	DB	00H
	DB	00H
	DB	099H
	DB	00H
	DB	00H
	DB	00H
	DB	099H
	DB	00H
	DB	00H
	DB	00H
	DB	099H
	DB	00H
	DB	00H
	DB	00H
	DB	099H
	DB	00H
	DB	00H
	DB	00H
	DB	099H
	DB	00H
	DB	00H
	DB	00H
	DB	099H
	DB	00H
	DB	00H
	DB	00H
	DB	099H
	DB	00H
	DB	00H
	DB	00H
	DB	099H
	DB	00H
	DB	00H
	DB	00H
	DB	099H
	DB	00H
	DB	00H
	DB	00H
	DB	099H
	DB	00H
	DB	00H
	DB	00H
	DB	099H
	DB	00H
	DB	00H
	DB	00H
	DB	099H
	DB	00H
	DB	00H
	DB	00H
	DB	099H
	DB	00H
	DB	00H
	DB	00H
	DB	099H
	DB	00H
	DB	00H
	DB	00H
	DB	099H
	DB	00H
	DB	00H
	DB	00H
	DB	099H
	DB	00H
	DB	00H
	DB	00H
	DB	099H
	DB	00H
	DB	00H
	DB	00H
	DB	099H
	DB	00H
	DB	00H
	DB	00H
	DB	099H
	DB	00H
	DB	00H
	DB	00H
	DB	099H
	DB	00H
	DB	00H
	DB	00H
	DB	099H
	DB	00H
	DB	00H
	DB	00H
	DB	099H
	DB	00H
	DB	00H
	DB	00H
	DB	099H
	DB	00H
	DB	00H
	DB	00H
	DB	099H
	DB	00H
	DB	00H
	DB	00H
	DB	099H
	DB	00H
	DB	00H
	DB	00H
	DB	099H
	DB	00H
	DB	00H
	DB	00H
	DB	099H
	DB	00H
	DB	00H
	DB	00H
	DB	099H
	DB	00H
	DB	00H
	DB	00H
	DB	099H
	DB	00H
	DB	00H
	DB	00H
	DB	099H
	DB	00H
	DB	00H
	DB	00H
	DB	099H
	DB	00H
	DB	00H
	DB	00H
	DB	099H
	DB	00H
	DB	00H
	DB	00H
	DB	099H
	DB	00H
	DB	00H
	DB	00H
	DB	099H
	DB	00H
	DB	00H
	DB	00H
	DB	099H
	DB	00H
	DB	00H
	DB	00H
	DB	099H
	DB	00H
	DB	00H
	DB	00H
	DB	099H
	DB	00H
	DB	00H
	DB	00H
	DB	099H
	DB	00H
	DB	00H
	DB	00H
	DB	099H
	DB	00H
	DB	00H
	DB	00H
	DB	099H
	DB	00H
	DB	00H
	DB	00H
	DB	099H
	DB	00H
	DB	00H
	DB	00H
	DB	099H
	DB	00H
	DB	00H
	DB	00H
	DB	099H
	DB	00H
	DB	00H
	DB	00H
	DB	099H
	DB	00H
	DB	00H
	DB	00H
	DB	099H
	DB	00H
	DB	00H
	DB	00H
	DB	099H
	DB	00H
	DB	00H
	DB	00H
	DB	099H
	DB	00H
	DB	00H
	DB	00H
	DB	099H
	DB	00H
	DB	00H
	DB	00H
	DB	099H
	DB	00H
	DB	00H
	DB	00H
	DB	099H
	DB	00H
	DB	00H
	DB	00H
	DB	099H
	DB	00H
	DB	00H
	DB	00H
	DB	099H
	DB	00H
	DB	00H
	DB	00H
	DB	099H
	DB	00H
	DB	00H
	DB	00H
	DB	099H
	DB	00H
	DB	00H
	DB	00H
	DB	099H
	DB	00H
	DB	00H
	DB	00H
	DB	099H
	DB	00H
	DB	00H
	DB	00H
	DB	099H
	DB	00H
	DB	00H
	DB	00H
	DB	099H
	DB	00H
	DB	00H
	DB	00H
	DB	099H
	DB	00H
	DB	00H
	DB	00H
	DB	099H
	DB	00H
	DB	00H
	DB	00H
	DB	099H
	DB	00H
	DB	00H
	DB	00H
	DB	099H
	DB	00H
	DB	00H
	DB	00H
	DB	099H
	DB	00H
	DB	00H
	DB	00H
	DB	099H
	DB	00H
	DB	00H
	DB	00H
	DB	099H
	DB	00H
	DB	00H
	DB	00H
	DB	099H
	DB	00H
	DB	00H
	DB	00H
	DB	099H
	DB	00H
	DB	00H
	DB	00H
	DB	099H
	DB	00H
	DB	00H
	DB	00H
	DB	099H
	DB	00H
	DB	00H
	DB	00H
	DB	099H
	DB	00H
	DB	00H
	DB	00H
	DB	099H
	DB	00H
	DB	00H
	DB	00H
	DB	099H
	DB	00H
	DB	00H
	DB	00H
	DB	099H
	DB	00H
	DB	00H
	DB	00H
	DB	099H
	DB	00H
	DB	00H
	DB	00H
	DB	099H
	DB	00H
	DB	00H
	DB	00H
	DB	099H
	DB	00H
	DB	00H
	DB	00H
	DB	099H
	DB	00H
	DB	00H
	DB	00H
	DB	099H
	DB	00H
	DB	00H
	DB	00H
	DB	099H
	DB	00H
	DB	00H
	DB	00H
	DB	099H
	DB	00H
	DB	00H
	DB	00H
	DB	099H
	DB	00H
	DB	00H
	DB	00H
	DB	099H
	DB	00H
	DB	00H
	DB	00H
	DB	099H
	DB	00H
	DB	00H
	DB	00H
	DB	099H
	DB	00H
	DB	00H
	DB	00H
	DB	099H
	DB	00H
	DB	00H
	DB	00H
	DB	099H
	DB	00H
	DB	00H
	DB	00H
	DB	099H
	DB	00H
	DB	00H
	DB	00H
	DB	099H
	DB	00H
	DB	00H
	DB	00H
	DB	099H
	DB	00H
	DB	00H
	DB	00H
	DB	099H
	DB	00H
	DB	00H
	DB	00H
	DB	099H
	DB	00H
	DB	00H
	DB	00H
	DB	099H
	DB	00H
	DB	00H
	DB	00H
	DB	099H
	DB	00H
	DB	00H
	DB	00H
	DB	099H
	DB	00H
	DB	00H
	DB	00H
	DB	099H
	DB	00H
	DB	00H
	DB	00H
	DB	099H
	DB	00H
	DB	00H
	DB	00H
	DB	099H
	DB	00H
	DB	00H
	DB	00H
	DB	099H
	DB	00H
	DB	00H
	DB	00H
	DB	099H
	DB	00H
	DB	00H
	DB	00H
	DB	099H
	DB	00H
	DB	00H
	DB	00H
	DB	099H
	DB	00H
	DB	00H
	DB	00H
	DB	099H
	DB	00H
	DB	00H
	DB	00H
	DB	099H
	DB	00H
	DB	00H
	DB	00H
	DB	099H
	DB	00H
	DB	00H
	DB	00H
	DB	099H
	DB	00H
	DB	00H
	DB	00H
	DB	099H
	DB	00H
	DB	00H
	DB	00H
	DB	099H
	DB	00H
	DB	00H
	DB	00H
	DB	099H
	DB	00H
	DB	00H
	DB	00H
	DB	099H
	DB	00H
	DB	00H
	DB	00H
	DB	099H
	DB	00H
	DB	00H
	DB	00H
	DB	099H
	DB	00H
	DB	00H
	DB	00H
	DB	099H
	DB	00H
	DB	00H
	DB	00H
	DB	099H
	DB	00H
	DB	00H
	DB	00H
	DB	099H
	DB	00H
	DB	00H
	DB	00H
	DB	099H
	DB	00H
	DB	00H
	DB	00H
	DB	099H
	DB	00H
	DB	00H
	DB	00H
	DB	099H
	DB	00H
	DB	00H
	DB	00H
	DB	099H
	DB	00H
	DB	00H
	DB	00H
	DB	099H
	DB	00H
	DB	00H
	DB	00H
	DB	099H
	DB	00H
	DB	00H
	DB	00H
	DB	099H
	DB	00H
	DB	00H
	DB	00H
	DB	099H
	DB	00H
	DB	00H
	DB	00H
	DB	099H
	DB	00H
	DB	00H
	DB	00H
	DB	099H
	DB	00H
	DB	00H
	DB	00H
	DB	099H
	DB	00H
	DB	00H
	DB	00H
	DB	099H
	DB	00H
	DB	00H
	DB	00H
	DB	099H
	DB	00H
	DB	00H
	DB	00H
	DB	099H
	DB	00H
	DB	00H
	DB	00H
	DB	099H
	DB	00H
	DB	00H
	DB	00H
	DB	099H
	DB	00H
	DB	00H
	DB	00H
	DB	099H
	DB	00H
	DB	00H
	DB	00H
	DB	099H
	DB	00H
	DB	00H
	DB	00H
	DB	099H
	DB	00H
	DB	00H
	DB	00H
	DB	099H
	DB	00H
	DB	00H
	DB	00H
	DB	099H
	DB	00H
	DB	00H
	DB	00H
	DB	099H
	DB	00H
	DB	00H
	DB	00H
	DB	099H
	DB	00H
	DB	00H
	DB	00H
	DB	099H
	DB	00H
	DB	00H
	DB	00H
	DB	099H
	DB	00H
	DB	00H
	DB	00H
	DB	099H
	DB	00H
	DB	00H
	DB	00H
	DB	099H
	DB	00H
	DB	00H
	DB	00H
	DB	099H
	DB	00H
	DB	00H
	DB	00H
	DB	099H
	DB	00H
	DB	00H
	DB	00H
	DB	099H
	DB	00H
	DB	00H
	DB	00H
	DB	099H
	DB	00H
	DB	00H
	DB	00H
	DB	099H
	DB	00H
	DB	00H
	DB	00H
	DB	099H
	DB	00H
	DB	00H
	DB	00H
	DB	099H
	DB	00H
	DB	00H
	DB	00H
	DB	099H
	DB	00H
	DB	00H
	DB	00H
	DB	099H
	DB	00H
	DB	00H
	DB	00H
	DB	099H
	DB	00H
	DB	00H
	DB	00H
	DB	099H
	DB	00H
	DB	00H
	DB	00H
	DB	099H
	DB	00H
	DB	00H
	DB	00H
	DB	099H
	DB	00H
	DB	00H
	DB	00H
	DB	099H
	DB	00H
	DB	00H
	DB	00H
	DB	099H
	DB	00H
	DB	00H
	DB	00H
	DB	099H
	DB	00H
	DB	00H
	DB	00H
	DB	099H
	DB	00H
	DB	00H
	DB	00H
	DB	099H
	DB	00H
	DB	00H
	DB	00H
	DB	099H
	DB	00H
	DB	00H
	DB	00H
	DB	099H
	DB	00H
	DB	00H
	DB	00H
	DB	099H
	DB	00H
	DB	00H
	DB	00H
	DB	099H
	DB	00H
	DB	00H
	DB	00H
	DB	099H
	DB	00H
	DB	00H
	DB	00H
	DB	099H
	DB	00H
	DB	00H
	DB	00H
	DB	099H
	DB	00H
	DB	00H
	DB	00H
	DB	099H
	DB	00H
	DB	00H
	DB	00H
	DB	099H
	DB	00H
	DB	00H
	DB	00H
	DB	099H
	DB	00H
	DB	00H
	DB	00H
	DB	099H
	DB	00H
	DB	00H
	DB	00H
	DB	099H
	DB	00H
	DB	00H
	DB	00H
	DB	099H
	DB	00H
	DB	00H
	DB	00H
	DB	099H
	DB	00H
	DB	00H
	DB	00H
	DB	099H
	DB	00H
	DB	00H
	DB	00H
	DB	099H
	DB	00H
	DB	00H
	DB	00H
	DB	099H
	DB	00H
	DB	00H
	DB	00H
	DB	099H
	DB	00H
	DB	00H
	DB	00H
	DB	099H
	DB	00H
	DB	00H
	DB	00H
	DB	099H
	DB	00H
	DB	00H
	DB	00H
	DB	099H
	DB	00H
	DB	00H
	DB	00H
	DB	099H
	DB	00H
	DB	00H
	DB	00H
	DB	099H
	DB	00H
	DB	00H
	DB	00H
	DB	099H
	DB	00H
	DB	00H
	DB	00H
	DB	099H
	DB	00H
	DB	00H
	DB	00H
	DB	099H
	DB	00H
	DB	00H
	DB	00H
	DB	099H
	DB	00H
	DB	00H
	DB	00H
	DB	099H
	DB	00H
	DB	00H
	DB	00H
	DB	099H
	DB	00H
	DB	00H
	DB	00H
	DB	099H
	DB	00H
	DB	00H
	DB	00H
	DB	099H
	DB	00H
	DB	00H
	DB	00H
	DB	099H
	DB	00H
	DB	00H
	DB	00H
	DB	099H
	DB	00H
	DB	00H
	DB	00H
	DB	099H
	DB	00H
	DB	00H
	DB	00H
	DB	099H
	DB	00H
	DB	00H
	DB	00H
	DB	099H
	DB	00H
	DB	00H
	DB	00H
	DB	099H
	DB	00H
	DB	00H
	DB	00H
	DB	099H
	DB	00H
	DB	00H
	DB	00H
	DB	099H
	DB	00H
	DB	00H
	DB	00H
	DB	099H
	DB	00H
	DB	00H
	DB	00H
	DB	099H
	DB	00H
	DB	00H
	DB	00H
	DB	099H
	DB	00H
	DB	00H
	DB	00H
	DB	099H
	DB	00H
	DB	00H
	DB	00H
	DB	099H
	DB	00H
	DB	00H
	DB	00H
	DB	099H
	DB	00H
	DB	00H
	DB	00H
	DB	064H
	DB	00H
	DB	00H
	DB	00H
	DB	07bH
	DB	00H
	DB	00H
	DB	00H
	DB	099H
	DB	00H
	DB	00H
	DB	00H
	DB	099H
	DB	00H
	DB	00H
	DB	00H
	DB	099H
	DB	00H
	DB	00H
	DB	00H
	DB	099H
	DB	00H
	DB	00H
	DB	00H
	DB	099H
	DB	00H
	DB	00H
	DB	00H
	DB	099H
	DB	00H
	DB	00H
	DB	00H
	DB	099H
	DB	00H
	DB	00H
	DB	00H
	DB	099H
	DB	00H
	DB	00H
	DB	00H
	DB	099H
	DB	00H
	DB	00H
	DB	00H
	DB	099H
	DB	00H
	DB	00H
	DB	00H
	DB	099H
	DB	00H
	DB	00H
	DB	00H
	DB	099H
	DB	00H
	DB	00H
	DB	00H
	DB	099H
	DB	00H
	DB	00H
	DB	00H
	DB	099H
	DB	00H
	DB	00H
	DB	00H
	DB	099H
	DB	00H
	DB	00H
	DB	00H
	DB	099H
	DB	00H
	DB	00H
	DB	00H
	DB	099H
	DB	00H
	DB	00H
	DB	00H
	DB	099H
	DB	00H
	DB	00H
	DB	00H
	DB	099H
	DB	00H
	DB	00H
	DB	00H
	DB	099H
	DB	00H
	DB	00H
	DB	00H
	DB	099H
	DB	00H
	DB	00H
	DB	00H
	DB	099H
	DB	00H
	DB	00H
	DB	00H
	DB	099H
	DB	00H
	DB	00H
	DB	00H
	DB	099H
	DB	00H
	DB	00H
	DB	00H
	DB	099H
	DB	00H
	DB	00H
	DB	00H
	DB	099H
	DB	00H
	DB	00H
	DB	00H
	DB	099H
	DB	00H
	DB	00H
	DB	00H
	DB	099H
	DB	00H
	DB	00H
	DB	00H
	DB	099H
	DB	00H
	DB	00H
	DB	00H
	DB	099H
	DB	00H
	DB	00H
	DB	00H
	DB	099H
	DB	00H
	DB	00H
	DB	00H
	DB	099H
	DB	00H
	DB	00H
	DB	00H
	DB	099H
	DB	00H
	DB	00H
	DB	00H
	DB	099H
	DB	00H
	DB	00H
	DB	00H
	DB	099H
	DB	00H
	DB	00H
	DB	00H
	DB	099H
	DB	00H
	DB	00H
	DB	00H
	DB	099H
	DB	00H
	DB	00H
	DB	00H
	DB	099H
	DB	00H
	DB	00H
	DB	00H
	DB	099H
	DB	00H
	DB	00H
	DB	00H
	DB	099H
	DB	00H
	DB	00H
	DB	00H
	DB	099H
	DB	00H
	DB	00H
	DB	00H
	DB	099H
	DB	00H
	DB	00H
	DB	00H
	DB	099H
	DB	00H
	DB	00H
	DB	00H
	DB	099H
	DB	00H
	DB	00H
	DB	00H
	DB	099H
	DB	00H
	DB	00H
	DB	00H
	DB	099H
	DB	00H
	DB	00H
	DB	00H
	DB	099H
	DB	00H
	DB	00H
	DB	00H
	DB	099H
	DB	00H
	DB	00H
	DB	00H
	DB	099H
	DB	00H
	DB	00H
	DB	00H
	DB	099H
	DB	00H
	DB	00H
	DB	00H
	DB	099H
	DB	00H
	DB	00H
	DB	00H
	DB	099H
	DB	00H
	DB	00H
	DB	00H
	DB	099H
	DB	00H
	DB	00H
	DB	00H
	DB	099H
	DB	00H
	DB	00H
	DB	00H
	DB	099H
	DB	00H
	DB	00H
	DB	00H
	DB	099H
	DB	00H
	DB	00H
	DB	00H
	DB	099H
	DB	00H
	DB	00H
	DB	00H
	DB	099H
	DB	00H
	DB	00H
	DB	00H
	DB	099H
	DB	00H
	DB	00H
	DB	00H
	DB	099H
	DB	00H
	DB	00H
	DB	00H
	DB	099H
	DB	00H
	DB	00H
	DB	00H
	DB	099H
	DB	00H
	DB	00H
	DB	00H
	DB	099H
	DB	00H
	DB	00H
	DB	00H
	DB	099H
	DB	00H
	DB	00H
	DB	00H
	DB	099H
	DB	00H
	DB	00H
	DB	00H
	DB	099H
	DB	00H
	DB	00H
	DB	00H
	DB	099H
	DB	00H
	DB	00H
	DB	00H
	DB	099H
	DB	00H
	DB	00H
	DB	00H
	DB	099H
	DB	00H
	DB	00H
	DB	00H
	DB	099H
	DB	00H
	DB	00H
	DB	00H
	DB	099H
	DB	00H
	DB	00H
	DB	00H
	DB	099H
	DB	00H
	DB	00H
	DB	00H
	DB	099H
	DB	00H
	DB	00H
	DB	00H
	DB	099H
	DB	00H
	DB	00H
	DB	00H
	DB	099H
	DB	00H
	DB	00H
	DB	00H
	DB	099H
	DB	00H
	DB	00H
	DB	00H
	DB	099H
	DB	00H
	DB	00H
	DB	00H
	DB	099H
	DB	00H
	DB	00H
	DB	00H
	DB	099H
	DB	00H
	DB	00H
	DB	00H
	DB	099H
	DB	00H
	DB	00H
	DB	00H
	DB	099H
	DB	00H
	DB	00H
	DB	00H
	DB	099H
	DB	00H
	DB	00H
	DB	00H
	DB	099H
	DB	00H
	DB	00H
	DB	00H
	DB	099H
	DB	00H
	DB	00H
	DB	00H
	DB	099H
	DB	00H
	DB	00H
	DB	00H
	DB	099H
	DB	00H
	DB	00H
	DB	00H
	DB	099H
	DB	00H
	DB	00H
	DB	00H
	DB	099H
	DB	00H
	DB	00H
	DB	00H
	DB	099H
	DB	00H
	DB	00H
	DB	00H
	DB	099H
	DB	00H
	DB	00H
	DB	00H
	DB	099H
	DB	00H
	DB	00H
	DB	00H
	DB	099H
	DB	00H
	DB	00H
	DB	00H
	DB	099H
	DB	00H
	DB	00H
	DB	00H
	DB	099H
	DB	00H
	DB	00H
	DB	00H
	DB	099H
	DB	00H
	DB	00H
	DB	00H
	DB	099H
	DB	00H
	DB	00H
	DB	00H
	DB	099H
	DB	00H
	DB	00H
	DB	00H
	DB	099H
	DB	00H
	DB	00H
	DB	00H
	DB	099H
	DB	00H
	DB	00H
	DB	00H
	DB	099H
	DB	00H
	DB	00H
	DB	00H
	DB	099H
	DB	00H
	DB	00H
	DB	00H
	DB	099H
	DB	00H
	DB	00H
	DB	00H
	DB	099H
	DB	00H
	DB	00H
	DB	00H
	DB	099H
	DB	00H
	DB	00H
	DB	00H
	DB	099H
	DB	00H
	DB	00H
	DB	00H
	DB	099H
	DB	00H
	DB	00H
	DB	00H
	DB	099H
	DB	00H
	DB	00H
	DB	00H
	DB	099H
	DB	00H
	DB	00H
	DB	00H
	DB	099H
	DB	00H
	DB	00H
	DB	00H
	DB	099H
	DB	00H
	DB	00H
	DB	00H
	DB	099H
	DB	00H
	DB	00H
	DB	00H
	DB	099H
	DB	00H
	DB	00H
	DB	00H
	DB	099H
	DB	00H
	DB	00H
	DB	00H
	DB	099H
	DB	00H
	DB	00H
	DB	00H
	DB	099H
	DB	00H
	DB	00H
	DB	00H
	DB	099H
	DB	00H
	DB	00H
	DB	00H
	DB	099H
	DB	00H
	DB	00H
	DB	00H
	DB	099H
	DB	00H
	DB	00H
	DB	00H
	DB	099H
	DB	00H
	DB	00H
	DB	00H
	DB	099H
	DB	00H
	DB	00H
	DB	00H
	DB	099H
	DB	00H
	DB	00H
	DB	00H
	DB	099H
	DB	00H
	DB	00H
	DB	00H
	DB	099H
	DB	00H
	DB	00H
	DB	00H
	DB	099H
	DB	00H
	DB	00H
	DB	00H
	DB	099H
	DB	00H
	DB	00H
	DB	00H
	DB	099H
	DB	00H
	DB	00H
	DB	00H
	DB	099H
	DB	00H
	DB	00H
	DB	00H
	DB	099H
	DB	00H
	DB	00H
	DB	00H
	DB	099H
	DB	00H
	DB	00H
	DB	00H
	DB	099H
	DB	00H
	DB	00H
	DB	00H
	DB	099H
	DB	00H
	DB	00H
	DB	00H
	DB	099H
	DB	00H
	DB	00H
	DB	00H
	DB	099H
	DB	00H
	DB	00H
	DB	00H
	DB	099H
	DB	00H
	DB	00H
	DB	00H
	DB	099H
	DB	00H
	DB	00H
	DB	00H
	DB	099H
	DB	00H
	DB	00H
	DB	00H
	DB	099H
	DB	00H
	DB	00H
	DB	00H
	DB	099H
	DB	00H
	DB	00H
	DB	00H
	DB	099H
	DB	00H
	DB	00H
	DB	00H
	DB	099H
	DB	00H
	DB	00H
	DB	00H
	DB	099H
	DB	00H
	DB	00H
	DB	00H
	DB	099H
	DB	00H
	DB	00H
	DB	00H
	DB	099H
	DB	00H
	DB	00H
	DB	00H
	DB	099H
	DB	00H
	DB	00H
	DB	00H
	DB	099H
	DB	00H
	DB	00H
	DB	00H
	DB	099H
	DB	00H
	DB	00H
	DB	00H
	DB	099H
	DB	00H
	DB	00H
	DB	00H
	DB	099H
	DB	00H
	DB	00H
	DB	00H
	DB	099H
	DB	00H
	DB	00H
	DB	00H
	DB	099H
	DB	00H
	DB	00H
	DB	00H
	DB	099H
	DB	00H
	DB	00H
	DB	00H
	DB	099H
	DB	00H
	DB	00H
	DB	00H
	DB	099H
	DB	00H
	DB	00H
	DB	00H
	DB	099H
	DB	00H
	DB	00H
	DB	00H
	DB	099H
	DB	00H
	DB	00H
	DB	00H
	DB	099H
	DB	00H
	DB	00H
	DB	00H
	DB	099H
	DB	00H
	DB	00H
	DB	00H
	DB	099H
	DB	00H
	DB	00H
	DB	00H
	DB	099H
	DB	00H
	DB	00H
	DB	00H
	DB	099H
	DB	00H
	DB	00H
	DB	00H
	DB	099H
	DB	00H
	DB	00H
	DB	00H
	DB	099H
	DB	00H
	DB	00H
	DB	00H
	DB	099H
	DB	00H
	DB	00H
	DB	00H
	DB	099H
	DB	00H
	DB	00H
	DB	00H
	DB	099H
	DB	00H
	DB	00H
	DB	00H
	DB	099H
	DB	00H
	DB	00H
	DB	00H
	DB	099H
	DB	00H
	DB	00H
	DB	00H
	DB	099H
	DB	00H
	DB	00H
	DB	00H
	DB	099H
	DB	00H
	DB	00H
	DB	00H
	DB	099H
	DB	00H
	DB	00H
	DB	00H
	DB	099H
	DB	00H
	DB	00H
	DB	00H
	DB	099H
	DB	00H
	DB	00H
	DB	00H
	DB	099H
	DB	00H
	DB	00H
	DB	00H
	DB	099H
	DB	00H
	DB	00H
	DB	00H
	DB	099H
	DB	00H
	DB	00H
	DB	00H
	DB	099H
	DB	00H
	DB	00H
	DB	00H
	DB	099H
	DB	00H
	DB	00H
	DB	00H
	DB	099H
	DB	00H
	DB	00H
	DB	00H
	DB	099H
	DB	00H
	DB	00H
	DB	00H
	DB	099H
	DB	00H
	DB	00H
	DB	00H
	DB	099H
	DB	00H
	DB	00H
	DB	00H
	DB	099H
	DB	00H
	DB	00H
	DB	00H
	DB	099H
	DB	00H
	DB	00H
	DB	00H
	DB	099H
	DB	00H
	DB	00H
	DB	00H
	DB	099H
	DB	00H
	DB	00H
	DB	00H
	DB	099H
	DB	00H
	DB	00H
	DB	00H
	DB	099H
	DB	00H
	DB	00H
	DB	00H
	DB	099H
	DB	00H
	DB	00H
	DB	00H
	DB	099H
	DB	00H
	DB	00H
	DB	00H
	DB	099H
	DB	00H
	DB	00H
	DB	00H
	DB	099H
	DB	00H
	DB	00H
	DB	00H
	DB	099H
	DB	00H
	DB	00H
	DB	00H
	DB	099H
	DB	00H
	DB	00H
	DB	00H
	DB	099H
	DB	00H
	DB	00H
	DB	00H
	DB	099H
	DB	00H
	DB	00H
	DB	00H
	DB	099H
	DB	00H
	DB	00H
	DB	00H
	DB	099H
	DB	00H
	DB	00H
	DB	00H
	DB	099H
	DB	00H
	DB	00H
	DB	00H
	DB	099H
	DB	00H
	DB	00H
	DB	00H
	DB	099H
	DB	00H
	DB	00H
	DB	00H
	DB	099H
	DB	00H
	DB	00H
	DB	00H
	DB	099H
	DB	00H
	DB	00H
	DB	00H
	DB	099H
	DB	00H
	DB	00H
	DB	00H
	DB	099H
	DB	00H
	DB	00H
	DB	00H
	DB	099H
	DB	00H
	DB	00H
	DB	00H
	DB	099H
	DB	00H
	DB	00H
	DB	00H
	DB	099H
	DB	00H
	DB	00H
	DB	00H
	DB	099H
	DB	00H
	DB	00H
	DB	00H
	DB	099H
	DB	00H
	DB	00H
	DB	00H
	DB	099H
	DB	00H
	DB	00H
	DB	00H
	DB	099H
	DB	00H
	DB	00H
	DB	00H
	DB	099H
	DB	00H
	DB	00H
	DB	00H
	DB	099H
	DB	00H
	DB	00H
	DB	00H
	DB	099H
	DB	00H
	DB	00H
	DB	00H
	DB	099H
	DB	00H
	DB	00H
	DB	00H
	DB	099H
	DB	00H
	DB	00H
	DB	00H
	DB	099H
	DB	00H
	DB	00H
	DB	00H
	DB	099H
	DB	00H
	DB	00H
	DB	00H
	DB	099H
	DB	00H
	DB	00H
	DB	00H
	DB	099H
	DB	00H
	DB	00H
	DB	00H
	DB	099H
	DB	00H
	DB	00H
	DB	00H
	DB	099H
	DB	00H
	DB	00H
	DB	00H
	DB	099H
	DB	00H
	DB	00H
	DB	00H
	DB	099H
	DB	00H
	DB	00H
	DB	00H
	DB	099H
	DB	00H
	DB	00H
	DB	00H
	DB	099H
	DB	00H
	DB	00H
	DB	00H
	DB	099H
	DB	00H
	DB	00H
	DB	00H
	DB	099H
	DB	00H
	DB	00H
	DB	00H
	DB	099H
	DB	00H
	DB	00H
	DB	00H
	DB	099H
	DB	00H
	DB	00H
	DB	00H
	DB	099H
	DB	00H
	DB	00H
	DB	00H
	DB	099H
	DB	00H
	DB	00H
	DB	00H
	DB	099H
	DB	00H
	DB	00H
	DB	00H
	DB	099H
	DB	00H
	DB	00H
	DB	00H
	DB	099H
	DB	00H
	DB	00H
	DB	00H
	DB	099H
	DB	00H
	DB	00H
	DB	00H
	DB	099H
	DB	00H
	DB	00H
	DB	00H
	DB	099H
	DB	00H
	DB	00H
	DB	00H
	DB	099H
	DB	00H
	DB	00H
	DB	00H
	DB	099H
	DB	00H
	DB	00H
	DB	00H
	DB	099H
	DB	00H
	DB	00H
	DB	00H
	DB	099H
	DB	00H
	DB	00H
	DB	00H
	DB	099H
	DB	00H
	DB	00H
	DB	00H
	DB	099H
	DB	00H
	DB	00H
	DB	00H
	DB	099H
	DB	00H
	DB	00H
	DB	00H
	DB	099H
	DB	00H
	DB	00H
	DB	00H
	DB	099H
	DB	00H
	DB	00H
	DB	00H
	DB	099H
	DB	00H
	DB	00H
	DB	00H
	DB	099H
	DB	00H
	DB	00H
	DB	00H
	DB	099H
	DB	00H
	DB	00H
	DB	00H
	DB	099H
	DB	00H
	DB	00H
	DB	00H
	DB	099H
	DB	00H
	DB	00H
	DB	00H
	DB	099H
	DB	00H
	DB	00H
	DB	00H
	DB	099H
	DB	00H
	DB	00H
	DB	00H
	DB	099H
	DB	00H
	DB	00H
	DB	00H
	DB	099H
	DB	00H
	DB	00H
	DB	00H
	DB	099H
	DB	00H
	DB	00H
	DB	00H
	DB	099H
	DB	00H
	DB	00H
	DB	00H
	DB	099H
	DB	00H
	DB	00H
	DB	00H
	DB	099H
	DB	00H
	DB	00H
	DB	00H
	DB	099H
	DB	00H
	DB	00H
	DB	00H
	DB	099H
	DB	00H
	DB	00H
	DB	00H
	DB	099H
	DB	00H
	DB	00H
	DB	00H
	DB	099H
	DB	00H
	DB	00H
	DB	00H
	DB	099H
	DB	00H
	DB	00H
	DB	00H
	DB	099H
	DB	00H
	DB	00H
	DB	00H
	DB	099H
	DB	00H
	DB	00H
	DB	00H
	DB	099H
	DB	00H
	DB	00H
	DB	00H
	DB	07aH
	DB	00H
	DB	00H
	DB	00H
	DB	088H
	DB	00H
	DB	00H
	DB	00H
	DB	099H
	DB	00H
	DB	00H
	DB	00H
	DB	099H
	DB	00H
	DB	00H
	DB	00H
	DB	099H
	DB	00H
	DB	00H
	DB	00H
	DB	099H
	DB	00H
	DB	00H
	DB	00H
	DB	099H
	DB	00H
	DB	00H
	DB	00H
	DB	099H
	DB	00H
	DB	00H
	DB	00H
	DB	099H
	DB	00H
	DB	00H
	DB	00H
	DB	099H
	DB	00H
	DB	00H
	DB	00H
	DB	099H
	DB	00H
	DB	00H
	DB	00H
	DB	099H
	DB	00H
	DB	00H
	DB	00H
	DB	099H
	DB	00H
	DB	00H
	DB	00H
	DB	099H
	DB	00H
	DB	00H
	DB	00H
	DB	099H
	DB	00H
	DB	00H
	DB	00H
	DB	099H
	DB	00H
	DB	00H
	DB	00H
	DB	099H
	DB	00H
	DB	00H
	DB	00H
	DB	099H
	DB	00H
	DB	00H
	DB	00H
	DB	099H
	DB	00H
	DB	00H
	DB	00H
	DB	099H
	DB	00H
	DB	00H
	DB	00H
	DB	099H
	DB	00H
	DB	00H
	DB	00H
	DB	099H
	DB	00H
	DB	00H
	DB	00H
	DB	099H
	DB	00H
	DB	00H
	DB	00H
	DB	099H
	DB	00H
	DB	00H
	DB	00H
	DB	099H
	DB	00H
	DB	00H
	DB	00H
	DB	099H
	DB	00H
	DB	00H
	DB	00H
	DB	099H
	DB	00H
	DB	00H
	DB	00H
	DB	099H
	DB	00H
	DB	00H
	DB	00H
	DB	099H
	DB	00H
	DB	00H
	DB	00H
	DB	099H
	DB	00H
	DB	00H
	DB	00H
	DB	099H
	DB	00H
	DB	00H
	DB	00H
	DB	099H
	DB	00H
	DB	00H
	DB	00H
	DB	099H
	DB	00H
	DB	00H
	DB	00H
	DB	099H
	DB	00H
	DB	00H
	DB	00H
	DB	099H
	DB	00H
	DB	00H
	DB	00H
	DB	099H
	DB	00H
	DB	00H
	DB	00H
	DB	099H
	DB	00H
	DB	00H
	DB	00H
	DB	099H
	DB	00H
	DB	00H
	DB	00H
	DB	099H
	DB	00H
	DB	00H
	DB	00H
	DB	099H
	DB	00H
	DB	00H
	DB	00H
	DB	099H
	DB	00H
	DB	00H
	DB	00H
	DB	099H
	DB	00H
	DB	00H
	DB	00H
	DB	099H
	DB	00H
	DB	00H
	DB	00H
	DB	099H
	DB	00H
	DB	00H
	DB	00H
	DB	099H
	DB	00H
	DB	00H
	DB	00H
	DB	099H
	DB	00H
	DB	00H
	DB	00H
	DB	099H
	DB	00H
	DB	00H
	DB	00H
	DB	099H
	DB	00H
	DB	00H
	DB	00H
	DB	099H
	DB	00H
	DB	00H
	DB	00H
	DB	099H
	DB	00H
	DB	00H
	DB	00H
	DB	099H
	DB	00H
	DB	00H
	DB	00H
	DB	099H
	DB	00H
	DB	00H
	DB	00H
	DB	099H
	DB	00H
	DB	00H
	DB	00H
	DB	099H
	DB	00H
	DB	00H
	DB	00H
	DB	099H
	DB	00H
	DB	00H
	DB	00H
	DB	099H
	DB	00H
	DB	00H
	DB	00H
	DB	099H
	DB	00H
	DB	00H
	DB	00H
	DB	099H
	DB	00H
	DB	00H
	DB	00H
	DB	099H
	DB	00H
	DB	00H
	DB	00H
	DB	099H
	DB	00H
	DB	00H
	DB	00H
	DB	099H
	DB	00H
	DB	00H
	DB	00H
	DB	099H
	DB	00H
	DB	00H
	DB	00H
	DB	099H
	DB	00H
	DB	00H
	DB	00H
	DB	099H
	DB	00H
	DB	00H
	DB	00H
	DB	099H
	DB	00H
	DB	00H
	DB	00H
	DB	099H
	DB	00H
	DB	00H
	DB	00H
	DB	099H
	DB	00H
	DB	00H
	DB	00H
	DB	099H
	DB	00H
	DB	00H
	DB	00H
	DB	099H
	DB	00H
	DB	00H
	DB	00H
	DB	099H
	DB	00H
	DB	00H
	DB	00H
	DB	099H
	DB	00H
	DB	00H
	DB	00H
	DB	099H
	DB	00H
	DB	00H
	DB	00H
	DB	099H
	DB	00H
	DB	00H
	DB	00H
	DB	099H
	DB	00H
	DB	00H
	DB	00H
	DB	099H
	DB	00H
	DB	00H
	DB	00H
	DB	099H
	DB	00H
	DB	00H
	DB	00H
	DB	099H
	DB	00H
	DB	00H
	DB	00H
	DB	099H
	DB	00H
	DB	00H
	DB	00H
	DB	099H
	DB	00H
	DB	00H
	DB	00H
	DB	099H
	DB	00H
	DB	00H
	DB	00H
	DB	099H
	DB	00H
	DB	00H
	DB	00H
	DB	099H
	DB	00H
	DB	00H
	DB	00H
	DB	099H
	DB	00H
	DB	00H
	DB	00H
	DB	099H
	DB	00H
	DB	00H
	DB	00H
	DB	099H
	DB	00H
	DB	00H
	DB	00H
	DB	099H
	DB	00H
	DB	00H
	DB	00H
	DB	099H
	DB	00H
	DB	00H
	DB	00H
	DB	099H
	DB	00H
	DB	00H
	DB	00H
	DB	099H
	DB	00H
	DB	00H
	DB	00H
	DB	099H
	DB	00H
	DB	00H
	DB	00H
	DB	099H
	DB	00H
	DB	00H
	DB	00H
	DB	099H
	DB	00H
	DB	00H
	DB	00H
	DB	099H
	DB	00H
	DB	00H
	DB	00H
	DB	099H
	DB	00H
	DB	00H
	DB	00H
	DB	099H
	DB	00H
	DB	00H
	DB	00H
	DB	099H
	DB	00H
	DB	00H
	DB	00H
	DB	099H
	DB	00H
	DB	00H
	DB	00H
	DB	099H
	DB	00H
	DB	00H
	DB	00H
	DB	099H
	DB	00H
	DB	00H
	DB	00H
	DB	099H
	DB	00H
	DB	00H
	DB	00H
	DB	099H
	DB	00H
	DB	00H
	DB	00H
	DB	099H
	DB	00H
	DB	00H
	DB	00H
	DB	099H
	DB	00H
	DB	00H
	DB	00H
	DB	099H
	DB	00H
	DB	00H
	DB	00H
	DB	099H
	DB	00H
	DB	00H
	DB	00H
	DB	099H
	DB	00H
	DB	00H
	DB	00H
	DB	099H
	DB	00H
	DB	00H
	DB	00H
	DB	099H
	DB	00H
	DB	00H
	DB	00H
	DB	099H
	DB	00H
	DB	00H
	DB	00H
	DB	099H
	DB	00H
	DB	00H
	DB	00H
	DB	099H
	DB	00H
	DB	00H
	DB	00H
	DB	099H
	DB	00H
	DB	00H
	DB	00H
	DB	099H
	DB	00H
	DB	00H
	DB	00H
	DB	099H
	DB	00H
	DB	00H
	DB	00H
	DB	099H
	DB	00H
	DB	00H
	DB	00H
	DB	099H
	DB	00H
	DB	00H
	DB	00H
	DB	099H
	DB	00H
	DB	00H
	DB	00H
	DB	099H
	DB	00H
	DB	00H
	DB	00H
	DB	099H
	DB	00H
	DB	00H
	DB	00H
	DB	099H
	DB	00H
	DB	00H
	DB	00H
	DB	099H
	DB	00H
	DB	00H
	DB	00H
	DB	099H
	DB	00H
	DB	00H
	DB	00H
	DB	099H
	DB	00H
	DB	00H
	DB	00H
	DB	099H
	DB	00H
	DB	00H
	DB	00H
	DB	099H
	DB	00H
	DB	00H
	DB	00H
	DB	099H
	DB	00H
	DB	00H
	DB	00H
	DB	099H
	DB	00H
	DB	00H
	DB	00H
	DB	099H
	DB	00H
	DB	00H
	DB	00H
	DB	099H
	DB	00H
	DB	00H
	DB	00H
	DB	099H
	DB	00H
	DB	00H
	DB	00H
	DB	099H
	DB	00H
	DB	00H
	DB	00H
	DB	099H
	DB	00H
	DB	00H
	DB	00H
	DB	099H
	DB	00H
	DB	00H
	DB	00H
	DB	099H
	DB	00H
	DB	00H
	DB	00H
	DB	099H
	DB	00H
	DB	00H
	DB	00H
	DB	099H
	DB	00H
	DB	00H
	DB	00H
	DB	099H
	DB	00H
	DB	00H
	DB	00H
	DB	099H
	DB	00H
	DB	00H
	DB	00H
	DB	099H
	DB	00H
	DB	00H
	DB	00H
	DB	099H
	DB	00H
	DB	00H
	DB	00H
	DB	099H
	DB	00H
	DB	00H
	DB	00H
	DB	099H
	DB	00H
	DB	00H
	DB	00H
	DB	099H
	DB	00H
	DB	00H
	DB	00H
	DB	099H
	DB	00H
	DB	00H
	DB	00H
	DB	099H
	DB	00H
	DB	00H
	DB	00H
	DB	099H
	DB	00H
	DB	00H
	DB	00H
	DB	099H
	DB	00H
	DB	00H
	DB	00H
	DB	099H
	DB	00H
	DB	00H
	DB	00H
	DB	099H
	DB	00H
	DB	00H
	DB	00H
	DB	099H
	DB	00H
	DB	00H
	DB	00H
	DB	099H
	DB	00H
	DB	00H
	DB	00H
	DB	099H
	DB	00H
	DB	00H
	DB	00H
	DB	099H
	DB	00H
	DB	00H
	DB	00H
	DB	099H
	DB	00H
	DB	00H
	DB	00H
	DB	099H
	DB	00H
	DB	00H
	DB	00H
	DB	099H
	DB	00H
	DB	00H
	DB	00H
	DB	099H
	DB	00H
	DB	00H
	DB	00H
	DB	099H
	DB	00H
	DB	00H
	DB	00H
	DB	099H
	DB	00H
	DB	00H
	DB	00H
	DB	099H
	DB	00H
	DB	00H
	DB	00H
	DB	099H
	DB	00H
	DB	00H
	DB	00H
	DB	099H
	DB	00H
	DB	00H
	DB	00H
	DB	099H
	DB	00H
	DB	00H
	DB	00H
	DB	099H
	DB	00H
	DB	00H
	DB	00H
	DB	099H
	DB	00H
	DB	00H
	DB	00H
	DB	099H
	DB	00H
	DB	00H
	DB	00H
	DB	099H
	DB	00H
	DB	00H
	DB	00H
	DB	099H
	DB	00H
	DB	00H
	DB	00H
	DB	099H
	DB	00H
	DB	00H
	DB	00H
	DB	099H
	DB	00H
	DB	00H
	DB	00H
	DB	099H
	DB	00H
	DB	00H
	DB	00H
	DB	099H
	DB	00H
	DB	00H
	DB	00H
	DB	099H
	DB	00H
	DB	00H
	DB	00H
	DB	099H
	DB	00H
	DB	00H
	DB	00H
	DB	099H
	DB	00H
	DB	00H
	DB	00H
	DB	099H
	DB	00H
	DB	00H
	DB	00H
	DB	099H
	DB	00H
	DB	00H
	DB	00H
	DB	099H
	DB	00H
	DB	00H
	DB	00H
	DB	099H
	DB	00H
	DB	00H
	DB	00H
	DB	099H
	DB	00H
	DB	00H
	DB	00H
	DB	099H
	DB	00H
	DB	00H
	DB	00H
	DB	099H
	DB	00H
	DB	00H
	DB	00H
	DB	099H
	DB	00H
	DB	00H
	DB	00H
	DB	099H
	DB	00H
	DB	00H
	DB	00H
	DB	099H
	DB	00H
	DB	00H
	DB	00H
	DB	099H
	DB	00H
	DB	00H
	DB	00H
	DB	099H
	DB	00H
	DB	00H
	DB	00H
	DB	099H
	DB	00H
	DB	00H
	DB	00H
	DB	099H
	DB	00H
	DB	00H
	DB	00H
	DB	099H
	DB	00H
	DB	00H
	DB	00H
	DB	099H
	DB	00H
	DB	00H
	DB	00H
	DB	099H
	DB	00H
	DB	00H
	DB	00H
	DB	099H
	DB	00H
	DB	00H
	DB	00H
	DB	099H
	DB	00H
	DB	00H
	DB	00H
	DB	099H
	DB	00H
	DB	00H
	DB	00H
	DB	099H
	DB	00H
	DB	00H
	DB	00H
	DB	099H
	DB	00H
	DB	00H
	DB	00H
	DB	099H
	DB	00H
	DB	00H
	DB	00H
	DB	099H
	DB	00H
	DB	00H
	DB	00H
	DB	099H
	DB	00H
	DB	00H
	DB	00H
	DB	099H
	DB	00H
	DB	00H
	DB	00H
	DB	099H
	DB	00H
	DB	00H
	DB	00H
	DB	099H
	DB	00H
	DB	00H
	DB	00H
	DB	099H
	DB	00H
	DB	00H
	DB	00H
	DB	099H
	DB	00H
	DB	00H
	DB	00H
	DB	099H
	DB	00H
	DB	00H
	DB	00H
	DB	099H
	DB	00H
	DB	00H
	DB	00H
	DB	099H
	DB	00H
	DB	00H
	DB	00H
	DB	099H
	DB	00H
	DB	00H
	DB	00H
	DB	099H
	DB	00H
	DB	00H
	DB	00H
	DB	099H
	DB	00H
	DB	00H
	DB	00H
	DB	099H
	DB	00H
	DB	00H
	DB	00H
	DB	099H
	DB	00H
	DB	00H
	DB	00H
	DB	099H
	DB	00H
	DB	00H
	DB	00H
	DB	099H
	DB	00H
	DB	00H
	DB	00H
	DB	099H
	DB	00H
	DB	00H
	DB	00H
	DB	099H
	DB	00H
	DB	00H
	DB	00H
	DB	099H
	DB	00H
	DB	00H
	DB	00H
	DB	099H
	DB	00H
	DB	00H
	DB	00H
	DB	099H
	DB	00H
	DB	00H
	DB	00H
	DB	099H
	DB	00H
	DB	00H
	DB	00H
	DB	099H
	DB	00H
	DB	00H
	DB	00H
	DB	099H
	DB	00H
	DB	00H
	DB	00H
	DB	099H
	DB	00H
	DB	00H
	DB	00H
	DB	099H
	DB	00H
	DB	00H
	DB	00H
	DB	099H
	DB	00H
	DB	00H
	DB	00H
	DB	099H
	DB	00H
	DB	00H
	DB	00H
	DB	099H
	DB	00H
	DB	00H
	DB	00H
	DB	099H
	DB	00H
	DB	00H
	DB	00H
	DB	099H
	DB	00H
	DB	00H
	DB	00H
	DB	099H
	DB	00H
	DB	00H
	DB	00H
	DB	099H
	DB	00H
	DB	00H
	DB	00H
	DB	099H
	DB	00H
	DB	00H
	DB	00H
	DB	099H
	DB	00H
	DB	00H
	DB	00H
	DB	099H
	DB	00H
	DB	00H
	DB	00H
	DB	099H
	DB	00H
	DB	00H
	DB	00H
	DB	099H
	DB	00H
	DB	00H
	DB	00H
	DB	099H
	DB	00H
	DB	00H
	DB	00H
	DB	099H
	DB	00H
	DB	00H
	DB	00H
	DB	099H
	DB	00H
	DB	00H
	DB	00H
	DB	099H
	DB	00H
	DB	00H
	DB	00H
	DB	099H
	DB	00H
	DB	00H
	DB	00H
	DB	099H
	DB	00H
	DB	00H
	DB	00H
	DB	099H
	DB	00H
	DB	00H
	DB	00H
	DB	099H
	DB	00H
	DB	00H
	DB	00H
	DB	099H
	DB	00H
	DB	00H
	DB	00H
	DB	099H
	DB	00H
	DB	00H
	DB	00H
	DB	099H
	DB	00H
	DB	00H
	DB	00H
	DB	099H
	DB	00H
	DB	00H
	DB	00H
	DB	099H
	DB	00H
	DB	00H
	DB	00H
	DB	099H
	DB	00H
	DB	00H
	DB	00H
	DB	099H
	DB	00H
	DB	00H
	DB	00H
	DB	099H
	DB	00H
	DB	00H
	DB	00H
	DB	099H
	DB	00H
	DB	00H
	DB	00H
	DB	099H
	DB	00H
	DB	00H
	DB	00H
	DB	099H
	DB	00H
	DB	00H
	DB	00H
	DB	099H
	DB	00H
	DB	00H
	DB	00H
	DB	099H
	DB	00H
	DB	00H
	DB	00H
	DB	099H
	DB	00H
	DB	00H
	DB	00H
	DB	099H
	DB	00H
	DB	00H
	DB	00H
	DB	099H
	DB	00H
	DB	00H
	DB	00H
	DB	099H
	DB	00H
	DB	00H
	DB	00H
	DB	099H
	DB	00H
	DB	00H
	DB	00H
	DB	099H
	DB	00H
	DB	00H
	DB	00H
	DB	099H
	DB	00H
	DB	00H
	DB	00H
	DB	099H
	DB	00H
	DB	00H
	DB	00H
	DB	099H
	DB	00H
	DB	00H
	DB	00H
	DB	099H
	DB	00H
	DB	00H
	DB	00H
	DB	099H
	DB	00H
	DB	00H
	DB	00H
	DB	099H
	DB	00H
	DB	00H
	DB	00H
	DB	086H
	DB	00H
	DB	00H
	DB	00H
	DB	08fH
	DB	00H
	DB	00H
	DB	00H
	DB	099H
	DB	00H
	DB	00H
	DB	00H
	DB	099H
	DB	00H
	DB	00H
	DB	00H
	DB	099H
	DB	00H
	DB	00H
	DB	00H
	DB	099H
	DB	00H
	DB	00H
	DB	00H
	DB	099H
	DB	00H
	DB	00H
	DB	00H
	DB	099H
	DB	00H
	DB	00H
	DB	00H
	DB	099H
	DB	00H
	DB	00H
	DB	00H
	DB	099H
	DB	00H
	DB	00H
	DB	00H
	DB	099H
	DB	00H
	DB	00H
	DB	00H
	DB	099H
	DB	00H
	DB	00H
	DB	00H
	DB	099H
	DB	00H
	DB	00H
	DB	00H
	DB	099H
