; Listing generated by Microsoft (R) Optimizing Compiler Version 19.29.30037.0 

	TITLE	G:\Germany\Scanner\Firmware\Display_Board\TouchGFX\build\Debug\obj\image_wifi_dot.obj
	.686P
	.XMM
	include listing.inc
	.model	flat

INCLUDELIB MSVCRTD
INCLUDELIB OLDNAMES

PUBLIC	?image_wifi_dot@@3QBEB				; image_wifi_dot
CONST	SEGMENT
?image_wifi_dot@@3QBEB DB 00H				; image_wifi_dot
	DB	00H
	DB	00H
	DB	00H
	DB	00H
	DB	00H
	DB	00H
	DB	00H
	DB	00H
	DB	00H
	DB	00H
	DB	00H
	DB	00H
	DB	00H
	DB	00H
	DB	00H
	DB	00H
	DB	00H
	DB	00H
	DB	00H
	DB	00H
	DB	00H
	DB	00H
	DB	00H
	DB	00H
	DB	00H
	DB	00H
	DB	00H
	DB	00H
	DB	00H
	DB	00H
	DB	00H
	DB	00H
	DB	00H
	DB	00H
	DB	00H
	DB	00H
	DB	00H
	DB	00H
	DB	00H
	DB	00H
	DB	00H
	DB	00H
	DB	00H
	DB	00H
	DB	00H
	DB	00H
	DB	00H
	DB	00H
	DB	00H
	DB	00H
	DB	00H
	DB	00H
	DB	00H
	DB	00H
	DB	00H
	DB	00H
	DB	00H
	DB	00H
	DB	00H
	DB	00H
	DB	00H
	DB	00H
	DB	00H
	DB	00H
	DB	00H
	DB	00H
	DB	00H
	DB	00H
	DB	00H
	DB	00H
	DB	00H
	DB	00H
	DB	00H
	DB	00H
	DB	00H
	DB	00H
	DB	00H
	DB	00H
	DB	00H
	DB	00H
	DB	00H
	DB	00H
	DB	00H
	DB	00H
	DB	00H
	DB	00H
	DB	00H
	DB	00H
	DB	00H
	DB	00H
	DB	00H
	DB	00H
	DB	00H
	DB	00H
	DB	00H
	DB	00H
	DB	00H
	DB	00H
	DB	00H
	DB	00H
	DB	00H
	DB	00H
	DB	00H
	DB	00H
	DB	00H
	DB	00H
	DB	00H
	DB	00H
	DB	00H
	DB	00H
	DB	00H
	DB	00H
	DB	00H
	DB	00H
	DB	00H
	DB	00H
	DB	00H
	DB	00H
	DB	00H
	DB	00H
	DB	00H
	DB	00H
	DB	00H
	DB	00H
	DB	00H
	DB	00H
	DB	00H
	DB	00H
	DB	00H
	DB	00H
	DB	00H
	DB	00H
	DB	00H
	DB	00H
	DB	00H
	DB	00H
	DB	00H
	DB	00H
	DB	00H
	DB	00H
	DB	00H
	DB	00H
	DB	00H
	DB	00H
	DB	00H
	DB	00H
	DB	00H
	DB	00H
	DB	00H
	DB	00H
	DB	00H
	DB	00H
	DB	00H
	DB	00H
	DB	00H
	DB	00H
	DB	00H
	DB	00H
	DB	00H
	DB	00H
	DB	00H
	DB	00H
	DB	00H
	DB	00H
	DB	00H
	DB	00H
	DB	00H
	DB	00H
	DB	00H
	DB	00H
	DB	00H
	DB	00H
	DB	00H
	DB	00H
	DB	00H
	DB	00H
	DB	00H
	DB	00H
	DB	00H
	DB	00H
	DB	00H
	DB	00H
	DB	00H
	DB	00H
	DB	00H
	DB	00H
	DB	00H
	DB	00H
	DB	00H
	DB	00H
	DB	00H
	DB	00H
	DB	00H
	DB	00H
	DB	00H
	DB	00H
	DB	00H
	DB	00H
	DB	00H
	DB	00H
	DB	00H
	DB	00H
	DB	00H
	DB	00H
	DB	00H
	DB	00H
	DB	00H
	DB	00H
	DB	00H
	DB	00H
	DB	00H
	DB	00H
	DB	00H
	DB	00H
	DB	00H
	DB	00H
	DB	00H
	DB	00H
	DB	00H
	DB	00H
	DB	00H
	DB	00H
	DB	00H
	DB	00H
	DB	00H
	DB	00H
	DB	00H
	DB	00H
	DB	00H
	DB	00H
	DB	00H
	DB	00H
	DB	00H
	DB	00H
	DB	00H
	DB	00H
	DB	00H
	DB	00H
	DB	00H
	DB	00H
	DB	00H
	DB	00H
	DB	00H
	DB	00H
	DB	00H
	DB	00H
	DB	00H
	DB	00H
	DB	00H
	DB	00H
	DB	00H
	DB	00H
	DB	00H
	DB	00H
	DB	00H
	DB	00H
	DB	00H
	DB	00H
	DB	00H
	DB	00H
	DB	00H
	DB	00H
	DB	00H
	DB	00H
	DB	00H
	DB	00H
	DB	00H
	DB	00H
	DB	00H
	DB	00H
	DB	00H
	DB	00H
	DB	00H
	DB	00H
	DB	00H
	DB	00H
	DB	00H
	DB	00H
	DB	00H
	DB	00H
	DB	00H
	DB	00H
	DB	00H
	DB	00H
	DB	00H
	DB	00H
	DB	00H
	DB	0ffH
	DB	0ffH
	DB	0ffH
	DB	00H
	DB	0ffH
	DB	0ffH
	DB	0ffH
	DB	00H
	DB	0ffH
	DB	0ffH
	DB	0ffH
	DB	00H
	DB	0ffH
	DB	0ffH
	DB	0ffH
	DB	00H
	DB	0ffH
	DB	0ffH
	DB	0ffH
	DB	00H
	DB	0ffH
	DB	0ffH
	DB	0ffH
	DB	00H
	DB	0ffH
	DB	0ffH
	DB	0ffH
	DB	07H
	DB	0ffH
	DB	0ffH
	DB	0ffH
	DB	01eH
	DB	0ffH
	DB	0ffH
	DB	0ffH
	DB	030H
	DB	0ffH
	DB	0ffH
	DB	0ffH
	DB	03eH
	DB	0ffH
	DB	0ffH
	DB	0ffH
	DB	047H
	DB	0ffH
	DB	0ffH
	DB	0ffH
	DB	04cH
	DB	0ffH
	DB	0ffH
	DB	0ffH
	DB	04cH
	DB	0ffH
	DB	0ffH
	DB	0ffH
	DB	047H
	DB	0ffH
	DB	0ffH
	DB	0ffH
	DB	03eH
	DB	0ffH
	DB	0ffH
	DB	0ffH
	DB	030H
	DB	0ffH
	DB	0ffH
	DB	0ffH
	DB	01eH
	DB	0ffH
	DB	0ffH
	DB	0ffH
	DB	06H
	DB	0ffH
	DB	0ffH
	DB	0ffH
	DB	00H
	DB	0ffH
	DB	0ffH
	DB	0ffH
	DB	00H
	DB	0ffH
	DB	0ffH
	DB	0ffH
	DB	00H
	DB	0ffH
	DB	0ffH
	DB	0ffH
	DB	00H
	DB	0ffH
	DB	0ffH
	DB	0ffH
	DB	00H
	DB	0ffH
	DB	0ffH
	DB	0ffH
	DB	00H
	DB	0ffH
	DB	0ffH
	DB	0ffH
	DB	00H
	DB	0ffH
	DB	0ffH
	DB	0ffH
	DB	00H
	DB	0ffH
	DB	0ffH
	DB	0ffH
	DB	00H
	DB	0ffH
	DB	0ffH
	DB	0ffH
	DB	00H
	DB	0ffH
	DB	0ffH
	DB	0ffH
	DB	013H
	DB	0ffH
	DB	0ffH
	DB	0ffH
	DB	036H
	DB	0ffH
	DB	0ffH
	DB	0ffH
	DB	04cH
	DB	0ffH
	DB	0ffH
	DB	0ffH
	DB	04dH
	DB	0ffH
	DB	0ffH
	DB	0ffH
	DB	04dH
	DB	0ffH
	DB	0ffH
	DB	0ffH
	DB	04dH
	DB	0ffH
	DB	0ffH
	DB	0ffH
	DB	04dH
	DB	0ffH
	DB	0ffH
	DB	0ffH
	DB	04dH
	DB	0ffH
	DB	0ffH
	DB	0ffH
	DB	04dH
	DB	0ffH
	DB	0ffH
	DB	0ffH
	DB	04dH
	DB	0ffH
	DB	0ffH
	DB	0ffH
	DB	04dH
	DB	0ffH
	DB	0ffH
	DB	0ffH
	DB	04dH
	DB	0ffH
	DB	0ffH
	DB	0ffH
	DB	04dH
	DB	0ffH
	DB	0ffH
	DB	0ffH
	DB	04cH
	DB	0ffH
	DB	0ffH
	DB	0ffH
	DB	035H
	DB	0ffH
	DB	0ffH
	DB	0ffH
	DB	013H
	DB	0ffH
	DB	0ffH
	DB	0ffH
	DB	00H
	DB	0ffH
	DB	0ffH
	DB	0ffH
	DB	00H
	DB	0ffH
	DB	0ffH
	DB	0ffH
	DB	00H
	DB	0ffH
	DB	0ffH
	DB	0ffH
	DB	00H
	DB	0ffH
	DB	0ffH
	DB	0ffH
	DB	00H
	DB	0ffH
	DB	0ffH
	DB	0ffH
	DB	00H
	DB	0ffH
	DB	0ffH
	DB	0ffH
	DB	0aH
	DB	0ffH
	DB	0ffH
	DB	0ffH
	DB	037H
	DB	0ffH
	DB	0ffH
	DB	0ffH
	DB	04dH
	DB	0ffH
	DB	0ffH
	DB	0ffH
	DB	04dH
	DB	0ffH
	DB	0ffH
	DB	0ffH
	DB	04dH
	DB	0ffH
	DB	0ffH
	DB	0ffH
	DB	04aH
	DB	0ffH
	DB	0ffH
	DB	0ffH
	DB	037H
	DB	0ffH
	DB	0ffH
	DB	0ffH
	DB	028H
	DB	0ffH
	DB	0ffH
	DB	0ffH
	DB	021H
	DB	0ffH
	DB	0ffH
	DB	0ffH
	DB	019H
	DB	0ffH
	DB	0ffH
	DB	0ffH
	DB	018H
	DB	0ffH
	DB	0ffH
	DB	0ffH
	DB	01cH
	DB	0ffH
	DB	0ffH
	DB	0ffH
	DB	028H
	DB	0ffH
	DB	0ffH
	DB	0ffH
	DB	03aH
	DB	0ffH
	DB	0ffH
	DB	0ffH
	DB	04cH
	DB	0ffH
	DB	0ffH
	DB	0ffH
	DB	04dH
	DB	0ffH
	DB	0ffH
	DB	0ffH
	DB	04dH
	DB	0ffH
	DB	0ffH
	DB	0ffH
	DB	04dH
	DB	0ffH
	DB	0ffH
	DB	0ffH
	DB	035H
	DB	0ffH
	DB	0ffH
	DB	0ffH
	DB	09H
	DB	0ffH
	DB	0ffH
	DB	0ffH
	DB	00H
	DB	0ffH
	DB	0ffH
	DB	0ffH
	DB	00H
	DB	0ffH
	DB	0ffH
	DB	0ffH
	DB	00H
	DB	0ffH
	DB	0ffH
	DB	0ffH
	DB	01aH
	DB	0ffH
	DB	0ffH
	DB	0ffH
	DB	049H
	DB	0ffH
	DB	0ffH
	DB	0ffH
	DB	04dH
	DB	0ffH
	DB	0ffH
	DB	0ffH
	DB	04dH
	DB	0ffH
	DB	0ffH
	DB	0ffH
	DB	03fH
	DB	0ffH
	DB	0ffH
	DB	0ffH
	DB	01cH
	DB	0ffH
	DB	0ffH
	DB	0ffH
	DB	03H
	DB	0ffH
	DB	0ffH
	DB	0ffH
	DB	00H
	DB	0ffH
	DB	0ffH
	DB	0ffH
	DB	00H
	DB	0ffH
	DB	0ffH
	DB	0ffH
	DB	00H
	DB	0ffH
	DB	0ffH
	DB	0ffH
	DB	00H
	DB	0ffH
	DB	0ffH
	DB	0ffH
	DB	00H
	DB	0ffH
	DB	0ffH
	DB	0ffH
	DB	00H
	DB	0ffH
	DB	0ffH
	DB	0ffH
	DB	00H
	DB	0ffH
	DB	0ffH
	DB	0ffH
	DB	00H
	DB	0ffH
	DB	0ffH
	DB	0ffH
	DB	05H
	DB	0ffH
	DB	0ffH
	DB	0ffH
	DB	01dH
	DB	0ffH
	DB	0ffH
	DB	0ffH
	DB	03fH
	DB	0ffH
	DB	0ffH
	DB	0ffH
	DB	04dH
	DB	0ffH
	DB	0ffH
	DB	0ffH
	DB	04dH
	DB	0ffH
	DB	0ffH
	DB	0ffH
	DB	048H
	DB	0ffH
	DB	0ffH
	DB	0ffH
	DB	019H
	DB	0ffH
	DB	0ffH
	DB	0ffH
	DB	00H
	DB	0ffH
	DB	0ffH
	DB	0ffH
	DB	022H
	DB	0ffH
	DB	0ffH
	DB	0ffH
	DB	04dH
	DB	0ffH
	DB	0ffH
	DB	0ffH
	DB	04dH
	DB	0ffH
	DB	0ffH
	DB	0ffH
	DB	048H
	DB	0ffH
	DB	0ffH
	DB	0ffH
	DB	01eH
	DB	0ffH
	DB	0ffH
	DB	0ffH
	DB	01H
	DB	0ffH
	DB	0ffH
	DB	0ffH
	DB	00H
	DB	0ffH
	DB	0ffH
	DB	0ffH
	DB	00H
	DB	0ffH
	DB	0ffH
	DB	0ffH
	DB	00H
	DB	0ffH
	DB	0ffH
	DB	0ffH
	DB	02H
	DB	0ffH
	DB	0ffH
	DB	0ffH
	DB	0dH
	DB	0ffH
	DB	0ffH
	DB	0ffH
	DB	013H
	DB	0ffH
	DB	0ffH
	DB	0ffH
	DB	013H
	DB	0ffH
	DB	0ffH
	DB	0ffH
	DB	0dH
	DB	0ffH
	DB	0ffH
	DB	0ffH
	DB	02H
	DB	0ffH
	DB	0ffH
	DB	0ffH
	DB	00H
	DB	0ffH
	DB	0ffH
	DB	0ffH
	DB	00H
	DB	0ffH
	DB	0ffH
	DB	0ffH
	DB	00H
	DB	0ffH
	DB	0ffH
	DB	0ffH
	DB	01H
	DB	0ffH
	DB	0ffH
	DB	0ffH
	DB	01eH
	DB	0ffH
	DB	0ffH
	DB	0ffH
	DB	048H
	DB	0ffH
	DB	0ffH
	DB	0ffH
	DB	04dH
	DB	0ffH
	DB	0ffH
	DB	0ffH
	DB	04dH
	DB	0ffH
	DB	0ffH
	DB	0ffH
	DB	021H
	DB	0ffH
	DB	0ffH
	DB	0ffH
	DB	049H
	DB	0ffH
	DB	0ffH
	DB	0ffH
	DB	04dH
	DB	0ffH
	DB	0ffH
	DB	0ffH
	DB	03eH
	DB	0ffH
	DB	0ffH
	DB	0ffH
	DB	09H
	DB	0ffH
	DB	0ffH
	DB	0ffH
	DB	00H
	DB	0ffH
	DB	0ffH
	DB	0ffH
	DB	00H
	DB	0ffH
	DB	0ffH
	DB	0ffH
	DB	03H
	DB	0ffH
	DB	0ffH
	DB	0ffH
	DB	01eH
	DB	0ffH
	DB	0ffH
	DB	0ffH
	DB	037H
	DB	0ffH
	DB	0ffH
	DB	0ffH
	DB	04aH
	DB	0ffH
	DB	0ffH
	DB	0ffH
	DB	04dH
	DB	0ffH
	DB	0ffH
	DB	0ffH
	DB	04dH
	DB	0ffH
	DB	0ffH
	DB	0ffH
	DB	04dH
	DB	0ffH
	DB	0ffH
	DB	0ffH
	DB	04dH
	DB	0ffH
	DB	0ffH
	DB	0ffH
	DB	04aH
	DB	0ffH
	DB	0ffH
	DB	0ffH
	DB	037H
	DB	0ffH
	DB	0ffH
	DB	0ffH
	DB	01eH
	DB	0ffH
	DB	0ffH
	DB	0ffH
	DB	03H
	DB	0ffH
	DB	0ffH
	DB	0ffH
	DB	00H
	DB	0ffH
	DB	0ffH
	DB	0ffH
	DB	00H
	DB	0ffH
	DB	0ffH
	DB	0ffH
	DB	09H
	DB	0ffH
	DB	0ffH
	DB	0ffH
	DB	03fH
	DB	0ffH
	DB	0ffH
	DB	0ffH
	DB	04dH
	DB	0ffH
	DB	0ffH
	DB	0ffH
	DB	049H
	DB	0ffH
	DB	0ffH
	DB	0ffH
	DB	01aH
	DB	0ffH
	DB	0ffH
	DB	0ffH
	DB	028H
	DB	0ffH
	DB	0ffH
	DB	0ffH
	DB	04H
	DB	0ffH
	DB	0ffH
	DB	0ffH
	DB	00H
	DB	0ffH
	DB	0ffH
	DB	0ffH
	DB	00H
	DB	0ffH
	DB	0ffH
	DB	0ffH
	DB	01dH
	DB	0ffH
	DB	0ffH
	DB	0ffH
	DB	045H
	DB	0ffH
	DB	0ffH
	DB	0ffH
	DB	04dH
	DB	0ffH
	DB	0ffH
	DB	0ffH
	DB	04dH
	DB	0ffH
	DB	0ffH
	DB	0ffH
	DB	04dH
	DB	0ffH
	DB	0ffH
	DB	0ffH
	DB	04dH
	DB	0ffH
	DB	0ffH
	DB	0ffH
	DB	04dH
	DB	0ffH
	DB	0ffH
	DB	0ffH
	DB	04dH
	DB	0ffH
	DB	0ffH
	DB	0ffH
	DB	04dH
	DB	0ffH
	DB	0ffH
	DB	0ffH
	DB	04dH
	DB	0ffH
	DB	0ffH
	DB	0ffH
	DB	04dH
	DB	0ffH
	DB	0ffH
	DB	0ffH
	DB	04dH
	DB	0ffH
	DB	0ffH
	DB	0ffH
	DB	045H
	DB	0ffH
	DB	0ffH
	DB	0ffH
	DB	01dH
	DB	0ffH
	DB	0ffH
	DB	0ffH
	DB	00H
	DB	0ffH
	DB	0ffH
	DB	0ffH
	DB	00H
	DB	0ffH
	DB	0ffH
	DB	0ffH
	DB	04H
	DB	0ffH
	DB	0ffH
	DB	0ffH
	DB	028H
	DB	0ffH
	DB	0ffH
	DB	0ffH
	DB	01aH
	DB	0ffH
	DB	0ffH
	DB	0ffH
	DB	00H
	DB	0ffH
	DB	0ffH
	DB	0ffH
	DB	00H
	DB	0ffH
	DB	0ffH
	DB	0ffH
	DB	00H
	DB	0ffH
	DB	0ffH
	DB	0ffH
	DB	03H
	DB	0ffH
	DB	0ffH
	DB	0ffH
	DB	033H
	DB	0ffH
	DB	0ffH
	DB	0ffH
	DB	04dH
	DB	0ffH
	DB	0ffH
	DB	0ffH
	DB	04dH
	DB	0ffH
	DB	0ffH
	DB	0ffH
	DB	04cH
	DB	0ffH
	DB	0ffH
	DB	0ffH
	DB	031H
	DB	0ffH
	DB	0ffH
	DB	0ffH
	DB	018H
	DB	0ffH
	DB	0ffH
	DB	0ffH
	DB	08H
	DB	0ffH
	DB	0ffH
	DB	0ffH
	DB	00H
	DB	0ffH
	DB	0ffH
	DB	0ffH
	DB	02H
	DB	0ffH
	DB	0ffH
	DB	0ffH
	DB	09H
	DB	0ffH
	DB	0ffH
	DB	0ffH
	DB	018H
	DB	0ffH
	DB	0ffH
	DB	0ffH
	DB	031H
	DB	0ffH
	DB	0ffH
	DB	0ffH
	DB	04bH
	DB	0ffH
	DB	0ffH
	DB	0ffH
	DB	04dH
	DB	0ffH
	DB	0ffH
	DB	0ffH
	DB	04dH
	DB	0ffH
	DB	0ffH
	DB	0ffH
	DB	033H
	DB	0ffH
	DB	0ffH
	DB	0ffH
	DB	03H
	DB	0ffH
	DB	0ffH
	DB	0ffH
	DB	00H
	DB	0ffH
	DB	0ffH
	DB	0ffH
	DB	00H
	DB	0ffH
	DB	0ffH
	DB	0ffH
	DB	00H
	DB	0ffH
	DB	0ffH
	DB	0ffH
	DB	00H
	DB	0ffH
	DB	0ffH
	DB	0ffH
	DB	00H
	DB	0ffH
	DB	0ffH
	DB	0ffH
	DB	00H
	DB	0ffH
	DB	0ffH
	DB	0ffH
	DB	029H
	DB	0ffH
	DB	0ffH
	DB	0ffH
	DB	04dH
	DB	0ffH
	DB	0ffH
	DB	0ffH
	DB	04dH
	DB	0ffH
	DB	0ffH
	DB	0ffH
	DB	035H
	DB	0ffH
	DB	0ffH
	DB	0ffH
	DB	0aH
	DB	0ffH
	DB	0ffH
	DB	0ffH
	DB	00H
	DB	0ffH
	DB	0ffH
	DB	0ffH
	DB	00H
	DB	0ffH
	DB	0ffH
	DB	0ffH
	DB	00H
	DB	0ffH
	DB	0ffH
	DB	0ffH
	DB	00H
	DB	0ffH
	DB	0ffH
	DB	0ffH
	DB	00H
	DB	0ffH
	DB	0ffH
	DB	0ffH
	DB	00H
	DB	0ffH
	DB	0ffH
	DB	0ffH
	DB	00H
	DB	0ffH
	DB	0ffH
	DB	0ffH
	DB	00H
	DB	0ffH
	DB	0ffH
	DB	0ffH
	DB	09H
	DB	0ffH
	DB	0ffH
	DB	0ffH
	DB	035H
	DB	0ffH
	DB	0ffH
	DB	0ffH
	DB	04dH
	DB	0ffH
	DB	0ffH
	DB	0ffH
	DB	04dH
	DB	0ffH
	DB	0ffH
	DB	0ffH
	DB	029H
	DB	0ffH
	DB	0ffH
	DB	0ffH
	DB	00H
	DB	0ffH
	DB	0ffH
	DB	0ffH
	DB	00H
	DB	0ffH
	DB	0ffH
	DB	0ffH
	DB	00H
	DB	0ffH
	DB	0ffH
	DB	0ffH
	DB	00H
	DB	0ffH
	DB	0ffH
	DB	0ffH
	DB	00H
	DB	0ffH
	DB	0ffH
	DB	0ffH
	DB	00H
	DB	0ffH
	DB	0ffH
	DB	0ffH
	DB	019H
	DB	0ffH
	DB	0ffH
	DB	0ffH
	DB	044H
	DB	0ffH
	DB	0ffH
	DB	0ffH
	DB	024H
	DB	0ffH
	DB	0ffH
	DB	0ffH
	DB	00H
	DB	0ffH
	DB	0ffH
	DB	0ffH
	DB	00H
	DB	0ffH
	DB	0ffH
	DB	0ffH
	DB	00H
	DB	0ffH
	DB	0ffH
	DB	0ffH
	DB	06H
	DB	0ffH
	DB	0ffH
	DB	0ffH
	DB	01bH
	DB	0ffH
	DB	0ffH
	DB	0ffH
	DB	026H
	DB	0ffH
	DB	0ffH
	DB	0ffH
	DB	026H
	DB	0ffH
	DB	0ffH
	DB	0ffH
	DB	01bH
	DB	0ffH
	DB	0ffH
	DB	0ffH
	DB	06H
	DB	0ffH
	DB	0ffH
	DB	0ffH
	DB	00H
	DB	0ffH
	DB	0ffH
	DB	0ffH
	DB	00H
	DB	0ffH
	DB	0ffH
	DB	0ffH
	DB	00H
	DB	0ffH
	DB	0ffH
	DB	0ffH
	DB	024H
	DB	0ffH
	DB	0ffH
	DB	0ffH
	DB	044H
	DB	0ffH
	DB	0ffH
	DB	0ffH
	DB	019H
	DB	0ffH
	DB	0ffH
	DB	0ffH
	DB	00H
	DB	0ffH
	DB	0ffH
	DB	0ffH
	DB	00H
	DB	0ffH
	DB	0ffH
	DB	0ffH
	DB	00H
	DB	0ffH
	DB	0ffH
	DB	0ffH
	DB	00H
	DB	0ffH
	DB	0ffH
	DB	0ffH
	DB	00H
	DB	0ffH
	DB	0ffH
	DB	0ffH
	DB	00H
	DB	0ffH
	DB	0ffH
	DB	0ffH
	DB	00H
	DB	0ffH
	DB	0ffH
	DB	0ffH
	DB	00H
	DB	0ffH
	DB	0ffH
	DB	0ffH
	DB	00H
	DB	0ffH
	DB	0ffH
	DB	0ffH
	DB	00H
	DB	0ffH
	DB	0ffH
	DB	0ffH
	DB	05H
	DB	0ffH
	DB	0ffH
	DB	0ffH
	DB	02fH
	DB	0ffH
	DB	0ffH
	DB	0ffH
	DB	04bH
	DB	0ffH
	DB	0ffH
	DB	0ffH
	DB	04dH
	DB	0ffH
	DB	0ffH
	DB	0ffH
	DB	04dH
	DB	0ffH
	DB	0ffH
	DB	0ffH
	DB	04dH
	DB	0ffH
	DB	0ffH
	DB	0ffH
	DB	04dH
	DB	0ffH
	DB	0ffH
	DB	0ffH
	DB	04bH
	DB	0ffH
	DB	0ffH
	DB	0ffH
	DB	02fH
	DB	0ffH
	DB	0ffH
	DB	0ffH
	DB	05H
	DB	0ffH
	DB	0ffH
	DB	0ffH
	DB	00H
	DB	0ffH
	DB	0ffH
	DB	0ffH
	DB	00H
	DB	0ffH
	DB	0ffH
	DB	0ffH
	DB	00H
	DB	0ffH
	DB	0ffH
	DB	0ffH
	DB	00H
	DB	0ffH
	DB	0ffH
	DB	0ffH
	DB	00H
	DB	0ffH
	DB	0ffH
	DB	0ffH
	DB	00H
	DB	0ffH
	DB	0ffH
	DB	0ffH
	DB	00H
	DB	0ffH
	DB	0ffH
	DB	0ffH
	DB	00H
	DB	0ffH
	DB	0ffH
	DB	0ffH
	DB	00H
	DB	0ffH
	DB	0ffH
	DB	0ffH
	DB	00H
	DB	0ffH
	DB	0ffH
	DB	0ffH
	DB	00H
	DB	0ffH
	DB	0ffH
	DB	0ffH
	DB	00H
	DB	0ffH
	DB	0ffH
	DB	0ffH
	DB	00H
	DB	0ffH
	DB	0ffH
	DB	0ffH
	DB	06H
	DB	0ffH
	DB	0ffH
	DB	0ffH
	DB	043H
	DB	0ffH
	DB	0ffH
	DB	0ffH
	DB	04dH
	DB	0ffH
	DB	0ffH
	DB	0ffH
	DB	04dH
	DB	0ffH
	DB	0ffH
	DB	0ffH
	DB	046H
	DB	0ffH
	DB	0ffH
	DB	0ffH
	DB	036H
	DB	0ffH
	DB	0ffH
	DB	0ffH
	DB	036H
	DB	0ffH
	DB	0ffH
	DB	0ffH
	DB	046H
	DB	0ffH
	DB	0ffH
	DB	0ffH
	DB	04dH
	DB	0ffH
	DB	0ffH
	DB	0ffH
	DB	04dH
	DB	0ffH
	DB	0ffH
	DB	0ffH
	DB	043H
	DB	0ffH
	DB	0ffH
	DB	0ffH
	DB	06H
	DB	0ffH
	DB	0ffH
	DB	0ffH
	DB	00H
	DB	0ffH
	DB	0ffH
	DB	0ffH
	DB	00H
	DB	0ffH
	DB	0ffH
	DB	0ffH
	DB	00H
	DB	0ffH
	DB	0ffH
	DB	0ffH
	DB	00H
	DB	0ffH
	DB	0ffH
	DB	0ffH
	DB	00H
	DB	0ffH
	DB	0ffH
	DB	0ffH
	DB	00H
	DB	0ffH
	DB	0ffH
	DB	0ffH
	DB	00H
	DB	0ffH
	DB	0ffH
	DB	0ffH
	DB	00H
	DB	0ffH
	DB	0ffH
	DB	0ffH
	DB	00H
	DB	0ffH
	DB	0ffH
	DB	0ffH
	DB	00H
	DB	0ffH
	DB	0ffH
	DB	0ffH
	DB	00H
	DB	0ffH
	DB	0ffH
	DB	0ffH
	DB	00H
	DB	0ffH
	DB	0ffH
	DB	0ffH
	DB	0dH
	DB	0ffH
	DB	0ffH
	DB	0ffH
	DB	04cH
	DB	0ffH
	DB	0ffH
	DB	0ffH
	DB	049H
	DB	0ffH
	DB	0ffH
	DB	0ffH
	DB	01dH
	DB	0ffH
	DB	0ffH
	DB	0ffH
	DB	01H
	DB	0ffH
	DB	0ffH
	DB	0ffH
	DB	00H
	DB	0ffH
	DB	0ffH
	DB	0ffH
	DB	00H
	DB	0ffH
	DB	0ffH
	DB	0ffH
	DB	01H
	DB	0ffH
	DB	0ffH
	DB	0ffH
	DB	01dH
	DB	0ffH
	DB	0ffH
	DB	0ffH
	DB	049H
	DB	0ffH
	DB	0ffH
	DB	0ffH
	DB	04cH
	DB	0ffH
	DB	0ffH
	DB	0ffH
	DB	0dH
	DB	0ffH
	DB	0ffH
	DB	0ffH
	DB	00H
	DB	0ffH
	DB	0ffH
	DB	0ffH
	DB	00H
	DB	0ffH
	DB	0ffH
	DB	0ffH
	DB	00H
	DB	0ffH
	DB	0ffH
	DB	0ffH
	DB	00H
	DB	0ffH
	DB	0ffH
	DB	0ffH
	DB	00H
	DB	0ffH
	DB	0ffH
	DB	0ffH
	DB	00H
	DB	0ffH
	DB	0ffH
	DB	0ffH
	DB	00H
	DB	0ffH
	DB	0ffH
	DB	0ffH
	DB	00H
	DB	0ffH
	DB	0ffH
	DB	0ffH
	DB	00H
	DB	0ffH
	DB	0ffH
	DB	0ffH
	DB	00H
	DB	0ffH
	DB	0ffH
	DB	0ffH
	DB	00H
	DB	0ffH
	DB	0ffH
	DB	0ffH
	DB	00H
	DB	0ffH
	DB	0ffH
	DB	0ffH
	DB	00H
	DB	0ffH
	DB	0ffH
	DB	0ffH
	DB	0cH
	DB	0ffH
	DB	0ffH
	DB	0ffH
	DB	08H
	DB	0ffH
	DB	0ffH
	DB	0ffH
	DB	00H
	DB	0ffH
	DB	0ffH
	DB	0ffH
	DB	00H
	DB	0ffH
	DB	0ffH
	DB	0ffH
	DB	00H
	DB	0ffH
	DB	0ffH
	DB	0ffH
	DB	00H
	DB	0ffH
	DB	0ffH
	DB	0ffH
	DB	00H
	DB	0ffH
	DB	0ffH
	DB	0ffH
	DB	00H
	DB	0ffH
	DB	0ffH
	DB	0ffH
	DB	08H
	DB	0ffH
	DB	0ffH
	DB	0ffH
	DB	0cH
	DB	0ffH
	DB	0ffH
	DB	0ffH
	DB	00H
	DB	0ffH
	DB	0ffH
	DB	0ffH
	DB	00H
	DB	0ffH
	DB	0ffH
	DB	0ffH
	DB	00H
	DB	0ffH
	DB	0ffH
	DB	0ffH
	DB	00H
	DB	0ffH
	DB	0ffH
	DB	0ffH
	DB	00H
	DB	0ffH
	DB	0ffH
	DB	0ffH
	DB	00H
	DB	0ffH
	DB	0ffH
	DB	0ffH
	DB	00H
	DB	0ffH
	DB	0ffH
	DB	0ffH
	DB	00H
	DB	0ffH
	DB	0ffH
	DB	0ffH
	DB	00H
	DB	0ffH
	DB	0ffH
	DB	0ffH
	DB	00H
	DB	0ffH
	DB	0ffH
	DB	0ffH
	DB	00H
	DB	0ffH
	DB	0ffH
	DB	0ffH
	DB	00H
	DB	0ffH
	DB	0ffH
	DB	0ffH
	DB	00H
	DB	0ffH
	DB	0ffH
	DB	0ffH
	DB	00H
	DB	0ffH
	DB	0ffH
	DB	0ffH
	DB	00H
	DB	0ffH
	DB	0ffH
	DB	0ffH
	DB	00H
	DB	0ffH
	DB	0ffH
	DB	0ffH
	DB	00H
	DB	0ffH
	DB	0ffH
	DB	0ffH
	DB	031H
	DB	0ffH
	DB	0ffH
	DB	0ffH
	DB	0c2H
	DB	0ffH
	DB	0ffH
	DB	0ffH
	DB	0c0H
	DB	0ffH
	DB	0ffH
	DB	0ffH
	DB	02eH
	DB	0ffH
	DB	0ffH
	DB	0ffH
	DB	00H
	DB	0ffH
	DB	0ffH
	DB	0ffH
	DB	00H
	DB	0ffH
	DB	0ffH
	DB	0ffH
	DB	00H
	DB	0ffH
	DB	0ffH
	DB	0ffH
	DB	00H
	DB	0ffH
	DB	0ffH
	DB	0ffH
	DB	00H
	DB	0ffH
	DB	0ffH
	DB	0ffH
	DB	00H
	DB	0ffH
	DB	0ffH
	DB	0ffH
	DB	00H
	DB	0ffH
	DB	0ffH
	DB	0ffH
	DB	00H
	DB	0ffH
	DB	0ffH
	DB	0ffH
	DB	00H
	DB	0ffH
	DB	0ffH
	DB	0ffH
	DB	00H
	DB	0ffH
	DB	0ffH
	DB	0ffH
	DB	00H
	DB	0ffH
	DB	0ffH
	DB	0ffH
	DB	00H
	DB	0ffH
	DB	0ffH
	DB	0ffH
	DB	00H
	DB	0ffH
	DB	0ffH
	DB	0ffH
	DB	00H
	DB	0ffH
	DB	0ffH
	DB	0ffH
	DB	00H
	DB	0ffH
	DB	0ffH
	DB	0ffH
	DB	00H
	DB	0ffH
	DB	0ffH
	DB	0ffH
	DB	00H
	DB	0ffH
	DB	0ffH
	DB	0ffH
	DB	00H
	DB	0ffH
	DB	0ffH
	DB	0ffH
	DB	00H
	DB	0ffH
	DB	0ffH
	DB	0ffH
	DB	00H
	DB	0ffH
	DB	0ffH
	DB	0ffH
	DB	0d2H
	DB	0ffH
	DB	0ffH
	DB	0ffH
	DB	0ffH
	DB	0ffH
	DB	0ffH
	DB	0ffH
	DB	0ffH
	DB	0ffH
	DB	0ffH
	DB	0ffH
	DB	0d0H
	DB	0ffH
	DB	0ffH
	DB	0ffH
	DB	00H
	DB	0ffH
	DB	0ffH
	DB	0ffH
	DB	00H
	DB	0ffH
	DB	0ffH
	DB	0ffH
	DB	00H
	DB	0ffH
	DB	0ffH
	DB	0ffH
	DB	00H
	DB	0ffH
	DB	0ffH
	DB	0ffH
	DB	00H
	DB	0ffH
	DB	0ffH
	DB	0ffH
	DB	00H
	DB	0ffH
	DB	0ffH
	DB	0ffH
	DB	00H
	DB	0ffH
	DB	0ffH
	DB	0ffH
	DB	00H
	DB	0ffH
	DB	0ffH
	DB	0ffH
	DB	00H
	DB	0ffH
	DB	0ffH
	DB	0ffH
	DB	00H
	DB	0ffH
	DB	0ffH
	DB	0ffH
	DB	00H
	DB	0ffH
	DB	0ffH
	DB	0ffH
	DB	00H
	DB	0ffH
	DB	0ffH
	DB	0ffH
	DB	00H
	DB	0ffH
	DB	0ffH
	DB	0ffH
	DB	00H
	DB	0ffH
	DB	0ffH
	DB	0ffH
	DB	00H
	DB	0ffH
	DB	0ffH
	DB	0ffH
	DB	00H
	DB	0ffH
	DB	0ffH
	DB	0ffH
	DB	00H
	DB	0ffH
	DB	0ffH
	DB	0ffH
	DB	00H
	DB	0ffH
	DB	0ffH
	DB	0ffH
	DB	00H
	DB	0ffH
	DB	0ffH
	DB	0ffH
	DB	00H
	DB	0ffH
	DB	0ffH
	DB	0ffH
	DB	0e1H
	DB	0ffH
	DB	0ffH
	DB	0ffH
	DB	0ffH
	DB	0ffH
	DB	0ffH
	DB	0ffH
	DB	0ffH
	DB	0ffH
	DB	0ffH
	DB	0ffH
	DB	0ddH
	DB	0ffH
	DB	0ffH
	DB	0ffH
	DB	00H
	DB	0ffH
	DB	0ffH
	DB	0ffH
	DB	00H
	DB	0ffH
	DB	0ffH
	DB	0ffH
	DB	00H
	DB	0ffH
	DB	0ffH
	DB	0ffH
	DB	00H
	DB	0ffH
	DB	0ffH
	DB	0ffH
	DB	00H
	DB	0ffH
	DB	0ffH
	DB	0ffH
	DB	00H
	DB	0ffH
	DB	0ffH
	DB	0ffH
	DB	00H
	DB	0ffH
	DB	0ffH
	DB	0ffH
	DB	00H
	DB	0ffH
	DB	0ffH
	DB	0ffH
	DB	00H
	DB	0ffH
	DB	0ffH
	DB	0ffH
	DB	00H
	DB	0ffH
	DB	0ffH
	DB	0ffH
	DB	00H
	DB	0ffH
	DB	0ffH
	DB	0ffH
	DB	00H
	DB	0ffH
	DB	0ffH
	DB	0ffH
	DB	00H
	DB	0ffH
	DB	0ffH
	DB	0ffH
	DB	00H
	DB	0ffH
	DB	0ffH
	DB	0ffH
	DB	00H
	DB	0ffH
	DB	0ffH
	DB	0ffH
	DB	00H
	DB	0ffH
	DB	0ffH
	DB	0ffH
	DB	00H
	DB	0ffH
	DB	0ffH
	DB	0ffH
	DB	00H
	DB	0ffH
	DB	0ffH
	DB	0ffH
	DB	00H
	DB	0ffH
	DB	0ffH
	DB	0ffH
	DB	00H
	DB	0ffH
	DB	0ffH
	DB	0ffH
	DB	054H
	DB	0ffH
	DB	0ffH
	DB	0ffH
	DB	0eeH
	DB	0ffH
	DB	0ffH
	DB	0ffH
	DB	0edH
	DB	0ffH
	DB	0ffH
	DB	0ffH
	DB	053H
	DB	0ffH
	DB	0ffH
	DB	0ffH
	DB	00H
	DB	0ffH
	DB	0ffH
	DB	0ffH
	DB	00H
	DB	0ffH
	DB	0ffH
	DB	0ffH
	DB	00H
	DB	0ffH
	DB	0ffH
	DB	0ffH
	DB	00H
	DB	0ffH
	DB	0ffH
	DB	0ffH
	DB	00H
	DB	0ffH
	DB	0ffH
	DB	0ffH
	DB	00H
	DB	0ffH
	DB	0ffH
	DB	0ffH
	DB	00H
	DB	0ffH
	DB	0ffH
	DB	0ffH
	DB	00H
	DB	0ffH
	DB	0ffH
	DB	0ffH
	DB	00H
	DB	0ffH
	DB	0ffH
	DB	0ffH
	DB	00H
	DB	00H
	DB	00H
	DB	00H
	DB	00H
	DB	00H
	DB	00H
	DB	00H
	DB	00H
	DB	00H
	DB	00H
	DB	00H
	DB	00H
	DB	00H
	DB	00H
	DB	00H
	DB	00H
	DB	00H
	DB	00H
	DB	00H
	DB	00H
	DB	00H
	DB	00H
	DB	00H
	DB	00H
	DB	00H
	DB	00H
	DB	00H
	DB	00H
	DB	00H
	DB	00H
	DB	00H
	DB	00H
	DB	00H
	DB	00H
	DB	00H
	DB	00H
	DB	00H
	DB	00H
	DB	00H
	DB	00H
	DB	00H
	DB	00H
	DB	00H
	DB	00H
	DB	00H
	DB	00H
	DB	00H
	DB	00H
	DB	00H
	DB	00H
	DB	00H
	DB	00H
	DB	00H
	DB	00H
	DB	00H
	DB	00H
	DB	00H
	DB	00H
	DB	00H
	DB	00H
	DB	00H
	DB	00H
	DB	00H
	DB	00H
	DB	00H
	DB	00H
	DB	00H
	DB	00H
	DB	00H
	DB	00H
	DB	00H
	DB	00H
	DB	00H
	DB	00H
	DB	00H
	DB	00H
	DB	00H
	DB	00H
	DB	00H
	DB	00H
	DB	00H
	DB	00H
	DB	00H
	DB	00H
	DB	00H
	DB	00H
	DB	00H
	DB	00H
	DB	00H
	DB	00H
	DB	00H
	DB	00H
	DB	00H
	DB	00H
	DB	00H
	DB	00H
	DB	00H
	DB	00H
	DB	00H
	DB	00H
	DB	00H
	DB	00H
	DB	00H
	DB	00H
	DB	00H
	DB	00H
	DB	00H
	DB	00H
	DB	00H
	DB	00H
	DB	00H
	DB	00H
	DB	00H
	DB	00H
	DB	00H
	DB	00H
	DB	00H
	DB	00H
	DB	00H
	DB	00H
	DB	00H
	DB	00H
	DB	00H
	DB	00H
	DB	00H
	DB	00H
	DB	00H
	DB	00H
	DB	00H
	DB	00H
	DB	00H
	DB	00H
	DB	00H
	DB	00H
	DB	00H
	DB	00H
	DB	00H
	DB	00H
	DB	00H
	DB	00H
	DB	00H
	DB	00H
	DB	00H
	DB	00H
	DB	00H
	DB	00H
	DB	00H
	DB	00H
	DB	00H
	DB	00H
	DB	00H
	DB	00H
	DB	00H
	DB	00H
	DB	00H
	DB	00H
	DB	00H
	DB	00H
	DB	00H
	DB	00H
	DB	00H
	DB	00H
	DB	00H
	DB	00H
	DB	00H
	DB	00H
	DB	00H
	DB	00H
	DB	00H
	DB	00H
	DB	00H
	DB	00H
	DB	00H
	DB	00H
	DB	00H
	DB	00H
	DB	00H
	DB	00H
	DB	00H
	DB	00H
	DB	00H
	DB	00H
	DB	00H
	DB	00H
	DB	00H
	DB	00H
	DB	00H
	DB	00H
	DB	00H
	DB	00H
	DB	00H
	DB	00H
	DB	00H
	DB	00H
	DB	00H
	DB	00H
	DB	00H
	DB	00H
	DB	00H
	DB	00H
	DB	00H
	DB	00H
	DB	00H
	DB	00H
	DB	00H
	DB	00H
	DB	00H
	DB	00H
	DB	00H
	DB	00H
	DB	00H
	DB	00H
	DB	00H
	DB	00H
	DB	00H
	DB	00H
	DB	00H
	DB	00H
	DB	00H
	DB	00H
	DB	00H
	DB	00H
	DB	00H
	DB	00H
	DB	00H
	DB	00H
	DB	00H
	DB	00H
	DB	00H
	DB	00H
	DB	00H
	DB	00H
	DB	00H
	DB	00H
	DB	00H
	DB	00H
	DB	00H
	DB	00H
	DB	00H
	DB	00H
	DB	00H
	DB	00H
	DB	00H
	DB	00H
	DB	00H
	DB	00H
	DB	00H
	DB	00H
	DB	00H
	DB	00H
	DB	00H
	DB	00H
	DB	00H
	DB	00H
	DB	00H
	DB	00H
	DB	00H
	DB	00H
	DB	00H
	DB	00H
	DB	00H
	DB	00H
	DB	00H
	DB	00H
	DB	00H
	DB	00H
	DB	00H
	DB	00H
	DB	00H
	DB	00H
	DB	00H
	DB	00H
	DB	00H
	DB	00H
	DB	00H
	DB	00H
	DB	00H
	DB	00H
	DB	00H
	DB	00H
	DB	00H
	DB	00H
	DB	00H
	DB	00H
	DB	00H
	DB	00H
	DB	00H
	DB	00H
CONST	ENDS
END
