; Listing generated by Microsoft (R) Optimizing Compiler Version 19.29.30037.0 

	TITLE	G:\Germany\Scanner\Firmware\Display_Board\TouchGFX\build\Debug\obj\Kerning_ariblk_25_4bpp.obj
	.686P
	.XMM
	include listing.inc
	.model	flat

INCLUDELIB MSVCRTD
INCLUDELIB OLDNAMES

PUBLIC	?kerning_ariblk_25_4bpp@@3QBUKerningNode@touchgfx@@B ; kerning_ariblk_25_4bpp
msvcjmc	SEGMENT
__EBE8CD87_Types@hpp DB 01H
__4A756E09_Unicode@hpp DB 01H
__6F04AFDB_Font@hpp DB 01H
msvcjmc	ENDS
CONST	SEGMENT
?kerning_ariblk_25_4bpp@@3QBUKerningNode@touchgfx@@B DW 066H ; kerning_ariblk_25_4bpp
	DB	01H
	ORG $+1
	DW	066H
	DB	02H
	ORG $+1
	DW	042H
	DB	01H
	ORG $+1
	DW	043H
	DB	01H
	ORG $+1
	DW	046H
	DB	0fcH
	ORG $+1
	DW	050H
	DB	0fcH
	ORG $+1
	DW	051H
	DB	01H
	ORG $+1
	DW	054H
	DB	0fcH
	ORG $+1
	DW	055H
	DB	0ffH
	ORG $+1
	DW	056H
	DB	0fdH
	ORG $+1
	DW	057H
	DB	0ffH
	ORG $+1
	DW	059H
	DB	0fcH
	ORG $+1
	DW	066H
	DB	0ffH
	ORG $+1
	DW	072H
	DB	0feH
	ORG $+1
	DW	076H
	DB	0feH
	ORG $+1
	DW	077H
	DB	0feH
	ORG $+1
	DW	079H
	DB	0feH
	ORG $+1
	DW	054H
	DB	0feH
	ORG $+1
	DW	056H
	DB	0ffH
	ORG $+1
	DW	059H
	DB	0feH
	ORG $+1
	DW	046H
	DB	0fcH
	ORG $+1
	DW	04aH
	DB	0ffH
	ORG $+1
	DW	04fH
	DB	0ffH
	ORG $+1
	DW	050H
	DB	0fbH
	ORG $+1
	DW	054H
	DB	0fcH
	ORG $+1
	DW	055H
	DB	0ffH
	ORG $+1
	DW	056H
	DB	0fdH
	ORG $+1
	DW	057H
	DB	0ffH
	ORG $+1
	DW	059H
	DB	0fcH
	ORG $+1
	DW	066H
	DB	0ffH
	ORG $+1
	DW	072H
	DB	0feH
	ORG $+1
	DW	076H
	DB	0feH
	ORG $+1
	DW	077H
	DB	0feH
	ORG $+1
	DW	079H
	DB	0feH
	ORG $+1
	DW	054H
	DB	0ffH
	ORG $+1
	DW	056H
	DB	0ffH
	ORG $+1
	DW	059H
	DB	0ffH
	ORG $+1
	DW	072H
	DB	01H
	ORG $+1
	DW	054H
	DB	0ffH
	ORG $+1
	DW	056H
	DB	0ffH
	ORG $+1
	DW	059H
	DB	0ffH
	ORG $+1
	DW	072H
	DB	01H
	ORG $+1
	DW	066H
	DB	02H
	ORG $+1
	DW	044H
	DB	0ffH
	ORG $+1
	DW	046H
	DB	0feH
	ORG $+1
	DW	04aH
	DB	0ffH
	ORG $+1
	DW	04fH
	DB	0ffH
	ORG $+1
	DW	050H
	DB	0feH
	ORG $+1
	DW	054H
	DB	0feH
	ORG $+1
	DW	055H
	DB	0ffH
	ORG $+1
	DW	056H
	DB	0ffH
	ORG $+1
	DW	059H
	DB	0feH
	ORG $+1
	DW	04bH
	DB	0ffH
	ORG $+1
	DW	054H
	DB	0ffH
	ORG $+1
	DW	056H
	DB	0ffH
	ORG $+1
	DW	058H
	DB	0ffH
	ORG $+1
	DW	059H
	DB	0ffH
	ORG $+1
	DW	04bH
	DB	0ffH
	ORG $+1
	DW	054H
	DB	0ffH
	ORG $+1
	DW	056H
	DB	0ffH
	ORG $+1
	DW	058H
	DB	0ffH
	ORG $+1
	DW	059H
	DB	0ffH
	ORG $+1
	DW	04bH
	DB	0ffH
	ORG $+1
	DW	054H
	DB	0ffH
	ORG $+1
	DW	056H
	DB	0ffH
	ORG $+1
	DW	058H
	DB	0ffH
	ORG $+1
	DW	059H
	DB	0ffH
	ORG $+1
	DW	054H
	DB	0ffH
	ORG $+1
	DW	056H
	DB	0ffH
	ORG $+1
	DW	059H
	DB	0ffH
	ORG $+1
	DW	041H
	DB	0feH
	ORG $+1
	DW	04cH
	DB	0ffH
	ORG $+1
	DW	04fH
	DB	0ffH
	ORG $+1
	DW	041H
	DB	0ffH
	ORG $+1
	DW	042H
	DB	0ffH
	ORG $+1
	DW	04cH
	DB	0ffH
	ORG $+1
	DW	041H
	DB	0ffH
	ORG $+1
	DW	044H
	DB	0ffH
	ORG $+1
	DW	04cH
	DB	0ffH
	ORG $+1
	DW	04fH
	DB	0ffH
	ORG $+1
	DW	051H
	DB	0ffH
	ORG $+1
	DW	04fH
	DB	0ffH
	ORG $+1
	DW	041H
	DB	0feH
	ORG $+1
	DW	044H
	DB	0ffH
	ORG $+1
	DW	04cH
	DB	0feH
	ORG $+1
	DW	04fH
	DB	0feH
	ORG $+1
	DW	051H
	DB	0ffH
	ORG $+1
	DW	052H
	DB	0ffH
	ORG $+1
	DW	046H
	DB	0ffH
	ORG $+1
	DW	054H
	DB	0ffH
	ORG $+1
	DW	056H
	DB	0ffH
	ORG $+1
	DW	059H
	DB	0feH
	ORG $+1
	DW	054H
	DB	0ffH
	ORG $+1
	DW	076H
	DB	0ffH
	ORG $+1
	DW	057H
	DB	0ffH
	ORG $+1
	DW	059H
	DB	0feH
	ORG $+1
	DW	072H
	DB	01H
	ORG $+1
	DW	046H
	DB	0ffH
	ORG $+1
	DW	04aH
	DB	0ffH
	ORG $+1
	DW	04bH
	DB	0ffH
	ORG $+1
	DW	050H
	DB	0ffH
	ORG $+1
	DW	052H
	DB	0ffH
	ORG $+1
	DW	054H
	DB	0ffH
	ORG $+1
	DW	056H
	DB	0ffH
	ORG $+1
	DW	057H
	DB	0ffH
	ORG $+1
	DW	059H
	DB	0feH
	ORG $+1
	DW	06bH
	DB	0ffH
	ORG $+1
	DW	076H
	DB	0ffH
	ORG $+1
	DW	066H
	DB	01H
	ORG $+1
	DW	065H
	DB	01H
	ORG $+1
	DW	072H
	DB	01H
	ORG $+1
	DW	054H
	DB	01H
	ORG $+1
	DW	057H
	DB	01H
	ORG $+1
	DW	057H
	DB	01H
	ORG $+1
	DW	072H
	DB	01H
	ORG $+1
	DW	072H
	DB	01H
	ORG $+1
	DW	063H
	DB	0ffH
	ORG $+1
	DW	072H
	DB	01H
	ORG $+1
	DW	054H
	DB	0ffH
	ORG $+1
	DW	072H
	DB	01H
	ORG $+1
	DW	072H
	DB	01H
	ORG $+1
	DW	046H
	DB	0ffH
	ORG $+1
	DW	04aH
	DB	0ffH
	ORG $+1
	DW	04bH
	DB	0ffH
	ORG $+1
	DW	050H
	DB	0ffH
	ORG $+1
	DW	052H
	DB	0ffH
	ORG $+1
	DW	054H
	DB	0feH
	ORG $+1
	DW	056H
	DB	0ffH
	ORG $+1
	DW	057H
	DB	0ffH
	ORG $+1
	DW	059H
	DB	0feH
	ORG $+1
	DW	06bH
	DB	0ffH
	ORG $+1
	DW	076H
	DB	0ffH
	ORG $+1
	DW	059H
	DB	0ffH
	ORG $+1
	DW	072H
	DB	01H
	ORG $+1
	DW	059H
	DB	0feH
	ORG $+1
	DW	072H
	DB	01H
	ORG $+1
	DW	076H
	DB	0ffH
	ORG $+1
	DW	046H
	DB	0ffH
	ORG $+1
	DW	054H
	DB	0ffH
	ORG $+1
	DW	056H
	DB	0ffH
	ORG $+1
	DW	072H
	DB	01H
	ORG $+1
	DW	054H
	DB	0feH
	ORG $+1
	DW	072H
	DB	01H
	ORG $+1
	DW	072H
	DB	01H
	ORG $+1
	DW	04aH
	DB	0ffH
	ORG $+1
	DW	04bH
	DB	0ffH
	ORG $+1
	DW	054H
	DB	0ffH
	ORG $+1
	DW	056H
	DB	0ffH
	ORG $+1
	DW	059H
	DB	0ffH
	ORG $+1
	DW	072H
	DB	01H
	ORG $+1
	DW	059H
	DB	0ffH
	ORG $+1
	DW	062H
	DB	0ffH
	ORG $+1
	DW	065H
	DB	0ffH
	ORG $+1
	DW	06eH
	DB	0ffH
	ORG $+1
	DW	06fH
	DB	0ffH
	ORG $+1
	DW	072H
	DB	01H
	ORG $+1
	DW	070H
	DB	0ffH
	ORG $+1
	DW	073H
	DB	0ffH
	ORG $+1
	DW	065H
	DB	0ffH
	ORG $+1
	DW	06fH
	DB	0ffH
	ORG $+1
	DW	072H
	DB	01H
	ORG $+1
	DW	054H
	DB	0ffH
	ORG $+1
	DW	041H
	DB	0feH
	ORG $+1
	DW	04cH
	DB	0ffH
	ORG $+1
	DW	066H
	DB	02H
	ORG $+1
CONST	ENDS
PUBLIC	__JustMyCode_Default
; Function compile flags: /Odt
;	COMDAT __JustMyCode_Default
_TEXT	SEGMENT
__JustMyCode_Default PROC				; COMDAT
	push	ebp
	mov	ebp, esp
	pop	ebp
	ret	0
__JustMyCode_Default ENDP
_TEXT	ENDS
END
