; Listing generated by Microsoft (R) Optimizing Compiler Version 19.29.30037.0 

	TITLE	G:\Germany\Scanner\Firmware\Display_Board\TouchGFX\build\Debug\obj\Table_calibri_40_4bpp.obj
	.686P
	.XMM
	include listing.inc
	.model	flat

INCLUDELIB MSVCRTD
INCLUDELIB OLDNAMES

PUBLIC	?glyphs_calibri_40_4bpp@@3QBUGlyphNode@touchgfx@@B ; glyphs_calibri_40_4bpp
PUBLIC	?unicodes_calibri_40_4bpp@@3QBQBEB		; unicodes_calibri_40_4bpp
EXTRN	?unicodes_calibri_40_4bpp_0@@3QBEB:BYTE		; unicodes_calibri_40_4bpp_0
msvcjmc	SEGMENT
__EBE8CD87_Types@hpp DB 01H
__4A756E09_Unicode@hpp DB 01H
__6F04AFDB_Font@hpp DB 01H
__273908D5_ConstFont@hpp DB 01H
__3F3F6DE8_GeneratedFont@hpp DB 01H
__75EDAE32_Table_calibri_40_4bpp@cpp DB 01H
msvcjmc	ENDS
CONST	SEGMENT
?glyphs_calibri_40_4bpp@@3QBUGlyphNode@touchgfx@@B DD 00H ; glyphs_calibri_40_4bpp
	DW	020H
	DB	00H
	DB	00H
	DB	00H
	DB	00H
	DB	09H
	DB	00H
	DB	00H
	DB	00H
	DD	00H
	DW	021H
	DB	05H
	DB	01bH
	DB	01bH
	DB	05H
	DB	0dH
	DB	00H
	DB	00H
	DB	00H
	DD	051H
	DW	022H
	DB	0bH
	DB	0bH
	DB	01bH
	DB	02H
	DB	010H
	DB	00H
	DB	00H
	DB	00H
	DD	093H
	DW	023H
	DB	014H
	DB	019H
	DB	019H
	DB	00H
	DB	014H
	DB	00H
	DB	00H
	DB	00H
	DD	018dH
	DW	024H
	DB	012H
	DB	023H
	DB	01eH
	DB	01H
	DB	014H
	DB	00H
	DB	00H
	DB	00H
	DD	02c8H
	DW	025H
	DB	01bH
	DB	019H
	DB	019H
	DB	01H
	DB	01dH
	DB	00H
	DB	00H
	DB	00H
	DD	0426H
	DW	026H
	DB	018H
	DB	01bH
	DB	01bH
	DB	02H
	DB	01bH
	DB	00H
	DB	00H
	DB	00H
	DD	056aH
	DW	027H
	DB	05H
	DB	0bH
	DB	01bH
	DB	02H
	DB	09H
	DB	00H
	DB	00H
	DB	00H
	DD	058bH
	DW	028H
	DB	08H
	DB	023H
	DB	01cH
	DB	02H
	DB	0cH
	DB	00H
	DB	00H
	DB	00H
	DD	0617H
	DW	029H
	DB	08H
	DB	023H
	DB	01cH
	DB	02H
	DB	0cH
	DB	00H
	DB	00H
	DB	00H
	DD	06a3H
	DW	02aH
	DB	0eH
	DB	0fH
	DB	01bH
	DB	03H
	DB	014H
	DB	00H
	DB	00H
	DB	00H
	DD	070cH
	DW	02bH
	DB	012H
	DB	013H
	DB	015H
	DB	01H
	DB	014H
	DB	00H
	DB	00H
	DB	00H
	DD	07b7H
	DW	02cH
	DB	08H
	DB	0aH
	DB	04H
	DB	00H
	DB	0aH
	DB	00H
	DB	05H
	DB	00H
	DD	07dfH
	DW	02dH
	DB	0aH
	DB	03H
	DB	0cH
	DB	01H
	DB	0cH
	DB	05H
	DB	02H
	DB	00H
	DD	07eeH
	DW	02eH
	DB	05H
	DB	05H
	DB	05H
	DB	03H
	DB	0aH
	DB	07H
	DB	03H
	DB	00H
	DD	07fdH
	DW	02fH
	DB	010H
	DB	023H
	DB	01dH
	DB	00H
	DB	0fH
	DB	0aH
	DB	01H
	DB	00H
	DD	0915H
	DW	030H
	DB	012H
	DB	019H
	DB	019H
	DB	01H
	DB	014H
	DB	00H
	DB	00H
	DB	00H
	DD	09f6H
	DW	031H
	DB	010H
	DB	019H
	DB	019H
	DB	03H
	DB	014H
	DB	00H
	DB	00H
	DB	00H
	DD	0abeH
	DW	032H
	DB	010H
	DB	019H
	DB	019H
	DB	02H
	DB	014H
	DB	00H
	DB	00H
	DB	00H
	DD	0b86H
	DW	033H
	DB	010H
	DB	019H
	DB	019H
	DB	02H
	DB	014H
	DB	00H
	DB	00H
	DB	00H
	DD	0c4eH
	DW	034H
	DB	014H
	DB	019H
	DB	019H
	DB	00H
	DB	014H
	DB	00H
	DB	00H
	DB	00H
	DD	0d48H
	DW	035H
	DB	010H
	DB	019H
	DB	019H
	DB	02H
	DB	014H
	DB	00H
	DB	00H
	DB	00H
	DD	0e10H
	DW	036H
	DB	011H
	DB	019H
	DB	019H
	DB	02H
	DB	014H
	DB	00H
	DB	00H
	DB	00H
	DD	0ef1H
	DW	037H
	DB	012H
	DB	019H
	DB	019H
	DB	01H
	DB	014H
	DB	00H
	DB	00H
	DB	00H
	DD	0fd2H
	DW	038H
	DB	012H
	DB	019H
	DB	019H
	DB	01H
	DB	014H
	DB	00H
	DB	00H
	DB	00H
	DD	010b3H
	DW	039H
	DB	012H
	DB	019H
	DB	019H
	DB	01H
	DB	014H
	DB	00H
	DB	00H
	DB	00H
	DD	01194H
	DW	03aH
	DB	05H
	DB	012H
	DB	012H
	DB	03H
	DB	0bH
	DB	00H
	DB	00H
	DB	00H
	DD	011caH
	DW	03bH
	DB	07H
	DB	018H
	DB	012H
	DB	01H
	DB	0bH
	DB	00H
	DB	00H
	DB	00H
	DD	0122aH
	DW	03cH
	DB	011H
	DB	014H
	DB	015H
	DB	01H
	DB	014H
	DB	00H
	DB	00H
	DB	00H
	DD	012deH
	DW	03dH
	DB	012H
	DB	0aH
	DB	010H
	DB	01H
	DB	014H
	DB	00H
	DB	00H
	DB	00H
	DD	01338H
	DW	03eH
	DB	011H
	DB	014H
	DB	015H
	DB	02H
	DB	014H
	DB	00H
	DB	00H
	DB	00H
	DD	013ecH
	DW	03fH
	DB	0fH
	DB	01bH
	DB	01bH
	DB	02H
	DB	013H
	DB	0bH
	DB	01H
	DB	00H
	DD	014c4H
	DW	040H
	DB	01eH
	DB	01eH
	DB	019H
	DB	03H
	DB	024H
	DB	00H
	DB	00H
	DB	00H
	DD	01686H
	DW	041H
	DB	017H
	DB	019H
	DB	019H
	DB	00H
	DB	017H
	DB	0cH
	DB	03H
	DB	00H
	DD	017b2H
	DW	042H
	DB	011H
	DB	019H
	DB	019H
	DB	03H
	DB	016H
	DB	00H
	DB	00H
	DB	00H
	DD	01893H
	DW	043H
	DB	014H
	DB	019H
	DB	019H
	DB	01H
	DB	015H
	DB	0fH
	DB	01H
	DB	00H
	DD	0198dH
	DW	044H
	DB	014H
	DB	019H
	DB	019H
	DB	03H
	DB	019H
	DB	00H
	DB	00H
	DB	00H
	DD	01a87H
	DW	045H
	DB	0fH
	DB	019H
	DB	019H
	DB	03H
	DB	014H
	DB	00H
	DB	00H
	DB	00H
	DD	01b4fH
	DW	046H
	DB	0eH
	DB	019H
	DB	019H
	DB	03H
	DB	012H
	DB	00H
	DB	00H
	DB	00H
	DD	01bfeH
	DW	047H
	DB	016H
	DB	019H
	DB	019H
	DB	01H
	DB	019H
	DB	010H
	DB	02H
	DB	00H
	DD	01d11H
	DW	048H
	DB	013H
	DB	019H
	DB	019H
	DB	03H
	DB	019H
	DB	00H
	DB	00H
	DB	00H
	DD	01e0bH
	DW	049H
	DB	04H
	DB	019H
	DB	019H
	DB	03H
	DB	0aH
	DB	00H
	DB	00H
	DB	00H
	DD	01e3dH
	DW	04aH
	DB	0aH
	DB	019H
	DB	019H
	DB	00H
	DB	0dH
	DB	012H
	DB	02H
	DB	00H
	DD	01ebaH
	DW	04bH
	DB	011H
	DB	019H
	DB	019H
	DB	03H
	DB	015H
	DB	00H
	DB	00H
	DB	00H
	DD	01f9bH
	DW	04cH
	DB	0eH
	DB	019H
	DB	019H
	DB	03H
	DB	011H
	DB	00H
	DB	00H
	DB	00H
	DD	0204aH
	DW	04dH
	DB	01cH
	DB	019H
	DB	019H
	DB	03H
	DB	022H
	DB	00H
	DB	00H
	DB	00H
	DD	021a8H
	DW	04eH
	DB	014H
	DB	019H
	DB	019H
	DB	03H
	DB	01aH
	DB	00H
	DB	00H
	DB	00H
	DD	022a2H
	DW	04fH
	DB	018H
	DB	019H
	DB	019H
	DB	01H
	DB	01aH
	DB	014H
	DB	03H
	DB	00H
	DD	023ceH
	DW	050H
	DB	010H
	DB	019H
	DB	019H
	DB	03H
	DB	015H
	DB	00H
	DB	00H
	DB	00H
	DD	02496H
	DW	051H
	DB	01bH
	DB	01dH
	DB	019H
	DB	01H
	DB	01bH
	DB	017H
	DB	03H
	DB	00H
	DD	0262cH
	DW	052H
	DB	012H
	DB	019H
	DB	019H
	DB	03H
	DB	016H
	DB	00H
	DB	00H
	DB	00H
	DD	0270dH
	DW	053H
	DB	010H
	DB	019H
	DB	019H
	DB	01H
	DB	012H
	DB	01aH
	DB	01H
	DB	00H
	DD	027d5H
	DW	054H
	DB	014H
	DB	019H
	DB	019H
	DB	00H
	DB	014H
	DB	01bH
	DB	04H
	DB	00H
	DD	028cfH
	DW	055H
	DB	014H
	DB	019H
	DB	019H
	DB	03H
	DB	01aH
	DB	01fH
	DB	03H
	DB	00H
	DD	029c9H
	DW	056H
	DB	016H
	DB	019H
	DB	019H
	DB	00H
	DB	017H
	DB	022H
	DB	02H
	DB	00H
	DD	02adcH
	DW	057H
	DB	022H
	DB	019H
	DB	019H
	DB	01H
	DB	024H
	DB	024H
	DB	03H
	DB	00H
	DD	02c85H
	DW	058H
	DB	013H
	DB	019H
	DB	019H
	DB	01H
	DB	015H
	DB	027H
	DB	03H
	DB	00H
	DD	02d7fH
	DW	059H
	DB	013H
	DB	019H
	DB	019H
	DB	00H
	DB	014H
	DB	02aH
	DB	06H
	DB	00H
	DD	02e79H
	DW	05aH
	DB	011H
	DB	019H
	DB	019H
	DB	01H
	DB	013H
	DB	030H
	DB	01H
	DB	00H
	DD	02f5aH
	DW	05bH
	DB	08H
	DB	022H
	DB	01bH
	DB	03H
	DB	0cH
	DB	00H
	DB	00H
	DB	00H
	DD	02fe2H
	DW	05cH
	DB	010H
	DB	022H
	DB	01dH
	DB	00H
	DB	0fH
	DB	00H
	DB	00H
	DB	00H
	DD	030f2H
	DW	05dH
	DB	08H
	DB	022H
	DB	01bH
	DB	01H
	DB	0cH
	DB	00H
	DB	00H
	DB	00H
	DD	0317aH
	DW	05eH
	DB	010H
	DB	0fH
	DB	01aH
	DB	02H
	DB	014H
	DB	00H
	DB	00H
	DB	00H
	DD	031f2H
	DW	05fH
	DB	015H
	DB	03H
	DB	0fcH
	DB	0ffH
	DB	014H
	DB	00H
	DB	00H
	DB	060H
	DD	03213H
	DW	060H
	DB	07H
	DB	06H
	DB	01bH
	DB	02H
	DB	0cH
	DB	00H
	DB	00H
	DB	00H
	DD	0322bH
	DW	061H
	DB	010H
	DB	013H
	DB	013H
	DB	01H
	DB	013H
	DB	031H
	DB	03H
	DB	00H
	DD	032c3H
	DW	062H
	DB	011H
	DB	01bH
	DB	01bH
	DB	03H
	DB	015H
	DB	00H
	DB	00H
	DB	00H
	DD	033b6H
	DW	063H
	DB	0fH
	DB	013H
	DB	013H
	DB	01H
	DB	011H
	DB	034H
	DB	03H
	DB	00H
	DD	0344eH
	DW	064H
	DB	012H
	DB	01bH
	DB	01bH
	DB	01H
	DB	015H
	DB	037H
	DB	02H
	DB	00H
	DD	03541H
	DW	065H
	DB	011H
	DB	013H
	DB	013H
	DB	01H
	DB	014H
	DB	039H
	DB	03H
	DB	00H
	DD	035ecH
	DW	066H
	DB	0dH
	DB	01bH
	DB	01bH
	DB	00H
	DB	0cH
	DB	03cH
	DB	01H
	DB	00H
	DD	036a9H
	DW	067H
	DB	011H
	DB	01aH
	DB	013H
	DB	01H
	DB	013H
	DB	00H
	DB	00H
	DB	00H
	DD	03793H
	DW	068H
	DB	010H
	DB	01bH
	DB	01bH
	DB	03H
	DB	015H
	DB	00H
	DB	00H
	DB	00H
	DD	0386bH
	DW	069H
	DB	05H
	DB	019H
	DB	019H
	DB	02H
	DB	09H
	DB	00H
	DB	00H
	DB	00H
	DD	038b6H
	DW	06aH
	DB	08H
	DB	020H
	DB	019H
	DB	0ffH
	DB	0aH
	DB	00H
	DB	00H
	DB	00H
	DD	03936H
	DW	06bH
	DB	0fH
	DB	01bH
	DB	01bH
	DB	03H
	DB	012H
	DB	00H
	DB	00H
	DB	00H
	DD	03a0eH
	DW	06cH
	DB	04H
	DB	01bH
	DB	01bH
	DB	03H
	DB	09H
	DB	00H
	DB	00H
	DB	00H
	DD	03a44H
	DW	06dH
	DB	01bH
	DB	013H
	DB	013H
	DB	03H
	DB	020H
	DB	03dH
	DB	01H
	DB	00H
	DD	03b4eH
	DW	06eH
	DB	010H
	DB	013H
	DB	013H
	DB	03H
	DB	015H
	DB	03eH
	DB	01H
	DB	00H
	DD	03be6H
	DW	06fH
	DB	013H
	DB	013H
	DB	013H
	DB	01H
	DB	015H
	DB	03fH
	DB	03H
	DB	00H
	DD	03ca4H
	DW	070H
	DB	011H
	DB	01aH
	DB	013H
	DB	03H
	DB	015H
	DB	042H
	DB	01H
	DB	00H
	DD	03d8eH
	DW	071H
	DB	012H
	DB	01aH
	DB	013H
	DB	01H
	DB	015H
	DB	043H
	DB	02H
	DB	00H
	DD	03e78H
	DW	072H
	DB	0bH
	DB	013H
	DB	013H
	DB	03H
	DB	0eH
	DB	045H
	DB	01H
	DB	00H
	DD	03eeaH
	DW	073H
	DB	0dH
	DB	013H
	DB	013H
	DB	01H
	DB	010H
	DB	046H
	DB	01H
	DB	00H
	DD	03f6fH
	DW	074H
	DB	0dH
	DB	018H
	DB	018H
	DB	00H
	DB	0dH
	DB	047H
	DB	03H
	DB	00H
	DD	04017H
	DW	075H
	DB	011H
	DB	013H
	DB	013H
	DB	02H
	DB	015H
	DB	04aH
	DB	01H
	DB	00H
	DD	040c2H
	DW	076H
	DB	012H
	DB	013H
	DB	013H
	DB	00H
	DB	012H
	DB	04bH
	DB	05H
	DB	00H
	DD	0416dH
	DW	077H
	DB	01bH
	DB	013H
	DB	013H
	DB	01H
	DB	01dH
	DB	050H
	DB	03H
	DB	00H
	DD	04277H
	DW	078H
	DB	011H
	DB	013H
	DB	013H
	DB	00H
	DB	011H
	DB	00H
	DB	00H
	DB	00H
	DD	04322H
	DW	079H
	DB	012H
	DB	01aH
	DB	013H
	DB	00H
	DB	012H
	DB	053H
	DB	05H
	DB	00H
	DD	0440cH
	DW	07aH
	DB	0eH
	DB	013H
	DB	013H
	DB	01H
	DB	010H
	DB	00H
	DB	00H
	DB	00H
	DD	04491H
	DW	07bH
	DB	0bH
	DB	022H
	DB	01bH
	DB	01H
	DB	0dH
	DB	00H
	DB	00H
	DB	00H
	DD	0455dH
	DW	07cH
	DB	04H
	DB	024H
	DB	01dH
	DB	07H
	DB	012H
	DB	00H
	DB	00H
	DB	00H
	DD	045a5H
	DW	07dH
	DB	0aH
	DB	022H
	DB	01bH
	DB	02H
	DB	0dH
	DB	00H
	DB	00H
	DB	00H
	DD	0464fH
	DW	07eH
	DB	012H
	DB	07H
	DB	016H
	DB	01H
	DB	014H
	DB	00H
	DB	00H
	DB	00H
	ORG $+2
?unicodes_calibri_40_4bpp@@3QBQBEB DD FLAT:?unicodes_calibri_40_4bpp_0@@3QBEB ; unicodes_calibri_40_4bpp
CONST	ENDS
PUBLIC	??1Font@touchgfx@@UAE@XZ			; touchgfx::Font::~Font
PUBLIC	?getGlyph@Font@touchgfx@@UBEPBUGlyphNode@2@G@Z	; touchgfx::Font::getGlyph
PUBLIC	?getFallbackChar@Font@touchgfx@@UBEGXZ		; touchgfx::Font::getFallbackChar
PUBLIC	?getEllipsisChar@Font@touchgfx@@UBEGXZ		; touchgfx::Font::getEllipsisChar
PUBLIC	?getFontHeight@Font@touchgfx@@UBEGXZ		; touchgfx::Font::getFontHeight
PUBLIC	?getMinimumTextHeight@Font@touchgfx@@UBEGXZ	; touchgfx::Font::getMinimumTextHeight
PUBLIC	?getBitsPerPixel@Font@touchgfx@@UBEEXZ		; touchgfx::Font::getBitsPerPixel
PUBLIC	?getByteAlignRow@Font@touchgfx@@UBEEXZ		; touchgfx::Font::getByteAlignRow
PUBLIC	?getKerning@Font@touchgfx@@UBECGPBUGlyphNode@2@@Z ; touchgfx::Font::getKerning
PUBLIC	?getGSUBTable@Font@touchgfx@@UBEPBGXZ		; touchgfx::Font::getGSUBTable
PUBLIC	?getContextualFormsTable@Font@touchgfx@@UBEPBUFontContextualFormsTable@2@XZ ; touchgfx::Font::getContextualFormsTable
PUBLIC	??_GFont@touchgfx@@UAEPAXI@Z			; touchgfx::Font::`scalar deleting destructor'
PUBLIC	??1ConstFont@touchgfx@@UAE@XZ			; touchgfx::ConstFont::~ConstFont
PUBLIC	??1GeneratedFont@touchgfx@@UAE@XZ		; touchgfx::GeneratedFont::~GeneratedFont
PUBLIC	?getFont_calibri_40_4bpp@@YAAAVGeneratedFont@touchgfx@@XZ ; getFont_calibri_40_4bpp
PUBLIC	__JustMyCode_Default
PUBLIC	??_7Font@touchgfx@@6B@				; touchgfx::Font::`vftable'
PUBLIC	??_R4Font@touchgfx@@6B@				; touchgfx::Font::`RTTI Complete Object Locator'
PUBLIC	??_R0?AVFont@touchgfx@@@8			; touchgfx::Font `RTTI Type Descriptor'
PUBLIC	??_R3Font@touchgfx@@8				; touchgfx::Font::`RTTI Class Hierarchy Descriptor'
PUBLIC	??_R2Font@touchgfx@@8				; touchgfx::Font::`RTTI Base Class Array'
PUBLIC	??_R1A@?0A@EA@Font@touchgfx@@8			; touchgfx::Font::`RTTI Base Class Descriptor at (0,-1,0,64)'
EXTRN	__purecall:PROC
EXTRN	??3@YAXPAXI@Z:PROC				; operator delete
EXTRN	_atexit:PROC
EXTRN	__Init_thread_header:PROC
EXTRN	__Init_thread_abort:PROC
EXTRN	__Init_thread_footer:PROC
EXTRN	?getStringWidth@Font@touchgfx@@UBAGPBGZZ:PROC	; touchgfx::Font::getStringWidth
EXTRN	?getStringWidth@Font@touchgfx@@UBAGEPBGZZ:PROC	; touchgfx::Font::getStringWidth
EXTRN	?getCharWidth@Font@touchgfx@@UBEGG@Z:PROC	; touchgfx::Font::getCharWidth
EXTRN	?getSpacingAbove@Font@touchgfx@@UBAEPBGZZ:PROC	; touchgfx::Font::getSpacingAbove
EXTRN	?getMaxTextHeight@Font@touchgfx@@UBAGPBGZZ:PROC	; touchgfx::Font::getMaxTextHeight
EXTRN	?getNumberOfLines@Font@touchgfx@@UBAGPBGZZ:PROC	; touchgfx::Font::getNumberOfLines
EXTRN	??_EFont@touchgfx@@UAEPAXI@Z:PROC		; touchgfx::Font::`vector deleting destructor'
EXTRN	??0GeneratedFont@touchgfx@@QAE@PBUGlyphNode@1@GGEEEEEPBQBEPBUKerningNode@1@GGQBGPBUFontContextualFormsTable@1@@Z:PROC ; touchgfx::GeneratedFont::GeneratedFont
EXTRN	@_RTC_CheckStackVars@8:PROC
EXTRN	@__CheckForDebuggerJustMyCode@4:PROC
EXTRN	@__security_check_cookie@4:PROC
EXTRN	__RTC_CheckEsp:PROC
EXTRN	__RTC_InitBase:PROC
EXTRN	__RTC_Shutdown:PROC
EXTRN	___CxxFrameHandler3:PROC
EXTRN	__Init_thread_epoch:DWORD
EXTRN	?kerning_calibri_40_4bpp@@3QBUKerningNode@touchgfx@@B:BYTE ; kerning_calibri_40_4bpp
EXTRN	?calibri_contextualFormsTable@@3UFontContextualFormsTable@touchgfx@@B:BYTE ; calibri_contextualFormsTable
EXTRN	??_7type_info@@6B@:QWORD			; type_info::`vftable'
EXTRN	___security_cookie:DWORD
EXTRN	__tls_array:DWORD
EXTRN	__tls_index:DWORD
_BSS	SEGMENT
?calibri_40_4bpp@?1??getFont_calibri_40_4bpp@@YAAAVGeneratedFont@touchgfx@@XZ@4V23@A DB 028H DUP (?) ; `getFont_calibri_40_4bpp'::`2'::calibri_40_4bpp
?$TSS0@?1??getFont_calibri_40_4bpp@@YAAAVGeneratedFont@touchgfx@@XZ@4HA DD 01H DUP (?) ; `getFont_calibri_40_4bpp'::`2'::$TSS0
_BSS	ENDS
;	COMDAT rtc$TMZ
rtc$TMZ	SEGMENT
__RTC_Shutdown.rtc$TMZ DD FLAT:__RTC_Shutdown
rtc$TMZ	ENDS
;	COMDAT rtc$IMZ
rtc$IMZ	SEGMENT
__RTC_InitBase.rtc$IMZ DD FLAT:__RTC_InitBase
rtc$IMZ	ENDS
;	COMDAT ??_R1A@?0A@EA@Font@touchgfx@@8
rdata$r	SEGMENT
??_R1A@?0A@EA@Font@touchgfx@@8 DD FLAT:??_R0?AVFont@touchgfx@@@8 ; touchgfx::Font::`RTTI Base Class Descriptor at (0,-1,0,64)'
	DD	00H
	DD	00H
	DD	0ffffffffH
	DD	00H
	DD	040H
	DD	FLAT:??_R3Font@touchgfx@@8
rdata$r	ENDS
;	COMDAT ??_R2Font@touchgfx@@8
rdata$r	SEGMENT
??_R2Font@touchgfx@@8 DD FLAT:??_R1A@?0A@EA@Font@touchgfx@@8 ; touchgfx::Font::`RTTI Base Class Array'
rdata$r	ENDS
;	COMDAT ??_R3Font@touchgfx@@8
rdata$r	SEGMENT
??_R3Font@touchgfx@@8 DD 00H				; touchgfx::Font::`RTTI Class Hierarchy Descriptor'
	DD	00H
	DD	01H
	DD	FLAT:??_R2Font@touchgfx@@8
rdata$r	ENDS
;	COMDAT ??_R0?AVFont@touchgfx@@@8
data$rs	SEGMENT
??_R0?AVFont@touchgfx@@@8 DD FLAT:??_7type_info@@6B@	; touchgfx::Font `RTTI Type Descriptor'
	DD	00H
	DB	'.?AVFont@touchgfx@@', 00H
data$rs	ENDS
;	COMDAT ??_R4Font@touchgfx@@6B@
rdata$r	SEGMENT
??_R4Font@touchgfx@@6B@ DD 00H				; touchgfx::Font::`RTTI Complete Object Locator'
	DD	00H
	DD	00H
	DD	FLAT:??_R0?AVFont@touchgfx@@@8
	DD	FLAT:??_R3Font@touchgfx@@8
rdata$r	ENDS
;	COMDAT ??_7Font@touchgfx@@6B@
CONST	SEGMENT
??_7Font@touchgfx@@6B@ DD FLAT:??_R4Font@touchgfx@@6B@	; touchgfx::Font::`vftable'
	DD	FLAT:??_EFont@touchgfx@@UAEPAXI@Z
	DD	FLAT:?getGlyph@Font@touchgfx@@UBEPBUGlyphNode@2@G@Z
	DD	FLAT:__purecall
	DD	FLAT:?getFallbackChar@Font@touchgfx@@UBEGXZ
	DD	FLAT:?getEllipsisChar@Font@touchgfx@@UBEGXZ
	DD	FLAT:?getStringWidth@Font@touchgfx@@UBAGEPBGZZ
	DD	FLAT:?getStringWidth@Font@touchgfx@@UBAGPBGZZ
	DD	FLAT:?getCharWidth@Font@touchgfx@@UBEGG@Z
	DD	FLAT:?getSpacingAbove@Font@touchgfx@@UBAEPBGZZ
	DD	FLAT:?getMaxTextHeight@Font@touchgfx@@UBAGPBGZZ
	DD	FLAT:?getFontHeight@Font@touchgfx@@UBEGXZ
	DD	FLAT:?getMinimumTextHeight@Font@touchgfx@@UBEGXZ
	DD	FLAT:?getBitsPerPixel@Font@touchgfx@@UBEEXZ
	DD	FLAT:?getByteAlignRow@Font@touchgfx@@UBEEXZ
	DD	FLAT:?getKerning@Font@touchgfx@@UBECGPBUGlyphNode@2@@Z
	DD	FLAT:?getNumberOfLines@Font@touchgfx@@UBAGPBGZZ
	DD	FLAT:?getGSUBTable@Font@touchgfx@@UBEPBGXZ
	DD	FLAT:?getContextualFormsTable@Font@touchgfx@@UBEPBUFontContextualFormsTable@2@XZ
CONST	ENDS
;	COMDAT xdata$x
xdata$x	SEGMENT
__unwindtable$?getFont_calibri_40_4bpp@@YAAAVGeneratedFont@touchgfx@@XZ DD 0ffffffffH
	DD	FLAT:__unwindfunclet$?getFont_calibri_40_4bpp@@YAAAVGeneratedFont@touchgfx@@XZ$0
__ehfuncinfo$?getFont_calibri_40_4bpp@@YAAAVGeneratedFont@touchgfx@@XZ DD 019930522H
	DD	01H
	DD	FLAT:__unwindtable$?getFont_calibri_40_4bpp@@YAAAVGeneratedFont@touchgfx@@XZ
	DD	2 DUP(00H)
	DD	2 DUP(00H)
	DD	00H
	DD	01H
xdata$x	ENDS
; Function compile flags: /Odt
;	COMDAT __JustMyCode_Default
_TEXT	SEGMENT
__JustMyCode_Default PROC				; COMDAT
	push	ebp
	mov	ebp, esp
	pop	ebp
	ret	0
__JustMyCode_Default ENDP
_TEXT	ENDS
; Function compile flags: /Odtp /RTCsu /ZI
;	COMDAT ??__Fcalibri_40_4bpp@?1??getFont_calibri_40_4bpp@@YAAAVGeneratedFont@touchgfx@@XZ@YAXXZ
text$yd	SEGMENT
??__Fcalibri_40_4bpp@?1??getFont_calibri_40_4bpp@@YAAAVGeneratedFont@touchgfx@@XZ@YAXXZ PROC ; `getFont_calibri_40_4bpp'::`2'::`dynamic atexit destructor for 'calibri_40_4bpp'', COMDAT
	push	ebp
	mov	ebp, esp
	sub	esp, 192				; 000000c0H
	push	ebx
	push	esi
	push	edi
	mov	edi, ebp
	xor	ecx, ecx
	mov	eax, -858993460				; ccccccccH
	rep stosd
	mov	ecx, OFFSET ?calibri_40_4bpp@?1??getFont_calibri_40_4bpp@@YAAAVGeneratedFont@touchgfx@@XZ@4V23@A
	call	??1GeneratedFont@touchgfx@@UAE@XZ
	pop	edi
	pop	esi
	pop	ebx
	add	esp, 192				; 000000c0H
	cmp	ebp, esp
	call	__RTC_CheckEsp
	mov	esp, ebp
	pop	ebp
	ret	0
??__Fcalibri_40_4bpp@?1??getFont_calibri_40_4bpp@@YAAAVGeneratedFont@touchgfx@@XZ@YAXXZ ENDP ; `getFont_calibri_40_4bpp'::`2'::`dynamic atexit destructor for 'calibri_40_4bpp''
text$yd	ENDS
; Function compile flags: /Odtp /RTCsu /ZI
;	COMDAT ?getFont_calibri_40_4bpp@@YAAAVGeneratedFont@touchgfx@@XZ
_TEXT	SEGMENT
__$EHRec$ = -12						; size = 12
?getFont_calibri_40_4bpp@@YAAAVGeneratedFont@touchgfx@@XZ PROC ; getFont_calibri_40_4bpp, COMDAT
; File G:\Germany\Scanner\Firmware\Display_Board\TouchGFX\generated\fonts\src\Table_calibri_40_4bpp.cpp
; Line 116
	push	ebp
	mov	ebp, esp
	push	-1
	push	__ehhandler$?getFont_calibri_40_4bpp@@YAAAVGeneratedFont@touchgfx@@XZ
	mov	eax, DWORD PTR fs:0
	push	eax
	sub	esp, 192				; 000000c0H
	push	ebx
	push	esi
	push	edi
	lea	edi, DWORD PTR [ebp-12]
	xor	ecx, ecx
	mov	eax, -858993460				; ccccccccH
	rep stosd
	mov	eax, DWORD PTR ___security_cookie
	xor	eax, ebp
	push	eax
	lea	eax, DWORD PTR __$EHRec$[ebp]
	mov	DWORD PTR fs:0, eax
	mov	ecx, OFFSET __75EDAE32_Table_calibri_40_4bpp@cpp
	call	@__CheckForDebuggerJustMyCode@4
; Line 117
	mov	eax, DWORD PTR __tls_index
	mov	ecx, DWORD PTR fs:__tls_array
	mov	edx, DWORD PTR [ecx+eax*4]
	mov	eax, DWORD PTR ?$TSS0@?1??getFont_calibri_40_4bpp@@YAAAVGeneratedFont@touchgfx@@XZ@4HA
	cmp	eax, DWORD PTR __Init_thread_epoch[edx]
	jle	SHORT $LN2@getFont_ca
	push	OFFSET ?$TSS0@?1??getFont_calibri_40_4bpp@@YAAAVGeneratedFont@touchgfx@@XZ@4HA
	call	__Init_thread_header
	add	esp, 4
	cmp	DWORD PTR ?$TSS0@?1??getFont_calibri_40_4bpp@@YAAAVGeneratedFont@touchgfx@@XZ@4HA, -1
	jne	SHORT $LN2@getFont_ca
	mov	DWORD PTR __$EHRec$[ebp+8], 0
	push	OFFSET ?calibri_contextualFormsTable@@3UFontContextualFormsTable@touchgfx@@B ; calibri_contextualFormsTable
	push	0
	push	0
	push	63					; 0000003fH
	push	OFFSET ?kerning_calibri_40_4bpp@@3QBUKerningNode@touchgfx@@B ; kerning_calibri_40_4bpp
	push	OFFSET ?unicodes_calibri_40_4bpp@@3QBQBEB ; unicodes_calibri_40_4bpp
	push	1
	push	1
	push	1
	push	4
	push	7
	push	40					; 00000028H
	push	95					; 0000005fH
	push	OFFSET ?glyphs_calibri_40_4bpp@@3QBUGlyphNode@touchgfx@@B ; glyphs_calibri_40_4bpp
	mov	ecx, OFFSET ?calibri_40_4bpp@?1??getFont_calibri_40_4bpp@@YAAAVGeneratedFont@touchgfx@@XZ@4V23@A
	call	??0GeneratedFont@touchgfx@@QAE@PBUGlyphNode@1@GGEEEEEPBQBEPBUKerningNode@1@GGQBGPBUFontContextualFormsTable@1@@Z ; touchgfx::GeneratedFont::GeneratedFont
	push	OFFSET ??__Fcalibri_40_4bpp@?1??getFont_calibri_40_4bpp@@YAAAVGeneratedFont@touchgfx@@XZ@YAXXZ ; `getFont_calibri_40_4bpp'::`2'::`dynamic atexit destructor for 'calibri_40_4bpp''
	call	_atexit
	add	esp, 4
	mov	DWORD PTR __$EHRec$[ebp+8], -1
	push	OFFSET ?$TSS0@?1??getFont_calibri_40_4bpp@@YAAAVGeneratedFont@touchgfx@@XZ@4HA
	call	__Init_thread_footer
	add	esp, 4
$LN2@getFont_ca:
; Line 118
	mov	eax, OFFSET ?calibri_40_4bpp@?1??getFont_calibri_40_4bpp@@YAAAVGeneratedFont@touchgfx@@XZ@4V23@A
; Line 119
	mov	ecx, DWORD PTR __$EHRec$[ebp]
	mov	DWORD PTR fs:0, ecx
	pop	ecx
	pop	edi
	pop	esi
	pop	ebx
	add	esp, 204				; 000000ccH
	cmp	ebp, esp
	call	__RTC_CheckEsp
	mov	esp, ebp
	pop	ebp
	ret	0
_TEXT	ENDS
;	COMDAT text$x
text$x	SEGMENT
__unwindfunclet$?getFont_calibri_40_4bpp@@YAAAVGeneratedFont@touchgfx@@XZ$0:
	push	OFFSET ?$TSS0@?1??getFont_calibri_40_4bpp@@YAAAVGeneratedFont@touchgfx@@XZ@4HA
	call	__Init_thread_abort
	pop	ecx
	ret	0
	int	3
	int	3
	int	3
	int	3
	int	3
__ehhandler$?getFont_calibri_40_4bpp@@YAAAVGeneratedFont@touchgfx@@XZ:
	npad	1
	npad	1
	mov	edx, DWORD PTR [esp+8]
	lea	eax, DWORD PTR [edx+12]
	mov	ecx, DWORD PTR [edx-208]
	xor	ecx, eax
	call	@__security_check_cookie@4
	mov	eax, OFFSET __ehfuncinfo$?getFont_calibri_40_4bpp@@YAAAVGeneratedFont@touchgfx@@XZ
	jmp	___CxxFrameHandler3
text$x	ENDS
?getFont_calibri_40_4bpp@@YAAAVGeneratedFont@touchgfx@@XZ ENDP ; getFont_calibri_40_4bpp
; Function compile flags: /Odtp /RTCsu /ZI
;	COMDAT ??1GeneratedFont@touchgfx@@UAE@XZ
_TEXT	SEGMENT
_this$ = -8						; size = 4
??1GeneratedFont@touchgfx@@UAE@XZ PROC			; touchgfx::GeneratedFont::~GeneratedFont, COMDAT
; _this$ = ecx
	push	ebp
	mov	ebp, esp
	sub	esp, 204				; 000000ccH
	push	ebx
	push	esi
	push	edi
	push	ecx
	lea	edi, DWORD PTR [ebp-12]
	mov	ecx, 3
	mov	eax, -858993460				; ccccccccH
	rep stosd
	pop	ecx
	mov	DWORD PTR _this$[ebp], ecx
	mov	ecx, DWORD PTR _this$[ebp]
	call	??1ConstFont@touchgfx@@UAE@XZ
	pop	edi
	pop	esi
	pop	ebx
	add	esp, 204				; 000000ccH
	cmp	ebp, esp
	call	__RTC_CheckEsp
	mov	esp, ebp
	pop	ebp
	ret	0
??1GeneratedFont@touchgfx@@UAE@XZ ENDP			; touchgfx::GeneratedFont::~GeneratedFont
_TEXT	ENDS
; Function compile flags: /Odtp /RTCsu /ZI
;	COMDAT ??1ConstFont@touchgfx@@UAE@XZ
_TEXT	SEGMENT
_this$ = -8						; size = 4
??1ConstFont@touchgfx@@UAE@XZ PROC			; touchgfx::ConstFont::~ConstFont, COMDAT
; _this$ = ecx
	push	ebp
	mov	ebp, esp
	sub	esp, 204				; 000000ccH
	push	ebx
	push	esi
	push	edi
	push	ecx
	lea	edi, DWORD PTR [ebp-12]
	mov	ecx, 3
	mov	eax, -858993460				; ccccccccH
	rep stosd
	pop	ecx
	mov	DWORD PTR _this$[ebp], ecx
	mov	ecx, DWORD PTR _this$[ebp]
	call	??1Font@touchgfx@@UAE@XZ		; touchgfx::Font::~Font
	pop	edi
	pop	esi
	pop	ebx
	add	esp, 204				; 000000ccH
	cmp	ebp, esp
	call	__RTC_CheckEsp
	mov	esp, ebp
	pop	ebp
	ret	0
??1ConstFont@touchgfx@@UAE@XZ ENDP			; touchgfx::ConstFont::~ConstFont
_TEXT	ENDS
; Function compile flags: /Odtp /RTCsu /ZI
;	COMDAT ??_GFont@touchgfx@@UAEPAXI@Z
_TEXT	SEGMENT
_this$ = -8						; size = 4
___flags$ = 8						; size = 4
??_GFont@touchgfx@@UAEPAXI@Z PROC			; touchgfx::Font::`scalar deleting destructor', COMDAT
; _this$ = ecx
	push	ebp
	mov	ebp, esp
	sub	esp, 204				; 000000ccH
	push	ebx
	push	esi
	push	edi
	push	ecx
	lea	edi, DWORD PTR [ebp-12]
	mov	ecx, 3
	mov	eax, -858993460				; ccccccccH
	rep stosd
	pop	ecx
	mov	DWORD PTR _this$[ebp], ecx
	mov	ecx, DWORD PTR _this$[ebp]
	call	??1Font@touchgfx@@UAE@XZ		; touchgfx::Font::~Font
	mov	eax, DWORD PTR ___flags$[ebp]
	and	eax, 1
	je	SHORT $LN2@scalar
	push	16					; 00000010H
	mov	eax, DWORD PTR _this$[ebp]
	push	eax
	call	??3@YAXPAXI@Z				; operator delete
	add	esp, 8
$LN2@scalar:
	mov	eax, DWORD PTR _this$[ebp]
	pop	edi
	pop	esi
	pop	ebx
	add	esp, 204				; 000000ccH
	cmp	ebp, esp
	call	__RTC_CheckEsp
	mov	esp, ebp
	pop	ebp
	ret	4
??_GFont@touchgfx@@UAEPAXI@Z ENDP			; touchgfx::Font::`scalar deleting destructor'
_TEXT	ENDS
; Function compile flags: /Odtp /RTCsu /ZI
;	COMDAT ?getContextualFormsTable@Font@touchgfx@@UBEPBUFontContextualFormsTable@2@XZ
_TEXT	SEGMENT
_this$ = -8						; size = 4
?getContextualFormsTable@Font@touchgfx@@UBEPBUFontContextualFormsTable@2@XZ PROC ; touchgfx::Font::getContextualFormsTable, COMDAT
; _this$ = ecx
; File G:\Germany\Scanner\Firmware\Display_Board\Middlewares\ST\touchgfx\framework\include\touchgfx\Font.hpp
; Line 419
	push	ebp
	mov	ebp, esp
	sub	esp, 204				; 000000ccH
	push	ebx
	push	esi
	push	edi
	push	ecx
	lea	edi, DWORD PTR [ebp-12]
	mov	ecx, 3
	mov	eax, -858993460				; ccccccccH
	rep stosd
	pop	ecx
	mov	DWORD PTR _this$[ebp], ecx
	mov	ecx, OFFSET __6F04AFDB_Font@hpp
	call	@__CheckForDebuggerJustMyCode@4
; Line 420
	xor	eax, eax
; Line 421
	pop	edi
	pop	esi
	pop	ebx
	add	esp, 204				; 000000ccH
	cmp	ebp, esp
	call	__RTC_CheckEsp
	mov	esp, ebp
	pop	ebp
	ret	0
?getContextualFormsTable@Font@touchgfx@@UBEPBUFontContextualFormsTable@2@XZ ENDP ; touchgfx::Font::getContextualFormsTable
_TEXT	ENDS
; Function compile flags: /Odtp /RTCsu /ZI
;	COMDAT ?getGSUBTable@Font@touchgfx@@UBEPBGXZ
_TEXT	SEGMENT
_this$ = -8						; size = 4
?getGSUBTable@Font@touchgfx@@UBEPBGXZ PROC		; touchgfx::Font::getGSUBTable, COMDAT
; _this$ = ecx
; File G:\Germany\Scanner\Firmware\Display_Board\Middlewares\ST\touchgfx\framework\include\touchgfx\Font.hpp
; Line 409
	push	ebp
	mov	ebp, esp
	sub	esp, 204				; 000000ccH
	push	ebx
	push	esi
	push	edi
	push	ecx
	lea	edi, DWORD PTR [ebp-12]
	mov	ecx, 3
	mov	eax, -858993460				; ccccccccH
	rep stosd
	pop	ecx
	mov	DWORD PTR _this$[ebp], ecx
	mov	ecx, OFFSET __6F04AFDB_Font@hpp
	call	@__CheckForDebuggerJustMyCode@4
; Line 410
	xor	eax, eax
; Line 411
	pop	edi
	pop	esi
	pop	ebx
	add	esp, 204				; 000000ccH
	cmp	ebp, esp
	call	__RTC_CheckEsp
	mov	esp, ebp
	pop	ebp
	ret	0
?getGSUBTable@Font@touchgfx@@UBEPBGXZ ENDP		; touchgfx::Font::getGSUBTable
_TEXT	ENDS
; Function compile flags: /Odtp /RTCsu /ZI
;	COMDAT ?getKerning@Font@touchgfx@@UBECGPBUGlyphNode@2@@Z
_TEXT	SEGMENT
_this$ = -8						; size = 4
_prevChar$ = 8						; size = 2
_glyph$ = 12						; size = 4
?getKerning@Font@touchgfx@@UBECGPBUGlyphNode@2@@Z PROC	; touchgfx::Font::getKerning, COMDAT
; _this$ = ecx
; File G:\Germany\Scanner\Firmware\Display_Board\Middlewares\ST\touchgfx\framework\include\touchgfx\Font.hpp
; Line 389
	push	ebp
	mov	ebp, esp
	sub	esp, 204				; 000000ccH
	push	ebx
	push	esi
	push	edi
	push	ecx
	lea	edi, DWORD PTR [ebp-12]
	mov	ecx, 3
	mov	eax, -858993460				; ccccccccH
	rep stosd
	pop	ecx
	mov	DWORD PTR _this$[ebp], ecx
	mov	ecx, OFFSET __6F04AFDB_Font@hpp
	call	@__CheckForDebuggerJustMyCode@4
; Line 390
	xor	al, al
; Line 391
	pop	edi
	pop	esi
	pop	ebx
	add	esp, 204				; 000000ccH
	cmp	ebp, esp
	call	__RTC_CheckEsp
	mov	esp, ebp
	pop	ebp
	ret	8
?getKerning@Font@touchgfx@@UBECGPBUGlyphNode@2@@Z ENDP	; touchgfx::Font::getKerning
_TEXT	ENDS
; Function compile flags: /Odtp /RTCsu /ZI
;	COMDAT ?getByteAlignRow@Font@touchgfx@@UBEEXZ
_TEXT	SEGMENT
_this$ = -8						; size = 4
?getByteAlignRow@Font@touchgfx@@UBEEXZ PROC		; touchgfx::Font::getByteAlignRow, COMDAT
; _this$ = ecx
; File G:\Germany\Scanner\Firmware\Display_Board\Middlewares\ST\touchgfx\framework\include\touchgfx\Font.hpp
; Line 352
	push	ebp
	mov	ebp, esp
	sub	esp, 204				; 000000ccH
	push	ebx
	push	esi
	push	edi
	push	ecx
	lea	edi, DWORD PTR [ebp-12]
	mov	ecx, 3
	mov	eax, -858993460				; ccccccccH
	rep stosd
	pop	ecx
	mov	DWORD PTR _this$[ebp], ecx
	mov	ecx, OFFSET __6F04AFDB_Font@hpp
	call	@__CheckForDebuggerJustMyCode@4
; Line 353
	mov	eax, DWORD PTR _this$[ebp]
	mov	al, BYTE PTR [eax+7]
	shr	al, 7
	and	al, 1
; Line 354
	pop	edi
	pop	esi
	pop	ebx
	add	esp, 204				; 000000ccH
	cmp	ebp, esp
	call	__RTC_CheckEsp
	mov	esp, ebp
	pop	ebp
	ret	0
?getByteAlignRow@Font@touchgfx@@UBEEXZ ENDP		; touchgfx::Font::getByteAlignRow
_TEXT	ENDS
; Function compile flags: /Odtp /RTCsu /ZI
;	COMDAT ?getBitsPerPixel@Font@touchgfx@@UBEEXZ
_TEXT	SEGMENT
_this$ = -8						; size = 4
?getBitsPerPixel@Font@touchgfx@@UBEEXZ PROC		; touchgfx::Font::getBitsPerPixel, COMDAT
; _this$ = ecx
; File G:\Germany\Scanner\Firmware\Display_Board\Middlewares\ST\touchgfx\framework\include\touchgfx\Font.hpp
; Line 342
	push	ebp
	mov	ebp, esp
	sub	esp, 204				; 000000ccH
	push	ebx
	push	esi
	push	edi
	push	ecx
	lea	edi, DWORD PTR [ebp-12]
	mov	ecx, 3
	mov	eax, -858993460				; ccccccccH
	rep stosd
	pop	ecx
	mov	DWORD PTR _this$[ebp], ecx
	mov	ecx, OFFSET __6F04AFDB_Font@hpp
	call	@__CheckForDebuggerJustMyCode@4
; Line 343
	mov	eax, DWORD PTR _this$[ebp]
	mov	al, BYTE PTR [eax+7]
	and	al, 127					; 0000007fH
; Line 344
	pop	edi
	pop	esi
	pop	ebx
	add	esp, 204				; 000000ccH
	cmp	ebp, esp
	call	__RTC_CheckEsp
	mov	esp, ebp
	pop	ebp
	ret	0
?getBitsPerPixel@Font@touchgfx@@UBEEXZ ENDP		; touchgfx::Font::getBitsPerPixel
_TEXT	ENDS
; Function compile flags: /Odtp /RTCsu /ZI
;	COMDAT ?getMinimumTextHeight@Font@touchgfx@@UBEGXZ
_TEXT	SEGMENT
_this$ = -8						; size = 4
?getMinimumTextHeight@Font@touchgfx@@UBEGXZ PROC	; touchgfx::Font::getMinimumTextHeight, COMDAT
; _this$ = ecx
; File G:\Germany\Scanner\Firmware\Display_Board\Middlewares\ST\touchgfx\framework\include\touchgfx\Font.hpp
; Line 332
	push	ebp
	mov	ebp, esp
	sub	esp, 204				; 000000ccH
	push	ebx
	push	esi
	push	edi
	push	ecx
	lea	edi, DWORD PTR [ebp-12]
	mov	ecx, 3
	mov	eax, -858993460				; ccccccccH
	rep stosd
	pop	ecx
	mov	DWORD PTR _this$[ebp], ecx
	mov	ecx, OFFSET __6F04AFDB_Font@hpp
	call	@__CheckForDebuggerJustMyCode@4
; Line 333
	mov	eax, DWORD PTR _this$[ebp]
	movzx	eax, WORD PTR [eax+4]
	mov	ecx, DWORD PTR _this$[ebp]
	movzx	edx, BYTE PTR [ecx+6]
	add	eax, edx
; Line 334
	pop	edi
	pop	esi
	pop	ebx
	add	esp, 204				; 000000ccH
	cmp	ebp, esp
	call	__RTC_CheckEsp
	mov	esp, ebp
	pop	ebp
	ret	0
?getMinimumTextHeight@Font@touchgfx@@UBEGXZ ENDP	; touchgfx::Font::getMinimumTextHeight
_TEXT	ENDS
; Function compile flags: /Odtp /RTCsu /ZI
;	COMDAT ?getFontHeight@Font@touchgfx@@UBEGXZ
_TEXT	SEGMENT
_this$ = -8						; size = 4
?getFontHeight@Font@touchgfx@@UBEGXZ PROC		; touchgfx::Font::getFontHeight, COMDAT
; _this$ = ecx
; File G:\Germany\Scanner\Firmware\Display_Board\Middlewares\ST\touchgfx\framework\include\touchgfx\Font.hpp
; Line 320
	push	ebp
	mov	ebp, esp
	sub	esp, 204				; 000000ccH
	push	ebx
	push	esi
	push	edi
	push	ecx
	lea	edi, DWORD PTR [ebp-12]
	mov	ecx, 3
	mov	eax, -858993460				; ccccccccH
	rep stosd
	pop	ecx
	mov	DWORD PTR _this$[ebp], ecx
	mov	ecx, OFFSET __6F04AFDB_Font@hpp
	call	@__CheckForDebuggerJustMyCode@4
; Line 321
	mov	eax, DWORD PTR _this$[ebp]
	mov	ax, WORD PTR [eax+4]
; Line 322
	pop	edi
	pop	esi
	pop	ebx
	add	esp, 204				; 000000ccH
	cmp	ebp, esp
	call	__RTC_CheckEsp
	mov	esp, ebp
	pop	ebp
	ret	0
?getFontHeight@Font@touchgfx@@UBEGXZ ENDP		; touchgfx::Font::getFontHeight
_TEXT	ENDS
; Function compile flags: /Odtp /RTCsu /ZI
;	COMDAT ?getEllipsisChar@Font@touchgfx@@UBEGXZ
_TEXT	SEGMENT
_this$ = -8						; size = 4
?getEllipsisChar@Font@touchgfx@@UBEGXZ PROC		; touchgfx::Font::getEllipsisChar, COMDAT
; _this$ = ecx
; File G:\Germany\Scanner\Firmware\Display_Board\Middlewares\ST\touchgfx\framework\include\touchgfx\Font.hpp
; Line 231
	push	ebp
	mov	ebp, esp
	sub	esp, 204				; 000000ccH
	push	ebx
	push	esi
	push	edi
	push	ecx
	lea	edi, DWORD PTR [ebp-12]
	mov	ecx, 3
	mov	eax, -858993460				; ccccccccH
	rep stosd
	pop	ecx
	mov	DWORD PTR _this$[ebp], ecx
	mov	ecx, OFFSET __6F04AFDB_Font@hpp
	call	@__CheckForDebuggerJustMyCode@4
; Line 232
	mov	eax, DWORD PTR _this$[ebp]
	mov	ax, WORD PTR [eax+12]
; Line 233
	pop	edi
	pop	esi
	pop	ebx
	add	esp, 204				; 000000ccH
	cmp	ebp, esp
	call	__RTC_CheckEsp
	mov	esp, ebp
	pop	ebp
	ret	0
?getEllipsisChar@Font@touchgfx@@UBEGXZ ENDP		; touchgfx::Font::getEllipsisChar
_TEXT	ENDS
; Function compile flags: /Odtp /RTCsu /ZI
;	COMDAT ?getFallbackChar@Font@touchgfx@@UBEGXZ
_TEXT	SEGMENT
_this$ = -8						; size = 4
?getFallbackChar@Font@touchgfx@@UBEGXZ PROC		; touchgfx::Font::getFallbackChar, COMDAT
; _this$ = ecx
; File G:\Germany\Scanner\Firmware\Display_Board\Middlewares\ST\touchgfx\framework\include\touchgfx\Font.hpp
; Line 218
	push	ebp
	mov	ebp, esp
	sub	esp, 204				; 000000ccH
	push	ebx
	push	esi
	push	edi
	push	ecx
	lea	edi, DWORD PTR [ebp-12]
	mov	ecx, 3
	mov	eax, -858993460				; ccccccccH
	rep stosd
	pop	ecx
	mov	DWORD PTR _this$[ebp], ecx
	mov	ecx, OFFSET __6F04AFDB_Font@hpp
	call	@__CheckForDebuggerJustMyCode@4
; Line 219
	mov	eax, DWORD PTR _this$[ebp]
	mov	ax, WORD PTR [eax+10]
; Line 220
	pop	edi
	pop	esi
	pop	ebx
	add	esp, 204				; 000000ccH
	cmp	ebp, esp
	call	__RTC_CheckEsp
	mov	esp, ebp
	pop	ebp
	ret	0
?getFallbackChar@Font@touchgfx@@UBEGXZ ENDP		; touchgfx::Font::getFallbackChar
_TEXT	ENDS
; Function compile flags: /Odtp /RTCsu /ZI
;	COMDAT ?getGlyph@Font@touchgfx@@UBEPBUGlyphNode@2@G@Z
_TEXT	SEGMENT
_glyph$ = -44						; size = 4
_bitsPerPixelDummy$ = -29				; size = 1
_dummyPixelDataPointer$ = -20				; size = 4
_this$ = -8						; size = 4
_unicode$ = 8						; size = 2
?getGlyph@Font@touchgfx@@UBEPBUGlyphNode@2@G@Z PROC	; touchgfx::Font::getGlyph, COMDAT
; _this$ = ecx
; File G:\Germany\Scanner\Firmware\Display_Board\Middlewares\ST\touchgfx\framework\include\touchgfx\Font.hpp
; Line 199
	push	ebp
	mov	ebp, esp
	sub	esp, 240				; 000000f0H
	push	ebx
	push	esi
	push	edi
	push	ecx
	lea	edi, DWORD PTR [ebp-48]
	mov	ecx, 12					; 0000000cH
	mov	eax, -858993460				; ccccccccH
	rep stosd
	pop	ecx
	mov	DWORD PTR _this$[ebp], ecx
	mov	ecx, OFFSET __6F04AFDB_Font@hpp
	call	@__CheckForDebuggerJustMyCode@4
; Line 200
	movzx	eax, WORD PTR _unicode$[ebp]
	test	eax, eax
	jne	SHORT $LN2@getGlyph
; Line 202
	xor	eax, eax
	jmp	SHORT $LN1@getGlyph
$LN2@getGlyph:
; Line 204
	mov	DWORD PTR _dummyPixelDataPointer$[ebp], 0
; Line 205
	mov	BYTE PTR _bitsPerPixelDummy$[ebp], 0
; Line 206
	mov	esi, esp
	lea	eax, DWORD PTR _bitsPerPixelDummy$[ebp]
	push	eax
	lea	ecx, DWORD PTR _dummyPixelDataPointer$[ebp]
	push	ecx
	movzx	edx, WORD PTR _unicode$[ebp]
	push	edx
	mov	eax, DWORD PTR _this$[ebp]
	mov	edx, DWORD PTR [eax]
	mov	ecx, DWORD PTR _this$[ebp]
	mov	eax, DWORD PTR [edx+8]
	call	eax
	cmp	esi, esp
	call	__RTC_CheckEsp
	mov	DWORD PTR _glyph$[ebp], eax
; Line 207
	mov	eax, DWORD PTR _glyph$[ebp]
$LN1@getGlyph:
; Line 208
	push	edx
	mov	ecx, ebp
	push	eax
	lea	edx, DWORD PTR $LN7@getGlyph
	call	@_RTC_CheckStackVars@8
	pop	eax
	pop	edx
	pop	edi
	pop	esi
	pop	ebx
	add	esp, 240				; 000000f0H
	cmp	ebp, esp
	call	__RTC_CheckEsp
	mov	esp, ebp
	pop	ebp
	ret	4
	npad	3
$LN7@getGlyph:
	DD	2
	DD	$LN6@getGlyph
$LN6@getGlyph:
	DD	-20					; ffffffecH
	DD	4
	DD	$LN4@getGlyph
	DD	-29					; ffffffe3H
	DD	1
	DD	$LN5@getGlyph
$LN5@getGlyph:
	DB	98					; 00000062H
	DB	105					; 00000069H
	DB	116					; 00000074H
	DB	115					; 00000073H
	DB	80					; 00000050H
	DB	101					; 00000065H
	DB	114					; 00000072H
	DB	80					; 00000050H
	DB	105					; 00000069H
	DB	120					; 00000078H
	DB	101					; 00000065H
	DB	108					; 0000006cH
	DB	68					; 00000044H
	DB	117					; 00000075H
	DB	109					; 0000006dH
	DB	109					; 0000006dH
	DB	121					; 00000079H
	DB	0
$LN4@getGlyph:
	DB	100					; 00000064H
	DB	117					; 00000075H
	DB	109					; 0000006dH
	DB	109					; 0000006dH
	DB	121					; 00000079H
	DB	80					; 00000050H
	DB	105					; 00000069H
	DB	120					; 00000078H
	DB	101					; 00000065H
	DB	108					; 0000006cH
	DB	68					; 00000044H
	DB	97					; 00000061H
	DB	116					; 00000074H
	DB	97					; 00000061H
	DB	80					; 00000050H
	DB	111					; 0000006fH
	DB	105					; 00000069H
	DB	110					; 0000006eH
	DB	116					; 00000074H
	DB	101					; 00000065H
	DB	114					; 00000072H
	DB	0
?getGlyph@Font@touchgfx@@UBEPBUGlyphNode@2@G@Z ENDP	; touchgfx::Font::getGlyph
_TEXT	ENDS
; Function compile flags: /Odtp /RTCsu /ZI
;	COMDAT ??1Font@touchgfx@@UAE@XZ
_TEXT	SEGMENT
_this$ = -8						; size = 4
??1Font@touchgfx@@UAE@XZ PROC				; touchgfx::Font::~Font, COMDAT
; _this$ = ecx
; File G:\Germany\Scanner\Firmware\Display_Board\Middlewares\ST\touchgfx\framework\include\touchgfx\Font.hpp
; Line 168
	push	ebp
	mov	ebp, esp
	sub	esp, 204				; 000000ccH
	push	ebx
	push	esi
	push	edi
	push	ecx
	lea	edi, DWORD PTR [ebp-12]
	mov	ecx, 3
	mov	eax, -858993460				; ccccccccH
	rep stosd
	pop	ecx
	mov	DWORD PTR _this$[ebp], ecx
	mov	ecx, OFFSET __6F04AFDB_Font@hpp
	call	@__CheckForDebuggerJustMyCode@4
	mov	eax, DWORD PTR _this$[ebp]
	mov	DWORD PTR [eax], OFFSET ??_7Font@touchgfx@@6B@
; Line 169
	pop	edi
	pop	esi
	pop	ebx
	add	esp, 204				; 000000ccH
	cmp	ebp, esp
	call	__RTC_CheckEsp
	mov	esp, ebp
	pop	ebp
	ret	0
??1Font@touchgfx@@UAE@XZ ENDP				; touchgfx::Font::~Font
_TEXT	ENDS
END
