; Listing generated by Microsoft (R) Optimizing Compiler Version 19.29.30037.0 

	TITLE	G:\Germany\Scanner\Firmware\Display_Board\TouchGFX\build\Debug\obj\Table_arialbd_30_4bpp.obj
	.686P
	.XMM
	include listing.inc
	.model	flat

INCLUDELIB MSVCRTD
INCLUDELIB OLDNAMES

PUBLIC	?glyphs_arialbd_30_4bpp@@3QBUGlyphNode@touchgfx@@B ; glyphs_arialbd_30_4bpp
PUBLIC	?unicodes_arialbd_30_4bpp@@3QBQBEB		; unicodes_arialbd_30_4bpp
PUBLIC	?arialbd_contextualFormsTable@@3UFontContextualFormsTable@touchgfx@@B ; arialbd_contextualFormsTable
EXTRN	?unicodes_arialbd_30_4bpp_0@@3QBEB:BYTE		; unicodes_arialbd_30_4bpp_0
msvcjmc	SEGMENT
__EBE8CD87_Types@hpp DB 01H
__4A756E09_Unicode@hpp DB 01H
__6F04AFDB_Font@hpp DB 01H
__273908D5_ConstFont@hpp DB 01H
__3F3F6DE8_GeneratedFont@hpp DB 01H
__A7170B9E_Table_arialbd_30_4bpp@cpp DB 01H
msvcjmc	ENDS
CONST	SEGMENT
?glyphs_arialbd_30_4bpp@@3QBUGlyphNode@touchgfx@@B DD 00H ; glyphs_arialbd_30_4bpp
	DW	025H
	DB	019H
	DB	016H
	DB	016H
	DB	01H
	DB	01bH
	DB	00H
	DB	00H
	DB	00H
	DD	011eH
	DW	02eH
	DB	05H
	DB	05H
	DB	05H
	DB	02H
	DB	08H
	DB	00H
	DB	0aH
	DB	00H
	DD	012dH
	DW	030H
	DB	0fH
	DB	016H
	DB	016H
	DB	01H
	DB	011H
	DB	00H
	DB	00H
	DB	00H
	DD	01ddH
	DW	031H
	DB	0aH
	DB	016H
	DB	016H
	DB	02H
	DB	011H
	DB	0aH
	DB	01H
	DB	00H
	DD	024bH
	DW	032H
	DB	010H
	DB	016H
	DB	016H
	DB	00H
	DB	011H
	DB	00H
	DB	00H
	DB	00H
	DD	02fbH
	DW	033H
	DB	0fH
	DB	016H
	DB	016H
	DB	01H
	DB	011H
	DB	00H
	DB	00H
	DB	00H
	DD	03abH
	DW	034H
	DB	010H
	DB	016H
	DB	016H
	DB	00H
	DB	011H
	DB	00H
	DB	00H
	DB	00H
	DD	045bH
	DW	035H
	DB	0fH
	DB	016H
	DB	016H
	DB	01H
	DB	011H
	DB	00H
	DB	00H
	DB	00H
	DD	050bH
	DW	036H
	DB	0fH
	DB	016H
	DB	016H
	DB	01H
	DB	011H
	DB	00H
	DB	00H
	DB	00H
	DD	05bbH
	DW	037H
	DB	0fH
	DB	016H
	DB	016H
	DB	01H
	DB	011H
	DB	00H
	DB	00H
	DB	00H
	DD	066bH
	DW	038H
	DB	0fH
	DB	016H
	DB	016H
	DB	01H
	DB	011H
	DB	00H
	DB	00H
	DB	00H
	DD	071bH
	DW	039H
	DB	0fH
	DB	016H
	DB	016H
	DB	01H
	DB	011H
	DB	00H
	DB	00H
	DB	00H
	DD	07cbH
	DW	03fH
	DB	010H
	DB	016H
	DB	016H
	DB	01H
	DB	012H
	DB	00H
	DB	00H
	DB	00H
	DD	087bH
	DW	041H
	DB	016H
	DB	016H
	DB	016H
	DB	00H
	DB	016H
	DB	0bH
	DB	06H
	DB	00H
	DD	096dH
	DW	042H
	DB	013H
	DB	016H
	DB	016H
	DB	02H
	DB	016H
	DB	00H
	DB	00H
	DB	00H
	DD	0a49H
	DW	043H
	DB	013H
	DB	016H
	DB	016H
	DB	01H
	DB	016H
	DB	00H
	DB	00H
	DB	00H
	DD	0b25H
	DW	044H
	DB	013H
	DB	016H
	DB	016H
	DB	02H
	DB	016H
	DB	00H
	DB	00H
	DB	00H
	DD	0c01H
	DW	045H
	DB	011H
	DB	016H
	DB	016H
	DB	02H
	DB	014H
	DB	00H
	DB	00H
	DB	00H
	DD	0cc7H
	DW	046H
	DB	0fH
	DB	016H
	DB	016H
	DB	02H
	DB	012H
	DB	00H
	DB	00H
	DB	00H
	DD	0d77H
	DW	047H
	DB	015H
	DB	016H
	DB	016H
	DB	01H
	DB	017H
	DB	00H
	DB	00H
	DB	00H
	DD	0e69H
	DW	048H
	DB	012H
	DB	016H
	DB	016H
	DB	02H
	DB	016H
	DB	00H
	DB	00H
	DB	00H
	DD	0f2fH
	DW	049H
	DB	05H
	DB	016H
	DB	016H
	DB	02H
	DB	08H
	DB	00H
	DB	00H
	DB	00H
	DD	0f71H
	DW	04aH
	DB	0fH
	DB	016H
	DB	016H
	DB	00H
	DB	011H
	DB	00H
	DB	00H
	DB	00H
	DD	01021H
	DW	04bH
	DB	014H
	DB	016H
	DB	016H
	DB	02H
	DB	016H
	DB	00H
	DB	00H
	DB	00H
	DD	010fdH
	DW	04cH
	DB	010H
	DB	016H
	DB	016H
	DB	02H
	DB	012H
	DB	00H
	DB	00H
	DB	00H
	DD	011adH
	DW	04dH
	DB	015H
	DB	016H
	DB	016H
	DB	02H
	DB	019H
	DB	00H
	DB	00H
	DB	00H
	DD	0129fH
	DW	04eH
	DB	012H
	DB	016H
	DB	016H
	DB	02H
	DB	016H
	DB	00H
	DB	00H
	DB	00H
	DD	01365H
	DW	04fH
	DB	016H
	DB	016H
	DB	016H
	DB	01H
	DB	017H
	DB	011H
	DB	01H
	DB	00H
	DD	01457H
	DW	050H
	DB	011H
	DB	016H
	DB	016H
	DB	02H
	DB	014H
	DB	00H
	DB	00H
	DB	00H
	DD	0151dH
	DW	051H
	DB	016H
	DB	018H
	DB	016H
	DB	01H
	DB	017H
	DB	00H
	DB	00H
	DB	00H
	DD	01625H
	DW	052H
	DB	014H
	DB	016H
	DB	016H
	DB	02H
	DB	016H
	DB	00H
	DB	00H
	DB	00H
	DD	01701H
	DW	053H
	DB	012H
	DB	016H
	DB	016H
	DB	01H
	DB	014H
	DB	00H
	DB	00H
	DB	00H
	DD	017c7H
	DW	054H
	DB	012H
	DB	016H
	DB	016H
	DB	00H
	DB	012H
	DB	012H
	DB	02H
	DB	00H
	DD	0188dH
	DW	055H
	DB	012H
	DB	016H
	DB	016H
	DB	02H
	DB	016H
	DB	00H
	DB	00H
	DB	00H
	DD	01953H
	DW	056H
	DB	014H
	DB	016H
	DB	016H
	DB	00H
	DB	014H
	DB	014H
	DB	03H
	DB	00H
	DD	01a2fH
	DW	057H
	DB	01dH
	DB	016H
	DB	016H
	DB	00H
	DB	01cH
	DB	017H
	DB	03H
	DB	00H
	DD	01b79H
	DW	058H
	DB	014H
	DB	016H
	DB	016H
	DB	00H
	DB	014H
	DB	00H
	DB	00H
	DB	00H
	DD	01c55H
	DW	059H
	DB	014H
	DB	016H
	DB	016H
	DB	00H
	DB	014H
	DB	01aH
	DB	03H
	DB	00H
	DD	01d31H
	DW	05aH
	DB	012H
	DB	016H
	DB	016H
	DB	00H
	DB	012H
	DB	00H
	DB	00H
	DB	00H
	DD	01df7H
	DW	061H
	DB	0fH
	DB	010H
	DB	010H
	DB	01H
	DB	011H
	DB	01dH
	DB	04H
	DB	00H
	DD	01e77H
	DW	062H
	DB	010H
	DB	016H
	DB	016H
	DB	02H
	DB	012H
	DB	00H
	DB	00H
	DB	00H
	DD	01f27H
	DW	063H
	DB	0fH
	DB	010H
	DB	010H
	DB	01H
	DB	011H
	DB	021H
	DB	01H
	DB	00H
	DD	01fa7H
	DW	064H
	DB	010H
	DB	016H
	DB	016H
	DB	01H
	DB	012H
	DB	00H
	DB	00H
	DB	00H
	DD	02057H
	DW	065H
	DB	0fH
	DB	010H
	DB	010H
	DB	01H
	DB	011H
	DB	022H
	DB	04H
	DB	00H
	DD	020d7H
	DW	066H
	DB	0bH
	DB	016H
	DB	016H
	DB	00H
	DB	0aH
	DB	00H
	DB	00H
	DB	00H
	DD	0215bH
	DW	067H
	DB	010H
	DB	016H
	DB	010H
	DB	01H
	DB	012H
	DB	00H
	DB	00H
	DB	00H
	DD	0220bH
	DW	068H
	DB	0fH
	DB	016H
	DB	016H
	DB	02H
	DB	012H
	DB	00H
	DB	00H
	DB	00H
	DD	022bbH
	DW	069H
	DB	05H
	DB	016H
	DB	016H
	DB	02H
	DB	08H
	DB	026H
	DB	03H
	DB	00H
	DD	022fdH
	DW	06aH
	DB	09H
	DB	01cH
	DB	016H
	DB	0feH
	DB	08H
	DB	00H
	DB	00H
	DB	00H
	DD	02389H
	DW	06bH
	DB	0fH
	DB	016H
	DB	016H
	DB	02H
	DB	011H
	DB	00H
	DB	00H
	DB	00H
	DD	02439H
	DW	06cH
	DB	05H
	DB	016H
	DB	016H
	DB	02H
	DB	08H
	DB	00H
	DB	00H
	DB	00H
	DD	0247bH
	DW	06dH
	DB	018H
	DB	010H
	DB	010H
	DB	01H
	DB	01bH
	DB	00H
	DB	00H
	DB	00H
	DD	0253bH
	DW	06eH
	DB	0fH
	DB	010H
	DB	010H
	DB	02H
	DB	012H
	DB	00H
	DB	00H
	DB	00H
	DD	025bbH
	DW	06fH
	DB	011H
	DB	010H
	DB	010H
	DB	01H
	DB	012H
	DB	029H
	DB	04H
	DB	00H
	DD	0264bH
	DW	070H
	DB	010H
	DB	016H
	DB	010H
	DB	02H
	DB	012H
	DB	02dH
	DB	01H
	DB	00H
	DD	026fbH
	DW	071H
	DB	010H
	DB	016H
	DB	010H
	DB	01H
	DB	012H
	DB	02eH
	DB	01H
	DB	00H
	DD	027abH
	DW	072H
	DB	0aH
	DB	010H
	DB	010H
	DB	02H
	DB	0cH
	DB	02fH
	DB	03H
	DB	00H
	DD	027fbH
	DW	073H
	DB	010H
	DB	010H
	DB	010H
	DB	00H
	DB	011H
	DB	032H
	DB	01H
	DB	00H
	DD	0287bH
	DW	074H
	DB	0aH
	DB	016H
	DB	016H
	DB	00H
	DB	0aH
	DB	00H
	DB	00H
	DB	00H
	DD	028e9H
	DW	075H
	DB	0fH
	DB	010H
	DB	010H
	DB	02H
	DB	012H
	DB	033H
	DB	04H
	DB	00H
	DD	02969H
	DW	076H
	DB	011H
	DB	010H
	DB	010H
	DB	00H
	DB	011H
	DB	037H
	DB	02H
	DB	00H
	DD	029f9H
	DW	077H
	DB	018H
	DB	010H
	DB	010H
	DB	00H
	DB	017H
	DB	039H
	DB	02H
	DB	00H
	DD	02ab9H
	DW	078H
	DB	011H
	DB	010H
	DB	010H
	DB	00H
	DB	011H
	DB	00H
	DB	00H
	DB	00H
	DD	02b49H
	DW	079H
	DB	011H
	DB	016H
	DB	010H
	DB	00H
	DB	011H
	DB	03bH
	DB	05H
	DB	00H
	DD	02c0fH
	DW	07aH
	DB	0fH
	DB	010H
	DB	010H
	DB	00H
	DB	0fH
	DB	00H
	DB	00H
	DB	00H
	ORG $+2
?unicodes_arialbd_30_4bpp@@3QBQBEB DD FLAT:?unicodes_arialbd_30_4bpp_0@@3QBEB ; unicodes_arialbd_30_4bpp
?contextualForms4Long@@3QAY04$$CBGA DW 02edH		; contextualForms4Long
	DW	0fdf2H
	DW	0644H
	DW	00H
	DW	00H
	DW	0233dH
	DW	0fdfcH
	DW	06ccH
	DW	00H
	DW	00H
	DW	06c66H
	DW	0fdf4H
	DW	062dH
	DW	00H
	DW	00H
	ORG $+2
?contextualForms3Long@@3QAY04$$CBGA DW 08901H		; contextualForms3Long
	DW	00H
	DW	00H
	DW	00H
	DW	0fcf2H
	DW	08927H
	DW	00H
	DW	00H
	DW	00H
	DW	0fcf3H
	DW	0894dH
	DW	00H
	DW	00H
	DW	00H
	DW	0fcf4H
	ORG $+6
?contextualForms2Long@@3QAY04$$CBGA DW 02627H		; contextualForms2Long
	DW	0fbeaH
	DW	0fbebH
	DW	00H
	DW	00H
	DW	02648H
	DW	0fbeeH
	DW	0fbefH
	DW	00H
	DW	00H
	DW	02649H
	DW	00H
	DW	00H
	DW	0fbfbH
	DW	00H
	DW	026c6H
	DW	0fbf2H
	DW	0fbf3H
	DW	00H
	DW	00H
	DW	026c7H
	DW	0fbf0H
	DW	0fbf1H
	DW	00H
	DW	00H
	DW	026c8H
	DW	0fbf4H
	DW	0fbf5H
	DW	00H
	DW	00H
	DW	026d0H
	DW	0fbf6H
	DW	0fbf7H
	DW	0fbf8H
	DW	00H
	DW	026d5H
	DW	0fbecH
	DW	0fbedH
	DW	00H
	DW	00H
	DW	0274bH
	DW	0fd3dH
	DW	0fd3cH
	DW	00H
	DW	00H
	DW	0404bH
	DW	00H
	DW	00H
	DW	00H
	DW	0fe71H
	DW	0404eH
	DW	00H
	DW	00H
	DW	00H
	DW	0fe77H
	DW	0404fH
	DW	00H
	DW	00H
	DW	00H
	DW	0fe79H
	DW	04050H
	DW	00H
	DW	00H
	DW	00H
	DW	0fe7bH
	DW	04051H
	DW	00H
	DW	00H
	DW	00H
	DW	0fe7dH
	DW	04052H
	DW	00H
	DW	00H
	DW	00H
	DW	0fe7fH
	DW	04422H
	DW	0fef5H
	DW	0fef6H
	DW	00H
	DW	00H
	DW	04423H
	DW	0fef7H
	DW	0fef8H
	DW	00H
	DW	00H
	DW	04425H
	DW	0fef9H
	DW	0fefaH
	DW	00H
	DW	00H
	DW	04427H
	DW	0fefbH
	DW	0fefcH
	DW	00H
	DW	00H
	ORG $+2
?contextualForms0621_063a@@3QAY03$$CBGA DW 0fe80H	; contextualForms0621_063a
	DW	00H
	DW	00H
	DW	00H
	DW	0fe81H
	DW	0fe82H
	DW	00H
	DW	00H
	DW	0fe83H
	DW	0fe84H
	DW	00H
	DW	00H
	DW	0fe85H
	DW	0fe86H
	DW	00H
	DW	00H
	DW	0fe87H
	DW	0fe88H
	DW	00H
	DW	00H
	DW	0fe89H
	DW	0fe8aH
	DW	0fe8bH
	DW	0fe8cH
	DW	0fe8dH
	DW	0fe8eH
	DW	00H
	DW	00H
	DW	0fe8fH
	DW	0fe90H
	DW	0fe91H
	DW	0fe92H
	DW	0fe93H
	DW	0fe94H
	DW	00H
	DW	00H
	DW	0fe95H
	DW	0fe96H
	DW	0fe97H
	DW	0fe98H
	DW	0fe99H
	DW	0fe9aH
	DW	0fe9bH
	DW	0fe9cH
	DW	0fe9dH
	DW	0fe9eH
	DW	0fe9fH
	DW	0fea0H
	DW	0fea1H
	DW	0fea2H
	DW	0fea3H
	DW	0fea4H
	DW	0fea5H
	DW	0fea6H
	DW	0fea7H
	DW	0fea8H
	DW	0fea9H
	DW	0feaaH
	DW	00H
	DW	00H
	DW	0feabH
	DW	0feacH
	DW	00H
	DW	00H
	DW	0feadH
	DW	0feaeH
	DW	00H
	DW	00H
	DW	0feafH
	DW	0feb0H
	DW	00H
	DW	00H
	DW	0feb1H
	DW	0feb2H
	DW	0feb3H
	DW	0feb4H
	DW	0feb5H
	DW	0feb6H
	DW	0feb7H
	DW	0feb8H
	DW	0feb9H
	DW	0febaH
	DW	0febbH
	DW	0febcH
	DW	0febdH
	DW	0febeH
	DW	0febfH
	DW	0fec0H
	DW	0fec1H
	DW	0fec2H
	DW	0fec3H
	DW	0fec4H
	DW	0fec5H
	DW	0fec6H
	DW	0fec7H
	DW	0fec8H
	DW	0fec9H
	DW	0fecaH
	DW	0fecbH
	DW	0feccH
	DW	0fecdH
	DW	0feceH
	DW	0fecfH
	DW	0fed0H
?contextualForms0641_064a@@3QAY03$$CBGA DW 0fed1H	; contextualForms0641_064a
	DW	0fed2H
	DW	0fed3H
	DW	0fed4H
	DW	0fed5H
	DW	0fed6H
	DW	0fed7H
	DW	0fed8H
	DW	0fed9H
	DW	0fedaH
	DW	0fedbH
	DW	0fedcH
	DW	0feddH
	DW	0fedeH
	DW	0fedfH
	DW	0fee0H
	DW	0fee1H
	DW	0fee2H
	DW	0fee3H
	DW	0fee4H
	DW	0fee5H
	DW	0fee6H
	DW	0fee7H
	DW	0fee8H
	DW	0fee9H
	DW	0feeaH
	DW	0feebH
	DW	0feecH
	DW	0feedH
	DW	0feeeH
	DW	00H
	DW	00H
	DW	0feefH
	DW	0fef0H
	DW	0fbe8H
	DW	0fbe9H
	DW	0fef1H
	DW	0fef2H
	DW	0fef3H
	DW	0fef4H
?contextualForms06XX@@3QAY04$$CBGA DW 0671H		; contextualForms06XX
	DW	0fb50H
	DW	0fb51H
	DW	00H
	DW	00H
	DW	0677H
	DW	0fbddH
	DW	00H
	DW	00H
	DW	00H
	DW	0679H
	DW	0fb66H
	DW	0fb67H
	DW	0fb68H
	DW	0fb69H
	DW	067aH
	DW	0fb5eH
	DW	0fb5fH
	DW	0fb60H
	DW	0fb61H
	DW	067bH
	DW	0fb52H
	DW	0fb53H
	DW	0fb54H
	DW	0fb55H
	DW	067eH
	DW	0fb56H
	DW	0fb57H
	DW	0fb58H
	DW	0fb59H
	DW	067fH
	DW	0fb62H
	DW	0fb63H
	DW	0fb64H
	DW	0fb65H
	DW	0680H
	DW	0fb5aH
	DW	0fb5bH
	DW	0fb5cH
	DW	0fb5dH
	DW	0683H
	DW	0fb76H
	DW	0fb77H
	DW	0fb78H
	DW	0fb79H
	DW	0684H
	DW	0fb72H
	DW	0fb73H
	DW	0fb74H
	DW	0fb75H
	DW	0686H
	DW	0fb7aH
	DW	0fb7bH
	DW	0fb7cH
	DW	0fb7dH
	DW	0687H
	DW	0fb7eH
	DW	0fb7fH
	DW	0fb80H
	DW	0fb81H
	DW	0688H
	DW	0fb88H
	DW	0fb89H
	DW	00H
	DW	00H
	DW	068cH
	DW	0fb84H
	DW	0fb85H
	DW	00H
	DW	00H
	DW	068dH
	DW	0fb82H
	DW	0fb83H
	DW	00H
	DW	00H
	DW	068eH
	DW	0fb86H
	DW	0fb87H
	DW	00H
	DW	00H
	DW	0691H
	DW	0fb8cH
	DW	0fb8dH
	DW	00H
	DW	00H
	DW	0698H
	DW	0fb8aH
	DW	0fb8bH
	DW	00H
	DW	00H
	DW	06a4H
	DW	0fb6aH
	DW	0fb6bH
	DW	0fb6cH
	DW	0fb6dH
	DW	06a6H
	DW	0fb6eH
	DW	0fb6fH
	DW	0fb70H
	DW	0fb71H
	DW	06a9H
	DW	0fb8eH
	DW	0fb8fH
	DW	0fb90H
	DW	0fb91H
	DW	06adH
	DW	0fbd3H
	DW	0fbd4H
	DW	0fbd5H
	DW	0fbd6H
	DW	06afH
	DW	0fb92H
	DW	0fb93H
	DW	0fb94H
	DW	0fb95H
	DW	06b1H
	DW	0fb9aH
	DW	0fb9bH
	DW	0fb9cH
	DW	0fb9dH
	DW	06b3H
	DW	0fb96H
	DW	0fb97H
	DW	0fb98H
	DW	0fb99H
	DW	06baH
	DW	0fb9eH
	DW	0fb9fH
	DW	00H
	DW	00H
	DW	06bbH
	DW	0fba0H
	DW	0fba1H
	DW	0fba2H
	DW	0fba3H
	DW	06beH
	DW	0fbaaH
	DW	0fbabH
	DW	0fbacH
	DW	0fbadH
	DW	06c0H
	DW	0fba4H
	DW	0fba5H
	DW	00H
	DW	00H
	DW	06c1H
	DW	0fba6H
	DW	0fba7H
	DW	0fba8H
	DW	0fba9H
	DW	06c5H
	DW	0fbe0H
	DW	0fbe1H
	DW	00H
	DW	00H
	DW	06c6H
	DW	0fbd9H
	DW	0fbdaH
	DW	00H
	DW	00H
	DW	06c7H
	DW	0fbd7H
	DW	0fbd8H
	DW	00H
	DW	00H
	DW	06c8H
	DW	0fbdbH
	DW	0fbdcH
	DW	00H
	DW	00H
	DW	06c9H
	DW	0fbe2H
	DW	0fbe3H
	DW	00H
	DW	00H
	DW	06cbH
	DW	0fbdeH
	DW	0fbdfH
	DW	00H
	DW	00H
	DW	06ccH
	DW	0fbfcH
	DW	0fbfdH
	DW	0fbfeH
	DW	0fbffH
	DW	06d0H
	DW	0fbe4H
	DW	0fbe5H
	DW	0fbe6H
	DW	0fbe7H
	DW	06d2H
	DW	0fbaeH
	DW	0fbafH
	DW	00H
	DW	00H
	DW	06d3H
	DW	0fbb0H
	DW	0fbb1H
	DW	00H
	DW	00H
?arialbd_contextualFormsTable@@3UFontContextualFormsTable@touchgfx@@B DD FLAT:?contextualForms4Long@@3QAY04$$CBGA ; arialbd_contextualFormsTable
	DD	FLAT:?contextualForms3Long@@3QAY04$$CBGA
	DD	FLAT:?contextualForms2Long@@3QAY04$$CBGA
	DD	FLAT:?contextualForms0621_063a@@3QAY03$$CBGA
	DD	FLAT:?contextualForms0641_064a@@3QAY03$$CBGA
	DD	FLAT:?contextualForms06XX@@3QAY04$$CBGA
	DW	03H
	DW	03H
	DW	013H
	DW	028H
CONST	ENDS
PUBLIC	??1Font@touchgfx@@UAE@XZ			; touchgfx::Font::~Font
PUBLIC	?getGlyph@Font@touchgfx@@UBEPBUGlyphNode@2@G@Z	; touchgfx::Font::getGlyph
PUBLIC	?getFallbackChar@Font@touchgfx@@UBEGXZ		; touchgfx::Font::getFallbackChar
PUBLIC	?getEllipsisChar@Font@touchgfx@@UBEGXZ		; touchgfx::Font::getEllipsisChar
PUBLIC	?getFontHeight@Font@touchgfx@@UBEGXZ		; touchgfx::Font::getFontHeight
PUBLIC	?getMinimumTextHeight@Font@touchgfx@@UBEGXZ	; touchgfx::Font::getMinimumTextHeight
PUBLIC	?getBitsPerPixel@Font@touchgfx@@UBEEXZ		; touchgfx::Font::getBitsPerPixel
PUBLIC	?getByteAlignRow@Font@touchgfx@@UBEEXZ		; touchgfx::Font::getByteAlignRow
PUBLIC	?getKerning@Font@touchgfx@@UBECGPBUGlyphNode@2@@Z ; touchgfx::Font::getKerning
PUBLIC	?getGSUBTable@Font@touchgfx@@UBEPBGXZ		; touchgfx::Font::getGSUBTable
PUBLIC	?getContextualFormsTable@Font@touchgfx@@UBEPBUFontContextualFormsTable@2@XZ ; touchgfx::Font::getContextualFormsTable
PUBLIC	??_GFont@touchgfx@@UAEPAXI@Z			; touchgfx::Font::`scalar deleting destructor'
PUBLIC	??1ConstFont@touchgfx@@UAE@XZ			; touchgfx::ConstFont::~ConstFont
PUBLIC	??1GeneratedFont@touchgfx@@UAE@XZ		; touchgfx::GeneratedFont::~GeneratedFont
PUBLIC	?getFont_arialbd_30_4bpp@@YAAAVGeneratedFont@touchgfx@@XZ ; getFont_arialbd_30_4bpp
PUBLIC	__JustMyCode_Default
PUBLIC	??_7Font@touchgfx@@6B@				; touchgfx::Font::`vftable'
PUBLIC	??_R4Font@touchgfx@@6B@				; touchgfx::Font::`RTTI Complete Object Locator'
PUBLIC	??_R0?AVFont@touchgfx@@@8			; touchgfx::Font `RTTI Type Descriptor'
PUBLIC	??_R3Font@touchgfx@@8				; touchgfx::Font::`RTTI Class Hierarchy Descriptor'
PUBLIC	??_R2Font@touchgfx@@8				; touchgfx::Font::`RTTI Base Class Array'
PUBLIC	??_R1A@?0A@EA@Font@touchgfx@@8			; touchgfx::Font::`RTTI Base Class Descriptor at (0,-1,0,64)'
EXTRN	__purecall:PROC
EXTRN	??3@YAXPAXI@Z:PROC				; operator delete
EXTRN	_atexit:PROC
EXTRN	__Init_thread_header:PROC
EXTRN	__Init_thread_abort:PROC
EXTRN	__Init_thread_footer:PROC
EXTRN	?getStringWidth@Font@touchgfx@@UBAGPBGZZ:PROC	; touchgfx::Font::getStringWidth
EXTRN	?getStringWidth@Font@touchgfx@@UBAGEPBGZZ:PROC	; touchgfx::Font::getStringWidth
EXTRN	?getCharWidth@Font@touchgfx@@UBEGG@Z:PROC	; touchgfx::Font::getCharWidth
EXTRN	?getSpacingAbove@Font@touchgfx@@UBAEPBGZZ:PROC	; touchgfx::Font::getSpacingAbove
EXTRN	?getMaxTextHeight@Font@touchgfx@@UBAGPBGZZ:PROC	; touchgfx::Font::getMaxTextHeight
EXTRN	?getNumberOfLines@Font@touchgfx@@UBAGPBGZZ:PROC	; touchgfx::Font::getNumberOfLines
EXTRN	??_EFont@touchgfx@@UAEPAXI@Z:PROC		; touchgfx::Font::`vector deleting destructor'
EXTRN	??0GeneratedFont@touchgfx@@QAE@PBUGlyphNode@1@GGEEEEEPBQBEPBUKerningNode@1@GGQBGPBUFontContextualFormsTable@1@@Z:PROC ; touchgfx::GeneratedFont::GeneratedFont
EXTRN	@_RTC_CheckStackVars@8:PROC
EXTRN	@__CheckForDebuggerJustMyCode@4:PROC
EXTRN	@__security_check_cookie@4:PROC
EXTRN	__RTC_CheckEsp:PROC
EXTRN	__RTC_InitBase:PROC
EXTRN	__RTC_Shutdown:PROC
EXTRN	___CxxFrameHandler3:PROC
EXTRN	__Init_thread_epoch:DWORD
EXTRN	?kerning_arialbd_30_4bpp@@3QBUKerningNode@touchgfx@@B:BYTE ; kerning_arialbd_30_4bpp
EXTRN	??_7type_info@@6B@:QWORD			; type_info::`vftable'
EXTRN	___security_cookie:DWORD
EXTRN	__tls_array:DWORD
EXTRN	__tls_index:DWORD
_BSS	SEGMENT
?arialbd_30_4bpp@?1??getFont_arialbd_30_4bpp@@YAAAVGeneratedFont@touchgfx@@XZ@4V23@A DB 028H DUP (?) ; `getFont_arialbd_30_4bpp'::`2'::arialbd_30_4bpp
?$TSS0@?1??getFont_arialbd_30_4bpp@@YAAAVGeneratedFont@touchgfx@@XZ@4HA DD 01H DUP (?) ; `getFont_arialbd_30_4bpp'::`2'::$TSS0
_BSS	ENDS
;	COMDAT rtc$TMZ
rtc$TMZ	SEGMENT
__RTC_Shutdown.rtc$TMZ DD FLAT:__RTC_Shutdown
rtc$TMZ	ENDS
;	COMDAT rtc$IMZ
rtc$IMZ	SEGMENT
__RTC_InitBase.rtc$IMZ DD FLAT:__RTC_InitBase
rtc$IMZ	ENDS
;	COMDAT ??_R1A@?0A@EA@Font@touchgfx@@8
rdata$r	SEGMENT
??_R1A@?0A@EA@Font@touchgfx@@8 DD FLAT:??_R0?AVFont@touchgfx@@@8 ; touchgfx::Font::`RTTI Base Class Descriptor at (0,-1,0,64)'
	DD	00H
	DD	00H
	DD	0ffffffffH
	DD	00H
	DD	040H
	DD	FLAT:??_R3Font@touchgfx@@8
rdata$r	ENDS
;	COMDAT ??_R2Font@touchgfx@@8
rdata$r	SEGMENT
??_R2Font@touchgfx@@8 DD FLAT:??_R1A@?0A@EA@Font@touchgfx@@8 ; touchgfx::Font::`RTTI Base Class Array'
rdata$r	ENDS
;	COMDAT ??_R3Font@touchgfx@@8
rdata$r	SEGMENT
??_R3Font@touchgfx@@8 DD 00H				; touchgfx::Font::`RTTI Class Hierarchy Descriptor'
	DD	00H
	DD	01H
	DD	FLAT:??_R2Font@touchgfx@@8
rdata$r	ENDS
;	COMDAT ??_R0?AVFont@touchgfx@@@8
data$rs	SEGMENT
??_R0?AVFont@touchgfx@@@8 DD FLAT:??_7type_info@@6B@	; touchgfx::Font `RTTI Type Descriptor'
	DD	00H
	DB	'.?AVFont@touchgfx@@', 00H
data$rs	ENDS
;	COMDAT ??_R4Font@touchgfx@@6B@
rdata$r	SEGMENT
??_R4Font@touchgfx@@6B@ DD 00H				; touchgfx::Font::`RTTI Complete Object Locator'
	DD	00H
	DD	00H
	DD	FLAT:??_R0?AVFont@touchgfx@@@8
	DD	FLAT:??_R3Font@touchgfx@@8
rdata$r	ENDS
;	COMDAT ??_7Font@touchgfx@@6B@
CONST	SEGMENT
??_7Font@touchgfx@@6B@ DD FLAT:??_R4Font@touchgfx@@6B@	; touchgfx::Font::`vftable'
	DD	FLAT:??_EFont@touchgfx@@UAEPAXI@Z
	DD	FLAT:?getGlyph@Font@touchgfx@@UBEPBUGlyphNode@2@G@Z
	DD	FLAT:__purecall
	DD	FLAT:?getFallbackChar@Font@touchgfx@@UBEGXZ
	DD	FLAT:?getEllipsisChar@Font@touchgfx@@UBEGXZ
	DD	FLAT:?getStringWidth@Font@touchgfx@@UBAGEPBGZZ
	DD	FLAT:?getStringWidth@Font@touchgfx@@UBAGPBGZZ
	DD	FLAT:?getCharWidth@Font@touchgfx@@UBEGG@Z
	DD	FLAT:?getSpacingAbove@Font@touchgfx@@UBAEPBGZZ
	DD	FLAT:?getMaxTextHeight@Font@touchgfx@@UBAGPBGZZ
	DD	FLAT:?getFontHeight@Font@touchgfx@@UBEGXZ
	DD	FLAT:?getMinimumTextHeight@Font@touchgfx@@UBEGXZ
	DD	FLAT:?getBitsPerPixel@Font@touchgfx@@UBEEXZ
	DD	FLAT:?getByteAlignRow@Font@touchgfx@@UBEEXZ
	DD	FLAT:?getKerning@Font@touchgfx@@UBECGPBUGlyphNode@2@@Z
	DD	FLAT:?getNumberOfLines@Font@touchgfx@@UBAGPBGZZ
	DD	FLAT:?getGSUBTable@Font@touchgfx@@UBEPBGXZ
	DD	FLAT:?getContextualFormsTable@Font@touchgfx@@UBEPBUFontContextualFormsTable@2@XZ
CONST	ENDS
;	COMDAT xdata$x
xdata$x	SEGMENT
__unwindtable$?getFont_arialbd_30_4bpp@@YAAAVGeneratedFont@touchgfx@@XZ DD 0ffffffffH
	DD	FLAT:__unwindfunclet$?getFont_arialbd_30_4bpp@@YAAAVGeneratedFont@touchgfx@@XZ$0
__ehfuncinfo$?getFont_arialbd_30_4bpp@@YAAAVGeneratedFont@touchgfx@@XZ DD 019930522H
	DD	01H
	DD	FLAT:__unwindtable$?getFont_arialbd_30_4bpp@@YAAAVGeneratedFont@touchgfx@@XZ
	DD	2 DUP(00H)
	DD	2 DUP(00H)
	DD	00H
	DD	01H
xdata$x	ENDS
; Function compile flags: /Odt
;	COMDAT __JustMyCode_Default
_TEXT	SEGMENT
__JustMyCode_Default PROC				; COMDAT
	push	ebp
	mov	ebp, esp
	pop	ebp
	ret	0
__JustMyCode_Default ENDP
_TEXT	ENDS
; Function compile flags: /Odtp /RTCsu /ZI
;	COMDAT ??__Farialbd_30_4bpp@?1??getFont_arialbd_30_4bpp@@YAAAVGeneratedFont@touchgfx@@XZ@YAXXZ
text$yd	SEGMENT
??__Farialbd_30_4bpp@?1??getFont_arialbd_30_4bpp@@YAAAVGeneratedFont@touchgfx@@XZ@YAXXZ PROC ; `getFont_arialbd_30_4bpp'::`2'::`dynamic atexit destructor for 'arialbd_30_4bpp'', COMDAT
	push	ebp
	mov	ebp, esp
	sub	esp, 192				; 000000c0H
	push	ebx
	push	esi
	push	edi
	mov	edi, ebp
	xor	ecx, ecx
	mov	eax, -858993460				; ccccccccH
	rep stosd
	mov	ecx, OFFSET ?arialbd_30_4bpp@?1??getFont_arialbd_30_4bpp@@YAAAVGeneratedFont@touchgfx@@XZ@4V23@A
	call	??1GeneratedFont@touchgfx@@UAE@XZ
	pop	edi
	pop	esi
	pop	ebx
	add	esp, 192				; 000000c0H
	cmp	ebp, esp
	call	__RTC_CheckEsp
	mov	esp, ebp
	pop	ebp
	ret	0
??__Farialbd_30_4bpp@?1??getFont_arialbd_30_4bpp@@YAAAVGeneratedFont@touchgfx@@XZ@YAXXZ ENDP ; `getFont_arialbd_30_4bpp'::`2'::`dynamic atexit destructor for 'arialbd_30_4bpp''
text$yd	ENDS
; Function compile flags: /Odtp /RTCsu /ZI
;	COMDAT ?getFont_arialbd_30_4bpp@@YAAAVGeneratedFont@touchgfx@@XZ
_TEXT	SEGMENT
__$EHRec$ = -12						; size = 12
?getFont_arialbd_30_4bpp@@YAAAVGeneratedFont@touchgfx@@XZ PROC ; getFont_arialbd_30_4bpp, COMDAT
; File G:\Germany\Scanner\Firmware\Display_Board\TouchGFX\generated\fonts\src\Table_arialbd_30_4bpp.cpp
; Line 227
	push	ebp
	mov	ebp, esp
	push	-1
	push	__ehhandler$?getFont_arialbd_30_4bpp@@YAAAVGeneratedFont@touchgfx@@XZ
	mov	eax, DWORD PTR fs:0
	push	eax
	sub	esp, 192				; 000000c0H
	push	ebx
	push	esi
	push	edi
	lea	edi, DWORD PTR [ebp-12]
	xor	ecx, ecx
	mov	eax, -858993460				; ccccccccH
	rep stosd
	mov	eax, DWORD PTR ___security_cookie
	xor	eax, ebp
	push	eax
	lea	eax, DWORD PTR __$EHRec$[ebp]
	mov	DWORD PTR fs:0, eax
	mov	ecx, OFFSET __A7170B9E_Table_arialbd_30_4bpp@cpp
	call	@__CheckForDebuggerJustMyCode@4
; Line 228
	mov	eax, DWORD PTR __tls_index
	mov	ecx, DWORD PTR fs:__tls_array
	mov	edx, DWORD PTR [ecx+eax*4]
	mov	eax, DWORD PTR ?$TSS0@?1??getFont_arialbd_30_4bpp@@YAAAVGeneratedFont@touchgfx@@XZ@4HA
	cmp	eax, DWORD PTR __Init_thread_epoch[edx]
	jle	SHORT $LN2@getFont_ar
	push	OFFSET ?$TSS0@?1??getFont_arialbd_30_4bpp@@YAAAVGeneratedFont@touchgfx@@XZ@4HA
	call	__Init_thread_header
	add	esp, 4
	cmp	DWORD PTR ?$TSS0@?1??getFont_arialbd_30_4bpp@@YAAAVGeneratedFont@touchgfx@@XZ@4HA, -1
	jne	SHORT $LN2@getFont_ar
	mov	DWORD PTR __$EHRec$[ebp+8], 0
	push	OFFSET ?arialbd_contextualFormsTable@@3UFontContextualFormsTable@touchgfx@@B ; arialbd_contextualFormsTable
	push	0
	push	0
	push	63					; 0000003fH
	push	OFFSET ?kerning_arialbd_30_4bpp@@3QBUKerningNode@touchgfx@@B ; kerning_arialbd_30_4bpp
	push	OFFSET ?unicodes_arialbd_30_4bpp@@3QBQBEB ; unicodes_arialbd_30_4bpp
	push	1
	push	2
	push	1
	push	4
	push	6
	push	30					; 0000001eH
	push	65					; 00000041H
	push	OFFSET ?glyphs_arialbd_30_4bpp@@3QBUGlyphNode@touchgfx@@B ; glyphs_arialbd_30_4bpp
	mov	ecx, OFFSET ?arialbd_30_4bpp@?1??getFont_arialbd_30_4bpp@@YAAAVGeneratedFont@touchgfx@@XZ@4V23@A
	call	??0GeneratedFont@touchgfx@@QAE@PBUGlyphNode@1@GGEEEEEPBQBEPBUKerningNode@1@GGQBGPBUFontContextualFormsTable@1@@Z ; touchgfx::GeneratedFont::GeneratedFont
	push	OFFSET ??__Farialbd_30_4bpp@?1??getFont_arialbd_30_4bpp@@YAAAVGeneratedFont@touchgfx@@XZ@YAXXZ ; `getFont_arialbd_30_4bpp'::`2'::`dynamic atexit destructor for 'arialbd_30_4bpp''
	call	_atexit
	add	esp, 4
	mov	DWORD PTR __$EHRec$[ebp+8], -1
	push	OFFSET ?$TSS0@?1??getFont_arialbd_30_4bpp@@YAAAVGeneratedFont@touchgfx@@XZ@4HA
	call	__Init_thread_footer
	add	esp, 4
$LN2@getFont_ar:
; Line 229
	mov	eax, OFFSET ?arialbd_30_4bpp@?1??getFont_arialbd_30_4bpp@@YAAAVGeneratedFont@touchgfx@@XZ@4V23@A
; Line 230
	mov	ecx, DWORD PTR __$EHRec$[ebp]
	mov	DWORD PTR fs:0, ecx
	pop	ecx
	pop	edi
	pop	esi
	pop	ebx
	add	esp, 204				; 000000ccH
	cmp	ebp, esp
	call	__RTC_CheckEsp
	mov	esp, ebp
	pop	ebp
	ret	0
_TEXT	ENDS
;	COMDAT text$x
text$x	SEGMENT
__unwindfunclet$?getFont_arialbd_30_4bpp@@YAAAVGeneratedFont@touchgfx@@XZ$0:
	push	OFFSET ?$TSS0@?1??getFont_arialbd_30_4bpp@@YAAAVGeneratedFont@touchgfx@@XZ@4HA
	call	__Init_thread_abort
	pop	ecx
	ret	0
	int	3
	int	3
	int	3
	int	3
	int	3
__ehhandler$?getFont_arialbd_30_4bpp@@YAAAVGeneratedFont@touchgfx@@XZ:
	npad	1
	npad	1
	mov	edx, DWORD PTR [esp+8]
	lea	eax, DWORD PTR [edx+12]
	mov	ecx, DWORD PTR [edx-208]
	xor	ecx, eax
	call	@__security_check_cookie@4
	mov	eax, OFFSET __ehfuncinfo$?getFont_arialbd_30_4bpp@@YAAAVGeneratedFont@touchgfx@@XZ
	jmp	___CxxFrameHandler3
text$x	ENDS
?getFont_arialbd_30_4bpp@@YAAAVGeneratedFont@touchgfx@@XZ ENDP ; getFont_arialbd_30_4bpp
; Function compile flags: /Odtp /RTCsu /ZI
;	COMDAT ??1GeneratedFont@touchgfx@@UAE@XZ
_TEXT	SEGMENT
_this$ = -8						; size = 4
??1GeneratedFont@touchgfx@@UAE@XZ PROC			; touchgfx::GeneratedFont::~GeneratedFont, COMDAT
; _this$ = ecx
	push	ebp
	mov	ebp, esp
	sub	esp, 204				; 000000ccH
	push	ebx
	push	esi
	push	edi
	push	ecx
	lea	edi, DWORD PTR [ebp-12]
	mov	ecx, 3
	mov	eax, -858993460				; ccccccccH
	rep stosd
	pop	ecx
	mov	DWORD PTR _this$[ebp], ecx
	mov	ecx, DWORD PTR _this$[ebp]
	call	??1ConstFont@touchgfx@@UAE@XZ
	pop	edi
	pop	esi
	pop	ebx
	add	esp, 204				; 000000ccH
	cmp	ebp, esp
	call	__RTC_CheckEsp
	mov	esp, ebp
	pop	ebp
	ret	0
??1GeneratedFont@touchgfx@@UAE@XZ ENDP			; touchgfx::GeneratedFont::~GeneratedFont
_TEXT	ENDS
; Function compile flags: /Odtp /RTCsu /ZI
;	COMDAT ??1ConstFont@touchgfx@@UAE@XZ
_TEXT	SEGMENT
_this$ = -8						; size = 4
??1ConstFont@touchgfx@@UAE@XZ PROC			; touchgfx::ConstFont::~ConstFont, COMDAT
; _this$ = ecx
	push	ebp
	mov	ebp, esp
	sub	esp, 204				; 000000ccH
	push	ebx
	push	esi
	push	edi
	push	ecx
	lea	edi, DWORD PTR [ebp-12]
	mov	ecx, 3
	mov	eax, -858993460				; ccccccccH
	rep stosd
	pop	ecx
	mov	DWORD PTR _this$[ebp], ecx
	mov	ecx, DWORD PTR _this$[ebp]
	call	??1Font@touchgfx@@UAE@XZ		; touchgfx::Font::~Font
	pop	edi
	pop	esi
	pop	ebx
	add	esp, 204				; 000000ccH
	cmp	ebp, esp
	call	__RTC_CheckEsp
	mov	esp, ebp
	pop	ebp
	ret	0
??1ConstFont@touchgfx@@UAE@XZ ENDP			; touchgfx::ConstFont::~ConstFont
_TEXT	ENDS
; Function compile flags: /Odtp /RTCsu /ZI
;	COMDAT ??_GFont@touchgfx@@UAEPAXI@Z
_TEXT	SEGMENT
_this$ = -8						; size = 4
___flags$ = 8						; size = 4
??_GFont@touchgfx@@UAEPAXI@Z PROC			; touchgfx::Font::`scalar deleting destructor', COMDAT
; _this$ = ecx
	push	ebp
	mov	ebp, esp
	sub	esp, 204				; 000000ccH
	push	ebx
	push	esi
	push	edi
	push	ecx
	lea	edi, DWORD PTR [ebp-12]
	mov	ecx, 3
	mov	eax, -858993460				; ccccccccH
	rep stosd
	pop	ecx
	mov	DWORD PTR _this$[ebp], ecx
	mov	ecx, DWORD PTR _this$[ebp]
	call	??1Font@touchgfx@@UAE@XZ		; touchgfx::Font::~Font
	mov	eax, DWORD PTR ___flags$[ebp]
	and	eax, 1
	je	SHORT $LN2@scalar
	push	16					; 00000010H
	mov	eax, DWORD PTR _this$[ebp]
	push	eax
	call	??3@YAXPAXI@Z				; operator delete
	add	esp, 8
$LN2@scalar:
	mov	eax, DWORD PTR _this$[ebp]
	pop	edi
	pop	esi
	pop	ebx
	add	esp, 204				; 000000ccH
	cmp	ebp, esp
	call	__RTC_CheckEsp
	mov	esp, ebp
	pop	ebp
	ret	4
??_GFont@touchgfx@@UAEPAXI@Z ENDP			; touchgfx::Font::`scalar deleting destructor'
_TEXT	ENDS
; Function compile flags: /Odtp /RTCsu /ZI
;	COMDAT ?getContextualFormsTable@Font@touchgfx@@UBEPBUFontContextualFormsTable@2@XZ
_TEXT	SEGMENT
_this$ = -8						; size = 4
?getContextualFormsTable@Font@touchgfx@@UBEPBUFontContextualFormsTable@2@XZ PROC ; touchgfx::Font::getContextualFormsTable, COMDAT
; _this$ = ecx
; File G:\Germany\Scanner\Firmware\Display_Board\Middlewares\ST\touchgfx\framework\include\touchgfx\Font.hpp
; Line 419
	push	ebp
	mov	ebp, esp
	sub	esp, 204				; 000000ccH
	push	ebx
	push	esi
	push	edi
	push	ecx
	lea	edi, DWORD PTR [ebp-12]
	mov	ecx, 3
	mov	eax, -858993460				; ccccccccH
	rep stosd
	pop	ecx
	mov	DWORD PTR _this$[ebp], ecx
	mov	ecx, OFFSET __6F04AFDB_Font@hpp
	call	@__CheckForDebuggerJustMyCode@4
; Line 420
	xor	eax, eax
; Line 421
	pop	edi
	pop	esi
	pop	ebx
	add	esp, 204				; 000000ccH
	cmp	ebp, esp
	call	__RTC_CheckEsp
	mov	esp, ebp
	pop	ebp
	ret	0
?getContextualFormsTable@Font@touchgfx@@UBEPBUFontContextualFormsTable@2@XZ ENDP ; touchgfx::Font::getContextualFormsTable
_TEXT	ENDS
; Function compile flags: /Odtp /RTCsu /ZI
;	COMDAT ?getGSUBTable@Font@touchgfx@@UBEPBGXZ
_TEXT	SEGMENT
_this$ = -8						; size = 4
?getGSUBTable@Font@touchgfx@@UBEPBGXZ PROC		; touchgfx::Font::getGSUBTable, COMDAT
; _this$ = ecx
; File G:\Germany\Scanner\Firmware\Display_Board\Middlewares\ST\touchgfx\framework\include\touchgfx\Font.hpp
; Line 409
	push	ebp
	mov	ebp, esp
	sub	esp, 204				; 000000ccH
	push	ebx
	push	esi
	push	edi
	push	ecx
	lea	edi, DWORD PTR [ebp-12]
	mov	ecx, 3
	mov	eax, -858993460				; ccccccccH
	rep stosd
	pop	ecx
	mov	DWORD PTR _this$[ebp], ecx
	mov	ecx, OFFSET __6F04AFDB_Font@hpp
	call	@__CheckForDebuggerJustMyCode@4
; Line 410
	xor	eax, eax
; Line 411
	pop	edi
	pop	esi
	pop	ebx
	add	esp, 204				; 000000ccH
	cmp	ebp, esp
	call	__RTC_CheckEsp
	mov	esp, ebp
	pop	ebp
	ret	0
?getGSUBTable@Font@touchgfx@@UBEPBGXZ ENDP		; touchgfx::Font::getGSUBTable
_TEXT	ENDS
; Function compile flags: /Odtp /RTCsu /ZI
;	COMDAT ?getKerning@Font@touchgfx@@UBECGPBUGlyphNode@2@@Z
_TEXT	SEGMENT
_this$ = -8						; size = 4
_prevChar$ = 8						; size = 2
_glyph$ = 12						; size = 4
?getKerning@Font@touchgfx@@UBECGPBUGlyphNode@2@@Z PROC	; touchgfx::Font::getKerning, COMDAT
; _this$ = ecx
; File G:\Germany\Scanner\Firmware\Display_Board\Middlewares\ST\touchgfx\framework\include\touchgfx\Font.hpp
; Line 389
	push	ebp
	mov	ebp, esp
	sub	esp, 204				; 000000ccH
	push	ebx
	push	esi
	push	edi
	push	ecx
	lea	edi, DWORD PTR [ebp-12]
	mov	ecx, 3
	mov	eax, -858993460				; ccccccccH
	rep stosd
	pop	ecx
	mov	DWORD PTR _this$[ebp], ecx
	mov	ecx, OFFSET __6F04AFDB_Font@hpp
	call	@__CheckForDebuggerJustMyCode@4
; Line 390
	xor	al, al
; Line 391
	pop	edi
	pop	esi
	pop	ebx
	add	esp, 204				; 000000ccH
	cmp	ebp, esp
	call	__RTC_CheckEsp
	mov	esp, ebp
	pop	ebp
	ret	8
?getKerning@Font@touchgfx@@UBECGPBUGlyphNode@2@@Z ENDP	; touchgfx::Font::getKerning
_TEXT	ENDS
; Function compile flags: /Odtp /RTCsu /ZI
;	COMDAT ?getByteAlignRow@Font@touchgfx@@UBEEXZ
_TEXT	SEGMENT
_this$ = -8						; size = 4
?getByteAlignRow@Font@touchgfx@@UBEEXZ PROC		; touchgfx::Font::getByteAlignRow, COMDAT
; _this$ = ecx
; File G:\Germany\Scanner\Firmware\Display_Board\Middlewares\ST\touchgfx\framework\include\touchgfx\Font.hpp
; Line 352
	push	ebp
	mov	ebp, esp
	sub	esp, 204				; 000000ccH
	push	ebx
	push	esi
	push	edi
	push	ecx
	lea	edi, DWORD PTR [ebp-12]
	mov	ecx, 3
	mov	eax, -858993460				; ccccccccH
	rep stosd
	pop	ecx
	mov	DWORD PTR _this$[ebp], ecx
	mov	ecx, OFFSET __6F04AFDB_Font@hpp
	call	@__CheckForDebuggerJustMyCode@4
; Line 353
	mov	eax, DWORD PTR _this$[ebp]
	mov	al, BYTE PTR [eax+7]
	shr	al, 7
	and	al, 1
; Line 354
	pop	edi
	pop	esi
	pop	ebx
	add	esp, 204				; 000000ccH
	cmp	ebp, esp
	call	__RTC_CheckEsp
	mov	esp, ebp
	pop	ebp
	ret	0
?getByteAlignRow@Font@touchgfx@@UBEEXZ ENDP		; touchgfx::Font::getByteAlignRow
_TEXT	ENDS
; Function compile flags: /Odtp /RTCsu /ZI
;	COMDAT ?getBitsPerPixel@Font@touchgfx@@UBEEXZ
_TEXT	SEGMENT
_this$ = -8						; size = 4
?getBitsPerPixel@Font@touchgfx@@UBEEXZ PROC		; touchgfx::Font::getBitsPerPixel, COMDAT
; _this$ = ecx
; File G:\Germany\Scanner\Firmware\Display_Board\Middlewares\ST\touchgfx\framework\include\touchgfx\Font.hpp
; Line 342
	push	ebp
	mov	ebp, esp
	sub	esp, 204				; 000000ccH
	push	ebx
	push	esi
	push	edi
	push	ecx
	lea	edi, DWORD PTR [ebp-12]
	mov	ecx, 3
	mov	eax, -858993460				; ccccccccH
	rep stosd
	pop	ecx
	mov	DWORD PTR _this$[ebp], ecx
	mov	ecx, OFFSET __6F04AFDB_Font@hpp
	call	@__CheckForDebuggerJustMyCode@4
; Line 343
	mov	eax, DWORD PTR _this$[ebp]
	mov	al, BYTE PTR [eax+7]
	and	al, 127					; 0000007fH
; Line 344
	pop	edi
	pop	esi
	pop	ebx
	add	esp, 204				; 000000ccH
	cmp	ebp, esp
	call	__RTC_CheckEsp
	mov	esp, ebp
	pop	ebp
	ret	0
?getBitsPerPixel@Font@touchgfx@@UBEEXZ ENDP		; touchgfx::Font::getBitsPerPixel
_TEXT	ENDS
; Function compile flags: /Odtp /RTCsu /ZI
;	COMDAT ?getMinimumTextHeight@Font@touchgfx@@UBEGXZ
_TEXT	SEGMENT
_this$ = -8						; size = 4
?getMinimumTextHeight@Font@touchgfx@@UBEGXZ PROC	; touchgfx::Font::getMinimumTextHeight, COMDAT
; _this$ = ecx
; File G:\Germany\Scanner\Firmware\Display_Board\Middlewares\ST\touchgfx\framework\include\touchgfx\Font.hpp
; Line 332
	push	ebp
	mov	ebp, esp
	sub	esp, 204				; 000000ccH
	push	ebx
	push	esi
	push	edi
	push	ecx
	lea	edi, DWORD PTR [ebp-12]
	mov	ecx, 3
	mov	eax, -858993460				; ccccccccH
	rep stosd
	pop	ecx
	mov	DWORD PTR _this$[ebp], ecx
	mov	ecx, OFFSET __6F04AFDB_Font@hpp
	call	@__CheckForDebuggerJustMyCode@4
; Line 333
	mov	eax, DWORD PTR _this$[ebp]
	movzx	eax, WORD PTR [eax+4]
	mov	ecx, DWORD PTR _this$[ebp]
	movzx	edx, BYTE PTR [ecx+6]
	add	eax, edx
; Line 334
	pop	edi
	pop	esi
	pop	ebx
	add	esp, 204				; 000000ccH
	cmp	ebp, esp
	call	__RTC_CheckEsp
	mov	esp, ebp
	pop	ebp
	ret	0
?getMinimumTextHeight@Font@touchgfx@@UBEGXZ ENDP	; touchgfx::Font::getMinimumTextHeight
_TEXT	ENDS
; Function compile flags: /Odtp /RTCsu /ZI
;	COMDAT ?getFontHeight@Font@touchgfx@@UBEGXZ
_TEXT	SEGMENT
_this$ = -8						; size = 4
?getFontHeight@Font@touchgfx@@UBEGXZ PROC		; touchgfx::Font::getFontHeight, COMDAT
; _this$ = ecx
; File G:\Germany\Scanner\Firmware\Display_Board\Middlewares\ST\touchgfx\framework\include\touchgfx\Font.hpp
; Line 320
	push	ebp
	mov	ebp, esp
	sub	esp, 204				; 000000ccH
	push	ebx
	push	esi
	push	edi
	push	ecx
	lea	edi, DWORD PTR [ebp-12]
	mov	ecx, 3
	mov	eax, -858993460				; ccccccccH
	rep stosd
	pop	ecx
	mov	DWORD PTR _this$[ebp], ecx
	mov	ecx, OFFSET __6F04AFDB_Font@hpp
	call	@__CheckForDebuggerJustMyCode@4
; Line 321
	mov	eax, DWORD PTR _this$[ebp]
	mov	ax, WORD PTR [eax+4]
; Line 322
	pop	edi
	pop	esi
	pop	ebx
	add	esp, 204				; 000000ccH
	cmp	ebp, esp
	call	__RTC_CheckEsp
	mov	esp, ebp
	pop	ebp
	ret	0
?getFontHeight@Font@touchgfx@@UBEGXZ ENDP		; touchgfx::Font::getFontHeight
_TEXT	ENDS
; Function compile flags: /Odtp /RTCsu /ZI
;	COMDAT ?getEllipsisChar@Font@touchgfx@@UBEGXZ
_TEXT	SEGMENT
_this$ = -8						; size = 4
?getEllipsisChar@Font@touchgfx@@UBEGXZ PROC		; touchgfx::Font::getEllipsisChar, COMDAT
; _this$ = ecx
; File G:\Germany\Scanner\Firmware\Display_Board\Middlewares\ST\touchgfx\framework\include\touchgfx\Font.hpp
; Line 231
	push	ebp
	mov	ebp, esp
	sub	esp, 204				; 000000ccH
	push	ebx
	push	esi
	push	edi
	push	ecx
	lea	edi, DWORD PTR [ebp-12]
	mov	ecx, 3
	mov	eax, -858993460				; ccccccccH
	rep stosd
	pop	ecx
	mov	DWORD PTR _this$[ebp], ecx
	mov	ecx, OFFSET __6F04AFDB_Font@hpp
	call	@__CheckForDebuggerJustMyCode@4
; Line 232
	mov	eax, DWORD PTR _this$[ebp]
	mov	ax, WORD PTR [eax+12]
; Line 233
	pop	edi
	pop	esi
	pop	ebx
	add	esp, 204				; 000000ccH
	cmp	ebp, esp
	call	__RTC_CheckEsp
	mov	esp, ebp
	pop	ebp
	ret	0
?getEllipsisChar@Font@touchgfx@@UBEGXZ ENDP		; touchgfx::Font::getEllipsisChar
_TEXT	ENDS
; Function compile flags: /Odtp /RTCsu /ZI
;	COMDAT ?getFallbackChar@Font@touchgfx@@UBEGXZ
_TEXT	SEGMENT
_this$ = -8						; size = 4
?getFallbackChar@Font@touchgfx@@UBEGXZ PROC		; touchgfx::Font::getFallbackChar, COMDAT
; _this$ = ecx
; File G:\Germany\Scanner\Firmware\Display_Board\Middlewares\ST\touchgfx\framework\include\touchgfx\Font.hpp
; Line 218
	push	ebp
	mov	ebp, esp
	sub	esp, 204				; 000000ccH
	push	ebx
	push	esi
	push	edi
	push	ecx
	lea	edi, DWORD PTR [ebp-12]
	mov	ecx, 3
	mov	eax, -858993460				; ccccccccH
	rep stosd
	pop	ecx
	mov	DWORD PTR _this$[ebp], ecx
	mov	ecx, OFFSET __6F04AFDB_Font@hpp
	call	@__CheckForDebuggerJustMyCode@4
; Line 219
	mov	eax, DWORD PTR _this$[ebp]
	mov	ax, WORD PTR [eax+10]
; Line 220
	pop	edi
	pop	esi
	pop	ebx
	add	esp, 204				; 000000ccH
	cmp	ebp, esp
	call	__RTC_CheckEsp
	mov	esp, ebp
	pop	ebp
	ret	0
?getFallbackChar@Font@touchgfx@@UBEGXZ ENDP		; touchgfx::Font::getFallbackChar
_TEXT	ENDS
; Function compile flags: /Odtp /RTCsu /ZI
;	COMDAT ?getGlyph@Font@touchgfx@@UBEPBUGlyphNode@2@G@Z
_TEXT	SEGMENT
_glyph$ = -44						; size = 4
_bitsPerPixelDummy$ = -29				; size = 1
_dummyPixelDataPointer$ = -20				; size = 4
_this$ = -8						; size = 4
_unicode$ = 8						; size = 2
?getGlyph@Font@touchgfx@@UBEPBUGlyphNode@2@G@Z PROC	; touchgfx::Font::getGlyph, COMDAT
; _this$ = ecx
; File G:\Germany\Scanner\Firmware\Display_Board\Middlewares\ST\touchgfx\framework\include\touchgfx\Font.hpp
; Line 199
	push	ebp
	mov	ebp, esp
	sub	esp, 240				; 000000f0H
	push	ebx
	push	esi
	push	edi
	push	ecx
	lea	edi, DWORD PTR [ebp-48]
	mov	ecx, 12					; 0000000cH
	mov	eax, -858993460				; ccccccccH
	rep stosd
	pop	ecx
	mov	DWORD PTR _this$[ebp], ecx
	mov	ecx, OFFSET __6F04AFDB_Font@hpp
	call	@__CheckForDebuggerJustMyCode@4
; Line 200
	movzx	eax, WORD PTR _unicode$[ebp]
	test	eax, eax
	jne	SHORT $LN2@getGlyph
; Line 202
	xor	eax, eax
	jmp	SHORT $LN1@getGlyph
$LN2@getGlyph:
; Line 204
	mov	DWORD PTR _dummyPixelDataPointer$[ebp], 0
; Line 205
	mov	BYTE PTR _bitsPerPixelDummy$[ebp], 0
; Line 206
	mov	esi, esp
	lea	eax, DWORD PTR _bitsPerPixelDummy$[ebp]
	push	eax
	lea	ecx, DWORD PTR _dummyPixelDataPointer$[ebp]
	push	ecx
	movzx	edx, WORD PTR _unicode$[ebp]
	push	edx
	mov	eax, DWORD PTR _this$[ebp]
	mov	edx, DWORD PTR [eax]
	mov	ecx, DWORD PTR _this$[ebp]
	mov	eax, DWORD PTR [edx+8]
	call	eax
	cmp	esi, esp
	call	__RTC_CheckEsp
	mov	DWORD PTR _glyph$[ebp], eax
; Line 207
	mov	eax, DWORD PTR _glyph$[ebp]
$LN1@getGlyph:
; Line 208
	push	edx
	mov	ecx, ebp
	push	eax
	lea	edx, DWORD PTR $LN7@getGlyph
	call	@_RTC_CheckStackVars@8
	pop	eax
	pop	edx
	pop	edi
	pop	esi
	pop	ebx
	add	esp, 240				; 000000f0H
	cmp	ebp, esp
	call	__RTC_CheckEsp
	mov	esp, ebp
	pop	ebp
	ret	4
	npad	3
$LN7@getGlyph:
	DD	2
	DD	$LN6@getGlyph
$LN6@getGlyph:
	DD	-20					; ffffffecH
	DD	4
	DD	$LN4@getGlyph
	DD	-29					; ffffffe3H
	DD	1
	DD	$LN5@getGlyph
$LN5@getGlyph:
	DB	98					; 00000062H
	DB	105					; 00000069H
	DB	116					; 00000074H
	DB	115					; 00000073H
	DB	80					; 00000050H
	DB	101					; 00000065H
	DB	114					; 00000072H
	DB	80					; 00000050H
	DB	105					; 00000069H
	DB	120					; 00000078H
	DB	101					; 00000065H
	DB	108					; 0000006cH
	DB	68					; 00000044H
	DB	117					; 00000075H
	DB	109					; 0000006dH
	DB	109					; 0000006dH
	DB	121					; 00000079H
	DB	0
$LN4@getGlyph:
	DB	100					; 00000064H
	DB	117					; 00000075H
	DB	109					; 0000006dH
	DB	109					; 0000006dH
	DB	121					; 00000079H
	DB	80					; 00000050H
	DB	105					; 00000069H
	DB	120					; 00000078H
	DB	101					; 00000065H
	DB	108					; 0000006cH
	DB	68					; 00000044H
	DB	97					; 00000061H
	DB	116					; 00000074H
	DB	97					; 00000061H
	DB	80					; 00000050H
	DB	111					; 0000006fH
	DB	105					; 00000069H
	DB	110					; 0000006eH
	DB	116					; 00000074H
	DB	101					; 00000065H
	DB	114					; 00000072H
	DB	0
?getGlyph@Font@touchgfx@@UBEPBUGlyphNode@2@G@Z ENDP	; touchgfx::Font::getGlyph
_TEXT	ENDS
; Function compile flags: /Odtp /RTCsu /ZI
;	COMDAT ??1Font@touchgfx@@UAE@XZ
_TEXT	SEGMENT
_this$ = -8						; size = 4
??1Font@touchgfx@@UAE@XZ PROC				; touchgfx::Font::~Font, COMDAT
; _this$ = ecx
; File G:\Germany\Scanner\Firmware\Display_Board\Middlewares\ST\touchgfx\framework\include\touchgfx\Font.hpp
; Line 168
	push	ebp
	mov	ebp, esp
	sub	esp, 204				; 000000ccH
	push	ebx
	push	esi
	push	edi
	push	ecx
	lea	edi, DWORD PTR [ebp-12]
	mov	ecx, 3
	mov	eax, -858993460				; ccccccccH
	rep stosd
	pop	ecx
	mov	DWORD PTR _this$[ebp], ecx
	mov	ecx, OFFSET __6F04AFDB_Font@hpp
	call	@__CheckForDebuggerJustMyCode@4
	mov	eax, DWORD PTR _this$[ebp]
	mov	DWORD PTR [eax], OFFSET ??_7Font@touchgfx@@6B@
; Line 169
	pop	edi
	pop	esi
	pop	ebx
	add	esp, 204				; 000000ccH
	cmp	ebp, esp
	call	__RTC_CheckEsp
	mov	esp, ebp
	pop	ebp
	ret	0
??1Font@touchgfx@@UAE@XZ ENDP				; touchgfx::Font::~Font
_TEXT	ENDS
END
