; Listing generated by Microsoft (R) Optimizing Compiler Version 19.29.30037.0 

	TITLE	G:\Germany\Scanner\Firmware\Display_Board\TouchGFX\build\Debug\obj\TypedTextDatabase.obj
	.686P
	.XMM
	include listing.inc
	.model	flat

INCLUDELIB MSVCRTD
INCLUDELIB OLDNAMES

PUBLIC	?typedText_database_DEFAULT@@3QBUTypedTextData@TypedText@touchgfx@@B ; typedText_database_DEFAULT
PUBLIC	?typedTextDatabaseArray@@3QBQBUTypedTextData@TypedText@touchgfx@@B ; typedTextDatabaseArray
msvcjmc	SEGMENT
__EBE8CD87_Types@hpp DB 01H
__4A756E09_Unicode@hpp DB 01H
__6F04AFDB_Font@hpp DB 01H
__3A5A5F57_Texts@hpp DB 01H
__38F934C6_TypedText@hpp DB 01H
__273908D5_ConstFont@hpp DB 01H
__3F3F6DE8_GeneratedFont@hpp DB 01H
__5F1C7250_TypedTextDatabase@cpp DB 01H
msvcjmc	ENDS
CONST	SEGMENT
?typedText_database_DEFAULT@@3QBUTypedTextData@TypedText@touchgfx@@B DB 00H ; typedText_database_DEFAULT
	DB	00H
	DB	00H
	DB	01H
	DB	00H
	DB	01H
	DB	00H
	DB	01H
	DB	00H
	DB	01H
	DB	00H
	DB	01H
	DB	00H
	DB	01H
	DB	00H
	DB	01H
	DB	01H
	DB	00H
	DB	00H
	DB	01H
	DB	00H
	DB	01H
	DB	01H
	DB	00H
	DB	00H
	DB	01H
	DB	01H
	DB	01H
	DB	01H
	DB	01H
	DB	00H
	DB	01H
	DB	00H
	DB	01H
	DB	00H
	DB	01H
	DB	00H
	DB	01H
	DB	00H
	DB	01H
	DB	00H
	DB	01H
	DB	05H
	DB	00H
	DB	01H
	DB	01H
	DB	01H
	DB	00H
	DB	00H
	DB	01H
	DB	00H
	DB	01H
	DB	00H
	DB	01H
	DB	06H
	DB	00H
	DB	06H
	DB	00H
	DB	05H
	DB	00H
	DB	01H
	DB	00H
	DB	03H
	DB	01H
	DB	03H
	DB	01H
	DB	04H
	DB	00H
	DB	00H
	DB	01H
	DB	00H
	DB	01H
	DB	00H
	DB	01H
	DB	01H
	DB	00H
	DB	01H
	DB	00H
	DB	01H
	DB	01H
	DB	01H
	DB	00H
	DB	01H
	DB	00H
	DB	01H
	DB	00H
	DB	01H
	DB	00H
	DB	05H
	DB	00H
	DB	01H
	DB	00H
	DB	01H
	DB	00H
	DB	07H
	DB	01H
	DB	07H
	DB	00H
	ORG $+2
?typedTextDatabaseArray@@3QBQBUTypedTextData@TypedText@touchgfx@@B DD FLAT:?typedText_database_DEFAULT@@3QBUTypedTextData@TypedText@touchgfx@@B ; typedTextDatabaseArray
CONST	ENDS
PUBLIC	?getInstance@TypedTextDatabase@@YAPBUTypedTextData@TypedText@touchgfx@@G@Z ; TypedTextDatabase::getInstance
PUBLIC	?getFonts@TypedTextDatabase@@YAPAPBVFont@touchgfx@@XZ ; TypedTextDatabase::getFonts
PUBLIC	?setFont@TypedTextDatabase@@YAPBVFont@touchgfx@@GPBV23@@Z ; TypedTextDatabase::setFont
PUBLIC	?resetFont@TypedTextDatabase@@YAXG@Z		; TypedTextDatabase::resetFont
PUBLIC	?getInstanceSize@TypedTextDatabase@@YAGXZ	; TypedTextDatabase::getInstanceSize
PUBLIC	__JustMyCode_Default
PUBLIC	?touchgfx_fonts@@3PAPBVFont@touchgfx@@A		; touchgfx_fonts
EXTRN	?getFont_calibri_20_4bpp@@YAAAVGeneratedFont@touchgfx@@XZ:PROC ; getFont_calibri_20_4bpp
EXTRN	?getFont_calibri_40_4bpp@@YAAAVGeneratedFont@touchgfx@@XZ:PROC ; getFont_calibri_40_4bpp
EXTRN	?getFont_calibri_10_4bpp@@YAAAVGeneratedFont@touchgfx@@XZ:PROC ; getFont_calibri_10_4bpp
EXTRN	?getFont_calibri_34_4bpp@@YAAAVGeneratedFont@touchgfx@@XZ:PROC ; getFont_calibri_34_4bpp
EXTRN	?getFont_calibri_56_4bpp@@YAAAVGeneratedFont@touchgfx@@XZ:PROC ; getFont_calibri_56_4bpp
EXTRN	?getFont_ariblk_25_4bpp@@YAAAVGeneratedFont@touchgfx@@XZ:PROC ; getFont_ariblk_25_4bpp
EXTRN	?getFont_arial_20_4bpp@@YAAAVGeneratedFont@touchgfx@@XZ:PROC ; getFont_arial_20_4bpp
EXTRN	?getFont_arialbd_30_4bpp@@YAAAVGeneratedFont@touchgfx@@XZ:PROC ; getFont_arialbd_30_4bpp
EXTRN	@__CheckForDebuggerJustMyCode@4:PROC
EXTRN	__RTC_CheckEsp:PROC
EXTRN	__RTC_InitBase:PROC
EXTRN	__RTC_Shutdown:PROC
_BSS	SEGMENT
?touchgfx_fonts@@3PAPBVFont@touchgfx@@A DD 08H DUP (?)	; touchgfx_fonts
_BSS	ENDS
CRT$XCU	SEGMENT
?touchgfx_fonts$initializer$@@3P6AXXZA DD FLAT:??__Etouchgfx_fonts@@YAXXZ ; touchgfx_fonts$initializer$
CRT$XCU	ENDS
;	COMDAT rtc$TMZ
rtc$TMZ	SEGMENT
__RTC_Shutdown.rtc$TMZ DD FLAT:__RTC_Shutdown
rtc$TMZ	ENDS
;	COMDAT rtc$IMZ
rtc$IMZ	SEGMENT
__RTC_InitBase.rtc$IMZ DD FLAT:__RTC_InitBase
rtc$IMZ	ENDS
; Function compile flags: /Odt
;	COMDAT __JustMyCode_Default
_TEXT	SEGMENT
__JustMyCode_Default PROC				; COMDAT
	push	ebp
	mov	ebp, esp
	pop	ebp
	ret	0
__JustMyCode_Default ENDP
_TEXT	ENDS
; Function compile flags: /Odtp /RTCsu /ZI
;	COMDAT ??__Etouchgfx_fonts@@YAXXZ
text$di	SEGMENT
??__Etouchgfx_fonts@@YAXXZ PROC				; `dynamic initializer for 'touchgfx_fonts'', COMDAT
; File G:\Germany\Scanner\Firmware\Display_Board\TouchGFX\generated\texts\src\TypedTextDatabase.cpp
; Line 26
	push	ebp
	mov	ebp, esp
	sub	esp, 192				; 000000c0H
	push	ebx
	push	esi
	push	edi
	mov	edi, ebp
	xor	ecx, ecx
	mov	eax, -858993460				; ccccccccH
	rep stosd
	mov	ecx, OFFSET __5F1C7250_TypedTextDatabase@cpp
	call	@__CheckForDebuggerJustMyCode@4
; Line 18
	call	?getFont_calibri_20_4bpp@@YAAAVGeneratedFont@touchgfx@@XZ ; getFont_calibri_20_4bpp
	mov	DWORD PTR ?touchgfx_fonts@@3PAPBVFont@touchgfx@@A, eax
; Line 19
	call	?getFont_calibri_40_4bpp@@YAAAVGeneratedFont@touchgfx@@XZ ; getFont_calibri_40_4bpp
	mov	DWORD PTR ?touchgfx_fonts@@3PAPBVFont@touchgfx@@A+4, eax
; Line 20
	call	?getFont_calibri_10_4bpp@@YAAAVGeneratedFont@touchgfx@@XZ ; getFont_calibri_10_4bpp
	mov	DWORD PTR ?touchgfx_fonts@@3PAPBVFont@touchgfx@@A+8, eax
; Line 21
	call	?getFont_calibri_34_4bpp@@YAAAVGeneratedFont@touchgfx@@XZ ; getFont_calibri_34_4bpp
	mov	DWORD PTR ?touchgfx_fonts@@3PAPBVFont@touchgfx@@A+12, eax
; Line 22
	call	?getFont_calibri_56_4bpp@@YAAAVGeneratedFont@touchgfx@@XZ ; getFont_calibri_56_4bpp
	mov	DWORD PTR ?touchgfx_fonts@@3PAPBVFont@touchgfx@@A+16, eax
; Line 23
	call	?getFont_ariblk_25_4bpp@@YAAAVGeneratedFont@touchgfx@@XZ ; getFont_ariblk_25_4bpp
	mov	DWORD PTR ?touchgfx_fonts@@3PAPBVFont@touchgfx@@A+20, eax
; Line 24
	call	?getFont_arial_20_4bpp@@YAAAVGeneratedFont@touchgfx@@XZ ; getFont_arial_20_4bpp
	mov	DWORD PTR ?touchgfx_fonts@@3PAPBVFont@touchgfx@@A+24, eax
; Line 25
	call	?getFont_arialbd_30_4bpp@@YAAAVGeneratedFont@touchgfx@@XZ ; getFont_arialbd_30_4bpp
	mov	DWORD PTR ?touchgfx_fonts@@3PAPBVFont@touchgfx@@A+28, eax
	pop	edi
	pop	esi
	pop	ebx
	add	esp, 192				; 000000c0H
	cmp	ebp, esp
	call	__RTC_CheckEsp
	mov	esp, ebp
	pop	ebp
	ret	0
??__Etouchgfx_fonts@@YAXXZ ENDP				; `dynamic initializer for 'touchgfx_fonts''
text$di	ENDS
; Function compile flags: /Odtp /RTCsu /ZI
;	COMDAT ?getInstanceSize@TypedTextDatabase@@YAGXZ
_TEXT	SEGMENT
?getInstanceSize@TypedTextDatabase@@YAGXZ PROC		; TypedTextDatabase::getInstanceSize, COMDAT
; File G:\Germany\Scanner\Firmware\Display_Board\TouchGFX\generated\texts\src\TypedTextDatabase.cpp
; Line 97
	push	ebp
	mov	ebp, esp
	sub	esp, 192				; 000000c0H
	push	ebx
	push	esi
	push	edi
	mov	edi, ebp
	xor	ecx, ecx
	mov	eax, -858993460				; ccccccccH
	rep stosd
	mov	ecx, OFFSET __5F1C7250_TypedTextDatabase@cpp
	call	@__CheckForDebuggerJustMyCode@4
; Line 98
	mov	eax, 49					; 00000031H
; Line 99
	pop	edi
	pop	esi
	pop	ebx
	add	esp, 192				; 000000c0H
	cmp	ebp, esp
	call	__RTC_CheckEsp
	mov	esp, ebp
	pop	ebp
	ret	0
?getInstanceSize@TypedTextDatabase@@YAGXZ ENDP		; TypedTextDatabase::getInstanceSize
_TEXT	ENDS
; Function compile flags: /Odtp /RTCsu /ZI
;	COMDAT ?resetFont@TypedTextDatabase@@YAXG@Z
_TEXT	SEGMENT
tv65 = -196						; size = 4
_fontId$ = 8						; size = 2
?resetFont@TypedTextDatabase@@YAXG@Z PROC		; TypedTextDatabase::resetFont, COMDAT
; File G:\Germany\Scanner\Firmware\Display_Board\TouchGFX\generated\texts\src\TypedTextDatabase.cpp
; Line 114
	push	ebp
	mov	ebp, esp
	sub	esp, 196				; 000000c4H
	push	ebx
	push	esi
	push	edi
	lea	edi, DWORD PTR [ebp-4]
	mov	ecx, 1
	mov	eax, -858993460				; ccccccccH
	rep stosd
	mov	ecx, OFFSET __5F1C7250_TypedTextDatabase@cpp
	call	@__CheckForDebuggerJustMyCode@4
; Line 115
	movzx	eax, WORD PTR _fontId$[ebp]
	mov	DWORD PTR tv65[ebp], eax
	cmp	DWORD PTR tv65[ebp], 7
	ja	$LN1@resetFont
	mov	ecx, DWORD PTR tv65[ebp]
	jmp	DWORD PTR $LN13@resetFont[ecx*4]
$LN4@resetFont:
; Line 118
	call	?getFont_calibri_20_4bpp@@YAAAVGeneratedFont@touchgfx@@XZ ; getFont_calibri_20_4bpp
	mov	ecx, 4
	imul	edx, ecx, 0
	mov	DWORD PTR ?touchgfx_fonts@@3PAPBVFont@touchgfx@@A[edx], eax
; Line 119
	jmp	$LN1@resetFont
$LN5@resetFont:
; Line 121
	call	?getFont_calibri_40_4bpp@@YAAAVGeneratedFont@touchgfx@@XZ ; getFont_calibri_40_4bpp
	mov	ecx, 4
	shl	ecx, 0
	mov	DWORD PTR ?touchgfx_fonts@@3PAPBVFont@touchgfx@@A[ecx], eax
; Line 122
	jmp	SHORT $LN1@resetFont
$LN6@resetFont:
; Line 124
	call	?getFont_calibri_10_4bpp@@YAAAVGeneratedFont@touchgfx@@XZ ; getFont_calibri_10_4bpp
	mov	ecx, 4
	shl	ecx, 1
	mov	DWORD PTR ?touchgfx_fonts@@3PAPBVFont@touchgfx@@A[ecx], eax
; Line 125
	jmp	SHORT $LN1@resetFont
$LN7@resetFont:
; Line 127
	call	?getFont_calibri_34_4bpp@@YAAAVGeneratedFont@touchgfx@@XZ ; getFont_calibri_34_4bpp
	mov	ecx, 4
	imul	edx, ecx, 3
	mov	DWORD PTR ?touchgfx_fonts@@3PAPBVFont@touchgfx@@A[edx], eax
; Line 128
	jmp	SHORT $LN1@resetFont
$LN8@resetFont:
; Line 130
	call	?getFont_calibri_56_4bpp@@YAAAVGeneratedFont@touchgfx@@XZ ; getFont_calibri_56_4bpp
	mov	ecx, 4
	shl	ecx, 2
	mov	DWORD PTR ?touchgfx_fonts@@3PAPBVFont@touchgfx@@A[ecx], eax
; Line 131
	jmp	SHORT $LN1@resetFont
$LN9@resetFont:
; Line 133
	call	?getFont_ariblk_25_4bpp@@YAAAVGeneratedFont@touchgfx@@XZ ; getFont_ariblk_25_4bpp
	mov	ecx, 4
	imul	edx, ecx, 5
	mov	DWORD PTR ?touchgfx_fonts@@3PAPBVFont@touchgfx@@A[edx], eax
; Line 134
	jmp	SHORT $LN1@resetFont
$LN10@resetFont:
; Line 136
	call	?getFont_arial_20_4bpp@@YAAAVGeneratedFont@touchgfx@@XZ ; getFont_arial_20_4bpp
	mov	ecx, 4
	imul	edx, ecx, 6
	mov	DWORD PTR ?touchgfx_fonts@@3PAPBVFont@touchgfx@@A[edx], eax
; Line 137
	jmp	SHORT $LN1@resetFont
$LN11@resetFont:
; Line 139
	call	?getFont_arialbd_30_4bpp@@YAAAVGeneratedFont@touchgfx@@XZ ; getFont_arialbd_30_4bpp
	mov	ecx, 4
	imul	edx, ecx, 7
	mov	DWORD PTR ?touchgfx_fonts@@3PAPBVFont@touchgfx@@A[edx], eax
$LN1@resetFont:
; Line 142
	pop	edi
	pop	esi
	pop	ebx
	add	esp, 196				; 000000c4H
	cmp	ebp, esp
	call	__RTC_CheckEsp
	mov	esp, ebp
	pop	ebp
	ret	0
	npad	3
$LN13@resetFont:
	DD	$LN4@resetFont
	DD	$LN5@resetFont
	DD	$LN6@resetFont
	DD	$LN7@resetFont
	DD	$LN8@resetFont
	DD	$LN9@resetFont
	DD	$LN10@resetFont
	DD	$LN11@resetFont
?resetFont@TypedTextDatabase@@YAXG@Z ENDP		; TypedTextDatabase::resetFont
_TEXT	ENDS
; Function compile flags: /Odtp /RTCsu /ZI
;	COMDAT ?setFont@TypedTextDatabase@@YAPBVFont@touchgfx@@GPBV23@@Z
_TEXT	SEGMENT
_old$ = -8						; size = 4
_fontId$ = 8						; size = 2
_font$ = 12						; size = 4
?setFont@TypedTextDatabase@@YAPBVFont@touchgfx@@GPBV23@@Z PROC ; TypedTextDatabase::setFont, COMDAT
; File G:\Germany\Scanner\Firmware\Display_Board\TouchGFX\generated\texts\src\TypedTextDatabase.cpp
; Line 107
	push	ebp
	mov	ebp, esp
	sub	esp, 204				; 000000ccH
	push	ebx
	push	esi
	push	edi
	lea	edi, DWORD PTR [ebp-12]
	mov	ecx, 3
	mov	eax, -858993460				; ccccccccH
	rep stosd
	mov	ecx, OFFSET __5F1C7250_TypedTextDatabase@cpp
	call	@__CheckForDebuggerJustMyCode@4
; Line 108
	movzx	eax, WORD PTR _fontId$[ebp]
	mov	ecx, DWORD PTR ?touchgfx_fonts@@3PAPBVFont@touchgfx@@A[eax*4]
	mov	DWORD PTR _old$[ebp], ecx
; Line 109
	movzx	eax, WORD PTR _fontId$[ebp]
	mov	ecx, DWORD PTR _font$[ebp]
	mov	DWORD PTR ?touchgfx_fonts@@3PAPBVFont@touchgfx@@A[eax*4], ecx
; Line 110
	mov	eax, DWORD PTR _old$[ebp]
; Line 111
	pop	edi
	pop	esi
	pop	ebx
	add	esp, 204				; 000000ccH
	cmp	ebp, esp
	call	__RTC_CheckEsp
	mov	esp, ebp
	pop	ebp
	ret	0
?setFont@TypedTextDatabase@@YAPBVFont@touchgfx@@GPBV23@@Z ENDP ; TypedTextDatabase::setFont
_TEXT	ENDS
; Function compile flags: /Odtp /RTCsu /ZI
;	COMDAT ?getFonts@TypedTextDatabase@@YAPAPBVFont@touchgfx@@XZ
_TEXT	SEGMENT
?getFonts@TypedTextDatabase@@YAPAPBVFont@touchgfx@@XZ PROC ; TypedTextDatabase::getFonts, COMDAT
; File G:\Germany\Scanner\Firmware\Display_Board\TouchGFX\generated\texts\src\TypedTextDatabase.cpp
; Line 102
	push	ebp
	mov	ebp, esp
	sub	esp, 192				; 000000c0H
	push	ebx
	push	esi
	push	edi
	mov	edi, ebp
	xor	ecx, ecx
	mov	eax, -858993460				; ccccccccH
	rep stosd
	mov	ecx, OFFSET __5F1C7250_TypedTextDatabase@cpp
	call	@__CheckForDebuggerJustMyCode@4
; Line 103
	mov	eax, OFFSET ?touchgfx_fonts@@3PAPBVFont@touchgfx@@A ; touchgfx_fonts
; Line 104
	pop	edi
	pop	esi
	pop	ebx
	add	esp, 192				; 000000c0H
	cmp	ebp, esp
	call	__RTC_CheckEsp
	mov	esp, ebp
	pop	ebp
	ret	0
?getFonts@TypedTextDatabase@@YAPAPBVFont@touchgfx@@XZ ENDP ; TypedTextDatabase::getFonts
_TEXT	ENDS
; Function compile flags: /Odtp /RTCsu /ZI
;	COMDAT ?getInstance@TypedTextDatabase@@YAPBUTypedTextData@TypedText@touchgfx@@G@Z
_TEXT	SEGMENT
_id$ = 8						; size = 2
?getInstance@TypedTextDatabase@@YAPBUTypedTextData@TypedText@touchgfx@@G@Z PROC ; TypedTextDatabase::getInstance, COMDAT
; File G:\Germany\Scanner\Firmware\Display_Board\TouchGFX\generated\texts\src\TypedTextDatabase.cpp
; Line 92
	push	ebp
	mov	ebp, esp
	sub	esp, 192				; 000000c0H
	push	ebx
	push	esi
	push	edi
	mov	edi, ebp
	xor	ecx, ecx
	mov	eax, -858993460				; ccccccccH
	rep stosd
	mov	ecx, OFFSET __5F1C7250_TypedTextDatabase@cpp
	call	@__CheckForDebuggerJustMyCode@4
; Line 93
	movzx	eax, WORD PTR _id$[ebp]
	mov	eax, DWORD PTR ?typedTextDatabaseArray@@3QBQBUTypedTextData@TypedText@touchgfx@@B[eax*4]
; Line 94
	pop	edi
	pop	esi
	pop	ebx
	add	esp, 192				; 000000c0H
	cmp	ebp, esp
	call	__RTC_CheckEsp
	mov	esp, ebp
	pop	ebp
	ret	0
?getInstance@TypedTextDatabase@@YAPBUTypedTextData@TypedText@touchgfx@@G@Z ENDP ; TypedTextDatabase::getInstance
_TEXT	ENDS
END
